(lp0
(F1.9376310917338317
S'Cell[3].dend[15] syn_ = new FastInhib(0.214285714286)'
p1
I3
(dp2
S'seg'
p3
F0.8333333333333333
sS'hostfrom'
p4
F1.0
sS'gid'
p5
I97
sS'coords'
p6
cnumpy.core.multiarray
_reconstruct
p7
(cnumpy
ndarray
p8
(I0
tp9
S'b'
p10
tp11
Rp12
(I1
(I3
tp13
cnumpy
dtype
p14
(S'f8'
p15
I0
I1
tp16
Rp17
(I3
S'<'
p18
NNNI-1
I-1
I0
tp19
bI00
S'0G.ug^D\xc0\xb8\xaf\xa3\xa6\xe45Y\xc0\x8c\xd2\xc0\xd6VUL\xc0'
p20
tp21
bsS'secnames'
p22
S'Cell[2].axon[36]'
p23
sI97
I148
tp24
a(F1.6523676828213782
S'Cell[2].dend[2] syn_ = new FastInhib(0.833333333333)'
p25
I2
(dp26
S'seg'
p27
F0.5
sS'hostfrom'
p28
F2.0
sS'gid'
p29
I2
sS'coords'
p30
g7
(g8
(I0
tp31
g10
tp32
Rp33
(I1
(I3
tp34
g14
(S'f8'
p35
I0
I1
tp36
Rp37
(I3
S'<'
p38
NNNI-1
I-1
I0
tp39
bI00
S'\x99\x1c#\xa7~.S\xc0F\x85\x00\xe5J[S\xc0:#\x0b\xbe\xfa\xe0$@'
p40
tp41
bsS'secnames'
p42
S'Cell[0].axon[1]'
p43
sI2
I100
tp44
a(F2.329550922436199
S'Cell[0].apic[19] syn_ = new AmpaNmda(0.5)'
p45
I0
(dp46
g27
F0.5
sg28
F2.0
sg29
I98
sg30
g7
(g8
(I0
tp47
g10
tp48
Rp49
(I1
(I3
tp50
g37
I00
S'\xbf\x95\xf2(?\xab(\xc0r\xbb\xcb[V\x7f]@\xde\xfb\x8d\xcd\xd7h4\xc0'
p51
tp52
bsg42
S'Cell[2].axon[35]'
p53
sI98
I4
tp54
a(F2.2954189953764534
S'Cell[2].dend[49] syn_ = new FastInhib(0.166666666667)'
p55
I2
(dp56
g27
F0.16666666666666666
sg28
F2.0
sg29
I98
sg30
g7
(g8
(I0
tp57
g10
tp58
Rp59
(I1
(I3
tp60
g37
I00
S"}\xceh\xc3*oP@bR\x80'\xf4\xffK@\xb0\x8be.u\xdf\x16\xc0"
p61
tp62
bsg42
S'Cell[2].axon[186]'
p63
sI98
I100
tp64
a(F1.5734285802332664
S'Cell[2].dend[43] syn_ = new FastInhib(0.1)'
p65
I2
(dp66
g27
F0.16666666666666666
sg28
F2.0
sg29
I98
sg30
g7
(g8
(I0
tp67
g10
tp68
Rp69
(I1
(I3
tp70
g37
I00
S'\xe0\x9f\xear\xf5N+\xc0&\xedy\x18\xaevI@\xce\\9-\xe5\xb9<\xc0'
p71
tp72
bsg42
S'Cell[2].axon[300]'
p73
sI98
I100
tp74
a(F2.1476738674965437
S'Cell[2].dend[47] syn_ = new FastInhib(0.642857142857)'
p75
I2
(dp76
g27
F0.5
sg28
F2.0
sg29
I146
sg30
g7
(g8
(I0
tp77
g10
tp78
Rp79
(I1
(I3
tp80
g37
I00
S'\xc7^\xc4\xc0\x13\xc6Q@\xb6v\xdf1F\x89C@H_2\x99\xe4\x97H\xc0'
p81
tp82
bsg42
S'Cell[3].axon[180]'
p83
sI146
I100
tp84
a(F2.329550922436199
S'Cell[0].apic[19] syn_ = new ExpSid(0.5)'
p85
I0
(dp86
S'seg'
p87
F0.5
sS'hostfrom'
p88
F3.0
sS'gid'
p89
I99
sS'coords'
p90
g7
(g8
(I0
tp91
g10
tp92
Rp93
(I1
(I3
tp94
g14
(S'f8'
p95
I0
I1
tp96
Rp97
(I3
S'<'
p98
NNNI-1
I-1
I0
tp99
bI00
S'\xbf\x95\xf2(?\xab(\xc0r\xbb\xcb[V\x7f]@\xde\xfb\x8d\xcd\xd7h4\xc0'
p100
tp101
bsS'secnames'
p102
S'Cell[2].axon[35]'
p103
sI99
I4
tp104
a(F2.2954189953764534
S'Cell[2].dend[49] syn_ = new FastInhib(0.166666666667)'
p105
I2
(dp106
g87
F0.16666666666666666
sg88
F3.0
sg89
I99
sg90
g7
(g8
(I0
tp107
g10
tp108
Rp109
(I1
(I3
tp110
g97
I00
S"}\xceh\xc3*oP@bR\x80'\xf4\xffK@\xb0\x8be.u\xdf\x16\xc0"
p111
tp112
bsg102
S'Cell[2].axon[186]'
p113
sI99
I100
tp114
a(F1.5734285802332664
S'Cell[2].dend[43] syn_ = new FastInhib(0.1)'
p115
I2
(dp116
g87
F0.16666666666666666
sg88
F3.0
sg89
I99
sg90
g7
(g8
(I0
tp117
g10
tp118
Rp119
(I1
(I3
tp120
g97
I00
S'\xe0\x9f\xear\xf5N+\xc0&\xedy\x18\xaevI@\xce\\9-\xe5\xb9<\xc0'
p121
tp122
bsg102
S'Cell[2].axon[300]'
p123
sI99
I100
tp124
a(F1.2012691731170653
S'Cell[0].dend[18] syn_ = new ExpSid(0.5)'
p125
I0
(dp126
S'seg'
p127
F0.16666666666666666
sS'hostfrom'
p128
F5.0
sS'gid'
p129
I53
sS'coords'
p130
g7
(g8
(I0
tp131
g10
tp132
Rp133
(I1
(I3
tp134
g14
(S'f8'
p135
I0
I1
tp136
Rp137
(I3
S'<'
p138
NNNI-1
I-1
I0
tp139
bI00
S'\x9f/\x96\xec]nF@\xa9\xaf\x94\x8e\x9c\xcdB\xc0\x00\x00\x00`\x8fB @'
p140
tp141
bsS'secnames'
p142
S'Cell[1].axon[0]'
p143
sI53
I4
tp144
a(F1.9956933525023974
S'Cell[2].dend[54] syn_ = new FastInhib(0.5)'
p145
I2
(dp146
S'seg'
p147
F0.5
sS'hostfrom'
p148
F6.0
sS'gid'
p149
I6
sS'coords'
p150
g7
(g8
(I0
tp151
g10
tp152
Rp153
(I1
(I3
tp154
g14
(S'f8'
p155
I0
I1
tp156
Rp157
(I3
S'<'
p158
NNNI-1
I-1
I0
tp159
bI00
S'\x00\x00\x00@3\xb3,\xc0\x00\x00\x00@\n\xd7%\xc0\x00\x00\x00\x00)\\!\xc0'
p160
tp161
bsS'secnames'
p162
S'Cell[0].soma[0]'
p163
sI6
I100
tp164
a(F2.1518165381135885
S'Cell[0].dend[15] syn_ = new ExpSid(0.7)'
p165
I0
(dp166
S'seg'
p167
F0.5
sS'hostfrom'
p168
F7.0
sS'gid'
p169
I103
sS'coords'
p170
g7
(g8
(I0
tp171
g10
tp172
Rp173
(I1
(I3
tp174
g14
(S'f8'
p175
I0
I1
tp176
Rp177
(I3
S'<'
p178
NNNI-1
I-1
I0
tp179
bI00
S'(yed?g@\xc0\x9ej#\x83\xae/P\xc0\x00\x00\x00@3\xb3+\xc0'
p180
tp181
bsS'secnames'
p182
S'Cell[2].axon[78]'
p183
sI103
I4
tp184
a(F1.8583272922001433
S'Cell[0].apic[14] syn_ = new ExpSid(0.5)'
p185
I0
(dp186
g167
F0.3571428571428571
sg168
F7.0
sg169
I103
sg170
g7
(g8
(I0
tp187
g10
tp188
Rp189
(I1
(I3
tp190
g177
I00
S'\xd3\xd39%\x18%B@\xe4\xf6\xe2\xd5\xfc\x9fS@7\xe6P@\xc4t.\xc0'
p191
tp192
bsg182
S'Cell[2].axon[226]'
p193
sI103
I4
tp194
a(F0.6668820014423177
S'Cell[1].apic[29] syn_ = new ExpSid(0.3)'
p195
I1
(dp196
g167
F0.7
sg168
F7.0
sg169
I103
sg170
g7
(g8
(I0
tp197
g10
tp198
Rp199
(I1
(I3
tp200
g177
I00
S'\x0c\x94\xf6S9\xd7V@d\xd6\xd5\x02\xef\xa0\\@0\xf4\xf0\xdcHuN\xc0'
p201
tp202
bsg182
S'Cell[2].axon[329]'
p203
sI103
I52
tp204
a(F1.790017226722785
S'Cell[0].apic[28] syn_ = new ExpSid(0.5)'
p205
I0
(dp206
g167
F0.5
sg168
F7.0
sg169
I103
sg170
g7
(g8
(I0
tp207
g10
tp208
Rp209
(I1
(I3
tp210
g177
I00
S'\x00\x00\x00\xb0GQH@\x00\x00\x00\xe0\xa3\xbcb@\x00\x00\x00 \\\x8f/\xc0'
p211
tp212
bsg182
S'Cell[2].axon[335]'
p213
sI103
I4
tp214
a(F1.090869771359678
S'Cell[0].dend[14] syn_ = new ExpSid(0.5)'
p215
I0
(dp216
g167
F0.1
sg168
F7.0
sg169
I151
sg170
g7
(g8
(I0
tp217
g10
tp218
Rp219
(I1
(I3
tp220
g177
I00
S'\xf0z\x1b<W\x137@\x1fJ\x00\xf0hq`\xc0\x19\xd5\x93\xf2\x85\xa1(\xc0'
p221
tp222
bsg182
S'Cell[3].axon[155]'
p223
sI151
I4
tp224
a(F1.999300068267378
S'Cell[2].dend[35] syn_ = new FastInhib(0.5)'
p225
I2
(dp226
g167
F0.49999999999999994
sg168
F7.0
sg169
I151
sg170
g7
(g8
(I0
tp227
g10
tp228
Rp229
(I1
(I3
tp230
g177
I00
S'\xc1ZG\xd7\xe8\x17:\xc0z\xdb\xeb\xfdVx8@\x00\x00\x00 \\\xcf<\xc0'
p231
tp232
bsg182
S'Cell[3].axon[253]'
p233
sI151
I100
tp234
a(F1.9703722192352928
S'Cell[1].dend[15] syn_ = new AmpaNmda(0.5)'
p235
I1
(dp236
S'seg'
p237
F0.5
sS'hostfrom'
p238
F8.0
sS'gid'
p239
I152
sS'coords'
p240
g7
(g8
(I0
tp241
g10
tp242
Rp243
(I1
(I3
tp244
g14
(S'f8'
p245
I0
I1
tp246
Rp247
(I3
S'<'
p248
NNNI-1
I-1
I0
tp249
bI00
S'+\ttw|\xaeO@\xdeaGZ\x16\xa4)@\x00\x00\x00\x00),S\xc0'
p250
tp251
bsS'secnames'
p252
S'Cell[3].axon[100]'
p253
sI152
I52
tp254
a(F2.257123282266068
S'Cell[1].dend[15] syn_ = new AmpaNmda(0.5)'
p255
I1
(dp256
g237
F0.5
sg238
F8.0
sg239
I152
sg240
g7
(g8
(I0
tp257
g10
tp258
Rp259
(I1
(I3
tp260
g247
I00
S'\xe6ab\x9a\x15BN@\xdf\xf7\xcc&\xed\x94)@\x00\x00\x00\x80\x14\x9eS\xc0'
p261
tp262
bsg252
S'Cell[3].axon[101]'
p263
sI152
I52
tp264
a(F2.182672338514051
S'Cell[2].dend[43] syn_ = new FastInhib(0.1)'
p265
I2
(dp266
g237
F0.5
sg238
F8.0
sg239
I152
sg240
g7
(g8
(I0
tp267
g10
tp268
Rp269
(I1
(I3
tp270
g247
I00
S'\x00\x00\x00@\xe1\xfa$\xc0\x00\x00\x000\\\xafH@\x00\x00\x00 \x85\x8b;\xc0'
p271
tp272
bsg252
S'Cell[3].axon[356]'
p273
sI152
I100
tp274
a(F1.8587964693620156
S'Cell[2].dend[28] syn_ = new FastInhib(0.5)'
p275
I2
(dp276
g237
F0.5
sg238
F8.0
sg239
I104
sg240
g7
(g8
(I0
tp277
g10
tp278
Rp279
(I1
(I3
tp280
g247
I00
S'\xe8\x00\xc5+\x04\x7f6\xc0\xcc7\x01\xb9\x8e\xa8B\xc0\xd0\xa8\xa8\x9ciL\xd6?'
p281
tp282
bsg252
S'Cell[2].axon[1]'
p283
sI104
I100
tp284
a(F1.1806160590188042
S'Cell[0].apic[14] syn_ = new AmpaNmda(0.5)'
p285
I0
(dp286
g237
F0.5
sg238
F8.0
sg239
I104
sg240
g7
(g8
(I0
tp287
g10
tp288
Rp289
(I1
(I3
tp290
g247
I00
S'>\xd1]\xc1\xa1\xf3A@i\x9cK\xc4\xafkS@\x0b\xc6(3w\x97-\xc0'
p291
tp292
bsg252
S'Cell[2].axon[158]'
p293
sI104
I4
tp294
a(F2.349412952592639
S'Cell[2].dend[34] syn_ = new FastInhib(0.5)'
p295
I2
(dp296
g237
F0.16666666666666666
sg238
F8.0
sg239
I104
sg240
g7
(g8
(I0
tp297
g10
tp298
Rp299
(I1
(I3
tp300
g247
I00
S'\xf5\x1a:\x90\xc6\x0e9\xc0~l\xc8\xb2\x1a^\x10@O\xcd\xbf\xf0D\x88$\xc0'
p301
tp302
bsg252
S'Cell[2].axon[182]'
p303
sI104
I100
tp304
a(F0.7820974377373473
S'Cell[2].dend[43] syn_ = new FastInhib(0.1)'
p305
I2
(dp306
g237
F0.16666666666666666
sg238
F8.0
sg239
I104
sg240
g7
(g8
(I0
tp307
g10
tp308
Rp309
(I1
(I3
tp310
g247
I00
S"W\x8f\x89\xd9\xab\xb7'\xc0\x0e\xf5Z\x01\x8cJI@\x11\x18\xef\x89\xd3\x06<\xc0"
p311
tp312
bsg252
S'Cell[2].axon[351]'
p313
sI104
I100
tp314
a(F1.4560447746169747
S'Cell[2].dend[38] syn_ = new FastInhib(0.5)'
p315
I2
(dp316
g237
F0.5
sg238
F8.0
sg239
I104
sg240
g7
(g8
(I0
tp317
g10
tp318
Rp319
(I1
(I3
tp320
g247
I00
S'pIV.\xc5\xdaB\xc0]4\xd0\x01b\xbdJ@\xbc\x00XH\xf28F\xc0'
p321
tp322
bsg252
S'Cell[2].axon[376]'
p323
sI104
I100
tp324
a(F1.8959476556125154
S'Cell[0].dend[15] syn_ = new ExpSid(0.3)'
p325
I0
(dp326
S'seg'
p327
F0.8333333333333333
sS'hostfrom'
p328
F9.0
sS'gid'
p329
I153
sS'coords'
p330
g7
(g8
(I0
tp331
g10
tp332
Rp333
(I1
(I3
tp334
g14
(S'f8'
p335
I0
I1
tp336
Rp337
(I3
S'<'
p338
NNNI-1
I-1
I0
tp339
bI00
S'n>\xbf\xa1\xc7f2@\n\\a\xe1,\tJ\xc0\xacS\x0b\xb36\xd5&\xc0'
p340
tp341
bsS'secnames'
p342
S'Cell[3].axon[15]'
p343
sI153
I4
tp344
a(F1.1359395088104345
S'Cell[0].dend[19] syn_ = new ExpSid(0.1)'
p345
I0
(dp346
g327
F0.5
sg328
F9.0
sg329
I153
sg330
g7
(g8
(I0
tp347
g10
tp348
Rp349
(I1
(I3
tp350
g337
I00
S"\x1a,R8&d@@\x8b'\x04f\xd6\xd3D\xc0P\x1d\xe9\xc5PW%@"
p351
tp352
bsg342
S'Cell[3].axon[20]'
p353
sI153
I4
tp354
a(F2.196219534425844
S'Cell[0].apic[17] syn_ = new ExpSid(0.166666666667)'
p355
I0
(dp356
g327
F0.16666666666666666
sg328
F9.0
sg329
I153
sg330
g7
(g8
(I0
tp357
g10
tp358
Rp359
(I1
(I3
tp360
g337
I00
S"9o\xf6^\xd3;F@8\xf0\xd0\x8c\xa4\xe1P@\x00\x00\x00\x00)\\'\xc0"
p361
tp362
bsg342
S'Cell[3].axon[81]'
p363
sI153
I4
tp364
a(F2.303247675820332
S'Cell[0].apic[28] syn_ = new ExpSid(0.5)'
p365
I0
(dp366
g327
F0.8333333333333333
sg328
F9.0
sg329
I153
sg330
g7
(g8
(I0
tp367
g10
tp368
Rp369
(I1
(I3
tp370
g337
I00
S'X[e\x85\\&H@\xf51\n\x92\x10\xaab@\xdeu\xe3\xbe\x10\xca2\xc0'
p371
tp372
bsg342
S'Cell[3].axon[200]'
p373
sI153
I4
tp374
a(F0.8078009786520894
S'Cell[2].dend[32] syn_ = new FastInhib(0.1)'
p375
I2
(dp376
g327
F0.5
sg328
F9.0
sg329
I9
sg330
g7
(g8
(I0
tp377
g10
tp378
Rp379
(I1
(I3
tp380
g337
I00
S'\x83(\x13\xb9\xa6e\x14\xc0x\x1b\xb9\x0e\x80\xf7G\xc0\xaf\xec\xf1\xd8^\xe9\x01@'
p381
tp382
bsg342
S'Cell[0].axon[19]'
p383
sI9
I100
tp384
a(F1.2532103582497045
S'Cell[0].apic[27] syn_ = new AmpaNmda(0.833333333333)'
p385
I0
(dp386
S'seg'
p387
F0.8333333333333333
sS'hostfrom'
p388
F10.0
sS'gid'
p389
I106
sS'coords'
p390
g7
(g8
(I0
tp391
g10
tp392
Rp393
(I1
(I3
tp394
g14
(S'f8'
p395
I0
I1
tp396
Rp397
(I3
S'<'
p398
NNNI-1
I-1
I0
tp399
bI00
S'\r\xc5\xb9\x80w\xd4H@\x13\x07D\x06\x17-b@_.\x96Y\r\xf6%\xc0'
p400
tp401
bsS'secnames'
p402
S'Cell[2].axon[58]'
p403
sI106
I4
tp404
a(F2.495233731954487
S'Cell[2].dend[54] syn_ = new FastInhib(0.5)'
p405
I2
(dp406
g387
F0.5
sg388
F10.0
sg389
I106
sg390
g7
(g8
(I0
tp407
g10
tp408
Rp409
(I1
(I3
tp410
g397
I00
S"\x00\x00\x00\x90G\xe1+\xc0\x00\x00\x00\x08\xd7c \xc0\x00\x00\x00\xc0\xcc\xcc'\xc0"
p411
tp412
bsg402
S'Cell[2].axon[123]'
p413
sI106
I100
tp414
a(F0.763367275483334
S'Cell[2].dend[33] syn_ = new FastInhib(0.5)'
p415
I2
(dp416
g387
F0.5
sg388
F10.0
sg389
I106
sg390
g7
(g8
(I0
tp417
g10
tp418
Rp419
(I1
(I3
tp420
g397
I00
S'\xdc,%\n\x1dP6\xc0\xca\x9a*M\x838\xf9\xbf|\xa1\x18Rlw%\xc0'
p421
tp422
bsg402
S'Cell[2].axon[129]'
p423
sI106
I100
tp424
a(F1.3028697048008642
S'Cell[2].dend[54] syn_ = new FastInhib(0.5)'
p425
I2
(dp426
g387
F0.5
sg388
F10.0
sg389
I106
sg390
g7
(g8
(I0
tp427
g10
tp428
Rp429
(I1
(I3
tp430
g397
I00
S'\rY\xc7Q\x9f\x8f+\xc0\xb9\xd4@[\xbd\xa5%\xc0*;!\xae\x14i$\xc0'
p431
tp432
bsg402
S'Cell[2].axon[130]'
p433
sI106
I100
tp434
a(F2.1118678774571427
S'Cell[2].dend[0] syn_ = new FastInhib(0.5)'
p435
I2
(dp436
g387
F0.8333333333333333
sg388
F10.0
sg389
I106
sg390
g7
(g8
(I0
tp437
g10
tp438
Rp439
(I1
(I3
tp440
g397
I00
S'Ys\xeep\xa18A\xc0r\xc0\xdb5\xcf\xbd9\xc0(\xe57\xbf\xf3\xd9\xf0?'
p441
tp442
bsg402
S'Cell[2].axon[133]'
p443
sI106
I100
tp444
a(F2.3131742321130058
S'Cell[0].apic[16] syn_ = new ExpSid(0.5)'
p445
I0
(dp446
S'seg'
p447
F0.5
sS'hostfrom'
p448
F11.0
sS'gid'
p449
I155
sS'coords'
p450
g7
(g8
(I0
tp451
g10
tp452
Rp453
(I1
(I3
tp454
g14
(S'f8'
p455
I0
I1
tp456
Rp457
(I3
S'<'
p458
NNNI-1
I-1
I0
tp459
bI00
S'j5\xe9C\xa7\xd6)@u\xfa\x1f\x15\xe8\xf9X@&\xaf4p\x02w7\xc0'
p460
tp461
bsS'secnames'
p462
S'Cell[3].axon[57]'
p463
sI155
I4
tp464
a(F0.9537667395388778
S'Cell[2].dend[51] syn_ = new FastInhib(0.9)'
p465
I2
(dp466
g447
F0.5
sg448
F11.0
sg449
I155
sg450
g7
(g8
(I0
tp467
g10
tp468
Rp469
(I1
(I3
tp470
g457
I00
S'gX\xfc/\xab\xcfX\xc0\xcf&\xfb ?5<@\x00\x00\x00 \x85\x9bS\xc0'
p471
tp472
bsg462
S'Cell[3].axon[210]'
p473
sI155
I100
tp474
a(F0.6106834122434794
S'Cell[1].dend[2] syn_ = new AmpaNmda(0.5)'
p475
I1
(dp476
S'seg'
p477
F0.16666666666666666
sS'hostfrom'
p478
F12.0
sS'gid'
p479
I108
sS'coords'
p480
g7
(g8
(I0
tp481
g10
tp482
Rp483
(I1
(I3
tp484
g14
(S'f8'
p485
I0
I1
tp486
Rp487
(I3
S'<'
p488
NNNI-1
I-1
I0
tp489
bI00
S'%\x1f\x9f\x1d\x91\x1bR@\xb0\xbd$O7QQ@ti\xe1\x84H\xe48@'
p490
tp491
bsS'secnames'
p492
S'Cell[2].axon[29]'
p493
sI108
I52
tp494
a(F2.248573459454104
S'Cell[2].dend[13] syn_ = new FastInhib(0.357142857143)'
p495
I2
(dp496
S'seg'
p497
F0.5
sS'hostfrom'
p498
F13.0
sS'gid'
p499
I157
sS'coords'
p500
g7
(g8
(I0
tp501
g10
tp502
Rp503
(I1
(I3
tp504
g14
(S'f8'
p505
I0
I1
tp506
Rp507
(I3
S'<'
p508
NNNI-1
I-1
I0
tp509
bI00
S'\xe2\xf6\xe9\xfe\x17\xc7L\xc0\xcb\xcf\x15?\xf0\xc32\xc0\xbeE\xe3R\xed\xcdW\xc0'
p510
tp511
bsS'secnames'
p512
S'Cell[3].axon[25]'
p513
sI157
I100
tp514
a(F2.351251088645852
S'Cell[0].apic[0] syn_ = new ExpSid(0.5)'
p515
I0
(dp516
g497
F0.8333333333333333
sg498
F13.0
sg499
I109
sg500
g7
(g8
(I0
tp517
g10
tp518
Rp519
(I1
(I3
tp520
g507
I00
S' \xe0\x1a\x08\xbd\x05P@\xef\x8e\x88xG!$@\x8e4\xeb{\x0bf\xf5\xbf'
p521
tp522
bsg512
S'Cell[2].axon[131]'
p523
sI109
I4
tp524
a(F2.384707805866366
S'Cell[0].dend[20] syn_ = new ExpSid(0.3)'
p525
I0
(dp526
g497
F0.5
sg498
F13.0
sg499
I13
sg500
g7
(g8
(I0
tp527
g10
tp528
Rp529
(I1
(I3
tp530
g507
I00
S'\xfe\xc9E\xc7\x1e\xa0*@\xcb{\x91&<PS\xc0_\x1e\x9a\x08\x17\xfd\x07@'
p531
tp532
bsg512
S'Cell[0].axon[6]'
p533
sI13
I4
tp534
a(F2.1835667687164904
S'Cell[2].dend[49] syn_ = new FastInhib(0.5)'
p535
I2
(dp536
S'seg'
p537
F0.5
sS'hostfrom'
p538
F14.0
sS'gid'
p539
I110
sS'coords'
p540
g7
(g8
(I0
tp541
g10
tp542
Rp543
(I1
(I3
tp544
g14
(S'f8'
p545
I0
I1
tp546
Rp547
(I3
S'<'
p548
NNNI-1
I-1
I0
tp549
bI00
S'\xc6\xb0\xd7#\x81\x88P@\xc0H\xe9_\xd0\xafM@\xe2\xb0\xb9\xcdnb\x07@'
p550
tp551
bsS'secnames'
p552
S'Cell[2].axon[159]'
p553
sI110
I100
tp554
a(F2.315045500851321
S'Cell[0].apic[17] syn_ = new ExpSid(0.5)'
p555
I0
(dp556
S'seg'
p557
F0.5
sS'hostfrom'
p558
F15.0
sS'gid'
p559
I159
sS'coords'
p560
g7
(g8
(I0
tp561
g10
tp562
Rp563
(I1
(I3
tp564
g14
(S'f8'
p565
I0
I1
tp566
Rp567
(I3
S'<'
p568
NNNI-1
I-1
I0
tp569
bI00
S";\x81\x11\x1bIF:@\x90\x02\xb43\xda\x81U@F\xa1\xa5\xe2s\xb4'\xc0"
p570
tp571
bsS'secnames'
p572
S'Cell[3].axon[16]'
p573
sI159
I4
tp574
a(F1.0661372581995106
S'Cell[2].dend[0] syn_ = new FastInhib(0.5)'
p575
I2
(dp576
S'seg'
p577
F0.7857142857142856
sS'hostfrom'
p578
F16.0
sS'gid'
p579
I112
sS'coords'
p580
g7
(g8
(I0
tp581
g10
tp582
Rp583
(I1
(I3
tp584
g14
(S'f8'
p585
I0
I1
tp586
Rp587
(I3
S'<'
p588
NNNI-1
I-1
I0
tp589
bI00
S'K\x07\xa9B\xf6\x9aA\xc0\xa8^\\\xce\x94x:\xc0L\x04&\xf1*\xf9\xf8\xbf'
p590
tp591
bsS'secnames'
p592
S'Cell[2].axon[207]'
p593
sI112
I100
tp594
a(F1.719075763837142
S'Cell[0].dend[10] syn_ = new ExpSid(0.5)'
p595
I0
(dp596
S'seg'
p597
F0.5
sS'hostfrom'
p598
F17.0
sS'gid'
p599
I113
sS'coords'
p600
g7
(g8
(I0
tp601
g10
tp602
Rp603
(I1
(I3
tp604
g14
(S'f8'
p605
I0
I1
tp606
Rp607
(I3
S'<'
p608
NNNI-1
I-1
I0
tp609
bI00
S'\x1ab\x9c\x08\xdc\xc8H@$;\xc6A\x07\x9cS\xc0*\xb7V\xd7\xa5\x1e\xfe?'
p610
tp611
bsS'secnames'
p612
S'Cell[2].axon[95]'
p613
sI113
I4
tp614
a(F2.2737812576939866
S'Cell[0].dend[10] syn_ = new ExpSid(0.5)'
p615
I0
(dp616
g597
F0.5
sg598
F17.0
sg599
I113
sg600
g7
(g8
(I0
tp617
g10
tp618
Rp619
(I1
(I3
tp620
g607
I00
S'\x04\x92\xf3\xe7\x02\x82I@Q\x9f\xf6uT\x02T\xc0L[\xe0\xe8\xf5-\xd8\xbf'
p621
tp622
bsg612
S'Cell[2].axon[121]'
p623
sI113
I4
tp624
a(F1.7164362424012314
S'Cell[2].dend[55] syn_ = new FastInhib(0.5)'
p625
I2
(dp626
g597
F0.5
sg598
F17.0
sg599
I113
sg600
g7
(g8
(I0
tp627
g10
tp628
Rp629
(I1
(I3
tp630
g607
I00
S'V\xd6\x1c\xfb\x165"@\xd5\xfe\x1c\xcd\xce\xb72\xc0\xcf\xdc\xd4\xa8\x889\x1e\xc0'
p631
tp632
bsg612
S'Cell[2].axon[501]'
p633
sI113
I100
tp634
a(F1.5071145365128489
S'Cell[2].dend[55] syn_ = new FastInhib(0.5)'
p635
I2
(dp636
g597
F0.16666666666666666
sg598
F17.0
sg599
I113
sg600
g7
(g8
(I0
tp637
g10
tp638
Rp639
(I1
(I3
tp640
g607
I00
S'\xe1w\xde\xb7xx\x19@\xb7t\x9c\xe2o\xd21\xc0\x14\xdb\x9a\xaf\xbdb\x19\xc0'
p641
tp642
bsg612
S'Cell[2].axon[503]'
p643
sI113
I100
tp644
a(F1.8789856262592435
S'Cell[2].dend[55] syn_ = new FastInhib(0.5)'
p645
I2
(dp646
g597
F0.5
sg598
F17.0
sg599
I113
sg600
g7
(g8
(I0
tp647
g10
tp648
Rp649
(I1
(I3
tp650
g607
I00
S'.@\xf1\xbe\xa2\x17\x19@\xea\xd0\x8b-T\xe22\xc0\x00\x00\x00@\n\xd7\x1c\xc0'
p651
tp652
bsg612
S'Cell[2].axon[504]'
p653
sI113
I100
tp654
a(F2.453391969594693
S'Cell[3].dend[10] syn_ = new FastInhib(0.0714285714286)'
p655
I3
(dp656
g597
F0.16666666666666666
sg598
F17.0
sg599
I113
sg600
g7
(g8
(I0
tp657
g10
tp658
Rp659
(I1
(I3
tp660
g607
I00
S'\x16\xd2(?\x0c\xe8C@\xff\x16s\xb0-\xf7W\xc0y\xe6\xba\xe1%\xd94\xc0'
p661
tp662
bsg612
S'Cell[2].axon[742]'
p663
sI113
I148
tp664
a(F2.1757791276372345
S'Cell[0].apic[20] syn_ = new ExpSid(0.5)'
p665
I0
(dp666
g597
F0.5
sg598
F17.0
sg599
I161
sg600
g7
(g8
(I0
tp667
g10
tp668
Rp669
(I1
(I3
tp670
g607
I00
S'\xa4]\xe4C\x18\x03P@\xb55\xf1\x08\x8cJP@.\xa2\x94|J.\x10\xc0'
p671
tp672
bsg612
S'Cell[3].axon[43]'
p673
sI161
I4
tp674
a(F1.7898584922865368
S'Cell[2].dend[28] syn_ = new FastInhib(0.5)'
p675
I2
(dp676
g597
F0.1
sg598
F17.0
sg599
I65
sg600
g7
(g8
(I0
tp677
g10
tp678
Rp679
(I1
(I3
tp680
g607
I00
S'\x03\x8c`\xd9\xc368\xc0\xef\xf6\xc1\xb90\x80A\xc0\x80N \x1a\xaa-\xa9\xbf'
p681
tp682
bsg612
S'Cell[1].axon[13]'
p683
sI65
I100
tp684
a(F2.4715486957479134
S'Cell[0].dend[26] syn_ = new AmpaNmda(0.1)'
p685
I0
(dp686
S'seg'
p687
F0.5
sS'hostfrom'
p688
F18.0
sS'gid'
p689
I114
sS'coords'
p690
g7
(g8
(I0
tp691
g10
tp692
Rp693
(I1
(I3
tp694
g14
(S'f8'
p695
I0
I1
tp696
Rp697
(I3
S'<'
p698
NNNI-1
I-1
I0
tp699
bI00
S'\x8d\xb1=\xa5c\r7@P|&u\x9d,!\xc0VirW\xd7\x85\xfc\xbf'
p700
tp701
bsS'secnames'
p702
S'Cell[2].axon[83]'
p703
sI114
I4
tp704
a(F2.2218305405812075
S'Cell[0].dend[15] syn_ = new AmpaNmda(0.3)'
p705
I0
(dp706
g687
F0.5
sg688
F18.0
sg689
I66
sg690
g7
(g8
(I0
tp707
g10
tp708
Rp709
(I1
(I3
tp710
g697
I00
S'j9YM}$5@\x0b\xe8\x89\x05*\xbfI\xc0\x8eb\x17\x8e0\xac&\xc0'
p711
tp712
bsg702
S'Cell[1].axon[7]'
p713
sI66
I4
tp714
a(F2.2273751576859384
S'Cell[1].dend[23] syn_ = new AmpaNmda(0.5)'
p715
I1
(dp716
g687
F0.5
sg688
F18.0
sg689
I162
sg690
g7
(g8
(I0
tp717
g10
tp718
Rp719
(I1
(I3
tp720
g697
I00
S'\x94-\r\xacY?@@\x10\xfd\x85_\x97\x004@\x0c\xf2\xbc1\xf4\x82A\xc0'
p721
tp722
bsg702
S'Cell[3].axon[18]'
p723
sI162
I52
tp724
a(F2.341572578808723
S'Cell[0].dend[26] syn_ = new ExpSid(0.7)'
p725
I0
(dp726
S'seg'
p727
F0.5
sS'hostfrom'
p728
F19.0
sS'gid'
p729
I67
sS'coords'
p730
g7
(g8
(I0
tp731
g10
tp732
Rp733
(I1
(I3
tp734
g14
(S'f8'
p735
I0
I1
tp736
Rp737
(I3
S'<'
p738
NNNI-1
I-1
I0
tp739
bI00
S'*\xd1\x94\xd7\xb2\xd1N\xc0a\xf8\x9aL}\xf65@\xbe\xc6i?\x06\x0c0\xc0'
p740
tp741
bsS'secnames'
p742
S'Cell[1].axon[1]'
p743
sI67
I4
tp744
a(F1.6051965135099648
S'Cell[0].dend[14] syn_ = new ExpSid(0.5)'
p745
I0
(dp746
g727
F0.8333333333333333
sg728
F19.0
sg729
I67
sg730
g7
(g8
(I0
tp747
g10
tp748
Rp749
(I1
(I3
tp750
g737
I00
S'\x80\xb7\xab\xa9q\x127@1&K\xf4ri`\xc0<\x05c<[\xc5#\xc0'
p751
tp752
bsg742
S'Cell[1].axon[17]'
p753
sI67
I4
tp754
a(F2.056538028311114
S'Cell[0].dend[22] syn_ = new AmpaNmda(0.7)'
p755
I0
(dp756
S'seg'
p757
F0.8333333333333333
sS'hostfrom'
p758
F20.0
sS'gid'
p759
I116
sS'coords'
p760
g7
(g8
(I0
tp761
g10
tp762
Rp763
(I1
(I3
tp764
g14
(S'f8'
p765
I0
I1
tp766
Rp767
(I3
S'<'
p768
NNNI-1
I-1
I0
tp769
bI00
S'2\xc3%~\x0e\x91D\xc0\xe3\xba\xf1\xec\x19]S\xc0\x83\x026\xc3m\xd2#\xc0'
p770
tp771
bsS'secnames'
p772
S'Cell[2].axon[186]'
p773
sI116
I4
tp774
a(F1.9918394066368288
S'Cell[2].dend[2] syn_ = new FastInhib(0.166666666667)'
p775
I2
(dp776
S'seg'
p777
F0.16666666666666666
sS'hostfrom'
p778
F21.0
sS'gid'
p779
I165
sS'coords'
p780
g7
(g8
(I0
tp781
g10
tp782
Rp783
(I1
(I3
tp784
g14
(S'f8'
p785
I0
I1
tp786
Rp787
(I3
S'<'
p788
NNNI-1
I-1
I0
tp789
bI00
S'\xe5\x1a\x19\xb9\x0b{E\xc0iW\xcd\x08\xf8\x13D\xc0X\xe52B\xfd\x80\xf1?'
p790
tp791
bsS'secnames'
p792
S'Cell[3].axon[86]'
p793
sI165
I100
tp794
a(F2.393112676659795
S'Cell[0].dend[22] syn_ = new ExpSid(0.7)'
p795
I0
(dp796
g777
F0.16666666666666666
sg778
F21.0
sg779
I165
sg780
g7
(g8
(I0
tp797
g10
tp798
Rp799
(I1
(I3
tp800
g787
I00
S'jN\xd93\xc3;C\xc0\x16H\xef\x99\xa5\xb3S\xc0\x18HZ\xc7\\\xc6#\xc0'
p801
tp802
bsg792
S'Cell[3].axon[87]'
p803
sI165
I4
tp804
a(F2.186004237201444
S'Cell[1].dend[20] syn_ = new ExpSid(0.9)'
p805
I1
(dp806
g777
F0.8333333333333333
sg778
F21.0
sg779
I117
sg780
g7
(g8
(I0
tp807
g10
tp808
Rp809
(I1
(I3
tp810
g787
I00
S'\xf8\xc5\x87\xe7\xe8\\9\xc0\xbc\xf0S\x02\x02\x1a:@\x00\x00\x00\x80\xc2u9\xc0'
p811
tp812
bsg792
S'Cell[2].axon[271]'
p813
sI117
I52
tp814
a(F1.7777400093971079
S'Cell[2].dend[35] syn_ = new FastInhib(0.166666666667)'
p815
I2
(dp816
g777
F0.8333333333333333
sg778
F21.0
sg779
I117
sg780
g7
(g8
(I0
tp817
g10
tp818
Rp819
(I1
(I3
tp820
g787
I00
S'\x84\xb9&\x00~\x9e7\xc0\xb20.\xd5\xf4\xe8#@\xe8,\x91\x12\xbe\xda1\xc0'
p821
tp822
bsg792
S'Cell[2].axon[359]'
p823
sI117
I100
tp824
a(F2.0244131797928344
S'Cell[2].dend[58] syn_ = new FastInhib(0.1)'
p825
I2
(dp826
g777
F0.07142857142857142
sg778
F21.0
sg779
I117
sg780
g7
(g8
(I0
tp827
g10
tp828
Rp829
(I1
(I3
tp830
g787
I00
S'\xbcMc`c%\x1a@\xf0\xd7\xf4\r<\xeb+\xc0\xdd\xca\r\xc67\xab)\xc0'
p831
tp832
bsg792
S'Cell[2].axon[360]'
p833
sI117
I100
tp834
a(F1.744522470087888
S'Cell[2].dend[47] syn_ = new FastInhib(0.357142857143)'
p835
I2
(dp836
S'seg'
p837
F0.5
sS'hostfrom'
p838
F22.0
sS'gid'
p839
I166
sS'coords'
p840
g7
(g8
(I0
tp841
g10
tp842
Rp843
(I1
(I3
tp844
g14
(S'f8'
p845
I0
I1
tp846
Rp847
(I3
S'<'
p848
NNNI-1
I-1
I0
tp849
bI00
S'\xcez\x0c\x16\xa0z@@t\xcbN\x04\x12~B@\x00\x00\x00\xe0\xa3PC\xc0'
p850
tp851
bsS'secnames'
p852
S'Cell[3].axon[204]'
p853
sI166
I100
tp854
a(F2.2103191656683414
S'Cell[1].apic[29] syn_ = new AmpaNmda(0.7)'
p855
I1
(dp856
g837
F0.1
sg838
F22.0
sg839
I166
sg840
g7
(g8
(I0
tp857
g10
tp858
Rp859
(I1
(I3
tp860
g847
I00
S'T\x13i*#\xc4`@";\xd2`PZ`@\x80\x92U\xc7\xa1\xb9S\xc0'
p861
tp862
bsg852
S'Cell[3].axon[314]'
p863
sI166
I52
tp864
a(F2.294722957317415
S'Cell[2].dend[34] syn_ = new FastInhib(0.5)'
p865
I2
(dp866
S'seg'
p867
F0.8333333333333333
sS'hostfrom'
p868
F23.0
sS'gid'
p869
I71
sS'coords'
p870
g7
(g8
(I0
tp871
g10
tp872
Rp873
(I1
(I3
tp874
g14
(S'f8'
p875
I0
I1
tp876
Rp877
(I3
S'<'
p878
NNNI-1
I-1
I0
tp879
bI00
S'\xd3r\x13\x02\xbc\xba8\xc0@\xa5\xd7\xf4\x84L\x0c@\xfd;l\xd3\xc2\xdc#\xc0'
p880
tp881
bsS'secnames'
p882
S'Cell[1].axon[22]'
p883
sI71
I100
tp884
a(F2.0387476369725555
S'Cell[2].dend[17] syn_ = new FastInhib(0.214285714286)'
p885
I2
(dp886
S'seg'
p887
F0.5
sS'hostfrom'
p888
F24.0
sS'gid'
p889
I168
sS'coords'
p890
g7
(g8
(I0
tp891
g10
tp892
Rp893
(I1
(I3
tp894
g14
(S'f8'
p895
I0
I1
tp896
Rp897
(I3
S'<'
p898
NNNI-1
I-1
I0
tp899
bI00
S'\xfaql3-C;\xc0d\x8dx`\xf8\xe8J\xc0\x00\x00\x00\xc0\xcc\xdcQ\xc0'
p900
tp901
bsS'secnames'
p902
S'Cell[3].axon[161]'
p903
sI168
I100
tp904
a(F2.3269878909632222
S'Cell[2].dend[13] syn_ = new FastInhib(0.214285714286)'
p905
I2
(dp906
g887
F0.5
sg888
F24.0
sg889
I168
sg890
g7
(g8
(I0
tp907
g10
tp908
Rp909
(I1
(I3
tp910
g897
I00
S"\x00=\xbdT\x87\xeeL\xc0'Xj\xd9\x88\x856\xc0\x00\x00\x00\xc0\xcc\xdcQ\xc0"
p911
tp912
bsg902
S'Cell[3].axon[340]'
p913
sI168
I100
tp914
a(F2.1438287146533987
S'Cell[2].dend[13] syn_ = new FastInhib(0.214285714286)'
p915
I2
(dp916
g887
F0.5
sg888
F24.0
sg889
I168
sg890
g7
(g8
(I0
tp917
g10
tp918
Rp919
(I1
(I3
tp920
g897
I00
S'\x9e\x16\xffW\x84]M\xc0$\x8d\xa1\x83\x8b\x166\xc0\x00\x00\x00\xc0\xcc\xdcQ\xc0'
p921
tp922
bsg902
S'Cell[3].axon[520]'
p923
sI168
I100
tp924
a(F2.1981790481680012
S'Cell[1].dend[23] syn_ = new AmpaNmda(0.9)'
p925
I1
(dp926
g887
F0.7
sg888
F24.0
sg889
I168
sg890
g7
(g8
(I0
tp927
g10
tp928
Rp929
(I1
(I3
tp930
g897
I00
S'\xd4>\xa7\xfa\xc3\xc6\x05@h^\xac\xe2\xf1\xa2\xee?\x00\x00\x00\xc0\xcc\xdcQ\xc0'
p931
tp932
bsg902
S'Cell[3].axon[538]'
p933
sI168
I52
tp934
a(F2.2984079601093494
S'Cell[0].dend[10] syn_ = new AmpaNmda(0.833333333333)'
p935
I0
(dp936
g887
F0.7
sg888
F24.0
sg889
I120
sg890
g7
(g8
(I0
tp937
g10
tp938
Rp939
(I1
(I3
tp940
g897
I00
S'2\x8b\xdf\xab\x9d\x1bF@\xc9=\x02a\xd7\x12Z\xc0\xe0\x98V<ky\x11\xc0'
p941
tp942
bsg902
S'Cell[2].axon[37]'
p943
sI120
I4
tp944
a(F1.1596036438080737
S'Cell[0].dend[8] syn_ = new AmpaNmda(0.5)'
p945
I0
(dp946
g887
F0.1
sg888
F24.0
sg889
I120
sg890
g7
(g8
(I0
tp947
g10
tp948
Rp949
(I1
(I3
tp950
g897
I00
S'|\x90\x9b \xa1@N@?\x8d\x92\xa0_:D\xc0;*x\xd9>\x02\xf6\xbf'
p951
tp952
bsg902
S'Cell[2].axon[61]'
p953
sI120
I4
tp954
a(F2.239923603239857
S'Cell[1].dend[19] syn_ = new AmpaNmda(0.833333333333)'
p955
I1
(dp956
g887
F0.5
sg888
F24.0
sg889
I120
sg890
g7
(g8
(I0
tp957
g10
tp958
Rp959
(I1
(I3
tp960
g897
I00
S"\x08^\xc1\xe1\xa8\x03'@:\xadX\xdf\xc8\xbcP@\x00\x00\x00@3\x83S\xc0"
p961
tp962
bsg902
S'Cell[2].axon[228]'
p963
sI120
I52
tp964
a(F2.15841257661586
S'Cell[2].dend[44] syn_ = new FastInhib(0.166666666667)'
p965
I2
(dp966
g887
F0.5
sg888
F24.0
sg889
I120
sg890
g7
(g8
(I0
tp967
g10
tp968
Rp969
(I1
(I3
tp970
g897
I00
S'\xff\x91;a\xca\xd7$\xc0\x10\xa3\x17>\xcb\xf1?@\x00\x00\x00\x80\xc2uA\xc0'
p971
tp972
bsg902
S'Cell[2].axon[272]'
p973
sI120
I100
tp974
a(F1.793124703842322
S'Cell[2].dend[31] syn_ = new FastInhib(0.166666666667)'
p975
I2
(dp976
S'seg'
p977
F0.5
sS'hostfrom'
p978
F25.0
sS'gid'
p979
I169
sS'coords'
p980
g7
(g8
(I0
tp981
g10
tp982
Rp983
(I1
(I3
tp984
g14
(S'f8'
p985
I0
I1
tp986
Rp987
(I3
S'<'
p988
NNNI-1
I-1
I0
tp989
bI00
S'\x19h\x163\xf6\xd2:\xc0\xd8\xfd\xac}\xe3IU\xc0@\x9b\xd3\x04o\x99(@'
p990
tp991
bsS'secnames'
p992
S'Cell[3].axon[178]'
p993
sI169
I100
tp994
a(F2.1509566177325152
S'Cell[0].dend[15] syn_ = new ExpSid(0.3)'
p995
I0
(dp996
g977
F0.1
sg978
F25.0
sg979
I169
sg980
g7
(g8
(I0
tp997
g10
tp998
Rp999
(I1
(I3
tp1000
g987
I00
S'\xd4/\xae\xc7}#4@\x94\xf9*\xdd\xa2\xf8I\xc0y\x90\xea(\x1eg\x1f\xc0'
p1001
tp1002
bsg992
S'Cell[3].axon[233]'
p1003
sI169
I4
tp1004
a(F2.4802213088338276
S'Cell[1].apic[31] syn_ = new AmpaNmda(0.166666666667)'
p1005
I1
(dp1006
S'seg'
p1007
F0.40909090909090906
sS'hostfrom'
p1008
F26.0
sS'gid'
p1009
I26
sS'coords'
p1010
g7
(g8
(I0
tp1011
g10
tp1012
Rp1013
(I1
(I3
tp1014
g14
(S'f8'
p1015
I0
I1
tp1016
Rp1017
(I3
S'<'
p1018
NNNI-1
I-1
I0
tp1019
bI00
S'\xd2\xebb\x13\xc8\xafB@\xc7\xb1a\xe8|\x01_@\x83\x88\x82?4\xb9\xe6?'
p1020
tp1021
bsS'secnames'
p1022
S'Cell[0].axon[7]'
p1023
sI26
I52
tp1024
a(F1.88457243112168
S'Cell[3].dend[4] syn_ = new FastInhib(0.9)'
p1025
I3
(dp1026
g1007
F0.5
sg1008
F26.0
sg1009
I170
sg1010
g7
(g8
(I0
tp1027
g10
tp1028
Rp1029
(I1
(I3
tp1030
g1017
I00
S'\x16ZF1\x87OS\xc0\xbc\n\x8b\xa7\xf6\xd3V@\xe3\xe9\xd14#\xbd1\xc0'
p1031
tp1032
bsg1022
S'Cell[3].axon[438]'
p1033
sI170
I148
tp1034
a(F2.3345412123318514
S'Cell[2].dend[18] syn_ = new FastInhib(0.7)'
p1035
I2
(dp1036
S'seg'
p1037
F0.5
sS'hostfrom'
p1038
F27.0
sS'gid'
p1039
I123
sS'coords'
p1040
g7
(g8
(I0
tp1041
g10
tp1042
Rp1043
(I1
(I3
tp1044
g14
(S'f8'
p1045
I0
I1
tp1046
Rp1047
(I3
S'<'
p1048
NNNI-1
I-1
I0
tp1049
bI00
S'xU\xec\xc8)\xec#@\xe3\x82.\x94qM[\xc0\xc2\xcc\xd3n:h2\xc0'
p1050
tp1051
bsS'secnames'
p1052
S'Cell[2].axon[2]'
p1053
sI123
I100
tp1054
a(F1.980463227335821
S'Cell[2].dend[42] syn_ = new FastInhib(0.5)'
p1055
I2
(dp1056
g1037
F0.16666666666666666
sg1038
F27.0
sg1039
I171
sg1040
g7
(g8
(I0
tp1057
g10
tp1058
Rp1059
(I1
(I3
tp1060
g1047
I00
S'&\xa8\xf4^#"(\xc0M0\xb6\xc1\xbbKA@\x00\x00\x00\xa0p\xbd:\xc0'
p1061
tp1062
bsg1052
S'Cell[3].axon[45]'
p1063
sI171
I100
tp1064
a(F1.8848010581751318
S'Cell[0].dend[6] syn_ = new AmpaNmda(0.5)'
p1065
I0
(dp1066
S'seg'
p1067
F0.16666666666666666
sS'hostfrom'
p1068
F28.0
sS'gid'
p1069
I76
sS'coords'
p1070
g7
(g8
(I0
tp1071
g10
tp1072
Rp1073
(I1
(I3
tp1074
g14
(S'f8'
p1075
I0
I1
tp1076
Rp1077
(I3
S'<'
p1078
NNNI-1
I-1
I0
tp1079
bI00
S'g"\xb8|\x94hP@A\x01\xafATaA\xc0(\xefq\x9d\x12\\\xeb?'
p1080
tp1081
bsS'secnames'
p1082
S'Cell[1].axon[17]'
p1083
sI76
I4
tp1084
a(F2.496569199034826
S'Cell[0].apic[16] syn_ = new ExpSid(0.5)'
p1085
I0
(dp1086
S'seg'
p1087
F0.8333333333333333
sS'hostfrom'
p1088
F29.0
sS'gid'
p1089
I173
sS'coords'
p1090
g7
(g8
(I0
tp1091
g10
tp1092
Rp1093
(I1
(I3
tp1094
g14
(S'f8'
p1095
I0
I1
tp1096
Rp1097
(I3
S'<'
p1098
NNNI-1
I-1
I0
tp1099
bI00
S'\x1d\x96x@Z\xdf\'@E\xf0\xc1\x1d\xe1\xd8X@\xe3P"w\xd7A7\xc0'
p1100
tp1101
bsS'secnames'
p1102
S'Cell[3].axon[38]'
p1103
sI173
I4
tp1104
a(F2.2364121797052245
S'Cell[2].dend[41] syn_ = new FastInhib(0.5)'
p1105
I2
(dp1106
S'seg'
p1107
F0.5
sS'hostfrom'
p1108
F30.0
sS'gid'
p1109
I126
sS'coords'
p1110
g7
(g8
(I0
tp1111
g10
tp1112
Rp1113
(I1
(I3
tp1114
g14
(S'f8'
p1115
I0
I1
tp1116
Rp1117
(I3
S'<'
p1118
NNNI-1
I-1
I0
tp1119
bI00
S'\xdd\x99\xb2\x05\xd0\x9b-\xc0X\x05\x8b\xf85{5@\xf1G\xb5\xc6d\x002\xc0'
p1120
tp1121
bsS'secnames'
p1122
S'Cell[2].axon[34]'
p1123
sI126
I100
tp1124
a(F0.6895155172718942
S'Cell[0].apic[0] syn_ = new AmpaNmda(0.5)'
p1125
I0
(dp1126
g1107
F0.5
sg1108
F30.0
sg1109
I174
sg1110
g7
(g8
(I0
tp1127
g10
tp1128
Rp1129
(I1
(I3
tp1130
g1117
I00
S'\x00\x00\x00\xe0\xa3\xb0O@\x00\x00\x00@\n\xd7"@\x00\x00\x00\x00\n\xd7\xc3?'
p1131
tp1132
bsg1122
S'Cell[3].axon[283]'
p1133
sI174
I4
tp1134
a(F2.431289960913293
S'Cell[2].dend[51] syn_ = new FastInhib(0.1)'
p1135
I2
(dp1136
g1107
F0.5
sg1108
F30.0
sg1109
I174
sg1110
g7
(g8
(I0
tp1137
g10
tp1138
Rp1139
(I1
(I3
tp1140
g1117
I00
S'q\xd2\xf0\xadf\xff@\xc0\x14\x0f\x13\xc7\x7f\xe1!@\xbe\xb38\xb8\x832/\xc0'
p1141
tp1142
bsg1122
S'Cell[3].axon[374]'
p1143
sI174
I100
tp1144
a(F1.7365148282671954
S'Cell[2].dend[19] syn_ = new FastInhib(0.5)'
p1145
I2
(dp1146
S'seg'
p1147
F0.5
sS'hostfrom'
p1148
F31.0
sS'gid'
p1149
I127
sS'coords'
p1150
g7
(g8
(I0
tp1151
g10
tp1152
Rp1153
(I1
(I3
tp1154
g14
(S'f8'
p1155
I0
I1
tp1156
Rp1157
(I3
S'<'
p1158
NNNI-1
I-1
I0
tp1159
bI00
S'\x16\xe2y\\\xb2\xe5?@\xed\xf1\x81\x1d]\x11b\xc0\x06y\x1c-=\xb9*\xc0'
p1160
tp1161
bsS'secnames'
p1162
S'Cell[2].axon[18]'
p1163
sI127
I100
tp1164
a(F2.4179955680898852
S'Cell[2].dend[55] syn_ = new FastInhib(0.5)'
p1165
I2
(dp1166
g1147
F0.21428571428571427
sg1148
F31.0
sg1149
I175
sg1150
g7
(g8
(I0
tp1167
g10
tp1168
Rp1169
(I1
(I3
tp1170
g1157
I00
S'^\xc9\xa12\xa4X#@Z\x84\xe4\x98\xf7(2\xc0\x87\x06\x00\xee\xb1s \xc0'
p1171
tp1172
bsg1162
S'Cell[3].axon[329]'
p1173
sI175
I100
tp1174
a(F1.6506581004191696
S'Cell[0].dend[11] syn_ = new AmpaNmda(0.5)'
p1175
I0
(dp1176
S'seg'
p1177
F0.16666666666666666
sS'hostfrom'
p1178
F32.0
sS'gid'
p1179
I176
sS'coords'
p1180
g7
(g8
(I0
tp1181
g10
tp1182
Rp1183
(I1
(I3
tp1184
g14
(S'f8'
p1185
I0
I1
tp1186
Rp1187
(I3
S'<'
p1188
NNNI-1
I-1
I0
tp1189
bI00
S'\x8a\x99\xd7\xd0\xa7\xb0A@d\x03\x07\x1d\xcf\x10a\xc0V2\xacE\xc4k%\xc0'
p1190
tp1191
bsS'secnames'
p1192
S'Cell[3].axon[61]'
p1193
sI176
I4
tp1194
a(F2.193132406290701
S'Cell[0].apic[27] syn_ = new ExpSid(0.166666666667)'
p1195
I0
(dp1196
S'seg'
p1197
F0.5
sS'hostfrom'
p1198
F33.0
sS'gid'
p1199
I129
sS'coords'
p1200
g7
(g8
(I0
tp1201
g10
tp1202
Rp1203
(I1
(I3
tp1204
g14
(S'f8'
p1205
I0
I1
tp1206
Rp1207
(I3
S'<'
p1208
NNNI-1
I-1
I0
tp1209
bI00
S'\xfa\xba\x9a\x08\xda\xe1N@o\x9fG\xa0\x8c|\\@\xaa\x8d\xc3\x82\x11\xa6\xff?'
p1210
tp1211
bsS'secnames'
p1212
S'Cell[2].axon[63]'
p1213
sI129
I4
tp1214
a(F2.2256074350853297
S'Cell[0].dend[15] syn_ = new AmpaNmda(0.7)'
p1215
I0
(dp1216
S'seg'
p1217
F0.5
sS'hostfrom'
p1218
F34.0
sS'gid'
p1219
I34
sS'coords'
p1220
g7
(g8
(I0
tp1221
g10
tp1222
Rp1223
(I1
(I3
tp1224
g14
(S'f8'
p1225
I0
I1
tp1226
Rp1227
(I3
S'<'
p1228
NNNI-1
I-1
I0
tp1229
bI00
S'\x14`S\xaf\x81L=\xc0d\xe0X\x0e{-P\xc0\xa7\xb7\xd2\xda\xd3\xe8/\xc0'
p1230
tp1231
bsS'secnames'
p1232
S'Cell[0].axon[65]'
p1233
sI34
I4
tp1234
a(F2.2451867635452367
S'Cell[2].dend[6] syn_ = new FastInhib(0.7)'
p1235
I2
(dp1236
g1217
F0.5
sg1218
F34.0
sg1219
I82
sg1220
g7
(g8
(I0
tp1237
g10
tp1238
Rp1239
(I1
(I3
tp1240
g1227
I00
S'\xfa7\x15^)R\\\xc0Fj\xd6f\x14\xda<\xc0\x00\x00\x00\xe0Q\x98F\xc0'
p1241
tp1242
bsg1232
S'Cell[1].axon[127]'
p1243
sI82
I100
tp1244
a(F2.151605887039037
S'Cell[1].dend[20] syn_ = new AmpaNmda(0.5)'
p1245
I1
(dp1246
g1217
F0.16666666666666666
sg1218
F34.0
sg1219
I178
sg1220
g7
(g8
(I0
tp1247
g10
tp1248
Rp1249
(I1
(I3
tp1250
g1227
I00
S'\x1c\x89\xc1\x8f4\xb8#@n\x89x\xd9#\x86B@\x00\x00\x00\xc0\x1e%C\xc0'
p1251
tp1252
bsg1232
S'Cell[3].axon[26]'
p1253
sI178
I52
tp1254
a(F1.5237068393171471
S'Cell[2].dend[31] syn_ = new FastInhib(0.833333333333)'
p1255
I2
(dp1256
S'seg'
p1257
F0.16666666666666666
sS'hostfrom'
p1258
F35.0
sS'gid'
p1259
I83
sS'coords'
p1260
g7
(g8
(I0
tp1261
g10
tp1262
Rp1263
(I1
(I3
tp1264
g14
(S'f8'
p1265
I0
I1
tp1266
Rp1267
(I3
S'<'
p1268
NNNI-1
I-1
I0
tp1269
bI00
S'%\xa5\x1d\x1c\xba$E\xc0\xb2\xb5\x04&[\xda\\\xc0\x00\x00\x00`\x8fB2@'
p1270
tp1271
bsS'secnames'
p1272
S'Cell[1].axon[56]'
p1273
sI83
I100
tp1274
a(F2.467002209289379
S'Cell[2].dend[29] syn_ = new FastInhib(0.5)'
p1275
I2
(dp1276
g1257
F0.16666666666666666
sg1258
F35.0
sg1259
I35
sg1260
g7
(g8
(I0
tp1277
g10
tp1278
Rp1279
(I1
(I3
tp1280
g1267
I00
S'\xc6\xf4\xa3V\xd6\xf42\xc0f!\xf5\xfc\x12\xc7L\xc0\x0cTT\xfd8L#@'
p1281
tp1282
bsg1272
S'Cell[0].axon[6]'
p1283
sI35
I100
tp1284
a(F2.412671627809712
S'Cell[1].apic[28] syn_ = new AmpaNmda(0.3)'
p1285
I1
(dp1286
S'seg'
p1287
F0.8333333333333333
sS'hostfrom'
p1288
F36.0
sS'gid'
p1289
I84
sS'coords'
p1290
g7
(g8
(I0
tp1291
g10
tp1292
Rp1293
(I1
(I3
tp1294
g14
(S'f8'
p1295
I0
I1
tp1296
Rp1297
(I3
S'<'
p1298
NNNI-1
I-1
I0
tp1299
bI00
S'\xf21w\xa6:aG@D\xac\xaaM\x16\x99_@\xe0\xae\x04\xe3n\xb6R\xc0'
p1300
tp1301
bsS'secnames'
p1302
S'Cell[1].axon[172]'
p1303
sI84
I52
tp1304
a(F2.2235656257498455
S'Cell[1].dend[10] syn_ = new AmpaNmda(0.5)'
p1305
I1
(dp1306
g1287
F0.16666666666666666
sg1288
F36.0
sg1289
I84
sg1290
g7
(g8
(I0
tp1307
g10
tp1308
Rp1309
(I1
(I3
tp1310
g1297
I00
S'\xbdE\xa5\x80RCQ@7\xe6X\xb0s\xa1P@\xb6\xe7\x05\xfc\xcfQA\xc0'
p1311
tp1312
bsg1302
S'Cell[1].axon[214]'
p1313
sI84
I52
tp1314
a(F1.920212461721662
S'Cell[0].apic[2] syn_ = new AmpaNmda(0.5)'
p1315
I0
(dp1316
g1287
F0.8333333333333333
sg1288
F36.0
sg1289
I84
sg1290
g7
(g8
(I0
tp1317
g10
tp1318
Rp1319
(I1
(I3
tp1320
g1297
I00
S':\x8a\xd5\xaa\xb8\xc4\\@\xf4\xa9m\xdc1\x8bO@\xb2C\xee\\\xf2\x17.\xc0'
p1321
tp1322
bsg1302
S'Cell[1].axon[234]'
p1323
sI84
I4
tp1324
a(F2.14917997438499
S'Cell[2].dend[43] syn_ = new FastInhib(0.7)'
p1325
I2
(dp1326
g1287
F0.07142857142857142
sg1288
F36.0
sg1289
I84
sg1290
g7
(g8
(I0
tp1327
g10
tp1328
Rp1329
(I1
(I3
tp1330
g1297
I00
S'\xb2k\xd4t\x9eQ)\xc0z+U\x08j\x87_@\x94\x0cX\x8e\x98\xb2C\xc0'
p1331
tp1332
bsg1302
S'Cell[1].axon[257]'
p1333
sI84
I100
tp1334
a(F1.9803559140132698
S'Cell[2].dend[44] syn_ = new FastInhib(0.5)'
p1335
I2
(dp1336
g1287
F0.5
sg1288
F36.0
sg1289
I84
sg1290
g7
(g8
(I0
tp1337
g10
tp1338
Rp1339
(I1
(I3
tp1340
g1297
I00
S'\x00\x00\x00\xf0(\\\r\xc0\x00\x00\x00\x10\xaewB@\x00\x00\x00\x80\x14>F\xc0'
p1341
tp1342
bsg1302
S'Cell[1].axon[558]'
p1343
sI84
I100
tp1344
a(F1.7164118313217696
S'Cell[2].dend[49] syn_ = new FastInhib(0.166666666667)'
p1345
I2
(dp1346
g1287
F0.16666666666666666
sg1288
F36.0
sg1289
I132
sg1290
g7
(g8
(I0
tp1347
g10
tp1348
Rp1349
(I1
(I3
tp1350
g1297
I00
S'j\xd1\xc6+XFP@H\xcf\x18\xdd\xbb\xc1K@\xff\xba\x8b\x83GQ\x16\xc0'
p1351
tp1352
bsg1302
S'Cell[2].axon[134]'
p1353
sI132
I100
tp1354
a(F2.4366555748960312
S'Cell[3].dend[10] syn_ = new FastInhib(0.357142857143)'
p1355
I3
(dp1356
g1287
F0.5
sg1288
F36.0
sg1289
I180
sg1290
g7
(g8
(I0
tp1357
g10
tp1358
Rp1359
(I1
(I3
tp1360
g1297
I00
S'\xd2\x81\x05\xae\\\xbcK@\x00\x89\xe8\xc2h\xba`\xc0\xe6\x01\xfb\x0f\xc5\x03A\xc0'
p1361
tp1362
bsg1302
S'Cell[3].axon[186]'
p1363
sI180
I148
tp1364
a(F2.481203684006996
S'Cell[1].dend[12] syn_ = new AmpaNmda(0.5)'
p1365
I1
(dp1366
g1287
F0.9285714285714284
sg1288
F36.0
sg1289
I180
sg1290
g7
(g8
(I0
tp1367
g10
tp1368
Rp1369
(I1
(I3
tp1370
g1297
I00
S'\x0b\xa8\xa2\xc8\xca\xa1Q@\xa0\xc4\xc9?\xce\x92K@n\x8d\xd1@\xbb\x87S\xc0'
p1371
tp1372
bsg1302
S'Cell[3].axon[189]'
p1373
sI180
I52
tp1374
a(F1.5116318736515717
S'Cell[3].dend[5] syn_ = new FastInhib(0.9)'
p1375
I3
(dp1376
g1287
F0.49999999999999994
sg1288
F36.0
sg1289
I180
sg1290
g7
(g8
(I0
tp1377
g10
tp1378
Rp1379
(I1
(I3
tp1380
g1297
I00
S'\x86-\xe1]O{^@\xc2mt\x83\xdbZ\x1e@\x00\x00\x00`\x8f\xc2\x11\xc0'
p1381
tp1382
bsg1302
S'Cell[3].axon[321]'
p1383
sI180
I148
tp1384
a(F1.8775855534739117
S'Cell[0].dend[4] syn_ = new AmpaNmda(0.1)'
p1385
I0
(dp1386
g1287
F0.5
sg1288
F36.0
sg1289
I180
sg1290
g7
(g8
(I0
tp1387
g10
tp1388
Rp1389
(I1
(I3
tp1390
g1297
I00
S'n\x89\x03\xf6\xc3?W@\xa6P\r2j<=\xc0\xa6\xed\x8e*\xf6\xfc\n@'
p1391
tp1392
bsg1302
S'Cell[3].axon[322]'
p1393
sI180
I4
tp1394
a(F2.1485443874291725
S'Cell[0].dend[14] syn_ = new AmpaNmda(0.166666666667)'
p1395
I0
(dp1396
g1287
F0.07142857142857142
sg1288
F36.0
sg1289
I36
sg1290
g7
(g8
(I0
tp1397
g10
tp1398
Rp1399
(I1
(I3
tp1400
g1297
I00
S'\xa9\xf9\xac\x86h\xcd>@\xfa\x11KD1\xb5]\xc0\xcf{\xef\x1d\x82\xbf)\xc0'
p1401
tp1402
bsg1302
S'Cell[0].axon[3]'
p1403
sI36
I4
tp1404
a(F1.594496798297915
S'Cell[0].dend[22] syn_ = new AmpaNmda(0.3)'
p1405
I0
(dp1406
g1287
F0.3571428571428571
sg1288
F36.0
sg1289
I36
sg1290
g7
(g8
(I0
tp1407
g10
tp1408
Rp1409
(I1
(I3
tp1410
g1297
I00
S'\xa4\x9a\x7f\xf0;\xa9\x0c@\xca\xc7yO\xe0wC\xc0\xfb_\x060\xf2z$\xc0'
p1411
tp1412
bsg1302
S'Cell[0].axon[24]'
p1413
sI36
I4
tp1414
a(F1.2831721231432611
S'Cell[1].apic[1] syn_ = new AmpaNmda(0.5)'
p1415
I1
(dp1416
g1287
F0.3181818181818182
sg1288
F36.0
sg1289
I36
sg1290
g7
(g8
(I0
tp1417
g10
tp1418
Rp1419
(I1
(I3
tp1420
g1297
I00
S'\n\xed4h\xe1\xbfR@#\xda\xc5\xc31\x1c\\@\xc4\xfc\xb4\x96\xa5r0\xc0'
p1421
tp1422
bsg1302
S'Cell[0].axon[28]'
p1423
sI36
I52
tp1424
a(F1.7851566098997866
S'Cell[2].dend[49] syn_ = new FastInhib(0.833333333333)'
p1425
I2
(dp1426
S'seg'
p1427
F0.1
sS'hostfrom'
p1428
F37.0
sS'gid'
p1429
I133
sS'coords'
p1430
g7
(g8
(I0
tp1431
g10
tp1432
Rp1433
(I1
(I3
tp1434
g14
(S'f8'
p1435
I0
I1
tp1436
Rp1437
(I3
S'<'
p1438
NNNI-1
I-1
I0
tp1439
bI00
S'a2\x0e\x95\xcbzQ@\xd7#\x10\xa4\xb3\xe4O@\x88\x14T\x0fcZ$@'
p1440
tp1441
bsS'secnames'
p1442
S'Cell[2].axon[12]'
p1443
sI133
I100
tp1444
a(F0.8686029687152487
S'Cell[1].dend[1] syn_ = new ExpSid(0.5)'
p1445
I1
(dp1446
g1427
F0.30000000000000004
sg1428
F37.0
sg1429
I133
sg1430
g7
(g8
(I0
tp1447
g10
tp1448
Rp1449
(I1
(I3
tp1450
g1437
I00
S'\x0c9O\xe4\x9a\x8aQ@W.\xcc"(\xcfS@T\xc9\x7f8(\xf5\x1c@'
p1451
tp1452
bsg1442
S'Cell[2].axon[12]'
p1453
sI133
I52
tp1454
a(F1.8659610703897358
S'Cell[0].apic[11] syn_ = new ExpSid(0.5)'
p1455
I0
(dp1456
g1427
F0.30000000000000004
sg1428
F37.0
sg1429
I133
sg1430
g7
(g8
(I0
tp1457
g10
tp1458
Rp1459
(I1
(I3
tp1460
g1437
I00
S'\xf9\xfa\x7fb\xd1\x18T@<p\x9f\x19\x176G@\xa7\x9a\xfb\xb81\xf2\x13@'
p1461
tp1462
bsg1442
S'Cell[2].axon[15]'
p1463
sI133
I4
tp1464
a(F2.2170221525271803
S'Cell[3].dend[1] syn_ = new FastInhib(0.5)'
p1465
I3
(dp1466
S'seg'
p1467
F0.5
sS'hostfrom'
p1468
F38.0
sS'gid'
p1469
I182
sS'coords'
p1470
g7
(g8
(I0
tp1471
g10
tp1472
Rp1473
(I1
(I3
tp1474
g14
(S'f8'
p1475
I0
I1
tp1476
Rp1477
(I3
S'<'
p1478
NNNI-1
I-1
I0
tp1479
bI00
S'\x00\xd4\x11\x00n\xbfH@(\xb5\xb0>xYT@\xdb\xa7x\x9a\x01\xf2C\xc0'
p1480
tp1481
bsS'secnames'
p1482
S'Cell[3].axon[27]'
p1483
sI182
I148
tp1484
a(F1.349254879663127
S'Cell[2].dend[58] syn_ = new FastInhib(0.1)'
p1485
I2
(dp1486
g1467
F0.5
sg1468
F38.0
sg1469
I182
sg1470
g7
(g8
(I0
tp1487
g10
tp1488
Rp1489
(I1
(I3
tp1490
g1477
I00
S'.=\xf4\xd6\xddE\x12@\xef\xe4\xc7\xfa\x80\xb3&\xc0:w"\xdbs\xc3(\xc0'
p1491
tp1492
bsg1482
S'Cell[3].axon[308]'
p1493
sI182
I100
tp1494
a(F1.1182184656492393
S'Cell[3].dend[10] syn_ = new FastInhib(0.357142857143)'
p1495
I3
(dp1496
S'seg'
p1497
F0.1
sS'hostfrom'
p1498
F39.0
sS'gid'
p1499
I87
sS'coords'
p1500
g7
(g8
(I0
tp1501
g10
tp1502
Rp1503
(I1
(I3
tp1504
g14
(S'f8'
p1505
I0
I1
tp1506
Rp1507
(I3
S'<'
p1508
NNNI-1
I-1
I0
tp1509
bI00
S'\xdd\x89CC\xe4AK@\x9d\xbdm\x0cY\xf1`\xc0<Q\xa1\x085ZB\xc0'
p1510
tp1511
bsS'secnames'
p1512
S'Cell[1].axon[65]'
p1513
sI87
I148
tp1514
a(F0.910423500177449
S'Cell[0].apic[18] syn_ = new ExpSid(0.5)'
p1515
I0
(dp1516
g1497
F0.5
sg1498
F39.0
sg1499
I183
sg1500
g7
(g8
(I0
tp1517
g10
tp1518
Rp1519
(I1
(I3
tp1520
g1507
I00
S'\xf3\xf3M\x9d\r)\x14\xc0\xa7\xa0\xfbp\xf2\xb1\\@\x00\x00\x00\xc0\x1e\xc52\xc0'
p1521
tp1522
bsg1512
S'Cell[3].axon[260]'
p1523
sI183
I4
tp1524
a(F2.480326358491433
S'Cell[2].dend[6] syn_ = new FastInhib(0.7)'
p1525
I2
(dp1526
S'seg'
p1527
F0.5
sS'hostfrom'
p1528
F40.0
sS'gid'
p1529
I88
sS'coords'
p1530
g7
(g8
(I0
tp1531
g10
tp1532
Rp1533
(I1
(I3
tp1534
g14
(S'f8'
p1535
I0
I1
tp1536
Rp1537
(I3
S'<'
p1538
NNNI-1
I-1
I0
tp1539
bI00
S'\x00\x00\x00\x00\x9a\xc9\\\xc0Yr\xe6jRJ<\xc0:\xac(\xa0\xb7\xfdF\xc0'
p1540
tp1541
bsS'secnames'
p1542
S'Cell[1].axon[45]'
p1543
sI88
I100
tp1544
a(F1.3403639671732719
S'Cell[3].dend[4] syn_ = new FastInhib(0.7)'
p1545
I3
(dp1546
g1527
F0.21428571428571427
sg1528
F40.0
sg1529
I88
sg1530
g7
(g8
(I0
tp1547
g10
tp1548
Rp1549
(I1
(I3
tp1550
g1537
I00
S'\x00\x00\x00`\xec\xf1M\xc0:z\x92/C,U@.\x11]\x8b\x0bI6\xc0'
p1551
tp1552
bsg1542
S'Cell[1].axon[60]'
p1553
sI88
I148
tp1554
a(F2.480242514162585
S'Cell[0].apic[17] syn_ = new AmpaNmda(0.5)'
p1555
I0
(dp1556
g1527
F0.16666666666666666
sg1528
F40.0
sg1529
I88
sg1530
g7
(g8
(I0
tp1557
g10
tp1558
Rp1559
(I1
(I3
tp1560
g1537
I00
S'I&\xfaJ\x08w:@P\xbe\xcd1\xcd\x13U@\xad \xd0\xfb\xfb\x00$\xc0'
p1561
tp1562
bsg1542
S'Cell[1].axon[192]'
p1563
sI88
I4
tp1564
a(F2.2549416232967823
S'Cell[1].dend[27] syn_ = new AmpaNmda(0.166666666667)'
p1565
I1
(dp1566
g1527
F0.49999999999999994
sg1528
F40.0
sg1529
I88
sg1530
g7
(g8
(I0
tp1567
g10
tp1568
Rp1569
(I1
(I3
tp1570
g1537
I00
S'\xdby\xba\xb3\x13l]@\x14\x18\xa9?b\xae\\@\xfb\xf9\xd0\xbfw\x0e)@'
p1571
tp1572
bsg1542
S'Cell[1].axon[329]'
p1573
sI88
I52
tp1574
a(F2.1537621969943723
S'Cell[2].dend[44] syn_ = new FastInhib(0.5)'
p1575
I2
(dp1576
g1527
F0.5
sg1528
F40.0
sg1529
I136
sg1530
g7
(g8
(I0
tp1577
g10
tp1578
Rp1579
(I1
(I3
tp1580
g1537
I00
S'\xe47\x07\xb6\x1eh\x08\xc0\x06\xe2c\xb2\xa79C@%\xb5z\x86\x8c-E\xc0'
p1581
tp1582
bsg1542
S'Cell[2].axon[5]'
p1583
sI136
I100
tp1584
a(F1.6307016685099245
S'Cell[0].apic[20] syn_ = new AmpaNmda(0.5)'
p1585
I0
(dp1586
g1527
F0.16666666666666666
sg1528
F40.0
sg1529
I184
sg1530
g7
(g8
(I0
tp1587
g10
tp1588
Rp1589
(I1
(I3
tp1590
g1537
I00
S'\x9d\xef\x80\x15\xa2/O@\xed\xb4R\xec\xe5\xa5P@\xc4M\x82\n\xa4\xea\xf2\xbf'
p1591
tp1592
bsg1542
S'Cell[3].axon[90]'
p1593
sI184
I4
tp1594
a(F2.053498099722306
S'Cell[2].dend[48] syn_ = new FastInhib(0.7)'
p1595
I2
(dp1596
S'seg'
p1597
F0.5
sS'hostfrom'
p1598
F41.0
sS'gid'
p1599
I185
sS'coords'
p1600
g7
(g8
(I0
tp1601
g10
tp1602
Rp1603
(I1
(I3
tp1604
g14
(S'f8'
p1605
I0
I1
tp1606
Rp1607
(I3
S'<'
p1608
NNNI-1
I-1
I0
tp1609
bI00
S'\xc0\xa8\x11|\xa0\x04D@\xeeD\x92\x0c\x98dG@\xc2\x0f\xc5\x10\xe6\xdf4\xc0'
p1610
tp1611
bsS'secnames'
p1612
S'Cell[3].axon[101]'
p1613
sI185
I100
tp1614
a(F1.963702702615662
S'Cell[0].dend[9] syn_ = new ExpSid(0.5)'
p1615
I0
(dp1616
g1597
F0.8999999999999999
sg1598
F41.0
sg1599
I185
sg1600
g7
(g8
(I0
tp1617
g10
tp1618
Rp1619
(I1
(I3
tp1620
g1607
I00
S'.\xb7\xc3\xa3\xe2\x08L@\x19\xfc\xc0\xca\xbe\xadA\xc0X\xe6\x89J\xa3\xc5\xf6?'
p1621
tp1622
bsg1612
S'Cell[3].axon[283]'
p1623
sI185
I4
tp1624
a(F1.9511590470671345
S'Cell[0].dend[10] syn_ = new AmpaNmda(0.166666666667)'
p1625
I0
(dp1626
S'seg'
p1627
F0.21428571428571427
sS'hostfrom'
p1628
F42.0
sS'gid'
p1629
I90
sS'coords'
p1630
g7
(g8
(I0
tp1631
g10
tp1632
Rp1633
(I1
(I3
tp1634
g14
(S'f8'
p1635
I0
I1
tp1636
Rp1637
(I3
S'<'
p1638
NNNI-1
I-1
I0
tp1639
bI00
S'\x85\xf6n`\xdc\xa3H@\xa8+\xd6Ud\x12J\xc0 \xa2\x08\x16X\xf2\xc7\xbf'
p1640
tp1641
bsS'secnames'
p1642
S'Cell[1].axon[241]'
p1643
sI90
I4
tp1644
a(F1.4192626810131126
S'Cell[0].apic[4] syn_ = new ExpSid(0.5)'
p1645
I0
(dp1646
S'seg'
p1647
F0.8333333333333333
sS'hostfrom'
p1648
F43.0
sS'gid'
p1649
I91
sS'coords'
p1650
g7
(g8
(I0
tp1651
g10
tp1652
Rp1653
(I1
(I3
tp1654
g14
(S'f8'
p1655
I0
I1
tp1656
Rp1657
(I3
S'<'
p1658
NNNI-1
I-1
I0
tp1659
bI00
S'^}\x10SfvP@\x1e\x10\xac\x93\x86\xa6=@\xb7\x1d2\x10ZZ\xd3?'
p1660
tp1661
bsS'secnames'
p1662
S'Cell[1].axon[253]'
p1663
sI91
I4
tp1664
a(F1.7870095278646032
S'Cell[2].dend[35] syn_ = new FastInhib(0.5)'
p1665
I2
(dp1666
g1647
F0.5
sg1648
F43.0
sg1649
I139
sg1650
g7
(g8
(I0
tp1667
g10
tp1668
Rp1669
(I1
(I3
tp1670
g1657
I00
S'\xe0\xedO\xebD\x84:\xc0\xef\xaa\xa0\xeb\x93\x876@F\xb7\xca\x05\t\xd5;\xc0'
p1671
tp1672
bsg1662
S'Cell[2].axon[376]'
p1673
sI139
I100
tp1674
a(F1.5326526795866
S'Cell[2].dend[32] syn_ = new FastInhib(0.1)'
p1675
I2
(dp1676
g1647
F0.5
sg1648
F43.0
sg1649
I139
sg1650
g7
(g8
(I0
tp1677
g10
tp1678
Rp1679
(I1
(I3
tp1680
g1657
I00
S'\x00\x00\x00\x80\x14.\x18\xc0\x00\x00\x00\xa0p\xddG\xc0\x00\x00\x00\xac\x1e\x85\xfb?'
p1681
tp1682
bsg1662
S'Cell[2].axon[408]'
p1683
sI139
I100
tp1684
a(F1.8196299433471161
S'Cell[1].dend[12] syn_ = new ExpSid(0.5)'
p1685
I1
(dp1686
g1647
F0.8333333333333333
sg1648
F43.0
sg1649
I139
sg1650
g7
(g8
(I0
tp1687
g10
tp1688
Rp1689
(I1
(I3
tp1690
g1657
I00
S'k\xea\xd04\xf5*Q@\xb54\xa7a6\xf4J@\xc6\xfc\x13*\xf8$S\xc0'
p1691
tp1692
bsg1662
S'Cell[2].axon[442]'
p1693
sI139
I52
tp1694
a(F2.2474608245828067
S'Cell[0].apic[9] syn_ = new ExpSid(0.5)'
p1695
I0
(dp1696
g1647
F0.7
sg1648
F43.0
sg1649
I187
sg1650
g7
(g8
(I0
tp1697
g10
tp1698
Rp1699
(I1
(I3
tp1700
g1657
I00
S' \xf2P\xd4u\xecf@\xc4\x90?\x9f\xec\x90Y@\x00\x00\x00\x00\x00\xc02@'
p1701
tp1702
bsg1662
S'Cell[3].axon[81]'
p1703
sI187
I4
tp1704
a(F1.7148620105634031
S'Cell[2].dend[44] syn_ = new FastInhib(0.166666666667)'
p1705
I2
(dp1706
g1647
F0.3888888888888889
sg1648
F43.0
sg1649
I187
sg1650
g7
(g8
(I0
tp1707
g10
tp1708
Rp1709
(I1
(I3
tp1710
g1657
I00
S'~\x18wGIR!\xc0\x90\x91\x98F\x14TA@\x0c\xa7>\xdbt\xbc@\xc0'
p1711
tp1712
bsg1662
S'Cell[3].axon[119]'
p1713
sI187
I100
tp1714
a(F1.2913024607269918
S'Cell[2].dend[5] syn_ = new FastInhib(0.5)'
p1715
I2
(dp1716
S'seg'
p1717
F0.16666666666666666
sS'hostfrom'
p1718
F45.0
sS'gid'
p1719
I141
sS'coords'
p1720
g7
(g8
(I0
tp1721
g10
tp1722
Rp1723
(I1
(I3
tp1724
g14
(S'f8'
p1725
I0
I1
tp1726
Rp1727
(I3
S'<'
p1728
NNNI-1
I-1
I0
tp1729
bI00
S'\xc6b\x9f1\x94MF\xc0\xba\xca\x13\t8|5\xc0\xd4N\xa5R|\x89A\xc0'
p1730
tp1731
bsS'secnames'
p1732
S'Cell[2].axon[18]'
p1733
sI141
I100
tp1734
a(F1.7967746982233688
S'Cell[2].dend[17] syn_ = new FastInhib(0.0714285714286)'
p1735
I2
(dp1736
g1717
F0.30000000000000004
sg1718
F45.0
sg1719
I141
sg1720
g7
(g8
(I0
tp1737
g10
tp1738
Rp1739
(I1
(I3
tp1740
g1727
I00
S'*?S2\xf7\x1e=\xc08\x8e\xc3\xbf\x89\xd8E\xc0\xc1\x02\n.\xd4\x15I\xc0'
p1741
tp1742
bsg1732
S'Cell[2].axon[31]'
p1743
sI141
I100
tp1744
a(F1.6434212093386769
S'Cell[2].dend[18] syn_ = new FastInhib(0.3)'
p1745
I2
(dp1746
g1717
F0.30000000000000004
sg1718
F45.0
sg1719
I141
sg1720
g7
(g8
(I0
tp1747
g10
tp1748
Rp1749
(I1
(I3
tp1750
g1727
I00
S"\xc7'Rs\xcb\x9f$\xc0\xfc\xde`\xfe\xdeyP\xc0\xf8\xb5\xc1\xac\x18\xc5:\xc0"
p1751
tp1752
bsg1732
S'Cell[2].axon[186]'
p1753
sI141
I100
tp1754
a(F2.2606284312286906
S'Cell[0].apic[0] syn_ = new ExpSid(0.5)'
p1755
I0
(dp1756
g1717
F0.5
sg1718
F45.0
sg1719
I141
sg1720
g7
(g8
(I0
tp1757
g10
tp1758
Rp1759
(I1
(I3
tp1760
g1727
I00
S'\xc2:/\xb7/\x94N@\xcc\xa66\xbd\xdb<%@X\x17\x0f,\x1f\xad\xf0?'
p1761
tp1762
bsg1732
S'Cell[2].axon[263]'
p1763
sI141
I4
tp1764
a(F1.3847831839247497
S'Cell[0].dend[4] syn_ = new ExpSid(0.1)'
p1765
I0
(dp1766
g1717
F0.16666666666666666
sg1718
F45.0
sg1719
I141
sg1720
g7
(g8
(I0
tp1767
g10
tp1768
Rp1769
(I1
(I3
tp1770
g1727
I00
S'\xc7D\xbf\xc7Q\x86W@\xe6o\xb6\x8e\xe9\xb1<\xc0\x13U\xbc\xf8\x83G\x16@'
p1771
tp1772
bsg1732
S'Cell[2].axon[503]'
p1773
sI141
I4
tp1774
a(F1.9250269122692278
S'Cell[1].apic[28] syn_ = new ExpSid(0.1)'
p1775
I1
(dp1776
g1717
F0.3571428571428571
sg1718
F45.0
sg1719
I93
sg1720
g7
(g8
(I0
tp1777
g10
tp1778
Rp1779
(I1
(I3
tp1780
g1727
I00
S'\xabE>\x91\xfd\x0fP@\xe2\xcd\x96\x1e+<`@\xe6o\xe05\x98\x1cG\xc0'
p1781
tp1782
bsg1732
S'Cell[1].axon[110]'
p1783
sI93
I52
tp1784
a(F2.0863961706246594
S'Cell[0].dend[22] syn_ = new ExpSid(0.9)'
p1785
I0
(dp1786
g1717
F0.16666666666666666
sg1718
F45.0
sg1719
I93
sg1720
g7
(g8
(I0
tp1787
g10
tp1788
Rp1789
(I1
(I3
tp1790
g1727
I00
S'\x9c]E\xcf\x01\x05L\xc0\x99(\x1a\xc0Y\x17Z\xc0$h\xc0\xb1\x0f\xa6(\xc0'
p1791
tp1792
bsg1732
S'Cell[1].axon[167]'
p1793
sI93
I4
tp1794
a(F1.1387870302789411
S'Cell[0].apic[11] syn_ = new ExpSid(0.5)'
p1795
I0
(dp1796
g1717
F0.16666666666666666
sg1718
F45.0
sg1719
I93
sg1720
g7
(g8
(I0
tp1797
g10
tp1798
Rp1799
(I1
(I3
tp1800
g1727
I00
S'WF\x1f\xfe\x101T@\xfb\xb8lleFG@\x0e\xd0\xbc\x86\xa4\xcb\x1d@'
p1801
tp1802
bsg1732
S'Cell[1].axon[274]'
p1803
sI93
I4
tp1804
a(F2.0818838053744906
S'Cell[0].dend[22] syn_ = new AmpaNmda(0.5)'
p1805
I0
(dp1806
S'seg'
p1807
F0.029411764705882353
sS'hostfrom'
p1808
F46.0
sS'gid'
p1809
I94
sS'coords'
p1810
g7
(g8
(I0
tp1811
g10
tp1812
Rp1813
(I1
(I3
tp1814
g14
(S'f8'
p1815
I0
I1
tp1816
Rp1817
(I3
S'<'
p1818
NNNI-1
I-1
I0
tp1819
bI00
S'\xca\x1a1\xcf\xa6C5\xc0\xa4\xce\x92\x83m\x8dK\xc0J\xbb\xfdZ\x8d\x82-\xc0'
p1820
tp1821
bsS'secnames'
p1822
S'Cell[1].axon[174]'
p1823
sI94
I4
tp1824
a(F2.4714778013735788
S'Cell[1].dend[17] syn_ = new AmpaNmda(0.5)'
p1825
I1
(dp1826
g1807
F0.8333333333333333
sg1808
F46.0
sg1809
I142
sg1810
g7
(g8
(I0
tp1827
g10
tp1828
Rp1829
(I1
(I3
tp1830
g1817
I00
S'\x17\x9ar\xfeN\xf7I@H\x89\xe6\xf2\x11\xe5Q@F\xef/\xa1\xc1XK\xc0'
p1831
tp1832
bsg1822
S'Cell[2].axon[26]'
p1833
sI142
I52
tp1834
a(F2.26912431745802
S'Cell[3].dend[5] syn_ = new FastInhib(0.7)'
p1835
I3
(dp1836
S'seg'
p1837
F0.8999999999999999
sS'hostfrom'
p1838
F47.0
sS'gid'
p1839
I95
sS'coords'
p1840
g7
(g8
(I0
tp1841
g10
tp1842
Rp1843
(I1
(I3
tp1844
g14
(S'f8'
p1845
I0
I1
tp1846
Rp1847
(I3
S'<'
p1848
NNNI-1
I-1
I0
tp1849
bI00
S'\xfe\x04\xd8$i\xd0X@\x01\xf2\x9a\xf3xz\x1c\xc0[\xda)v\x80u#\xc0'
p1850
tp1851
bsS'secnames'
p1852
S'Cell[1].axon[46]'
p1853
sI95
I148
tp1854
a(F2.3441953761818874
S'Cell[0].dend[25] syn_ = new ExpSid(0.5)'
p1855
I0
(dp1856
g1837
F0.5
sg1838
F47.0
sg1839
I95
sg1840
g7
(g8
(I0
tp1857
g10
tp1858
Rp1859
(I1
(I3
tp1860
g1847
I00
S'\x00\x00\x00\xa0p\rD@\x00\x00\x00\xe8Q81\xc0\x00\x00\x00\x10\xaeG\xf1?'
p1861
tp1862
bsg1852
S'Cell[1].axon[142]'
p1863
sI95
I4
tp1864
a(F2.0085776072302193
S'Cell[3].dend[7] syn_ = new FastInhib(0.3)'
p1865
I3
(dp1866
g1837
F0.8999999999999999
sg1838
F47.0
sg1839
I95
sg1840
g7
(g8
(I0
tp1867
g10
tp1868
Rp1869
(I1
(I3
tp1870
g1847
I00
S'3\xcc\x13\x02a;?@\xe4\xe4\x84\x0b\x14\x87]\xc0\x00\x00\x00\x80=\xaaF\xc0'
p1871
tp1872
bsg1852
S'Cell[1].axon[321]'
p1873
sI95
I148
tp1874
a(F1.8262923905702328
S'Cell[3].dend[5] syn_ = new FastInhib(0.3)'
p1875
I3
(dp1876
g1837
F0.5
sg1838
F47.0
sg1839
I95
sg1840
g7
(g8
(I0
tp1877
g10
tp1878
Rp1879
(I1
(I3
tp1880
g1847
I00
S'\xd1\x16.?}\xf9P@\xd0\x7f\xcd\xadW\xe7F\xc0\xb8C\xb5\x99\xb1\xa87\xc0'
p1881
tp1882
bsg1852
S'Cell[1].axon[336]'
p1883
sI95
I148
tp1884
a.