(lp0
(F2.366515632390683
S'Cell[1].apic[54] syn_ = new ExpSid(0.722222222222)'
p1
I1
(dp2
S'seg'
p3
F0.5
sS'hostfrom'
p4
F1.0
sS'gid'
p5
I145
sS'coords'
p6
cnumpy.core.multiarray
_reconstruct
p7
(cnumpy
ndarray
p8
(I0
tp9
S'b'
p10
tp11
Rp12
(I1
(I3
tp13
cnumpy
dtype
p14
(S'f8'
p15
I0
I1
tp16
Rp17
(I3
S'<'
p18
NNNI-1
I-1
I0
tp19
bI00
S'\xc6\xe0a\xbc\x9a{@\xc0\x06\xc3(\xf7\xc0\xa0\x1b\xc0\x00\x00\x00\xc0\x1e\x85\r\xc0'
p20
tp21
bsS'secnames'
p22
S'Cell[3].axon[127]'
p23
sI145
I72
tp24
a(F1.6942701391776636
S'Cell[1].dend[10] syn_ = new ExpSid(0.3)'
p25
I1
(dp26
g3
F0.8333333333333333
sg4
F1.0
sg5
I145
sg6
g7
(g8
(I0
tp27
g10
tp28
Rp29
(I1
(I3
tp30
g17
I00
S'V\xdd\xe9\xfcL\x1b,\xc0I\xa5p\xabV\x18B\xc0F\x16\tq\xd6O/@'
p31
tp32
bsg22
S'Cell[3].axon[195]'
p33
sI145
I72
tp34
a(F1.3544366032671464
S'Cell[2].dend[3] syn_ = new FastInhib(0.166666666667)'
p35
I2
(dp36
g3
F0.5
sg4
F1.0
sg5
I145
sg6
g7
(g8
(I0
tp37
g10
tp38
Rp39
(I1
(I3
tp40
g17
I00
S"I\x9b9{@\xecJ@3>\x9e-\x95OO@9\xf0'\x82\xe8\xa55\xc0"
p41
tp42
bsg22
S'Cell[3].axon[210]'
p43
sI145
I120
tp44
a(F1.4778632345687075
S'Cell[0].dend[1] syn_ = new ExpSid(0.5)'
p45
I0
(dp46
g3
F0.30000000000000004
sg4
F1.0
sg5
I97
sg6
g7
(g8
(I0
tp47
g10
tp48
Rp49
(I1
(I3
tp50
g17
I00
S'!]\x19\xb5JS!\xc0\xdf\xf0\xfa\x1c#\x94,@\x9e\x0fV+1O;\xc0'
p51
tp52
bsg22
S'Cell[2].axon[13]'
p53
sI97
I24
tp54
a(F1.1794554045942844
S'Cell[2].dend[27] syn_ = new FastInhib(0.7)'
p55
I2
(dp56
g3
F0.5
sg4
F1.0
sg5
I97
sg6
g7
(g8
(I0
tp57
g10
tp58
Rp59
(I1
(I3
tp60
g17
I00
S'\xf3\x8b\x87\x02\xba\x16R@t\xb6\xe3\xc5u\xa8[\xc0x\xed\x1a\xb0\xc2\xcdG\xc0'
p61
tp62
bsg22
S'Cell[2].axon[97]'
p63
sI97
I120
tp64
a(F1.0159833214960685
S'Cell[2].dend[6] syn_ = new FastInhib(0.166666666667)'
p65
I2
(dp66
S'seg'
p67
F0.07142857142857142
sS'hostfrom'
p68
F2.0
sS'gid'
p69
I98
sS'coords'
p70
g7
(g8
(I0
tp71
g10
tp72
Rp73
(I1
(I3
tp74
g14
(S'f8'
p75
I0
I1
tp76
Rp77
(I3
S'<'
p78
NNNI-1
I-1
I0
tp79
bI00
S')\xc7\xb6\x19\x7f\x86N@\x13\xcb\xb5}\x81DR@\x00\x00\x00@3\xf37\xc0'
p80
tp81
bsS'secnames'
p82
S'Cell[2].axon[189]'
p83
sI98
I120
tp84
a(F1.3289245258614628
S'Cell[2].dend[13] syn_ = new FastInhib(0.5)'
p85
I2
(dp86
g67
F0.5
sg68
F2.0
sg69
I98
sg70
g7
(g8
(I0
tp87
g10
tp88
Rp89
(I1
(I3
tp90
g77
I00
S'lD^~\xdc\xc0C@\xcd\xc6\x80\xe3\xe5\x84Z@>\xcfb\xdd\xdcUB\xc0'
p91
tp92
bsg82
S'Cell[2].axon[192]'
p93
sI98
I120
tp94
a(F2.0226321425510627
S'Cell[1].apic[49] syn_ = new AmpaNmda(0.5)'
p95
I1
(dp96
g67
F0.16666666666666666
sg68
F2.0
sg69
I98
sg70
g7
(g8
(I0
tp97
g10
tp98
Rp99
(I1
(I3
tp100
g77
I00
S"z\x02\xd6\x9c\x801'\xc0\x86c\xd3f\xe28H@P\xc6Y\x82=c8\xc0"
p101
tp102
bsg82
S'Cell[2].axon[448]'
p103
sI98
I72
tp104
a(F1.0159833214960685
S'Cell[2].dend[6] syn_ = new FastInhib(0.166666666667)'
p105
I2
(dp106
S'seg'
p107
F0.07142857142857142
sS'hostfrom'
p108
F3.0
sS'gid'
p109
I99
sS'coords'
p110
g7
(g8
(I0
tp111
g10
tp112
Rp113
(I1
(I3
tp114
g14
(S'f8'
p115
I0
I1
tp116
Rp117
(I3
S'<'
p118
NNNI-1
I-1
I0
tp119
bI00
S')\xc7\xb6\x19\x7f\x86N@\x13\xcb\xb5}\x81DR@\x00\x00\x00@3\xf37\xc0'
p120
tp121
bsS'secnames'
p122
S'Cell[2].axon[189]'
p123
sI99
I120
tp124
a(F1.3289245258614628
S'Cell[2].dend[13] syn_ = new FastInhib(0.5)'
p125
I2
(dp126
g107
F0.5
sg108
F3.0
sg109
I99
sg110
g7
(g8
(I0
tp127
g10
tp128
Rp129
(I1
(I3
tp130
g117
I00
S'lD^~\xdc\xc0C@\xcd\xc6\x80\xe3\xe5\x84Z@>\xcfb\xdd\xdcUB\xc0'
p131
tp132
bsg122
S'Cell[2].axon[192]'
p133
sI99
I120
tp134
a(F2.0226321425510627
S'Cell[1].apic[49] syn_ = new ExpSid(0.5)'
p135
I1
(dp136
g107
F0.16666666666666666
sg108
F3.0
sg109
I99
sg110
g7
(g8
(I0
tp137
g10
tp138
Rp139
(I1
(I3
tp140
g117
I00
S"z\x02\xd6\x9c\x801'\xc0\x86c\xd3f\xe28H@P\xc6Y\x82=c8\xc0"
p141
tp142
bsg122
S'Cell[2].axon[448]'
p143
sI99
I72
tp144
a(F2.122616376090007
S'Cell[2].dend[9] syn_ = new FastInhib(0.5)'
p145
I2
(dp146
S'seg'
p147
F0.16666666666666666
sS'hostfrom'
p148
F4.0
sS'gid'
p149
I148
sS'coords'
p150
g7
(g8
(I0
tp151
g10
tp152
Rp153
(I1
(I3
tp154
g14
(S'f8'
p155
I0
I1
tp156
Rp157
(I3
S'<'
p158
NNNI-1
I-1
I0
tp159
bI00
S'\xf8s{\x9c\xdf\xe3I@0\xeb\xa0\xb9VTH@I\xda\x90\xf4\xba\xc8@\xc0'
p160
tp161
bsS'secnames'
p162
S'Cell[3].axon[223]'
p163
sI148
I120
tp164
a(F1.7583170601848668
S'Cell[1].dend[21] syn_ = new AmpaNmda(0.7)'
p165
I1
(dp166
g147
F0.6428571428571428
sg148
F4.0
sg149
I148
sg150
g7
(g8
(I0
tp167
g10
tp168
Rp169
(I1
(I3
tp170
g157
I00
S'{\xc8~\xa3o\xc6a@\xb0\x9e\xb8\xe7~\xbf9\xc0\\\xedtn\nOC\xc0'
p171
tp172
bsg162
S'Cell[3].axon[285]'
p173
sI148
I72
tp174
a(F2.4496566196770733
S'Cell[1].dend[8] syn_ = new AmpaNmda(0.5)'
p175
I1
(dp176
g147
F0.8333333333333333
sg148
F4.0
sg149
I148
sg150
g7
(g8
(I0
tp177
g10
tp178
Rp179
(I1
(I3
tp180
g157
I00
S'\xc2y\xfb)\xb1>?@[\x88\x19\x0f\xdbW2\xc0\x00\x00\x00\xc0\xcc\xcc\x1f@'
p181
tp182
bsg162
S'Cell[3].axon[337]'
p183
sI148
I72
tp184
a(F1.564967735623174
S'Cell[3].dend[42] syn_ = new FastInhib(0.1)'
p185
I3
(dp186
g147
F0.5
sg148
F4.0
sg149
I100
sg150
g7
(g8
(I0
tp187
g10
tp188
Rp189
(I1
(I3
tp190
g157
I00
S'\xf9\xd6\xda\x16y\x84`\xc0\xac|X1}V^\xc06"\x97\x962\xfb2\xc0'
p191
tp192
bsg162
S'Cell[2].axon[21]'
p193
sI100
I168
tp194
a(F2.4183603764105843
S'Cell[2].dend[45] syn_ = new FastInhib(0.833333333333)'
p195
I2
(dp196
g147
F0.5
sg148
F4.0
sg149
I100
sg150
g7
(g8
(I0
tp197
g10
tp198
Rp199
(I1
(I3
tp200
g157
I00
S'\xdfc#\x055\xc35\xc0\x8b\x14\x0e\x1e\xa4QY\xc0\xd6\x04c\x1d\x97\x9fO\xc0'
p201
tp202
bsg162
S'Cell[2].axon[80]'
p203
sI100
I120
tp204
a(F2.4508718489826213
S'Cell[0].dend[4] syn_ = new ExpSid(0.5)'
p205
I0
(dp206
S'seg'
p207
F0.8333333333333333
sS'hostfrom'
p208
F5.0
sS'gid'
p209
I5
sS'coords'
p210
g7
(g8
(I0
tp211
g10
tp212
Rp213
(I1
(I3
tp214
g14
(S'f8'
p215
I0
I1
tp216
Rp217
(I3
S'<'
p218
NNNI-1
I-1
I0
tp219
bI00
S'\xe6f\x1e\'\x84\xbdL\xc0\xb0<\x7f\x9b\x88\x860@\x0b\xb5\x03"\xff\xb6W\xc0'
p220
tp221
bsS'secnames'
p222
S'Cell[0].axon[9]'
p223
sI5
I24
tp224
a(F2.2532701102974246
S'Cell[1].apic[43] syn_ = new ExpSid(0.9)'
p225
I1
(dp226
g207
F0.07142857142857142
sg208
F5.0
sg209
I5
sg210
g7
(g8
(I0
tp227
g10
tp228
Rp229
(I1
(I3
tp230
g217
I00
S'dj\xe6\x02B2B\xc0L\xae\xeb\x92\xd6\xae`@\xff\xff\xff\x7f=\n\x17\xc0'
p231
tp232
bsg222
S'Cell[0].axon[48]'
p233
sI5
I72
tp234
a(F2.350876546556869
S'Cell[0].apic[18] syn_ = new AmpaNmda(0.5)'
p235
I0
(dp236
S'seg'
p237
F0.5
sS'hostfrom'
p238
F6.0
sS'gid'
p239
I150
sS'coords'
p240
g7
(g8
(I0
tp241
g10
tp242
Rp243
(I1
(I3
tp244
g14
(S'f8'
p245
I0
I1
tp246
Rp247
(I3
S'<'
p248
NNNI-1
I-1
I0
tp249
bI00
S'\xf69\x97\xe2\xb2\xf5\x16@\xe3v\xa7\xc4\xc7.Q@\x00\x00\x00\x80\x14\xee>\xc0'
p250
tp251
bsS'secnames'
p252
S'Cell[3].axon[200]'
p253
sI150
I24
tp254
a(F0.9166955940706701
S'Cell[1].dend[8] syn_ = new ExpSid(0.166666666667)'
p255
I1
(dp256
S'seg'
p257
F0.8999999999999999
sS'hostfrom'
p258
F7.0
sS'gid'
p259
I103
sS'coords'
p260
g7
(g8
(I0
tp261
g10
tp262
Rp263
(I1
(I3
tp264
g14
(S'f8'
p265
I0
I1
tp266
Rp267
(I3
S'<'
p268
NNNI-1
I-1
I0
tp269
bI00
S'\x1c\xca\xfe\xfdO\xd0D@\xd9\xee\x9c\xab\xd2\x12\x16\xc0\xa1\x1cQX\x89&\x06@'
p270
tp271
bsS'secnames'
p272
S'Cell[2].axon[297]'
p273
sI103
I72
tp274
a(F1.8394965692004486
S'Cell[1].apic[49] syn_ = new ExpSid(0.0714285714286)'
p275
I1
(dp276
g257
F0.8333333333333333
sg258
F7.0
sg259
I103
sg260
g7
(g8
(I0
tp277
g10
tp278
Rp279
(I1
(I3
tp280
g267
I00
S'\xce\xb6\xb7\x10\xc0AC@M\x12_\x1cv[?@\x92\xd1\xb7qOB\xed\xbf'
p281
tp282
bsg272
S'Cell[2].axon[298]'
p283
sI103
I72
tp284
a(F2.159365348076297
S'Cell[0].apic[1] syn_ = new ExpSid(0.5)'
p285
I0
(dp286
g257
F0.5
sg258
F7.0
sg259
I103
sg260
g7
(g8
(I0
tp287
g10
tp288
Rp289
(I1
(I3
tp290
g267
I00
S'\x00\x00\x00\x80\x14n4@\x00\x00\x00\x80\xebAF@\x00\x00\x00(\\\x0f\x12\xc0'
p291
tp292
bsg272
S'Cell[2].axon[404]'
p293
sI103
I24
tp294
a(F2.458478009136857
S'Cell[0].dend[19] syn_ = new ExpSid(0.166666666667)'
p295
I0
(dp296
g257
F0.5
sg258
F7.0
sg259
I151
sg260
g7
(g8
(I0
tp297
g10
tp298
Rp299
(I1
(I3
tp300
g267
I00
S'\xf8\xf9\xf5i^,E@\xf6\xb5,J\xd6\xaf\xfd\xbf\xe5\x00_\xdc\xee]\x05\xc0'
p301
tp302
bsg272
S'Cell[3].axon[105]'
p303
sI151
I24
tp304
a(F1.9657897455488313
S'Cell[2].dend[49] syn_ = new FastInhib(0.5)'
p305
I2
(dp306
g257
F0.5
sg258
F7.0
sg259
I151
sg260
g7
(g8
(I0
tp307
g10
tp308
Rp309
(I1
(I3
tp310
g267
I00
S'\xf2\xae\x16\xa4\x0e^\xff\xbfBA\xe3o\xcfAT\xc0\x01\x00\x00 \\ON\xc0'
p311
tp312
bsg272
S'Cell[3].axon[202]'
p313
sI151
I120
tp314
a(F2.4156583900441255
S'Cell[2].dend[49] syn_ = new FastInhib(0.5)'
p315
I2
(dp316
g257
F0.5
sg258
F7.0
sg259
I151
sg260
g7
(g8
(I0
tp317
g10
tp318
Rp319
(I1
(I3
tp320
g267
I00
S'\x00\x00\x00@\xb8\x1e\xe5\xbf\x00\x00\x00\xa0\x99\xd9T\xc0\x00\x00\x00\x90\xeb\xa1O\xc0'
p321
tp322
bsg272
S'Cell[3].axon[258]'
p323
sI151
I120
tp324
a(F2.4968738179275176
S'Cell[0].apic[28] syn_ = new AmpaNmda(0.166666666667)'
p325
I0
(dp326
S'seg'
p327
F0.16666666666666666
sS'hostfrom'
p328
F8.0
sS'gid'
p329
I152
sS'coords'
p330
g7
(g8
(I0
tp331
g10
tp332
Rp333
(I1
(I3
tp334
g14
(S'f8'
p335
I0
I1
tp336
Rp337
(I3
S'<'
p338
NNNI-1
I-1
I0
tp339
bI00
S'\x06h\x9b\xda\xe1\x14D@k\xe1\x86\x1d\x84\xa7@@NY\x8aQ\xf1\xad\x03\xc0'
p340
tp341
bsS'secnames'
p342
S'Cell[3].axon[0]'
p343
sI152
I24
tp344
a(F2.4832990515323954
S'Cell[1].apic[49] syn_ = new AmpaNmda(0.5)'
p345
I1
(dp346
g327
F0.5
sg328
F8.0
sg329
I152
sg330
g7
(g8
(I0
tp347
g10
tp348
Rp349
(I1
(I3
tp350
g337
I00
S'\x00\x00\x00\xb0Ga,\xc0\x00\x00\x00 \x85\xabH@\x00\x00\x00\x80\xeb\xd18\xc0'
p351
tp352
bsg342
S'Cell[3].axon[486]'
p353
sI152
I72
tp354
a(F1.932822111971921
S'Cell[0].dend[15] syn_ = new AmpaNmda(0.5)'
p355
I0
(dp356
g327
F0.30000000000000004
sg328
F8.0
sg329
I152
sg330
g7
(g8
(I0
tp357
g10
tp358
Rp359
(I1
(I3
tp360
g337
I00
S'\xb1:\xd95\xb3N\x02@\n\x9d\xfe\x1a\x85\xf6\x0f\xc0\x00\x00\x00\x00)\\!\xc0'
p361
tp362
bsg342
S'Cell[3].axon[523]'
p363
sI152
I24
tp364
a(F1.289542663048081
S'Cell[0].dend[24] syn_ = new AmpaNmda(0.3)'
p365
I0
(dp366
g327
F0.5
sg328
F8.0
sg329
I104
sg330
g7
(g8
(I0
tp367
g10
tp368
Rp369
(I1
(I3
tp370
g337
I00
S'4fQ\x1e\t\x9cR@~\x85\xd0\x0f6>E\xc0\xa2:;\xa8\xf46\xe6?'
p371
tp372
bsg342
S'Cell[2].axon[93]'
p373
sI104
I24
tp374
a(F1.406126409014571
S'Cell[1].apic[48] syn_ = new AmpaNmda(0.7)'
p375
I1
(dp376
g327
F0.8999999999999999
sg328
F8.0
sg329
I104
sg330
g7
(g8
(I0
tp377
g10
tp378
Rp379
(I1
(I3
tp380
g337
I00
S'\xca\x8fzw\x18\x8d`@u(a\x99\xb0\xe88\xc0\x00\x00\x00\xc0\xccL(@'
p381
tp382
bsg342
S'Cell[2].axon[331]'
p383
sI104
I72
tp384
a(F2.0114279708508245
S'Cell[1].apic[43] syn_ = new AmpaNmda(0.7)'
p385
I1
(dp386
g327
F0.7857142857142856
sg328
F8.0
sg329
I104
sg330
g7
(g8
(I0
tp387
g10
tp388
Rp389
(I1
(I3
tp390
g337
I00
S'h\xa1\xd5\xf3\xae\x05;\xc00\xcaT\x89\xa5-]@\x00\x00\x00\x00\xd7\xa3\x00\xc0'
p391
tp392
bsg342
S'Cell[2].axon[437]'
p393
sI104
I72
tp394
a(F2.033436923176672
S'Cell[0].apic[20] syn_ = new AmpaNmda(0.1)'
p395
I0
(dp396
S'seg'
p397
F0.5
sS'hostfrom'
p398
F10.0
sS'gid'
p399
I106
sS'coords'
p400
g7
(g8
(I0
tp401
g10
tp402
Rp403
(I1
(I3
tp404
g14
(S'f8'
p405
I0
I1
tp406
Rp407
(I3
S'<'
p408
NNNI-1
I-1
I0
tp409
bI00
S'\x00\x00\x00@\\\x8f\xfa?\x00\x00\x00\xa0p\x1dQ@\x00\x00\x00\x80\xeb1G\xc0'
p410
tp411
bsS'secnames'
p412
S'Cell[2].axon[76]'
p413
sI106
I24
tp414
a(F2.2008608734922825
S'Cell[0].dend[17] syn_ = new AmpaNmda(0.166666666667)'
p415
I0
(dp416
g397
F0.5
sg398
F10.0
sg399
I106
sg400
g7
(g8
(I0
tp417
g10
tp418
Rp419
(I1
(I3
tp420
g407
I00
S'\xe1\x01\xec\x93X\xfc"\xc0\xc3\x86\xf8\xe3\xa3\xda3\xc0\x00\x00\x00\x00)\\.\xc0'
p421
tp422
bsg412
S'Cell[2].axon[122]'
p423
sI106
I24
tp424
a(F1.6116255696564503
S'Cell[1].dend[6] syn_ = new AmpaNmda(0.7)'
p425
I1
(dp426
g397
F0.5
sg398
F10.0
sg399
I106
sg400
g7
(g8
(I0
tp427
g10
tp428
Rp429
(I1
(I3
tp430
g407
I00
S'\xd2&\xc9\x1a\xb9?\xf2\xbf\x86;\x879r\xdf:\xc0\x00\x00\x00\xe0\xa3\x10B\xc0'
p431
tp432
bsg412
S'Cell[2].axon[278]'
p433
sI106
I72
tp434
a(F2.447452178934381
S'Cell[1].dend[5] syn_ = new AmpaNmda(0.1)'
p435
I1
(dp436
g397
F0.5
sg398
F10.0
sg399
I106
sg400
g7
(g8
(I0
tp437
g10
tp438
Rp439
(I1
(I3
tp440
g407
I00
S'\xcfk\xd62h@C@78o,\xfc\x0f@\xc0\x00\x00\x00\xe0Qx?\xc0'
p441
tp442
bsg412
S'Cell[2].axon[282]'
p443
sI106
I72
tp444
a(F1.8829259408132673
S'Cell[2].dend[43] syn_ = new FastInhib(0.785714285714)'
p445
I2
(dp446
g397
F0.4047619047619047
sg398
F10.0
sg399
I154
sg400
g7
(g8
(I0
tp447
g10
tp448
Rp449
(I1
(I3
tp450
g407
I00
S'\x1cx\x99\x86\xe2[(@Q\xccH\xc1\x92wd\xc0y\x047\x0f\xf5\xd1\x13@'
p451
tp452
bsg412
S'Cell[3].axon[21]'
p453
sI154
I120
tp454
a(F0.9690948675003463
S'Cell[0].apic[28] syn_ = new ExpSid(0.5)'
p455
I0
(dp456
S'seg'
p457
F0.5
sS'hostfrom'
p458
F11.0
sS'gid'
p459
I155
sS'coords'
p460
g7
(g8
(I0
tp461
g10
tp462
Rp463
(I1
(I3
tp464
g14
(S'f8'
p465
I0
I1
tp466
Rp467
(I3
S'<'
p468
NNNI-1
I-1
I0
tp469
bI00
S'\xae;B\xc2:qI@\x02Q9s\x08\xd1?@\x12\xe3\xf0\x7f5B\x17@'
p470
tp471
bsS'secnames'
p472
S'Cell[3].axon[15]'
p473
sI155
I24
tp474
a(F1.9306291640138107
S'Cell[1].apic[49] syn_ = new ExpSid(0.785714285714)'
p475
I1
(dp476
g457
F0.16666666666666666
sg458
F11.0
sg459
I155
sg460
g7
(g8
(I0
tp477
g10
tp478
Rp479
(I1
(I3
tp480
g467
I00
S'\xe7\xac\xcb\x9c\xf6\xc9E\xc08\x01\xc20\xc1\xc3Q@\xd4\xbe\xaaOR*@\xc0'
p481
tp482
bsg472
S'Cell[3].axon[65]'
p483
sI155
I72
tp484
a(F0.9084677195819099
S'Cell[1].dend[9] syn_ = new ExpSid(0.5)'
p485
I1
(dp486
g457
F0.5
sg458
F11.0
sg459
I155
sg460
g7
(g8
(I0
tp487
g10
tp488
Rp489
(I1
(I3
tp490
g467
I00
S'b#\x85j4T\x0c\xc0?^\xab\xb6\xf3a9\xc0\xdc\xbd\xa6r\xf7\x8e9@'
p491
tp492
bsg472
S'Cell[3].axon[161]'
p493
sI155
I72
tp494
a(F2.4378520223613287
S'Cell[1].dend[3] syn_ = new AmpaNmda(0.166666666667)'
p495
I1
(dp496
S'seg'
p497
F0.7
sS'hostfrom'
p498
F12.0
sS'gid'
p499
I156
sS'coords'
p500
g7
(g8
(I0
tp501
g10
tp502
Rp503
(I1
(I3
tp504
g14
(S'f8'
p505
I0
I1
tp506
Rp507
(I3
S'<'
p508
NNNI-1
I-1
I0
tp509
bI00
S'`\xf4\x13\xb5\ngD@cV\xba\x1e\x88j?\xc0\x00\x00\x00\x80\xebQC\xc0'
p510
tp511
bsS'secnames'
p512
S'Cell[3].axon[581]'
p513
sI156
I72
tp514
a(F1.5318424033151836
S'Cell[1].dend[29] syn_ = new ExpSid(0.785714285714)'
p515
I1
(dp516
S'seg'
p517
F0.22727272727272727
sS'hostfrom'
p518
F13.0
sS'gid'
p519
I157
sS'coords'
p520
g7
(g8
(I0
tp521
g10
tp522
Rp523
(I1
(I3
tp524
g14
(S'f8'
p525
I0
I1
tp526
Rp527
(I3
S'<'
p528
NNNI-1
I-1
I0
tp529
bI00
S'\x9c\x8d\xf8\x16j\x84W@B\xb2\xc2\xca\xc7\xfeb\xc0\xaa(^\x89T6C\xc0'
p530
tp531
bsS'secnames'
p532
S'Cell[3].axon[205]'
p533
sI157
I72
tp534
a(F1.3950922376714883
S'Cell[0].apic[13] syn_ = new ExpSid(0.166666666667)'
p535
I0
(dp536
g517
F0.07142857142857142
sg518
F13.0
sg519
I109
sg520
g7
(g8
(I0
tp537
g10
tp538
Rp539
(I1
(I3
tp540
g527
I00
S'\xe5\x11\xc0:\x061L@\n\xaf\xea\xd3\xd9yj@~(\x17\xb90)\x1e\xc0'
p541
tp542
bsg532
S'Cell[2].axon[12]'
p543
sI109
I24
tp544
a(F2.1797407372899706
S'Cell[0].apic[21] syn_ = new ExpSid(0.5)'
p545
I0
(dp546
g517
F0.5
sg518
F13.0
sg519
I109
sg520
g7
(g8
(I0
tp547
g10
tp548
Rp549
(I1
(I3
tp550
g527
I00
S'\xaf\x94\xecJ\x1f\x123@\x9d\xa1R\x18}\xceK@\x00\x00\x00`\x8f\xc2\xf9?'
p551
tp552
bsg532
S'Cell[2].axon[102]'
p553
sI109
I24
tp554
a(F2.3876564120804296
S'Cell[1].dend[10] syn_ = new ExpSid(0.3)'
p555
I1
(dp556
g517
F0.7
sg518
F13.0
sg519
I109
sg520
g7
(g8
(I0
tp557
g10
tp558
Rp559
(I1
(I3
tp560
g527
I00
S'\xf4l\x90~j\xba,\xc0\xf2o\r\xcdJ\xb0A\xc0\xe6\xe3f\xaaTV/@'
p561
tp562
bsg532
S'Cell[2].axon[258]'
p563
sI109
I72
tp564
a(F1.692527116519736
S'Cell[2].dend[31] syn_ = new FastInhib(0.0714285714286)'
p565
I2
(dp566
g517
F0.13636363636363635
sg518
F13.0
sg519
I13
sg520
g7
(g8
(I0
tp567
g10
tp568
Rp569
(I1
(I3
tp570
g527
I00
S'D\xcd\x89i\x18[Q@\xfct_\xff\x8a\x99F\xc0\xd9v0R]\xb6/\xc0'
p571
tp572
bsg532
S'Cell[0].axon[3]'
p573
sI13
I120
tp574
a(F2.097525091172806
S'Cell[3].dend[44] syn_ = new FastInhib(0.166666666667)'
p575
I3
(dp576
g517
F0.11538461538461539
sg518
F13.0
sg519
I61
sg520
g7
(g8
(I0
tp577
g10
tp578
Rp579
(I1
(I3
tp580
g527
I00
S'|\xf0\xba\xbf)\xea[\xc0\x12\xad9\x07\xc9\xaf^\xc0\x99\xa0\xac\x93\x9aw4\xc0'
p581
tp582
bsg532
S'Cell[1].axon[39]'
p583
sI61
I168
tp584
a(F2.341937667723265
S'Cell[1].dend[31] syn_ = new AmpaNmda(0.166666666667)'
p585
I1
(dp586
S'seg'
p587
F0.5
sS'hostfrom'
p588
F14.0
sS'gid'
p589
I110
sS'coords'
p590
g7
(g8
(I0
tp591
g10
tp592
Rp593
(I1
(I3
tp594
g14
(S'f8'
p595
I0
I1
tp596
Rp597
(I3
S'<'
p598
NNNI-1
I-1
I0
tp599
bI00
S'\x00\x00\x000\\\xefM@\x00\x00\x000\n\xb70\xc0\x00\x00\x00\xa0\x99Y3@'
p600
tp601
bsS'secnames'
p602
S'Cell[2].axon[84]'
p603
sI110
I72
tp604
a(F1.92828187397616
S'Cell[1].dend[23] syn_ = new AmpaNmda(0.5)'
p605
I1
(dp606
g587
F0.5
sg588
F14.0
sg589
I110
sg590
g7
(g8
(I0
tp607
g10
tp608
Rp609
(I1
(I3
tp610
g597
I00
S'\x0eC\x7fv\xfeFH@\xb2K\x17\x82\xa3\x90/\xc0:\x06tT\x1f\xba)@'
p611
tp612
bsg602
S'Cell[2].axon[129]'
p613
sI110
I72
tp614
a(F2.2169233510782007
S'Cell[1].dend[24] syn_ = new AmpaNmda(0.5)'
p615
I1
(dp616
g587
F0.5
sg588
F14.0
sg589
I62
sg590
g7
(g8
(I0
tp617
g10
tp618
Rp619
(I1
(I3
tp620
g597
I00
S'\x00\x00\x00\x90\x99\xb9J@\x00\x00\x00\x80\xc2\xb53\xc0\x00\x00\x00\xc0\x1e\xc50@'
p621
tp622
bsg602
S'Cell[1].soma[0]'
p623
sI62
I72
tp624
a(F2.1595870962647172
S'Cell[2].dend[43] syn_ = new FastInhib(0.0714285714286)'
p625
I2
(dp626
g587
F0.7
sg588
F14.0
sg589
I158
sg590
g7
(g8
(I0
tp627
g10
tp628
Rp629
(I1
(I3
tp630
g597
I00
S'\xde\xde\x90\xfa\x03\xdaD@\xd6\x11u\xf4\xa7,L\xc0~&aW\x9dw3\xc0'
p631
tp632
bsg602
S'Cell[3].axon[85]'
p633
sI158
I120
tp634
a(F2.4988525488687747
S'Cell[0].apic[22] syn_ = new ExpSid(0.5)'
p635
I0
(dp636
S'seg'
p637
F0.5
sS'hostfrom'
p638
F15.0
sS'gid'
p639
I111
sS'coords'
p640
g7
(g8
(I0
tp641
g10
tp642
Rp643
(I1
(I3
tp644
g14
(S'f8'
p645
I0
I1
tp646
Rp647
(I3
S'<'
p648
NNNI-1
I-1
I0
tp649
bI00
S'\xd1Z\x1a9g\x8e1@\xc6\x974\xfb"\xccH@\x0fu\x84\xaf\xbb\x99\x15@'
p650
tp651
bsS'secnames'
p652
S'Cell[2].axon[158]'
p653
sI111
I24
tp654
a(F1.3344377952601487
S'Cell[1].dend[29] syn_ = new ExpSid(0.5)'
p655
I1
(dp656
g637
F0.1
sg638
F15.0
sg639
I111
sg640
g7
(g8
(I0
tp657
g10
tp658
Rp659
(I1
(I3
tp660
g647
I00
S'\xc8\x90\xa0\r\x8bHS@\xec\x0c\x91\xe5*7[\xc0\xc4\x9bj/1\xe73\xc0'
p661
tp662
bsg652
S'Cell[2].axon[295]'
p663
sI111
I72
tp664
a(F2.3044642079572797
S'Cell[2].dend[44] syn_ = new FastInhib(0.833333333333)'
p665
I2
(dp666
g637
F0.30000000000000004
sg638
F15.0
sg639
I111
sg640
g7
(g8
(I0
tp667
g10
tp668
Rp669
(I1
(I3
tp670
g647
I00
S'\xb6\x15\xc9\x96S\xd5<@p_\xd2\x1d\x17\x1eT\xc0A\xe6\xfd\xd7%\xc6F\xc0'
p671
tp672
bsg652
S'Cell[2].axon[332]'
p673
sI111
I120
tp674
a(F2.0373598766490475
S'Cell[2].dend[14] syn_ = new FastInhib(0.5)'
p675
I2
(dp676
g637
F0.16666666666666666
sg638
F15.0
sg639
I159
sg640
g7
(g8
(I0
tp677
g10
tp678
Rp679
(I1
(I3
tp680
g647
I00
S'^U+Z\xb0w7@\x00\xb9i\xde\x80\xcei@c+S\x15\xbe\x17C\xc0'
p681
tp682
bsg652
S'Cell[3].axon[389]'
p683
sI159
I120
tp684
a(F1.903687085779401
S'Cell[2].dend[14] syn_ = new FastInhib(0.1)'
p685
I2
(dp686
S'seg'
p687
F0.8333333333333333
sS'hostfrom'
p688
F16.0
sS'gid'
p689
I160
sS'coords'
p690
g7
(g8
(I0
tp691
g10
tp692
Rp693
(I1
(I3
tp694
g14
(S'f8'
p695
I0
I1
tp696
Rp697
(I3
S'<'
p698
NNNI-1
I-1
I0
tp699
bI00
S'w5\xef\x99\x94\x14>@Y\xe4\xb4\x9f\x7f8e@Pl\x99!\xa7\xc5E\xc0'
p700
tp701
bsS'secnames'
p702
S'Cell[3].axon[29]'
p703
sI160
I120
tp704
a(F2.2909390259657076
S'Cell[2].dend[13] syn_ = new FastInhib(0.7)'
p705
I2
(dp706
g687
F0.5
sg688
F16.0
sg689
I160
sg690
g7
(g8
(I0
tp707
g10
tp708
Rp709
(I1
(I3
tp710
g697
I00
S'\xaacv\xfdk\xd3A@\n\xcah\x11|N`@\xc7\xcf\x97\xac\xe69C\xc0'
p711
tp712
bsg702
S'Cell[3].axon[41]'
p713
sI160
I120
tp714
a(F1.6231081117107697
S'Cell[2].dend[5] syn_ = new FastInhib(0.5)'
p715
I2
(dp716
g687
F0.8333333333333333
sg688
F16.0
sg689
I160
sg690
g7
(g8
(I0
tp717
g10
tp718
Rp719
(I1
(I3
tp720
g697
I00
S'gc00/\xb16@\xd7\xab\xad\x0f\xae\xb5]@\x00\x00\x00\x00)\\\x10@'
p721
tp722
bsg702
S'Cell[3].axon[46]'
p723
sI160
I120
tp724
a(F1.3598602812024174
S'Cell[0].dend[17] syn_ = new AmpaNmda(0.5)'
p725
I0
(dp726
g687
F0.1
sg688
F16.0
sg689
I160
sg690
g7
(g8
(I0
tp727
g10
tp728
Rp729
(I1
(I3
tp730
g697
I00
S'RQ\x86\nkV8\xc0\xa6\xdbz\xf1)\xbbB\xc0\x8f\x8f]Zi\xc5?\xc0'
p731
tp732
bsg702
S'Cell[3].axon[75]'
p733
sI160
I24
tp734
a(F2.2657214816346207
S'Cell[0].dend[12] syn_ = new AmpaNmda(0.5)'
p735
I0
(dp736
g687
F0.1
sg688
F16.0
sg689
I112
sg690
g7
(g8
(I0
tp737
g10
tp738
Rp739
(I1
(I3
tp740
g697
I00
S'\xf9\xf0\xffK\x980/@\xe5\xc6\x19\x94\xb3\x01;\xc0n\xb5\x0e\xa2\xe7\xa7&@'
p741
tp742
bsg702
S'Cell[2].axon[9]'
p743
sI112
I24
tp744
a(F1.67633362467068
S'Cell[1].apic[1] syn_ = new AmpaNmda(0.5)'
p745
I1
(dp746
g687
F0.5
sg688
F16.0
sg689
I112
sg690
g7
(g8
(I0
tp747
g10
tp748
Rp749
(I1
(I3
tp750
g697
I00
S'>\xef\xc31\xa3\xedE@\x82Q\x03\xba\xb0\xf2@@q\xddf\x0e\xedK\xd1?'
p751
tp752
bsg702
S'Cell[2].axon[92]'
p753
sI112
I72
tp754
a(F1.8293233337998096
S'Cell[1].apic[2] syn_ = new AmpaNmda(0.5)'
p755
I1
g746
I112
I72
tp756
a(F2.362603507532747
S'Cell[0].dend[7] syn_ = new ExpSid(0.833333333333)'
p757
I0
(dp758
S'seg'
p759
F0.5
sS'hostfrom'
p760
F17.0
sS'gid'
p761
I17
sS'coords'
p762
g7
(g8
(I0
tp763
g10
tp764
Rp765
(I1
(I3
tp766
g14
(S'f8'
p767
I0
I1
tp768
Rp769
(I3
S'<'
p770
NNNI-1
I-1
I0
tp771
bI00
S'\xbe\x93`e\x07{S\xc0\xc0\xf0\x05\xf3\xbf\xea\x0c\xc0\x00\x00\x00@\xe1z\x14@'
p772
tp773
bsS'secnames'
p774
S'Cell[0].axon[11]'
p775
sI17
I24
tp776
a(F1.7414379884824776
S'Cell[1].dend[30] syn_ = new ExpSid(0.642857142857)'
p777
I1
(dp778
g759
F0.5
sg760
F17.0
sg761
I113
sg762
g7
(g8
(I0
tp779
g10
tp780
Rp781
(I1
(I3
tp782
g769
I00
S'\xbc\xdf\x8e\xfd\xc6\xa9\x15\xc0\x06\x06\xccM\xacr\\\xc0\xc1\xbe\xa7\xad\xe7\xe3\x10\xc0'
p783
tp784
bsg774
S'Cell[2].axon[79]'
p785
sI113
I72
tp786
a(F2.077520801929776
S'Cell[2].dend[43] syn_ = new FastInhib(0.642857142857)'
p787
I2
(dp788
g759
F0.16666666666666666
sg760
F17.0
sg761
I113
sg762
g7
(g8
(I0
tp789
g10
tp790
Rp791
(I1
(I3
tp792
g769
I00
S'\x82\x93\xfe\xbe6\x049@?\xf8q>jWb\xc0\x00\x00\x00\xa0p=\xf6?'
p793
tp794
bsg774
S'Cell[2].axon[287]'
p795
sI113
I120
tp796
a(F1.3568516533321706
S'Cell[2].dend[32] syn_ = new FastInhib(0.5)'
p797
I2
(dp798
g759
F0.5
sg760
F17.0
sg761
I113
sg762
g7
(g8
(I0
tp799
g10
tp800
Rp801
(I1
(I3
tp802
g769
I00
S'\xb4\xe6\xa3\xfa_\xe0]@\xcc\xfbS\x05\xa5\xdch\xc0\xa1B_\x8e\xb7u%\xc0'
p803
tp804
bsg774
S'Cell[2].axon[455]'
p805
sI113
I120
tp806
a(F1.498243616010745
S'Cell[1].apic[49] syn_ = new ExpSid(0.357142857143)'
p807
I1
(dp808
g759
F0.7
sg760
F17.0
sg761
I113
sg762
g7
(g8
(I0
tp809
g10
tp810
Rp811
(I1
(I3
tp812
g769
I00
S'\x10\x0e\xdc|$a\xf4?\xa6<\x8eyLbA@\xaaI\xac\xf1\xa4\xf36\xc0'
p813
tp814
bsg774
S'Cell[2].axon[512]'
p815
sI113
I72
tp816
a(F2.0806693919166994
S'Cell[0].apic[5] syn_ = new ExpSid(0.5)'
p817
I0
(dp818
g759
F0.1
sg760
F17.0
sg761
I161
sg762
g7
(g8
(I0
tp819
g10
tp820
Rp821
(I1
(I3
tp822
g769
I00
S'\xfd\x07G?\x0c\xf74@\x0f g\xb8\xe8mf@\x9a\x01\xa4z\xfa\xea\xfb?'
p823
tp824
bsg774
S'Cell[3].axon[214]'
p825
sI161
I24
tp826
a(F2.3620457082052004
S'Cell[1].dend[30] syn_ = new AmpaNmda(0.5)'
p827
I1
(dp828
S'seg'
p829
F0.5
sS'hostfrom'
p830
F18.0
sS'gid'
p831
I66
sS'coords'
p832
g7
(g8
(I0
tp833
g10
tp834
Rp835
(I1
(I3
tp836
g14
(S'f8'
p837
I0
I1
tp838
Rp839
(I3
S'<'
p840
NNNI-1
I-1
I0
tp841
bI00
S'\xe8\x94\x0f\x1c|\x8d\xd5?\x8d\x1c\x17b\xab#W\xc0\x00\x00\x00\xc0\xcc\xcc\x1a\xc0'
p842
tp843
bsS'secnames'
p844
S'Cell[1].axon[35]'
p845
sI66
I72
tp846
a(F1.5048007965100694
S'Cell[1].apic[41] syn_ = new AmpaNmda(0.3)'
p847
I1
(dp848
g829
F0.8999999999999999
sg830
F18.0
sg831
I162
sg832
g7
(g8
(I0
tp849
g10
tp850
Rp851
(I1
(I3
tp852
g839
I00
S'T\x8a\x9av\xe3\xf5=@([\xbd\xac\xf0\x10b@\xf8\xe1\xd4\xf00\xccB@'
p853
tp854
bsg844
S'Cell[3].axon[83]'
p855
sI162
I72
tp856
a(F1.5740846975790146
S'Cell[1].dend[15] syn_ = new AmpaNmda(0.9)'
p857
I1
(dp858
g829
F0.8333333333333333
sg830
F18.0
sg831
I162
sg832
g7
(g8
(I0
tp859
g10
tp860
Rp861
(I1
(I3
tp862
g839
I00
S'\x8d.\x0b\x91\x10\x14<\xc0\x94\xf3\xbe\xaf\xa3\xa9\xd2?\xc2\xb9\xdai\xfdT\xde\xbf'
p863
tp864
bsg844
S'Cell[3].axon[103]'
p865
sI162
I72
tp866
a(F1.9789622882149163
S'Cell[0].apic[21] syn_ = new ExpSid(0.5)'
p867
I0
(dp868
S'seg'
p869
F0.16666666666666666
sS'hostfrom'
p870
F19.0
sS'gid'
p871
I115
sS'coords'
p872
g7
(g8
(I0
tp873
g10
tp874
Rp875
(I1
(I3
tp876
g14
(S'f8'
p877
I0
I1
tp878
Rp879
(I3
S'<'
p880
NNNI-1
I-1
I0
tp881
bI00
S'\x14\\\xd0\xddb\xd65@x;\xf3+\xe0\xbaK@\xe3\xb4#Ur\xb0\xe0?'
p882
tp883
bsS'secnames'
p884
S'Cell[2].axon[78]'
p885
sI115
I24
tp886
a(F0.8471398794363821
S'Cell[1].dend[8] syn_ = new AmpaNmda(0.833333333333)'
p887
I1
(dp888
S'seg'
p889
F0.16666666666666666
sS'hostfrom'
p890
F20.0
sS'gid'
p891
I68
sS'coords'
p892
g7
(g8
(I0
tp893
g10
tp894
Rp895
(I1
(I3
tp896
g14
(S'f8'
p897
I0
I1
tp898
Rp899
(I3
S'<'
p900
NNNI-1
I-1
I0
tp901
bI00
S'\xe87\xd5c+\xcd6@P\xd6\xd3\xb2\x04\xfe;\xc0\x00\x00\x00@33\x1d@'
p902
tp903
bsS'secnames'
p904
S'Cell[1].axon[28]'
p905
sI68
I72
tp906
a(F2.1632181990826806
S'Cell[3].dend[14] syn_ = new FastInhib(0.166666666667)'
p907
I3
(dp908
g889
F0.16666666666666666
sg890
F20.0
sg891
I116
sg892
g7
(g8
(I0
tp909
g10
tp910
Rp911
(I1
(I3
tp912
g899
I00
S'\x92\x12E\xeeCzE\xc0y>\xfe&Z~E\xc0\xee\x82\xf4\x02\xa4Z5\xc0'
p913
tp914
bsg904
S'Cell[2].axon[186]'
p915
sI116
I168
tp916
a(F0.5705091257965829
S'Cell[1].apic[49] syn_ = new ExpSid(0.5)'
p917
I1
(dp918
S'seg'
p919
F0.5
sS'hostfrom'
p920
F21.0
sS'gid'
p921
I117
sS'coords'
p922
g7
(g8
(I0
tp923
g10
tp924
Rp925
(I1
(I3
tp926
g14
(S'f8'
p927
I0
I1
tp928
Rp929
(I3
S'<'
p930
NNNI-1
I-1
I0
tp931
bI00
S'\t\xb8\xf4kf\xf2(\xc0\x19MXg8\x95G@\x00\x00\x00\x80\xc2u9\xc0'
p932
tp933
bsS'secnames'
p934
S'Cell[2].axon[12]'
p935
sI117
I72
tp936
a(F1.60909978826976
S'Cell[1].apic[51] syn_ = new ExpSid(0.214285714286)'
p937
I1
(dp938
g919
F0.5
sg920
F21.0
sg921
I117
sg922
g7
(g8
(I0
tp939
g10
tp940
Rp941
(I1
(I3
tp942
g929
I00
S'\x18N]\xbe\xc45I@\x0e\xe7\x03\xbde%I@\x00\x00\x00\x80\xc2u9\xc0'
p943
tp944
bsg934
S'Cell[2].axon[81]'
p945
sI117
I72
tp946
a(F1.7537305442315327
S'Cell[0].apic[16] syn_ = new ExpSid(0.833333333333)'
p947
I0
(dp948
g919
F0.5
sg920
F21.0
sg921
I117
sg922
g7
(g8
(I0
tp949
g10
tp950
Rp951
(I1
(I3
tp952
g929
I00
S'\x84\xe5\x07\xc9\x99D @\xb2LpZa\x03R@\x00\x00\x00\x80\xc2u9\xc0'
p953
tp954
bsg934
S'Cell[2].axon[266]'
p955
sI117
I24
tp956
a(F1.9320312742297614
S'Cell[0].apic[16] syn_ = new ExpSid(0.833333333333)'
p957
I0
(dp958
g919
F0.5
sg920
F21.0
sg921
I117
sg922
g7
(g8
(I0
tp959
g10
tp960
Rp961
(I1
(I3
tp962
g929
I00
S'\xf2\xf1(\xa5\xcb\xa8"@\xa2\xf2@\xa9\xc1\x92R@\x00\x00\x00\x80\xc2u9\xc0'
p963
tp964
bsg934
S'Cell[2].axon[280]'
p965
sI117
I24
tp966
a(F1.2577933271330684
S'Cell[1].dend[30] syn_ = new AmpaNmda(0.214285714286)'
p967
I1
(dp968
S'seg'
p969
F0.7
sS'hostfrom'
p970
F22.0
sS'gid'
p971
I70
sS'coords'
p972
g7
(g8
(I0
tp973
g10
tp974
Rp975
(I1
(I3
tp976
g14
(S'f8'
p977
I0
I1
tp978
Rp979
(I3
S'<'
p980
NNNI-1
I-1
I0
tp981
bI00
S'\xec\x13|\x9f\xee\t>@\xd6\xdd\xfa\xdd\xac\x82N\xc0\x07o1\xb7\x92\xf3\xfb?'
p982
tp983
bsS'secnames'
p984
S'Cell[1].axon[7]'
p985
sI70
I72
tp986
a(F2.2561573399522064
S'Cell[3].apic[3] syn_ = new FastInhib(0.166666666667)'
p987
I3
(dp988
g969
F0.5
sg970
F22.0
sg971
I70
sg972
g7
(g8
(I0
tp989
g10
tp990
Rp991
(I1
(I3
tp992
g979
I00
S'\xbc\xc2\x02T\xc6PQ\xc0\xc4\xad\xe8\xaf\x02\x1df\xc0\x1fR\x03\xe4\xda\x89\x11\xc0'
p993
tp994
bsg984
S'Cell[1].axon[25]'
p995
sI70
I168
tp996
a(F1.579004583247622
S'Cell[1].dend[34] syn_ = new AmpaNmda(0.5)'
p997
I1
(dp998
g969
F0.5
sg970
F22.0
sg971
I166
sg972
g7
(g8
(I0
tp999
g10
tp1000
Rp1001
(I1
(I3
tp1002
g979
I00
S'\x0f\x98\x86^\xf0/Q@\xa5\xfd\x15\x04\xf6p)@\xa4\xfd\x15D\xd7\xeb \xc0'
p1003
tp1004
bsg984
S'Cell[3].axon[309]'
p1005
sI166
I72
tp1006
a(F0.6954903886959334
S'Cell[0].apic[25] syn_ = new ExpSid(0.5)'
p1007
I0
(dp1008
S'seg'
p1009
F0.5
sS'hostfrom'
p1010
F23.0
sS'gid'
p1011
I119
sS'coords'
p1012
g7
(g8
(I0
tp1013
g10
tp1014
Rp1015
(I1
(I3
tp1016
g14
(S'f8'
p1017
I0
I1
tp1018
Rp1019
(I3
S'<'
p1020
NNNI-1
I-1
I0
tp1021
bI00
S'\x1c\xc1"\xdePh2@\x98N0msTJ@I\xecR\xb4\xf7\x11\x12@'
p1022
tp1023
bsS'secnames'
p1024
S'Cell[2].axon[0]'
p1025
sI119
I24
tp1026
a(F0.6650331177967334
S'Cell[3].dend[9] syn_ = new FastInhib(0.5)'
p1027
I3
(dp1028
g1009
F0.8333333333333333
sg1010
F23.0
sg1011
I167
sg1012
g7
(g8
(I0
tp1029
g10
tp1030
Rp1031
(I1
(I3
tp1032
g1019
I00
S'\xd0\xe2\x85\x9b\xf1US\xc0\x8cA\x11\x00\x03\xe9Q\xc0\xbf\x00\x17v\x1d\xec*\xc0'
p1033
tp1034
bsg1024
S'Cell[3].axon[7]'
p1035
sI167
I168
tp1036
a(F2.4395609476192575
S'Cell[1].apic[54] syn_ = new ExpSid(0.5)'
p1037
I1
(dp1038
g1009
F0.5
sg1010
F23.0
sg1011
I167
sg1012
g7
(g8
(I0
tp1039
g10
tp1040
Rp1041
(I1
(I3
tp1042
g1019
I00
S'\xa25H\x99\xefd;\xc0(\x9d\xf7\x8f\xa3|;@\x10O9\xcd\x84\t0\xc0'
p1043
tp1044
bsg1024
S'Cell[3].axon[168]'
p1045
sI167
I72
tp1046
a(F2.0112980203355812
S'Cell[0].apic[11] syn_ = new ExpSid(0.833333333333)'
p1047
I0
(dp1048
g1009
F0.5
sg1010
F23.0
sg1011
I23
sg1012
g7
(g8
(I0
tp1049
g10
tp1050
Rp1051
(I1
(I3
tp1052
g1019
I00
S'\xb1H4\xcc\xa6GI@&;\x19\xe4\xadjh@\xea\xea\x03]\x9aL\xfd\xbf'
p1053
tp1054
bsg1024
S'Cell[0].axon[4]'
p1055
sI23
I24
tp1056
a(F0.8490124802408778
S'Cell[1].dend[12] syn_ = new AmpaNmda(0.5)'
p1057
I1
(dp1058
S'seg'
p1059
F0.16666666666666666
sS'hostfrom'
p1060
F24.0
sS'gid'
p1061
I120
sS'coords'
p1062
g7
(g8
(I0
tp1063
g10
tp1064
Rp1065
(I1
(I3
tp1066
g14
(S'f8'
p1067
I0
I1
tp1068
Rp1069
(I3
S'<'
p1070
NNNI-1
I-1
I0
tp1071
bI00
S'3\x0fB\xa3\x89\x90:@\xa4\x13\xec.b\xb1;\xc0\x00\x00\x00\xa0\x99\x99\x1a\xc0'
p1072
tp1073
bsS'secnames'
p1074
S'Cell[2].axon[45]'
p1075
sI120
I72
tp1076
a(F1.4457691748183419
S'Cell[1].dend[6] syn_ = new AmpaNmda(0.5)'
p1077
I1
(dp1078
g1059
F0.5
sg1060
F24.0
sg1061
I120
sg1062
g7
(g8
(I0
tp1079
g10
tp1080
Rp1081
(I1
(I3
tp1082
g1069
I00
S'\xb6\x9a\xcf\xa7\xfd\xd61@\x06 \x01\xc0\x06/3\xc0\x81+\t6\x0e\x16B\xc0'
p1083
tp1084
bsg1074
S'Cell[2].axon[55]'
p1085
sI120
I72
tp1086
a(F2.197917740383113
S'Cell[0].dend[6] syn_ = new ExpSid(0.5)'
p1087
I0
(dp1088
S'seg'
p1089
F0.16666666666666666
sS'hostfrom'
p1090
F25.0
sS'gid'
p1091
I121
sS'coords'
p1092
g7
(g8
(I0
tp1093
g10
tp1094
Rp1095
(I1
(I3
tp1096
g14
(S'f8'
p1097
I0
I1
tp1098
Rp1099
(I3
S'<'
p1100
NNNI-1
I-1
I0
tp1101
bI00
S'\xc2"\xcdN\tO\x01\xc0\xc0T\x02\xeb\x0b\xce3@\x00\x00\x00@3\xb32\xc0'
p1102
tp1103
bsS'secnames'
p1104
S'Cell[2].axon[5]'
p1105
sI121
I24
tp1106
a(F1.5124821638807495
S'Cell[0].apic[20] syn_ = new ExpSid(0.1)'
p1107
I0
(dp1108
g1089
F0.16666666666666666
sg1090
F25.0
sg1091
I121
sg1092
g7
(g8
(I0
tp1109
g10
tp1110
Rp1111
(I1
(I3
tp1112
g1099
I00
S'\xcc\xc3l|\xef\xab\xf0?\xa4\x02\x80\x00\xa2`P@\xd85>/2\xd3G\xc0'
p1113
tp1114
bsg1104
S'Cell[2].axon[17]'
p1115
sI121
I24
tp1116
a(F1.993117914047222
S'Cell[2].dend[7] syn_ = new FastInhib(0.833333333333)'
p1117
I2
(dp1118
S'seg'
p1119
F0.5
sS'hostfrom'
p1120
F26.0
sS'gid'
p1121
I170
sS'coords'
p1122
g7
(g8
(I0
tp1123
g10
tp1124
Rp1125
(I1
(I3
tp1126
g14
(S'f8'
p1127
I0
I1
tp1128
Rp1129
(I3
S'<'
p1130
NNNI-1
I-1
I0
tp1131
bI00
S'\xec\x11\xb8\xf38&V@\xe8\x06\x96\x93\x97\x90j@\nj\x15\xeb\xbc\xea=\xc0'
p1132
tp1133
bsS'secnames'
p1134
S'Cell[3].axon[16]'
p1135
sI170
I120
tp1136
a(F2.235583409685298
S'Cell[0].apic[11] syn_ = new AmpaNmda(0.166666666667)'
p1137
I0
(dp1138
g1119
F0.8333333333333333
sg1120
F26.0
sg1121
I170
sg1122
g7
(g8
(I0
tp1139
g10
tp1140
Rp1141
(I1
(I3
tp1142
g1129
I00
S'\xbe\xc7\xe4{\xfdoA@\x9en\x85\x03\xec\xccc@\x00\x00\x00\xa0\x99\x99\xb9\xbf'
p1143
tp1144
bsg1134
S'Cell[3].axon[166]'
p1145
sI170
I24
tp1146
a(F1.5398168701176254
S'Cell[1].apic[51] syn_ = new AmpaNmda(0.0714285714286)'
p1147
I1
(dp1148
g1119
F0.5
sg1120
F26.0
sg1121
I170
sg1122
g7
(g8
(I0
tp1149
g10
tp1150
Rp1151
(I1
(I3
tp1152
g1129
I00
S'\xb4\xc6\tX\r\x14F@\xb8\xea_\x9f\nDG@\xddB\xe3"w\x08\x1a\xc0'
p1153
tp1154
bsg1134
S'Cell[3].axon[474]'
p1155
sI170
I72
tp1156
a(F2.4956157286631555
S'Cell[0].dend[7] syn_ = new ExpSid(0.833333333333)'
p1157
I0
(dp1158
S'seg'
p1159
F0.6818181818181819
sS'hostfrom'
p1160
F27.0
sS'gid'
p1161
I75
sS'coords'
p1162
g7
(g8
(I0
tp1163
g10
tp1164
Rp1165
(I1
(I3
tp1166
g14
(S'f8'
p1167
I0
I1
tp1168
Rp1169
(I3
S'<'
p1170
NNNI-1
I-1
I0
tp1171
bI00
S'\x01\xc7K\x0e@{S\xc0\xdd\xc2\xc4\xac\x0b0\x1b\xc0\xa6\xe4\xd7d/s\xff?'
p1172
tp1173
bsS'secnames'
p1174
S'Cell[1].axon[14]'
p1175
sI75
I24
tp1176
a(F2.4481331812426124
S'Cell[1].apic[48] syn_ = new ExpSid(0.1)'
p1177
I1
(dp1178
g1159
F0.5
sg1160
F27.0
sg1161
I171
sg1162
g7
(g8
(I0
tp1179
g10
tp1180
Rp1181
(I1
(I3
tp1182
g1169
I00
S'\xa2\x94\xbaZ\x19|Q@\x87L)B\x81\x10@@\xbcT\xadj\xeb\x8e\x16@'
p1183
tp1184
bsg1174
S'Cell[3].axon[11]'
p1185
sI171
I72
tp1186
a(F2.132990848781739
S'Cell[2].dend[5] syn_ = new FastInhib(0.5)'
p1187
I2
(dp1188
g1159
F0.5
sg1160
F27.0
sg1161
I171
sg1162
g7
(g8
(I0
tp1189
g10
tp1190
Rp1191
(I1
(I3
tp1192
g1169
I00
S'\x9c\xb0\xff\r@<7@\xc8\x8f\x00\xc7\xdf,^@\xa6Y\x92\x15\xfa\x8d\x13@'
p1193
tp1194
bsg1174
S'Cell[3].axon[48]'
p1195
sI171
I120
tp1196
a(F2.342370844294869
S'Cell[0].dend[26] syn_ = new AmpaNmda(0.833333333333)'
p1197
I0
(dp1198
S'seg'
p1199
F0.5
sS'hostfrom'
p1200
F28.0
sS'gid'
p1201
I76
sS'coords'
p1202
g7
(g8
(I0
tp1203
g10
tp1204
Rp1205
(I1
(I3
tp1206
g14
(S'f8'
p1207
I0
I1
tp1208
Rp1209
(I3
S'<'
p1210
NNNI-1
I-1
I0
tp1211
bI00
S"\xec\xdaJL\x8b6F@L\x91\x08\xdfA\xd3A\xc0\xfcL\xcf\x8b\xa7\x95'@"
p1212
tp1213
bsS'secnames'
p1214
S'Cell[1].axon[19]'
p1215
sI76
I24
tp1216
a(F2.3036175091401287
S'Cell[1].dend[10] syn_ = new AmpaNmda(0.7)'
p1217
I1
(dp1218
g1199
F0.8333333333333333
sg1200
F28.0
sg1201
I172
sg1202
g7
(g8
(I0
tp1219
g10
tp1220
Rp1221
(I1
(I3
tp1222
g1209
I00
S's\xbdL\xcc\xaf\x18G\xc0<\xe9\xa6\xe5\xb5:H\xc0\xc5\xfb\xa59R\xee<@'
p1223
tp1224
bsg1214
S'Cell[3].axon[52]'
p1225
sI172
I72
tp1226
a(F1.070390842289141
S'Cell[2].dend[14] syn_ = new FastInhib(0.5)'
p1227
I2
(dp1228
S'seg'
p1229
F0.21428571428571427
sS'hostfrom'
p1230
F29.0
sS'gid'
p1231
I173
sS'coords'
p1232
g7
(g8
(I0
tp1233
g10
tp1234
Rp1235
(I1
(I3
tp1236
g14
(S'f8'
p1237
I0
I1
tp1238
Rp1239
(I3
S'<'
p1240
NNNI-1
I-1
I0
tp1241
bI00
S's\xb5\x17J\xda\xe78@\xd5F~\x17\xdf\xcei@\x8c\x8e\x1a\x04\xd8CC\xc0'
p1242
tp1243
bsS'secnames'
p1244
S'Cell[3].axon[56]'
p1245
sI173
I120
tp1246
a(F2.3560476819627567
S'Cell[1].apic[49] syn_ = new AmpaNmda(0.214285714286)'
p1247
I1
(dp1248
S'seg'
p1249
F0.16666666666666666
sS'hostfrom'
p1250
F30.0
sS'gid'
p1251
I126
sS'coords'
p1252
g7
(g8
(I0
tp1253
g10
tp1254
Rp1255
(I1
(I3
tp1256
g14
(S'f8'
p1257
I0
I1
tp1258
Rp1259
(I3
S'<'
p1260
NNNI-1
I-1
I0
tp1261
bI00
S'\xb8N.\xb7R^0@\x1b\x88\xe3\xef\xf14?@\x00\x00\x00\x00\xd7\xa3 \xc0'
p1262
tp1263
bsS'secnames'
p1264
S'Cell[2].axon[3]'
p1265
sI126
I72
tp1266
a(F2.497330916418855
S'Cell[1].apic[49] syn_ = new AmpaNmda(0.214285714286)'
p1267
I1
(dp1268
g1249
F0.5
sg1250
F30.0
sg1251
I126
sg1252
g7
(g8
(I0
tp1269
g10
tp1270
Rp1271
(I1
(I3
tp1272
g1259
I00
S'\x00\x00\x00\xe0Q\xf82@\x00\x00\x00\x10\xaegA@\x00\x00\x00\x00\xd7\xa3\x19\xc0'
p1273
tp1274
bsg1264
S'Cell[2].axon[29]'
p1275
sI126
I72
tp1276
a(F1.299333339801329
S'Cell[0].apic[16] syn_ = new AmpaNmda(0.833333333333)'
p1277
I0
(dp1278
g1249
F0.5
sg1250
F30.0
sg1251
I126
sg1252
g7
(g8
(I0
tp1279
g10
tp1280
Rp1281
(I1
(I3
tp1282
g1259
I00
S'`\x8a\x04Q\x98\x92!@\xaa"\xf3\xa8\xa0\xe5Q@z\xfc2+l\xc8:\xc0'
p1283
tp1284
bsg1264
S'Cell[2].axon[54]'
p1285
sI126
I24
tp1286
a(F2.0703149413080415
S'Cell[3].dend[12] syn_ = new FastInhib(0.5)'
p1287
I3
(dp1288
g1249
F0.5
sg1250
F30.0
sg1251
I174
sg1252
g7
(g8
(I0
tp1289
g10
tp1290
Rp1291
(I1
(I3
tp1292
g1259
I00
S'0\x11\xbdT\xc6@M\xc04v$f\xe0`K\xc0;\x04T\x94\xe5\xc05\xc0'
p1293
tp1294
bsg1264
S'Cell[3].axon[341]'
p1295
sI174
I168
tp1296
a(F2.2710343410565206
S'Cell[2].dend[43] syn_ = new FastInhib(0.214285714286)'
p1297
I2
(dp1298
S'seg'
p1299
F0.1
sS'hostfrom'
p1300
F31.0
sS'gid'
p1301
I127
sS'coords'
p1302
g7
(g8
(I0
tp1303
g10
tp1304
Rp1305
(I1
(I3
tp1306
g14
(S'f8'
p1307
I0
I1
tp1308
Rp1309
(I3
S'<'
p1310
NNNI-1
I-1
I0
tp1311
bI00
S'\x9a\x8d\xbaD\xca\xd0F@\x91\xd9@\xfe\r\x04T\xc0\xf4v?\x12\x05\x89(\xc0'
p1312
tp1313
bsS'secnames'
p1314
S'Cell[2].axon[24]'
p1315
sI127
I120
tp1316
a(F2.4362211841799706
S'Cell[3].dend[12] syn_ = new FastInhib(0.5)'
p1317
I3
(dp1318
g1299
F0.1
sg1300
F31.0
sg1301
I175
sg1302
g7
(g8
(I0
tp1319
g10
tp1320
Rp1321
(I1
(I3
tp1322
g1309
I00
S'.\xf4\xc5\n\xdf1L\xc0,\x8d&\xb5\xa3\xa4L\xc0D\xb1\x8a\xfeo\xd76\xc0'
p1323
tp1324
bsg1314
S'Cell[3].axon[240]'
p1325
sI175
I168
tp1326
a(F2.110457713588398
S'Cell[1].dend[18] syn_ = new AmpaNmda(0.833333333333)'
p1327
I1
(dp1328
S'seg'
p1329
F0.5
sS'hostfrom'
p1330
F32.0
sS'gid'
p1331
I32
sS'coords'
p1332
g7
(g8
(I0
tp1333
g10
tp1334
Rp1335
(I1
(I3
tp1336
g14
(S'f8'
p1337
I0
I1
tp1338
Rp1339
(I3
S'<'
p1340
NNNI-1
I-1
I0
tp1341
bI00
S'\xc4;\xc09\xc3JT@\xda\x9d\x1e\xf5\xda|P\xc0\x14\xed\xadG\xfdG6@'
p1342
tp1343
bsS'secnames'
p1344
S'Cell[0].axon[35]'
p1345
sI32
I72
tp1346
a(F1.8752490623373737
S'Cell[3].dend[39] syn_ = new FastInhib(0.5)'
p1347
I3
(dp1348
S'seg'
p1349
F0.7
sS'hostfrom'
p1350
F33.0
sS'gid'
p1351
I81
sS'coords'
p1352
g7
(g8
(I0
tp1353
g10
tp1354
Rp1355
(I1
(I3
tp1356
g14
(S'f8'
p1357
I0
I1
tp1358
Rp1359
(I3
S'<'
p1360
NNNI-1
I-1
I0
tp1361
bI00
S"|\xbbi0\x12;[\xc0\xe0\xea\x88\x10\x9d\x8c_\xc0\xac\x89[\xfa\xd6\x96'\xc0"
p1362
tp1363
bsS'secnames'
p1364
S'Cell[1].axon[21]'
p1365
sI81
I168
tp1366
a(F2.3007297170684655
S'Cell[1].apic[43] syn_ = new AmpaNmda(0.9)'
p1367
I1
(dp1368
S'seg'
p1369
F0.5
sS'hostfrom'
p1370
F34.0
sS'gid'
p1371
I82
sS'coords'
p1372
g7
(g8
(I0
tp1373
g10
tp1374
Rp1375
(I1
(I3
tp1376
g14
(S'f8'
p1377
I0
I1
tp1378
Rp1379
(I3
S'<'
p1380
NNNI-1
I-1
I0
tp1381
bI00
S'W=l\x7f\xbc\\A\xc06CJ\xd1\xa3\xed`@\x00\x00\x00\xa0\x99\x99\x1b\xc0'
p1382
tp1383
bsS'secnames'
p1384
S'Cell[1].axon[193]'
p1385
sI82
I72
tp1386
a(F2.353091788007824
S'Cell[0].dend[1] syn_ = new AmpaNmda(0.5)'
p1387
I0
(dp1388
g1369
F0.3181818181818182
sg1370
F34.0
sg1371
I82
sg1372
g7
(g8
(I0
tp1389
g10
tp1390
Rp1391
(I1
(I3
tp1392
g1379
I00
S'\xfd\xcaYR\xdf\xc4%\xc0\xa2\xa2\xa9)\x01A+@T%Y,\xbe\xba=\xc0'
p1393
tp1394
bsg1384
S'Cell[1].axon[264]'
p1395
sI82
I24
tp1396
a(F1.877903685971798
S'Cell[2].dend[17] syn_ = new FastInhib(0.5)'
p1397
I2
(dp1398
g1369
F0.07142857142857142
sg1370
F34.0
sg1371
I82
sg1372
g7
(g8
(I0
tp1399
g10
tp1400
Rp1401
(I1
(I3
tp1402
g1379
I00
S'\xa6>,D\rM)@\xf2(\xe2/\xbddg@\x00\x00\x00\x00\xd7#N\xc0'
p1403
tp1404
bsg1384
S'Cell[1].axon[266]'
p1405
sI82
I120
tp1406
a(F2.4051488231825298
S'Cell[0].apic[16] syn_ = new AmpaNmda(0.833333333333)'
p1407
I0
(dp1408
S'seg'
p1409
F0.5
sS'hostfrom'
p1410
F36.0
sS'gid'
p1411
I84
sS'coords'
p1412
g7
(g8
(I0
tp1413
g10
tp1414
Rp1415
(I1
(I3
tp1416
g14
(S'f8'
p1417
I0
I1
tp1418
Rp1419
(I3
S'<'
p1420
NNNI-1
I-1
I0
tp1421
bI00
S'?5\xe4qq\x9b!@\xd2D]\xfcY\xcfR@\x00\x00\x00@\xe1\xfa:\xc0'
p1422
tp1423
bsS'secnames'
p1424
S'Cell[1].axon[77]'
p1425
sI84
I24
tp1426
a(F1.9562523569517436
S'Cell[2].dend[17] syn_ = new FastInhib(0.5)'
p1427
I2
(dp1428
g1409
F0.7
sg1410
F36.0
sg1411
I84
sg1412
g7
(g8
(I0
tp1429
g10
tp1430
Rp1431
(I1
(I3
tp1432
g1419
I00
S'\xa5\xf3 ]\xcd\xcf,@@JW\xa7_-g@25J\xc0\xb7eM\xc0'
p1433
tp1434
bsg1424
S'Cell[1].axon[197]'
p1435
sI84
I120
tp1436
a(F1.691815116978971
S'Cell[1].apic[38] syn_ = new AmpaNmda(0.5)'
p1437
I1
(dp1438
g1409
F0.5
sg1410
F36.0
sg1411
I84
sg1412
g7
(g8
(I0
tp1439
g10
tp1440
Rp1441
(I1
(I3
tp1442
g1419
I00
S'\xca\x98\x91b\xca\x89J@6\n\xc5U6\xce[@\xa8\x7f\xaf\x07vw\xf5\xbf'
p1443
tp1444
bsg1424
S'Cell[1].axon[249]'
p1445
sI84
I72
tp1446
a(F1.6399130805987607
S'Cell[3].dend[17] syn_ = new FastInhib(0.5)'
p1447
I3
(dp1448
g1409
F0.30000000000000004
sg1410
F36.0
sg1411
I84
sg1412
g7
(g8
(I0
tp1449
g10
tp1450
Rp1451
(I1
(I3
tp1452
g1419
I00
S'\xaeU\x82\x871NL\xc0\x98\xc7\x17\xa9\xe6\xa2J\xc0\x9ew\xfa9>\x1e\xe2?'
p1453
tp1454
bsg1424
S'Cell[1].axon[300]'
p1455
sI84
I168
tp1456
a(F2.310226210556716
S'Cell[0].apic[1] syn_ = new AmpaNmda(0.5)'
p1457
I0
(dp1458
g1409
F0.5
sg1410
F36.0
sg1411
I132
sg1412
g7
(g8
(I0
tp1459
g10
tp1460
Rp1461
(I1
(I3
tp1462
g1419
I00
S'D\x99\xf2\rF\xfe4@\xe7\x91\xb79\n\x9eD@\x08&\xb5\x13b\x88\x16\xc0'
p1463
tp1464
bsg1424
S'Cell[2].axon[184]'
p1465
sI132
I24
tp1466
a(F2.1268179715341846
S'Cell[0].dend[18] syn_ = new AmpaNmda(0.5)'
p1467
I0
(dp1468
g1409
F0.5
sg1410
F36.0
sg1411
I132
sg1412
g7
(g8
(I0
tp1469
g10
tp1470
Rp1471
(I1
(I3
tp1472
g1419
I00
S'\n\xf6!\xa9\x88:?@\x88\x96\xc9\xbf~!\x01@\xd12Os\xb3\xdd\x08\xc0'
p1473
tp1474
bsg1424
S'Cell[2].axon[187]'
p1475
sI132
I24
tp1476
a(F2.159410461573614
S'Cell[1].dend[10] syn_ = new AmpaNmda(0.1)'
p1477
I1
(dp1478
g1409
F0.5
sg1410
F36.0
sg1411
I180
sg1412
g7
(g8
(I0
tp1479
g10
tp1480
Rp1481
(I1
(I3
tp1482
g1419
I00
S'8\x8c\xc57*\x1b @\xf8\x9fa\nzzA\xc0\xbe\x97\x00JDl*@'
p1483
tp1484
bsg1424
S'Cell[3].axon[121]'
p1485
sI180
I72
tp1486
a(F1.8739376160776873
S'Cell[1].apic[50] syn_ = new AmpaNmda(0.5)'
p1487
I1
(dp1488
g1409
F0.49999999999999994
sg1410
F36.0
sg1411
I180
sg1412
g7
(g8
(I0
tp1489
g10
tp1490
Rp1491
(I1
(I3
tp1492
g1419
I00
S'\xcc\xc9\xe3(\x95\xc2G@A:6\xee"xA@Zcy\xd1F\xa7\xfd\xbf'
p1493
tp1494
bsg1424
S'Cell[3].axon[123]'
p1495
sI180
I72
tp1496
a(F1.8447221636801117
S'Cell[1].dend[14] syn_ = new AmpaNmda(0.214285714286)'
p1497
I1
(dp1498
g1409
F0.5
sg1410
F36.0
sg1411
I180
sg1412
g7
(g8
(I0
tp1499
g10
tp1500
Rp1501
(I1
(I3
tp1502
g1419
I00
S'0/T,\xael!@C\xdasv\xc7\x99D\xc0\x9e\x1f\xe3n\xbe\x924\xc0'
p1503
tp1504
bsg1424
S'Cell[3].axon[270]'
p1505
sI180
I72
tp1506
a(F2.0618486829567644
S'Cell[0].dend[26] syn_ = new AmpaNmda(0.5)'
p1507
I0
(dp1508
g1409
F0.5
sg1410
F36.0
sg1411
I180
sg1412
g7
(g8
(I0
tp1509
g10
tp1510
Rp1511
(I1
(I3
tp1512
g1419
I00
S'\x817\xdf+\x07\nF@J\xbd\x88\x9a4\xbe7\xc0\xa3\x84\x8f\xa8\xe7\x17#@'
p1513
tp1514
bsg1424
S'Cell[3].axon[293]'
p1515
sI180
I24
tp1516
a(F1.6762274488108206
S'Cell[1].dend[11] syn_ = new ExpSid(0.5)'
p1517
I1
(dp1518
S'seg'
p1519
F0.5
sS'hostfrom'
p1520
F37.0
sS'gid'
p1521
I133
sS'coords'
p1522
g7
(g8
(I0
tp1523
g10
tp1524
Rp1525
(I1
(I3
tp1526
g14
(S'f8'
p1527
I0
I1
tp1528
Rp1529
(I3
S'<'
p1530
NNNI-1
I-1
I0
tp1531
bI00
S'\xe4jU\n\xf7\xe4@@\x03\xcc\xffe\x19\x9e4\xc0\x10\x1e\x9c\xdd\x8e\xa6\x18\xc0'
p1532
tp1533
bsS'secnames'
p1534
S'Cell[2].axon[92]'
p1535
sI133
I72
tp1536
a(F1.63613049874759
S'Cell[0].apic[21] syn_ = new ExpSid(0.5)'
p1537
I0
(dp1538
g1519
F0.5
sg1520
F37.0
sg1521
I181
sg1522
g7
(g8
(I0
tp1539
g10
tp1540
Rp1541
(I1
(I3
tp1542
g1529
I00
S'!\xb3S\x10\xb675@\xfb\xba^\x93\xffcJ@\x00\x00\x00`\xb8\x1e\xd5?'
p1543
tp1544
bsg1534
S'Cell[3].axon[155]'
p1545
sI181
I24
tp1546
a(F2.343159988456765
S'Cell[0].apic[21] syn_ = new ExpSid(0.5)'
p1547
I0
(dp1548
g1519
F0.8333333333333333
sg1520
F37.0
sg1521
I181
sg1522
g7
(g8
(I0
tp1549
g10
tp1550
Rp1551
(I1
(I3
tp1552
g1529
I00
S'\xfa\x19\x1e\x9d\xc8\x193@\x0c5\x8e\x10|\x19J@\x00\x00\x00`\xb8\x1e\xd5?'
p1553
tp1554
bsg1534
S'Cell[3].axon[166]'
p1555
sI181
I24
tp1556
a(F2.0475005398867903
S'Cell[0].dend[16] syn_ = new AmpaNmda(0.3)'
p1557
I0
(dp1558
S'seg'
p1559
F0.16666666666666666
sS'hostfrom'
p1560
F38.0
sS'gid'
p1561
I182
sS'coords'
p1562
g7
(g8
(I0
tp1563
g10
tp1564
Rp1565
(I1
(I3
tp1566
g14
(S'f8'
p1567
I0
I1
tp1568
Rp1569
(I3
S'<'
p1570
NNNI-1
I-1
I0
tp1571
bI00
S'\xe1\x1d~tP\xd9@\xc0\x0b\xd7A\x81\xeb\xf7;\xc0t^\xa9\xea\x7fG8\xc0'
p1572
tp1573
bsS'secnames'
p1574
S'Cell[3].axon[33]'
p1575
sI182
I24
tp1576
a(F1.3073712646092412
S'Cell[0].apic[10] syn_ = new AmpaNmda(0.357142857143)'
p1577
I0
(dp1578
g1559
F0.5
sg1560
F38.0
sg1561
I182
sg1562
g7
(g8
(I0
tp1579
g10
tp1580
Rp1581
(I1
(I3
tp1582
g1569
I00
S'g&\xcd\xad\xaa\x17%\xc0\x92\xcb=5,Al@\x01\x00\x00\xa0\x99\x99#@'
p1583
tp1584
bsg1574
S'Cell[3].axon[298]'
p1585
sI182
I24
tp1586
a(F1.1275774462222958
S'Cell[1].dend[9] syn_ = new AmpaNmda(0.166666666667)'
p1587
I1
(dp1588
g1559
F0.5
sg1560
F38.0
sg1561
I182
sg1562
g7
(g8
(I0
tp1589
g10
tp1590
Rp1591
(I1
(I3
tp1592
g1569
I00
S'-R\x08\x81\xc74\x1e@b\xd5\xa1\xde{y@\xc0\x00\x00\x00`ff/@'
p1593
tp1594
bsg1574
S'Cell[3].axon[365]'
p1595
sI182
I72
tp1596
a(F1.6306341641377187
S'Cell[1].dend[30] syn_ = new AmpaNmda(0.214285714286)'
p1597
I1
(dp1598
g1559
F0.5
sg1560
F38.0
sg1561
I182
sg1562
g7
(g8
(I0
tp1599
g10
tp1600
Rp1601
(I1
(I3
tp1602
g1569
I00
S'\xb4\x95%\n\x02A<@\xa3\x99\xf6\xbc\xc6\x1eO\xc0\xad\xf0\xa4\xd5)\x80\x05@'
p1603
tp1604
bsg1574
S'Cell[3].axon[396]'
p1605
sI182
I72
tp1606
a(F1.1495855854354835
S'Cell[1].dend[14] syn_ = new AmpaNmda(0.0714285714286)'
p1607
I1
(dp1608
g1559
F0.5
sg1560
F38.0
sg1561
I86
sg1562
g7
(g8
(I0
tp1609
g10
tp1610
Rp1611
(I1
(I3
tp1612
g1569
I00
S' \xb6\xed\xc7\xe2\n9@\xd1\xe3;*e\xd9;\xc0\x9e\xf1:\xaf\xa91)\xc0'
p1613
tp1614
bsg1574
S'Cell[1].axon[106]'
p1615
sI86
I72
tp1616
a(F2.450424988819099
S'Cell[1].dend[14] syn_ = new AmpaNmda(0.357142857143)'
p1617
I1
(dp1618
g1559
F0.5
sg1560
F38.0
sg1561
I86
sg1562
g7
(g8
(I0
tp1619
g10
tp1620
Rp1621
(I1
(I3
tp1622
g1569
I00
S'\xf4\xb8\x84X\xda~\t\xc0\x80\xcd\xba\xf20<K\xc0\xcda\xd9}\x8eKB\xc0'
p1623
tp1624
bsg1574
S'Cell[1].axon[210]'
p1625
sI86
I72
tp1626
a(F2.4461207350738867
S'Cell[2].dend[25] syn_ = new FastInhib(0.5)'
p1627
I2
(dp1628
S'seg'
p1629
F0.5
sS'hostfrom'
p1630
F39.0
sS'gid'
p1631
I87
sS'coords'
p1632
g7
(g8
(I0
tp1633
g10
tp1634
Rp1635
(I1
(I3
tp1636
g14
(S'f8'
p1637
I0
I1
tp1638
Rp1639
(I3
S'<'
p1640
NNNI-1
I-1
I0
tp1641
bI00
S'\x00\x00\x00\x80\xebQI@\x00\x00\x00 \xaeG\x1e\xc0\x00\x00\x00\xe0Qx5\xc0'
p1642
tp1643
bsS'secnames'
p1644
S'Cell[1].soma[0]'
p1645
sI87
I120
tp1646
a(F2.249450004834174
S'Cell[1].apic[2] syn_ = new ExpSid(0.5)'
p1647
I1
(dp1648
g1629
F0.16666666666666666
sg1630
F39.0
sg1631
I87
sg1632
g7
(g8
(I0
tp1649
g10
tp1650
Rp1651
(I1
(I3
tp1652
g1639
I00
S';\xebo\xe5jAF@x\xfb\xa8f3*B@\xb6?\xfd\xca#\x11\x06\xc0'
p1653
tp1654
bsg1644
S'Cell[1].axon[86]'
p1655
sI87
I72
tp1656
a(F1.7554082799414292
S'Cell[1].apic[50] syn_ = new ExpSid(0.5)'
p1657
I1
g1648
I87
I72
tp1658
a(F2.3325159974909657
S'Cell[2].dend[2] syn_ = new FastInhib(0.5)'
p1659
I2
(dp1660
g1629
F0.3888888888888889
sg1630
F39.0
sg1631
I135
sg1632
g7
(g8
(I0
tp1661
g10
tp1662
Rp1663
(I1
(I3
tp1664
g1639
I00
S'\xb3\xa3\xd8\xfa\xf4/M@b\x0ep`\xa9\x9eF@\xbe\xacw\x1d%b=\xc0'
p1665
tp1666
bsg1644
S'Cell[2].axon[97]'
p1667
sI135
I120
tp1668
a(F1.9285674238583899
S'Cell[1].apic[54] syn_ = new ExpSid(0.611111111111)'
p1669
I1
(dp1670
g1629
F0.038461538461538464
sg1630
F39.0
sg1631
I183
sg1632
g7
(g8
(I0
tp1671
g10
tp1672
Rp1673
(I1
(I3
tp1674
g1639
I00
S"\xbd\x15\xce\xa9\x9b\xca<\xc0\x12\x8a\xed('\xac1@\x00\x00\x00\x00\x00\x00\xf4?"
p1675
tp1676
bsg1644
S'Cell[3].axon[143]'
p1677
sI183
I72
tp1678
a(F2.17042794204794
S'Cell[0].dend[29] syn_ = new AmpaNmda(0.5)'
p1679
I0
(dp1680
S'seg'
p1681
F0.8333333333333333
sS'hostfrom'
p1682
F40.0
sS'gid'
p1683
I88
sS'coords'
p1684
g7
(g8
(I0
tp1685
g10
tp1686
Rp1687
(I1
(I3
tp1688
g14
(S'f8'
p1689
I0
I1
tp1690
Rp1691
(I3
S'<'
p1692
NNNI-1
I-1
I0
tp1693
bI00
S'k\xde\xf6\xd2\xca\xb48@\x00\x00\x00\x80\xeb\x110@\x93\x99\xda\xad\x83,K\xc0'
p1694
tp1695
bsS'secnames'
p1696
S'Cell[1].axon[104]'
p1697
sI88
I24
tp1698
a(F2.4799209247723537
S'Cell[0].apic[25] syn_ = new AmpaNmda(0.5)'
p1699
I0
(dp1700
g1681
F0.30000000000000004
sg1682
F40.0
sg1683
I88
sg1684
g7
(g8
(I0
tp1701
g10
tp1702
Rp1703
(I1
(I3
tp1704
g1691
I00
S'\x8aGR\xbf:\x9e0@\x11\tC!\xa2\xfaJ@\xc2\x89s\x9c\xeb^\x17@'
p1705
tp1706
bsg1696
S'Cell[1].axon[343]'
p1707
sI88
I24
tp1708
a(F1.0412227568156744
S'Cell[1].dend[14] syn_ = new AmpaNmda(0.0714285714286)'
p1709
I1
(dp1710
g1681
F0.1
sg1682
F40.0
sg1683
I88
sg1684
g7
(g8
(I0
tp1711
g10
tp1712
Rp1713
(I1
(I3
tp1714
g1691
I00
S'fx\xfcgA\xf87@\x92\x95\xe0-G[;\xc0Va\xc3W\xe9\x92)\xc0'
p1715
tp1716
bsg1696
S'Cell[1].axon[347]'
p1717
sI88
I72
tp1718
a(F1.7701900577412624
S'Cell[0].apic[3] syn_ = new ExpSid(0.5)'
p1719
I0
(dp1720
S'seg'
p1721
F0.8333333333333333
sS'hostfrom'
p1722
F41.0
sS'gid'
p1723
I137
sS'coords'
p1724
g7
(g8
(I0
tp1725
g10
tp1726
Rp1727
(I1
(I3
tp1728
g14
(S'f8'
p1729
I0
I1
tp1730
Rp1731
(I3
S'<'
p1732
NNNI-1
I-1
I0
tp1733
bI00
S'@\x84\x1c\xc0W\x05:@\xca\xab)\x135\xdc[@\x8b\x8f\xb8\x93\xfe\xfd\x03\xc0'
p1734
tp1735
bsS'secnames'
p1736
S'Cell[2].axon[0]'
p1737
sI137
I24
tp1738
a(F1.2077120124939298
S'Cell[1].apic[49] syn_ = new ExpSid(0.5)'
p1739
I1
(dp1740
g1721
F0.5
sg1722
F41.0
sg1723
I185
sg1724
g7
(g8
(I0
tp1741
g10
tp1742
Rp1743
(I1
(I3
tp1744
g1731
I00
S'\x1e\x99a(\xa1\xa4(\xc0\xaff\x1c{B>G@\x01\x00\x00\xc0\xf5\xe89\xc0'
p1745
tp1746
bsg1736
S'Cell[3].axon[239]'
p1747
sI185
I72
tp1748
a(F2.4686184214149627
S'Cell[0].apic[23] syn_ = new ExpSid(0.5)'
p1749
I0
(dp1750
g1721
F0.16666666666666666
sg1722
F41.0
sg1723
I185
sg1724
g7
(g8
(I0
tp1751
g10
tp1752
Rp1753
(I1
(I3
tp1754
g1731
I00
S'\xca1f\xe5\xbc\x8e+@`b\xe5\xdb\x1f\x17D@\x00\x00\x00\xc0\xf5(.@'
p1755
tp1756
bsg1736
S'Cell[3].axon[274]'
p1757
sI185
I24
tp1758
a(F1.9688351956699746
S'Cell[1].apic[54] syn_ = new AmpaNmda(0.944444444444)'
p1759
I1
(dp1760
S'seg'
p1761
F0.8999999999999999
sS'hostfrom'
p1762
F42.0
sS'gid'
p1763
I90
sS'coords'
p1764
g7
(g8
(I0
tp1765
g10
tp1766
Rp1767
(I1
(I3
tp1768
g14
(S'f8'
p1769
I0
I1
tp1770
Rp1771
(I3
S'<'
p1772
NNNI-1
I-1
I0
tp1773
bI00
S'\x81\xb5\xac\xc4S%C\xc0\x97\xcc\xd4\x0b3@G\xc0\xde\xe8a>\xef\x13,\xc0'
p1774
tp1775
bsS'secnames'
p1776
S'Cell[1].axon[24]'
p1777
sI90
I72
tp1778
a(F2.3971783602610244
S'Cell[0].apic[22] syn_ = new AmpaNmda(0.5)'
p1779
I0
(dp1780
g1761
F0.5
sg1762
F42.0
sg1763
I138
sg1764
g7
(g8
(I0
tp1781
g10
tp1782
Rp1783
(I1
(I3
tp1784
g1771
I00
S'\xec1S\xd6\xce71@T\xf5R\x1e\x83\xacG@\xae\x13u\x1c\xc8d\x1c@'
p1785
tp1786
bsg1776
S'Cell[2].axon[154]'
p1787
sI138
I24
tp1788
a(F2.2537162236947905
S'Cell[1].apic[49] syn_ = new ExpSid(0.928571428571)'
p1789
I1
(dp1790
S'seg'
p1791
F0.8999999999999999
sS'hostfrom'
p1792
F43.0
sS'gid'
p1793
I91
sS'coords'
p1794
g7
(g8
(I0
tp1795
g10
tp1796
Rp1797
(I1
(I3
tp1798
g14
(S'f8'
p1799
I0
I1
tp1800
Rp1801
(I3
S'<'
p1802
NNNI-1
I-1
I0
tp1803
bI00
S'\xc0\xf4\x8b\xcb\xff\xa1L\xc0\xefP\x9d[KxV@\xdc\xcd\x17\xb9x\xe1@\xc0'
p1804
tp1805
bsS'secnames'
p1806
S'Cell[1].axon[44]'
p1807
sI91
I72
tp1808
a(F2.252535239323978
S'Cell[1].dend[33] syn_ = new ExpSid(0.1)'
p1809
I1
(dp1810
g1791
F0.5
sg1792
F43.0
sg1793
I91
sg1794
g7
(g8
(I0
tp1811
g10
tp1812
Rp1813
(I1
(I3
tp1814
g1801
I00
S'CF\x93x\xf9fP@\x82\x0fdg\xc2\xd19@\xb3{\xa7\xd8^\x9a\x14\xc0'
p1815
tp1816
bsg1806
S'Cell[1].axon[253]'
p1817
sI91
I72
tp1818
a(F2.251747891933172
S'Cell[0].dend[19] syn_ = new ExpSid(0.5)'
p1819
I0
(dp1820
g1791
F0.5
sg1792
F43.0
sg1793
I139
sg1794
g7
(g8
(I0
tp1821
g10
tp1822
Rp1823
(I1
(I3
tp1824
g1801
I00
S'o\xd9\xd2\x93<BJ@\xf4@\xf2W\xb06\x19\xc0E\xfdEZu\xec&\xc0'
p1825
tp1826
bsg1806
S'Cell[2].axon[285]'
p1827
sI139
I24
tp1828
a(F2.179787712654847
S'Cell[0].apic[0] syn_ = new ExpSid(0.5)'
p1829
I0
(dp1830
g1791
F0.5
sg1792
F43.0
sg1793
I187
sg1794
g7
(g8
(I0
tp1831
g10
tp1832
Rp1833
(I1
(I3
tp1834
g1801
I00
S'\x00\x00\x00`f&4@\x00\x00\x00`f&>@\x00\x00\x00 \xaeG\x1d\xc0'
p1835
tp1836
bsg1806
S'Cell[3].soma[0]'
p1837
sI187
I24
tp1838
a(F1.5017789929483016
S'Cell[1].dend[12] syn_ = new ExpSid(0.5)'
p1839
I1
(dp1840
g1791
F0.16666666666666666
sg1792
F43.0
sg1793
I187
sg1794
g7
(g8
(I0
tp1841
g10
tp1842
Rp1843
(I1
(I3
tp1844
g1801
I00
S'\xf8\xed\xe5\x14e\xc5;@\x8f\\\x05\xf6N\xde:\xc0\xa2\xc2\xf8\xb0\x9fP\x1e\xc0'
p1845
tp1846
bsg1806
S'Cell[3].axon[109]'
p1847
sI187
I72
tp1848
a(F2.1678368432139887
S'Cell[0].dend[1] syn_ = new AmpaNmda(0.166666666667)'
p1849
I0
(dp1850
S'seg'
p1851
F0.7222222222222223
sS'hostfrom'
p1852
F44.0
sS'gid'
p1853
I92
sS'coords'
p1854
g7
(g8
(I0
tp1855
g10
tp1856
Rp1857
(I1
(I3
tp1858
g14
(S'f8'
p1859
I0
I1
tp1860
Rp1861
(I3
S'<'
p1862
NNNI-1
I-1
I0
tp1863
bI00
S'~\xf4\xe2$[\x84\x0b\xc00?2\xc6\x89Q/@\x00]V\xd1\xc9\r5\xc0'
p1864
tp1865
bsS'secnames'
p1866
S'Cell[1].axon[227]'
p1867
sI92
I24
tp1868
a(F1.9446133740091882
S'Cell[0].dend[28] syn_ = new AmpaNmda(0.5)'
p1869
I0
(dp1870
g1851
F0.5
sg1852
F44.0
sg1853
I92
sg1854
g7
(g8
(I0
tp1871
g10
tp1872
Rp1873
(I1
(I3
tp1874
g1861
I00
S'\x00\x00\x00\xc0\x1euG@\x00\x00\x00\x10\xd7\x93K@\x00\x00\x00\xe0Q8G\xc0'
p1875
tp1876
bsg1866
S'Cell[1].axon[234]'
p1877
sI92
I24
tp1878
a(F2.1867954133013914
S'Cell[1].dend[7] syn_ = new AmpaNmda(0.5)'
p1879
I1
(dp1880
g1851
F0.05555555555555555
sg1852
F44.0
sg1853
I44
sg1854
g7
(g8
(I0
tp1881
g10
tp1882
Rp1883
(I1
(I3
tp1884
g1861
I00
S'\x99\xa3G\xf2\xbaf)\xc0\xb9\x80\xabJe>7@p\xaa\x8a\x0f\xdeE!\xc0'
p1885
tp1886
bsg1866
S'Cell[0].axon[18]'
p1887
sI44
I72
tp1888
a(F1.4104778268743856
S'Cell[3].dend[21] syn_ = new FastInhib(0.5)'
p1889
I3
(dp1890
g1851
F0.8999999999999999
sg1852
F44.0
sg1853
I44
sg1854
g7
(g8
(I0
tp1891
g10
tp1892
Rp1893
(I1
(I3
tp1894
g1861
I00
S'\xfa\xb2\xad\xef\xc9 X\xc0\xceo\x89\xbd\x01fQ\xc0*\t\xa1\xfc\x7f\x84"\xc0'
p1895
tp1896
bsg1866
S'Cell[0].axon[35]'
p1897
sI44
I168
tp1898
a(F2.1917727634409907
S'Cell[1].dend[5] syn_ = new ExpSid(0.5)'
p1899
I1
(dp1900
S'seg'
p1901
F0.5
sS'hostfrom'
p1902
F45.0
sS'gid'
p1903
I141
sS'coords'
p1904
g7
(g8
(I0
tp1905
g10
tp1906
Rp1907
(I1
(I3
tp1908
g14
(S'f8'
p1909
I0
I1
tp1910
Rp1911
(I3
S'<'
p1912
NNNI-1
I-1
I0
tp1913
bI00
S'\xf9\x0e\x90\xa9*j=@\xc4B\xe0~\xd8\xfaM\xc0\xee\xbb\xd7\x8a\x8apH\xc0'
p1914
tp1915
bsS'secnames'
p1916
S'Cell[2].axon[51]'
p1917
sI141
I72
tp1918
a(F2.4306216510287872
S'Cell[0].dend[19] syn_ = new ExpSid(0.166666666667)'
p1919
I0
(dp1920
g1901
F0.5
sg1902
F45.0
sg1903
I141
sg1904
g7
(g8
(I0
tp1921
g10
tp1922
Rp1923
(I1
(I3
tp1924
g1911
I00
S'\xb6a\xb7\t\xee\xa7D@|\x96\xcc\x97Z\xfd\xd9\xbf\xd4cke\xdb<\x18\xc0'
p1925
tp1926
bsg1916
S'Cell[2].axon[61]'
p1927
sI141
I24
tp1928
a(F2.4217770506632617
S'Cell[0].dend[0] syn_ = new ExpSid(0.5)'
p1929
I0
(dp1930
g1901
F0.5
sg1902
F45.0
sg1903
I141
sg1904
g7
(g8
(I0
tp1931
g10
tp1932
Rp1933
(I1
(I3
tp1934
g1911
I00
S"!\xf9*\xd0\x0b\x0e\x18@'R\x1f\xbb\xb2\xa00@\xeb\x9e\x89\xd8\xd9\n3\xc0"
p1935
tp1936
bsg1916
S'Cell[2].axon[76]'
p1937
sI141
I24
tp1938
a(F1.7035485573320468
S'Cell[2].dend[2] syn_ = new FastInhib(0.5)'
p1939
I2
(dp1940
g1901
F0.5
sg1902
F45.0
sg1903
I141
sg1904
g7
(g8
(I0
tp1941
g10
tp1942
Rp1943
(I1
(I3
tp1944
g1911
I00
S'\xaf\x94\x03WENL@\x18l\xf39\x1e\xb5E@^\xbb\x82(\xb3\xc8<\xc0'
p1945
tp1946
bsg1916
S'Cell[2].axon[109]'
p1947
sI141
I120
tp1948
a(F2.2630239180781784
S'Cell[0].apic[27] syn_ = new ExpSid(0.3)'
p1949
I0
(dp1950
g1901
F0.5
sg1902
F45.0
sg1903
I141
sg1904
g7
(g8
(I0
tp1951
g10
tp1952
Rp1953
(I1
(I3
tp1954
g1911
I00
S'\x1d\x89P\xf0\x90\xf8P@\xed\xf4\xf3\xee\xb5\xdd8@\n\xfc\xbe\xffY"8\xc0'
p1955
tp1956
bsg1916
S'Cell[2].axon[125]'
p1957
sI141
I24
tp1958
a(F2.3910834968098644
S'Cell[1].apic[51] syn_ = new ExpSid(0.214285714286)'
p1959
I1
(dp1960
g1901
F0.16666666666666666
sg1902
F45.0
sg1903
I141
sg1904
g7
(g8
(I0
tp1961
g10
tp1962
Rp1963
(I1
(I3
tp1964
g1911
I00
S'Q7gu\x99\xe7I@0\xefn\xfb\x0eMH@\x900p\x8d.r;\xc0'
p1965
tp1966
bsg1916
S'Cell[2].axon[302]'
p1967
sI141
I72
tp1968
a(F2.1843083440052604
S'Cell[0].dend[28] syn_ = new ExpSid(0.7)'
p1969
I0
(dp1970
g1901
F0.5
sg1902
F45.0
sg1903
I141
sg1904
g7
(g8
(I0
tp1971
g10
tp1972
Rp1973
(I1
(I3
tp1974
g1911
I00
S'\xef3Ub\xa4\xa1L@\x04;\xfb\x11[sP@\x0eB\x14\x8ehFJ\xc0'
p1975
tp1976
bsg1916
S'Cell[2].axon[329]'
p1977
sI141
I24
tp1978
a(F2.0948534225522737
S'Cell[0].dend[20] syn_ = new ExpSid(0.9)'
p1979
I0
(dp1980
g1901
F0.30000000000000004
sg1902
F45.0
sg1903
I141
sg1904
g7
(g8
(I0
tp1981
g10
tp1982
Rp1983
(I1
(I3
tp1984
g1911
I00
S'y\xa4\xb8\x83\xee,`@\x05 \xf0\xf8\xbc\x7f2@\x90\xa1E\xb5D\x8bQ\xc0'
p1985
tp1986
bsg1916
S'Cell[2].axon[378]'
p1987
sI141
I24
tp1988
a(F2.4445051165282043
S'Cell[0].dend[15] syn_ = new ExpSid(0.5)'
p1989
I0
(dp1990
g1901
F0.5
sg1902
F45.0
sg1903
I141
sg1904
g7
(g8
(I0
tp1991
g10
tp1992
Rp1993
(I1
(I3
tp1994
g1911
I00
S'\x10\xc7\xebt\x0c?\x10@\xed\xad\xef\x81)c\x1c\xc0\x9f\x18\xa0\x02?\x91\x1f\xc0'
p1995
tp1996
bsg1916
S'Cell[2].axon[474]'
p1997
sI141
I24
tp1998
a(F1.2502754108344438
S'Cell[1].dend[13] syn_ = new ExpSid(0.5)'
p1999
I1
(dp2000
g1901
F0.5
sg1902
F45.0
sg1903
I189
sg1904
g7
(g8
(I0
tp2001
g10
tp2002
Rp2003
(I1
(I3
tp2004
g1911
I00
S'\x00\x00\x00\x80\xc2\xf5\x04@\x00\x00\x00\xa0\x99\xb9C\xc0\x00\x00\x00\xe0\xa3p&@'
p2005
tp2006
bsg1916
S'Cell[3].soma[0]'
p2007
sI189
I72
tp2008
a(F2.082718576831781
S'Cell[1].apic[51] syn_ = new ExpSid(0.0714285714286)'
p2009
I1
(dp2010
g1901
F0.16666666666666666
sg1902
F45.0
sg1903
I189
sg1904
g7
(g8
(I0
tp2011
g10
tp2012
Rp2013
(I1
(I3
tp2014
g1911
I00
S'a\xb5\xb70\x0f\xa1F@\x1a\xcf\x92r\x1csF@\xfa\xf7\xf0\x94>\r\x1a\xc0'
p2015
tp2016
bsg1916
S'Cell[3].axon[49]'
p2017
sI189
I72
tp2018
a(F0.9106915021421212
S'Cell[1].apic[49] syn_ = new ExpSid(0.357142857143)'
p2019
I1
(dp2020
g1901
F0.8333333333333333
sg1902
F45.0
sg1903
I189
sg1904
g7
(g8
(I0
tp2021
g10
tp2022
Rp2023
(I1
(I3
tp2024
g1911
I00
S'\x10\xe1\x85\xa8\x0b\x1f\xf7?c\xadq\xf4\xd4\x94@@\x00\x00\x00\x80\x14.5\xc0'
p2025
tp2026
bsg1916
S'Cell[3].axon[97]'
p2027
sI189
I72
tp2028
a(F2.018849837691405
S'Cell[0].apic[17] syn_ = new ExpSid(0.5)'
p2029
I0
(dp2030
g1901
F0.5
sg1902
F45.0
sg1903
I93
sg1904
g7
(g8
(I0
tp2031
g10
tp2032
Rp2033
(I1
(I3
tp2034
g1911
I00
S'h\x01)\x1e\x84\xc8\xe6?\xff\xc4\xd4\xd6\x01\xdbG@\x98\x95SE#\x1fD\xc0'
p2035
tp2036
bsg1916
S'Cell[1].axon[4]'
p2037
sI93
I24
tp2038
a(F2.1116552637545603
S'Cell[2].dend[19] syn_ = new FastInhib(0.0555555555556)'
p2039
I2
(dp2040
g1901
F0.16666666666666666
sg1902
F45.0
sg1903
I93
sg1904
g7
(g8
(I0
tp2041
g10
tp2042
Rp2043
(I1
(I3
tp2044
g1911
I00
S'\x0e_\xc6\x1d\xab,P@\x06z\x999i\x07@@\xa9\n(\xae\x1a_I\xc0'
p2045
tp2046
bsg1916
S'Cell[1].axon[26]'
p2047
sI93
I120
tp2048
a(F1.741361332396961
S'Cell[2].dend[13] syn_ = new FastInhib(0.9)'
p2049
I2
(dp2050
g1901
F0.045454545454545456
sg1902
F45.0
sg1903
I93
sg1904
g7
(g8
(I0
tp2051
g10
tp2052
Rp2053
(I1
(I3
tp2054
g1911
I00
S'\x04\x80-|\xd6]>@\xe0]\xe6\x14\x97\x9ab@8b\x0fOo\x86E\xc0'
p2055
tp2056
bsg1916
S'Cell[1].axon[119]'
p2057
sI93
I120
tp2058
a(F1.45217260413233
S'Cell[0].apic[27] syn_ = new ExpSid(0.5)'
p2059
I0
(dp2060
g1901
F0.5
sg1902
F45.0
sg1903
I93
sg1904
g7
(g8
(I0
tp2061
g10
tp2062
Rp2063
(I1
(I3
tp2064
g1911
I00
S'8\xb7h9L\x8fU@:%w\x02;\x7f2@.\xfc\x92\xcd\x12\x85@\xc0'
p2065
tp2066
bsg1916
S'Cell[1].axon[231]'
p2067
sI93
I24
tp2068
a(F1.5762013880923367
S'Cell[2].dend[19] syn_ = new FastInhib(0.0555555555556)'
p2069
I2
(dp2070
S'seg'
p2071
F0.5
sS'hostfrom'
p2072
F46.0
sS'gid'
p2073
I94
sS'coords'
p2074
g7
(g8
(I0
tp2075
g10
tp2076
Rp2077
(I1
(I3
tp2078
g14
(S'f8'
p2079
I0
I1
tp2080
Rp2081
(I3
S'<'
p2082
NNNI-1
I-1
I0
tp2083
bI00
S'\x1d\xe8\xf6[b\xbdO@\x0c\x18\x95sq\x86@@\xbc*\x91\xbc\xf5\xacH\xc0'
p2084
tp2085
bsS'secnames'
p2086
S'Cell[1].axon[242]'
p2087
sI94
I120
tp2088
a(F2.275285380503776
S'Cell[1].dend[35] syn_ = new AmpaNmda(0.642857142857)'
p2089
I1
(dp2090
g2071
F0.5
sg2072
F46.0
sg2073
I94
sg2074
g7
(g8
(I0
tp2091
g10
tp2092
Rp2093
(I1
(I3
tp2094
g2081
I00
S'\x1d\xd3\xc2\xdbq3_@\x114\x8d+\xdb\xeb<\xc0\x00\x00\x00`f\xc6N\xc0'
p2095
tp2096
bsg2086
S'Cell[1].axon[271]'
p2097
sI94
I72
tp2098
a(F1.7147444565187981
S'Cell[1].dend[7] syn_ = new AmpaNmda(0.5)'
p2099
I1
(dp2100
g2071
F0.16666666666666666
sg2072
F46.0
sg2073
I94
sg2074
g7
(g8
(I0
tp2101
g10
tp2102
Rp2103
(I1
(I3
tp2104
g2081
I00
S'\xbf\xa0{\xde\xc4\xa8*\xc0\xa1\xd2\xa4\xf0|\xe37@f)m0l\xeb%\xc0'
p2105
tp2106
bsg2086
S'Cell[1].axon[311]'
p2107
sI94
I72
tp2108
a(F2.433977908840874
S'Cell[2].dend[19] syn_ = new FastInhib(0.0555555555556)'
p2109
I2
(dp2110
S'seg'
p2111
F0.8333333333333333
sS'hostfrom'
p2112
F47.0
sS'gid'
p2113
I95
sS'coords'
p2114
g7
(g8
(I0
tp2115
g10
tp2116
Rp2117
(I1
(I3
tp2118
g14
(S'f8'
p2119
I0
I1
tp2120
Rp2121
(I3
S'<'
p2122
NNNI-1
I-1
I0
tp2123
bI00
S'\xe4\x8a\x13a\x8f9P@\xf5\xe5\x9f\xa0\xb72?@h\x89_l\t\xf9G\xc0'
p2124
tp2125
bsS'secnames'
p2126
S'Cell[1].axon[5]'
p2127
sI95
I120
tp2128
a(F1.3034657488449817
S'Cell[0].apic[0] syn_ = new ExpSid(0.5)'
p2129
I0
(dp2130
g2111
F0.5
sg2112
F47.0
sg2113
I95
sg2114
g7
(g8
(I0
tp2131
g10
tp2132
Rp2133
(I1
(I3
tp2134
g2121
I00
S'i\xf6\x8b\xb7\xbb\x924@@\x02"\xf7\x14\\=@i\xb43S\xaf\x8c!\xc0'
p2135
tp2136
bsg2126
S'Cell[1].axon[169]'
p2137
sI95
I24
tp2138
a(F2.4951785593819795
S'Cell[2].dend[24] syn_ = new FastInhib(0.166666666667)'
p2139
I2
(dp2140
g2111
F0.5
sg2112
F47.0
sg2113
I95
sg2114
g7
(g8
(I0
tp2141
g10
tp2142
Rp2143
(I1
(I3
tp2144
g2121
I00
S'\x12\x07\xbe\xe9\xb1\x85P@-?+g\x8bGQ@p\x19\x96p\xad-N\xc0'
p2145
tp2146
bsg2126
S'Cell[1].axon[301]'
p2147
sI95
I120
tp2148
a.