(lp0
(F1.3927532125879565
S'Cell[3].dend[4] syn_ = new FastInhib(0.5)'
p1
I3
(dp2
S'seg'
p3
F0.5
sS'hostfrom'
p4
F1.0
sS'gid'
p5
I145
sS'coords'
p6
cnumpy.core.multiarray
_reconstruct
p7
(cnumpy
ndarray
p8
(I0
tp9
S'b'
p10
tp11
Rp12
(I1
(I3
tp13
cnumpy
dtype
p14
(S'f8'
p15
I0
I1
tp16
Rp17
(I3
S'<'
p18
NNNI-1
I-1
I0
tp19
bI00
S'cRoA\xc6\x925\xc0\xf5\x14\xb6\x16\xfaB?\xc0|V\x97\xd8\t\t3@'
p20
tp21
bsS'secnames'
p22
S'Cell[3].axon[195]'
p23
sI145
I157
tp24
a(F1.5081999581191488
S'Cell[3].dend[45] syn_ = new FastInhib(0.5)'
p25
I3
g2
I145
I157
tp26
a(F2.113914553548905
S'Cell[0].apic[27] syn_ = new ExpSid(0.5)'
p27
I0
(dp28
g3
F0.5
sg4
F1.0
sg5
I97
sg6
g7
(g8
(I0
tp29
g10
tp30
Rp31
(I1
(I3
tp32
g17
I00
S'\xd5\xa1e\xce\xfd?I@d\xbc\x14\x8c\x16\xcf!@\x00\x00\x00\x80\x14\xae\x01@'
p33
tp34
bsg22
S'Cell[2].axon[70]'
p35
sI97
I13
tp36
a(F1.5601493201397285
S'Cell[3].dend[11] syn_ = new FastInhib(0.166666666667)'
p37
I3
(dp38
S'seg'
p39
F0.8333333333333333
sS'hostfrom'
p40
F2.0
sS'gid'
p41
I98
sS'coords'
p42
g7
(g8
(I0
tp43
g10
tp44
Rp45
(I1
(I3
tp46
g14
(S'f8'
p47
I0
I1
tp48
Rp49
(I3
S'<'
p50
NNNI-1
I-1
I0
tp51
bI00
S'l\x85\x9cd\xb5\x82.\xc0~\x8d\x02\xf2\x97\xb0,@5I\x88\xdf\x7fM7\xc0'
p52
tp53
bsS'secnames'
p54
S'Cell[2].axon[304]'
p55
sI98
I157
tp56
a(F1.847034412348187
S'Cell[0].apic[29] syn_ = new AmpaNmda(0.5)'
p57
I0
(dp58
g39
F0.16666666666666666
sg40
F2.0
sg41
I98
sg42
g7
(g8
(I0
tp59
g10
tp60
Rp61
(I1
(I3
tp62
g49
I00
S'\x84\xeeK\x97\xac\x94-\xc0\xfc\x1b\x8b\xffq\x10\xef\xbf\xbc\xae\xa91Z33\xc0'
p63
tp64
bsg54
S'Cell[2].axon[306]'
p65
sI98
I13
tp66
a(F1.9073264899338298
S'Cell[3].dend[4] syn_ = new FastInhib(0.5)'
p67
I3
(dp68
g39
F0.16666666666666666
sg40
F2.0
sg41
I98
sg42
g7
(g8
(I0
tp69
g10
tp70
Rp71
(I1
(I3
tp72
g49
I00
S'<\xbe\x95\x16\xc9\xbc6\xc0$\xe6\xa43\x02%@\xc0\x00\x00\x00\x00\xd7#4@'
p73
tp74
bsg54
S'Cell[2].axon[463]'
p75
sI98
I157
tp76
a(F1.5601493201397285
S'Cell[3].dend[11] syn_ = new FastInhib(0.166666666667)'
p77
I3
(dp78
S'seg'
p79
F0.8333333333333333
sS'hostfrom'
p80
F3.0
sS'gid'
p81
I99
sS'coords'
p82
g7
(g8
(I0
tp83
g10
tp84
Rp85
(I1
(I3
tp86
g14
(S'f8'
p87
I0
I1
tp88
Rp89
(I3
S'<'
p90
NNNI-1
I-1
I0
tp91
bI00
S'l\x85\x9cd\xb5\x82.\xc0~\x8d\x02\xf2\x97\xb0,@5I\x88\xdf\x7fM7\xc0'
p92
tp93
bsS'secnames'
p94
S'Cell[2].axon[304]'
p95
sI99
I157
tp96
a(F1.847034412348187
S'Cell[0].apic[29] syn_ = new ExpSid(0.5)'
p97
I0
(dp98
g79
F0.16666666666666666
sg80
F3.0
sg81
I99
sg82
g7
(g8
(I0
tp99
g10
tp100
Rp101
(I1
(I3
tp102
g89
I00
S'\x84\xeeK\x97\xac\x94-\xc0\xfc\x1b\x8b\xffq\x10\xef\xbf\xbc\xae\xa91Z33\xc0'
p103
tp104
bsg94
S'Cell[2].axon[306]'
p105
sI99
I13
tp106
a(F1.9073264899338298
S'Cell[3].dend[4] syn_ = new FastInhib(0.5)'
p107
I3
(dp108
g79
F0.16666666666666666
sg80
F3.0
sg81
I99
sg82
g7
(g8
(I0
tp109
g10
tp110
Rp111
(I1
(I3
tp112
g89
I00
S'<\xbe\x95\x16\xc9\xbc6\xc0$\xe6\xa43\x02%@\xc0\x00\x00\x00\x00\xd7#4@'
p113
tp114
bsg94
S'Cell[2].axon[463]'
p115
sI99
I157
tp116
a(F2.4184320653546094
S'Cell[2].dend[1] syn_ = new FastInhib(0.166666666667)'
p117
I2
(dp118
g79
F0.16666666666666666
sg80
F3.0
sg81
I51
sg82
g7
(g8
(I0
tp119
g10
tp120
Rp121
(I1
(I3
tp122
g89
I00
S"\x8a\xac\xfc]\x14\x01!@\xabU\x05\x02h\xf8'\xc0\xf4\x06\x87M\x9e\xac?\xc0"
p123
tp124
bsg94
S'Cell[1].axon[33]'
p125
sI51
I109
tp126
a(F1.3152185954023579
S'Cell[0].dend[8] syn_ = new AmpaNmda(0.166666666667)'
p127
I0
(dp128
S'seg'
p129
F0.5
sS'hostfrom'
p130
F4.0
sS'gid'
p131
I100
sS'coords'
p132
g7
(g8
(I0
tp133
g10
tp134
Rp135
(I1
(I3
tp136
g14
(S'f8'
p137
I0
I1
tp138
Rp139
(I3
S'<'
p140
NNNI-1
I-1
I0
tp141
bI00
S"|\xbe\xc7F+oD@\xd2'\x9d\x9a\xff\xf9N\xc0~\xf2\x1a\x94\xf4[U\xc0"
p142
tp143
bsS'secnames'
p144
S'Cell[2].axon[87]'
p145
sI100
I13
tp146
a(F2.4638126927837765
S'Cell[3].dend[32] syn_ = new FastInhib(0.166666666667)'
p147
I3
(dp148
S'seg'
p149
F0.5
sS'hostfrom'
p150
F5.0
sS'gid'
p151
I149
sS'coords'
p152
g7
(g8
(I0
tp153
g10
tp154
Rp155
(I1
(I3
tp156
g14
(S'f8'
p157
I0
I1
tp158
Rp159
(I3
S'<'
p160
NNNI-1
I-1
I0
tp161
bI00
S'\xed\x07\xd5\xd8\xa2\xe0\x15\xc0@1\x8ek~\x9e3\xc0\x92\xc3\x89\xd9\xb4P\xee\xbf'
p162
tp163
bsS'secnames'
p164
S'Cell[3].axon[11]'
p165
sI149
I157
tp166
a(F1.7836066824145294
S'Cell[0].dend[21] syn_ = new AmpaNmda(0.833333333333)'
p167
I0
(dp168
S'seg'
p169
F0.5
sS'hostfrom'
p170
F6.0
sS'gid'
p171
I102
sS'coords'
p172
g7
(g8
(I0
tp173
g10
tp174
Rp175
(I1
(I3
tp176
g14
(S'f8'
p177
I0
I1
tp178
Rp179
(I3
S'<'
p180
NNNI-1
I-1
I0
tp181
bI00
S'\xcfD\xd8I\xb9\xe19\xc0\x96v\xe4\x19\x7fLF\xc0\x95\xe1(\xd9 \xe2-\xc0'
p182
tp183
bsS'secnames'
p184
S'Cell[2].axon[47]'
p185
sI102
I13
tp186
a(F1.8896145997881157
S'Cell[3].dend[11] syn_ = new FastInhib(0.833333333333)'
p187
I3
(dp188
g169
F0.16666666666666666
sg170
F6.0
sg171
I150
sg172
g7
(g8
(I0
tp189
g10
tp190
Rp191
(I1
(I3
tp192
g179
I00
S'\xf4\x04\xf0\xee]\xa6;\xc0\xf5E\xc4l\xa1x(@l\xe2Kl\x10\xe7G\xc0'
p193
tp194
bsg184
S'Cell[3].axon[52]'
p195
sI150
I157
tp196
a(F2.0798923140017522
S'Cell[1].apic[329] syn_ = new AmpaNmda(0.5)'
p197
I1
(dp198
g169
F0.16666666666666666
sg170
F6.0
sg171
I150
sg172
g7
(g8
(I0
tp199
g10
tp200
Rp201
(I1
(I3
tp202
g179
I00
S'\xbe_L\x0fN\x8b+@NRIT*yI@\x00\x00\x00\x80\x14\xee>\xc0'
p203
tp204
bsg184
S'Cell[3].axon[157]'
p205
sI150
I61
tp206
a(F1.5062120564084622
S'Cell[3].dend[23] syn_ = new FastInhib(0.5)'
p207
I3
(dp208
S'seg'
p209
F0.5
sS'hostfrom'
p210
F7.0
sS'gid'
p211
I103
sS'coords'
p212
g7
(g8
(I0
tp213
g10
tp214
Rp215
(I1
(I3
tp216
g14
(S'f8'
p217
I0
I1
tp218
Rp219
(I3
S'<'
p220
NNNI-1
I-1
I0
tp221
bI00
S'\xd0\xc2\xf5\x1c\xc7\xca0\xc0\xbe\xebu$D\x0eB\xc0\x00\x00\x00\x00\x00\x00\x00\x00'
p222
tp223
bsS'secnames'
p224
S'Cell[2].axon[0]'
p225
sI103
I157
tp226
a(F2.345292280314614
S'Cell[2].dend[15] syn_ = new FastInhib(0.5)'
p227
I2
(dp228
g209
F0.8333333333333333
sg210
F7.0
sg211
I103
sg212
g7
(g8
(I0
tp229
g10
tp230
Rp231
(I1
(I3
tp232
g219
I00
S'\xd8\x13\x1d/p\x9c5@\xb8]\x11\xc8\xa8\xd3J@\xccX;\xa7y\xdcC\xc0'
p233
tp234
bsg224
S'Cell[2].axon[20]'
p235
sI103
I109
tp236
a(F1.8815286633130937
S'Cell[3].dend[20] syn_ = new FastInhib(0.277777777778)'
p237
I3
(dp238
g209
F0.5
sg210
F7.0
sg211
I103
sg212
g7
(g8
(I0
tp239
g10
tp240
Rp241
(I1
(I3
tp242
g219
I00
S'\xa2|\x06U}fC\xc0\xed\xe9\xbbu\x93h1\xc0\x00\x00\x00\x80\xc2\xf5"\xc0'
p243
tp244
bsg224
S'Cell[2].axon[88]'
p245
sI103
I157
tp246
a(F1.5428540000901223
S'Cell[2].dend[53] syn_ = new FastInhib(0.5)'
p247
I2
(dp248
g209
F0.5
sg210
F7.0
sg211
I103
sg212
g7
(g8
(I0
tp249
g10
tp250
Rp251
(I1
(I3
tp252
g219
I00
S'n0U5\x9d,\x11\xc0&\xee\x05\xaav\xee-@\xfa\xc2\xcd\x1e\xd8\x0c\xee\xbf'
p253
tp254
bsg224
S'Cell[2].axon[402]'
p255
sI103
I109
tp256
a(F2.238150772377767
S'Cell[3].dend[23] syn_ = new FastInhib(0.5)'
p257
I3
(dp258
g209
F0.16666666666666666
sg210
F7.0
sg211
I103
sg212
g7
(g8
(I0
tp259
g10
tp260
Rp261
(I1
(I3
tp262
g219
I00
S'r\xd8o]\xab\xa81\xc0\xda\xa3~h{IA\xc0\xa8\xa4\xecX\xea\xb4\xc5\xbf'
p263
tp264
bsg224
S'Cell[2].axon[444]'
p265
sI103
I157
tp266
a(F2.056204047824226
S'Cell[0].apic[10] syn_ = new ExpSid(0.166666666667)'
p267
I0
(dp268
g209
F0.3571428571428571
sg210
F7.0
sg211
I151
sg212
g7
(g8
(I0
tp269
g10
tp270
Rp271
(I1
(I3
tp272
g219
I00
S'j\xb0p\xfd2GG@c\xc6 \x19\x98vO@8\x0c\\\xb5\xe6\x83L\xc0'
p273
tp274
bsg224
S'Cell[3].axon[252]'
p275
sI151
I13
tp276
a(F2.0888909145421963
S'Cell[0].apic[23] syn_ = new AmpaNmda(0.1)'
p277
I0
(dp278
S'seg'
p279
F0.62
sS'hostfrom'
p280
F8.0
sS'gid'
p281
I8
sS'coords'
p282
g7
(g8
(I0
tp283
g10
tp284
Rp285
(I1
(I3
tp286
g14
(S'f8'
p287
I0
I1
tp288
Rp289
(I3
S'<'
p290
NNNI-1
I-1
I0
tp291
bI00
S'&\xae/]|PQ@\xa5\xd6\x0c\xc7\xdfCj@tj\xca\xe1\xd5NV\xc0'
p292
tp293
bsS'secnames'
p294
S'Cell[0].axon[43]'
p295
sI8
I13
tp296
a(F1.857975693632772
S'Cell[2].dend[60] syn_ = new FastInhib(0.0714285714286)'
p297
I2
(dp298
g279
F0.5
sg280
F8.0
sg281
I104
sg282
g7
(g8
(I0
tp299
g10
tp300
Rp301
(I1
(I3
tp302
g289
I00
S'\xda!,1\x0c\x93,\xc0^\xf5\xce\xc1\xa5\xe7W@\xba$ 3\x13-6\xc0'
p303
tp304
bsg294
S'Cell[2].axon[170]'
p305
sI104
I109
tp306
a(F1.954615729447013
S'Cell[1].dend[41] syn_ = new AmpaNmda(0.1)'
p307
I1
(dp308
g279
F0.16666666666666666
sg280
F8.0
sg281
I104
sg282
g7
(g8
(I0
tp309
g10
tp310
Rp311
(I1
(I3
tp312
g289
I00
S'\xf0\xf1\x8f\xbc\x0e\xa6O\xc0\x86\xff\x9b\x17r\x86:\xc0\xc5\x1b\xc0/|U#\xc0'
p313
tp314
bsg294
S'Cell[2].axon[202]'
p315
sI104
I61
tp316
a(F1.8010435826367004
S'Cell[0].dend[24] syn_ = new AmpaNmda(0.5)'
p317
I0
(dp318
g279
F0.1
sg280
F8.0
sg281
I104
sg282
g7
(g8
(I0
tp319
g10
tp320
Rp321
(I1
(I3
tp322
g289
I00
S"3M{\xcc\x82-@@\xd2\xc1Sh\x8a\x11P\xc0:\xe3)\xbb=;'@"
p323
tp324
bsg294
S'Cell[2].axon[334]'
p325
sI104
I13
tp326
a(F1.146868541283741
S'Cell[0].apic[32] syn_ = new ExpSid(0.166666666667)'
p327
I0
(dp328
S'seg'
p329
F0.5
sS'hostfrom'
p330
F9.0
sS'gid'
p331
I153
sS'coords'
p332
g7
(g8
(I0
tp333
g10
tp334
Rp335
(I1
(I3
tp336
g14
(S'f8'
p337
I0
I1
tp338
Rp339
(I3
S'<'
p340
NNNI-1
I-1
I0
tp341
bI00
S'\nd\x1e\xd4\xb6\xe9G@\xde\x00m\xae\x0c_=@\x9c\xb4I\xeb\x1d\x10\x00@'
p342
tp343
bsS'secnames'
p344
S'Cell[3].axon[86]'
p345
sI153
I13
tp346
a(F2.2979404351122548
S'Cell[2].dend[14] syn_ = new FastInhib(0.166666666667)'
p347
I2
(dp348
g329
F0.16666666666666666
sg330
F9.0
sg331
I105
sg332
g7
(g8
(I0
tp349
g10
tp350
Rp351
(I1
(I3
tp352
g339
I00
S'O-\xbe\xb4\xcb\xa1\x17@h\xcd\x94@\x15;\x0b\xc0\x00\x00\x00\x80=\x8a2\xc0'
p353
tp354
bsg344
S'Cell[2].axon[41]'
p355
sI105
I109
tp356
a(F2.3865212710247303
S'Cell[0].dend[11] syn_ = new AmpaNmda(0.1)'
p357
I0
(dp358
S'seg'
p359
F0.5
sS'hostfrom'
p360
F10.0
sS'gid'
p361
I106
sS'coords'
p362
g7
(g8
(I0
tp363
g10
tp364
Rp365
(I1
(I3
tp366
g14
(S'f8'
p367
I0
I1
tp368
Rp369
(I3
S'<'
p370
NNNI-1
I-1
I0
tp371
bI00
S'\x1b~\xf0\x96i\xceG@\xbbz\xec\x0e\xdeiP\xc0"7\x9a\x16\x81\xa5B\xc0'
p372
tp373
bsS'secnames'
p374
S'Cell[2].axon[94]'
p375
sI106
I13
tp376
a(F1.9198309053394762
S'Cell[3].dend[31] syn_ = new FastInhib(0.0714285714286)'
p377
I3
(dp378
g359
F0.5
sg360
F10.0
sg361
I106
sg362
g7
(g8
(I0
tp379
g10
tp380
Rp381
(I1
(I3
tp382
g369
I00
S'\x00\x00\x00pf&0\xc0\x00\x00\x00`ffB\xc0\x00\x00\x00\xd0\xccL#\xc0'
p383
tp384
bsg374
S'Cell[2].axon[138]'
p385
sI106
I157
tp386
a(F2.254437608813765
S'Cell[0].apic[29] syn_ = new AmpaNmda(0.3)'
p387
I0
(dp388
g359
F0.8333333333333333
sg360
F10.0
sg361
I106
sg362
g7
(g8
(I0
tp389
g10
tp390
Rp391
(I1
(I3
tp392
g369
I00
S'\xe9\xcc\'\xe3)\x96"@\x1aG\x16\x07\xa6a\xf8?s\x08]<\xfa\xfe\'\xc0'
p393
tp394
bsg374
S'Cell[2].axon[219]'
p395
sI106
I13
tp396
a(F1.8183900057016826
S'Cell[3].dend[49] syn_ = new FastInhib(0.166666666667)'
p397
I3
(dp398
g359
F0.16666666666666666
sg360
F10.0
sg361
I106
sg362
g7
(g8
(I0
tp399
g10
tp400
Rp401
(I1
(I3
tp402
g369
I00
S'\x0cs}\x0cY\xf7\x18@5\xd9\xc8UM\xbaS@\xc6\xf5\x00\x9dl\x1b-@'
p403
tp404
bsg374
S'Cell[2].axon[226]'
p405
sI106
I157
tp406
a(F1.3527088958945124
S'Cell[0].dend[23] syn_ = new AmpaNmda(0.5)'
p407
I0
(dp408
g359
F0.5
sg360
F10.0
sg361
I58
sg362
g7
(g8
(I0
tp409
g10
tp410
Rp411
(I1
(I3
tp412
g369
I00
S'\xe1\xc2\x88\xe6\xfd\xee;@\xd6\xed\xe0\xd0{\x81P\xc0H\xb7\x87\xc2Y\xc1!@'
p413
tp414
bsg374
S'Cell[1].axon[11]'
p415
sI58
I13
tp416
a(F1.7570306654985675
S'Cell[3].dend[1] syn_ = new FastInhib(0.1)'
p417
I3
(dp418
S'seg'
p419
F0.16666666666666666
sS'hostfrom'
p420
F11.0
sS'gid'
p421
I59
sS'coords'
p422
g7
(g8
(I0
tp423
g10
tp424
Rp425
(I1
(I3
tp426
g14
(S'f8'
p427
I0
I1
tp428
Rp429
(I3
S'<'
p430
NNNI-1
I-1
I0
tp431
bI00
S'N\xdf\x80\xb7\x89\xeb!\xc0\xa7jno]:E\xc04\xdf\t\x1b\xf0j<@'
p432
tp433
bsS'secnames'
p434
S'Cell[1].axon[6]'
p435
sI59
I157
tp436
a(F2.1015500419233555
S'Cell[3].dend[27] syn_ = new FastInhib(0.3)'
p437
I3
(dp438
g419
F0.5
sg420
F11.0
sg421
I155
sg422
g7
(g8
(I0
tp439
g10
tp440
Rp441
(I1
(I3
tp442
g429
I00
S'\xfa\xc6\xda\x01\xeb2P\xc0%\xa0F\xacotG\xc0 g\xbf\xd6S\xbf$@'
p443
tp444
bsg434
S'Cell[3].axon[31]'
p445
sI155
I157
tp446
a(F2.1822276622809067
S'Cell[3].dend[0] syn_ = new FastInhib(0.5)'
p447
I3
(dp448
g419
F0.16666666666666666
sg420
F11.0
sg421
I155
sg422
g7
(g8
(I0
tp449
g10
tp450
Rp451
(I1
(I3
tp452
g429
I00
S'\x07\x97\x85V\xb6\x82\x15\xc0XI\xd7\xa2\xe91*\xc0\xfc\x15\x8a\xa0GA4@'
p453
tp454
bsg434
S'Cell[3].axon[161]'
p455
sI155
I157
tp456
a(F2.3133604984009484
S'Cell[0].apic[7] syn_ = new ExpSid(0.5)'
p457
I0
(dp458
g419
F0.8999999999999999
sg420
F11.0
sg421
I155
sg422
g7
(g8
(I0
tp459
g10
tp460
Rp461
(I1
(I3
tp462
g429
I00
S'R\xbeKX\xd3\xe6U@\xfb\x0f\xdd\xfb\rq@@~\x8d\xe9\x1cxBI\xc0'
p463
tp464
bsg434
S'Cell[3].axon[250]'
p465
sI155
I13
tp466
a(F1.5443774126197585
S'Cell[0].dend[15] syn_ = new AmpaNmda(0.5)'
p467
I0
(dp468
S'seg'
p469
F0.16666666666666666
sS'hostfrom'
p470
F12.0
sS'gid'
p471
I60
sS'coords'
p472
g7
(g8
(I0
tp473
g10
tp474
Rp475
(I1
(I3
tp476
g14
(S'f8'
p477
I0
I1
tp478
Rp479
(I3
S'<'
p480
NNNI-1
I-1
I0
tp481
bI00
S'\xe8\x05$\x81n\xfe>@\xe1\xe5+4\xd57F\xc0\xd2\x05\x01[q\xe4\xe5\xbf'
p482
tp483
bsS'secnames'
p484
S'Cell[1].axon[1]'
p485
sI60
I13
tp486
a(F2.125475126662205
S'Cell[3].dend[30] syn_ = new FastInhib(0.0555555555556)'
p487
I3
(dp488
g469
F0.5
sg470
F12.0
sg471
I156
sg472
g7
(g8
(I0
tp489
g10
tp490
Rp491
(I1
(I3
tp492
g479
I00
S'\x00\x00\x80\xd9\xcc\xcc\xfc?\x00\x00\x00\x90\xc2%A\xc0\x00\x00\x00`\xb8\x1e!\xc0'
p493
tp494
bsg484
S'Cell[3].axon[619]'
p495
sI156
I157
tp496
a(F1.3159387210738875
S'Cell[3].dend[30] syn_ = new FastInhib(0.0555555555556)'
p497
I3
(dp498
g469
F0.5
sg470
F12.0
sg471
I156
sg472
g7
(g8
(I0
tp499
g10
tp500
Rp501
(I1
(I3
tp502
g479
I00
S'\x86\xca+\xc2{1\xdf\xbfFk\xfch\xde<B\xc0\x9c\xb6\x1fO/n!\xc0'
p503
tp504
bsg484
S'Cell[3].axon[620]'
p505
sI156
I157
tp506
a(F2.1875477535315233
S'Cell[3].dend[20] syn_ = new FastInhib(0.277777777778)'
p507
I3
(dp508
g469
F0.16666666666666666
sg470
F12.0
sg471
I156
sg472
g7
(g8
(I0
tp509
g10
tp510
Rp511
(I1
(I3
tp512
g479
I00
S'\xb0\xa1/\xc9f\x1dE\xc00\t\x1f\xbf\x13\x0b0\xc0\x00\x00\x00@\nW!\xc0'
p513
tp514
bsg484
S'Cell[3].axon[623]'
p515
sI156
I157
tp516
a(F1.8279246027134795
S'Cell[0].dend[26] syn_ = new AmpaNmda(0.5)'
p517
I0
(dp518
S'seg'
p519
F0.5
sS'hostfrom'
p520
F14.0
sS'gid'
p521
I110
sS'coords'
p522
g7
(g8
(I0
tp523
g10
tp524
Rp525
(I1
(I3
tp526
g14
(S'f8'
p527
I0
I1
tp528
Rp529
(I3
S'<'
p530
NNNI-1
I-1
I0
tp531
bI00
S'\xdfi\xf0=#\x1bR@\xd7\xe5\xb5\x10\x8b89\xc0\xd1N\xbaY7a;\xc0'
p532
tp533
bsS'secnames'
p534
S'Cell[2].axon[32]'
p535
sI110
I13
tp536
a(F1.9792994314508878
S'Cell[2].dend[16] syn_ = new FastInhib(0.166666666667)'
p537
I2
(dp538
S'seg'
p539
F0.7
sS'hostfrom'
p540
F15.0
sS'gid'
p541
I111
sS'coords'
p542
g7
(g8
(I0
tp543
g10
tp544
Rp545
(I1
(I3
tp546
g14
(S'f8'
p547
I0
I1
tp548
Rp549
(I3
S'<'
p550
NNNI-1
I-1
I0
tp551
bI00
S'\x9a\x90R\x18zz%@\xeb\x83\x12\xc5\x81\x01L@\xe2\x98\x83yGA?\xc0'
p552
tp553
bsS'secnames'
p554
S'Cell[2].axon[6]'
p555
sI111
I109
tp556
a(F2.1597309195231325
S'Cell[1].apic[270] syn_ = new ExpSid(0.5)'
p557
I1
(dp558
g539
F0.5
sg540
F15.0
sg541
I111
sg542
g7
(g8
(I0
tp559
g10
tp560
Rp561
(I1
(I3
tp562
g549
I00
S'\x94r\xcdE\xb7\xeb9@\xb0\x9c\xb6\xfea\xe8d@\xe4\x990\xc5\xdd\xa81\xc0'
p563
tp564
bsg554
S'Cell[2].axon[16]'
p565
sI111
I61
tp566
a(F2.3082239230441677
S'Cell[1].apic[271] syn_ = new ExpSid(0.5)'
p567
I1
g558
I111
I61
tp568
a(F2.474569690399819
S'Cell[2].dend[16] syn_ = new FastInhib(0.5)'
p569
I2
(dp570
g539
F0.16666666666666666
sg540
F15.0
sg541
I111
sg542
g7
(g8
(I0
tp571
g10
tp572
Rp573
(I1
(I3
tp574
g549
I00
S'\xeb?\xdb\xc72\xc41@\xf1\xec8\xd6L\xfeQ@\xa1\xda\x08\xf2^uA\xc0'
p575
tp576
bsg554
S'Cell[2].axon[242]'
p577
sI111
I109
tp578
a(F2.3181626379590283
S'Cell[1].apic[269] syn_ = new ExpSid(0.5)'
p579
I1
(dp580
g539
F0.5
sg540
F15.0
sg541
I159
sg542
g7
(g8
(I0
tp581
g10
tp582
Rp583
(I1
(I3
tp584
g549
I00
S'y\x17\xda!\x07\xbd2\xc0\x9c:`\xf8B\xeac@\x00\x00\x00\xc0\xf5(\x17\xc0'
p585
tp586
bsg554
S'Cell[3].axon[271]'
p587
sI159
I61
tp588
a(F2.326861901441476
S'Cell[0].apic[35] syn_ = new AmpaNmda(0.5)'
p589
I0
(dp590
S'seg'
p591
F0.5
sS'hostfrom'
p592
F16.0
sS'gid'
p593
I64
sS'coords'
p594
g7
(g8
(I0
tp595
g10
tp596
Rp597
(I1
(I3
tp598
g14
(S'f8'
p599
I0
I1
tp600
Rp601
(I3
S'<'
p602
NNNI-1
I-1
I0
tp603
bI00
S"\xa6'm:;!F@.q\xd6\xabM\xa7P@\x03\x18\x02s\\\x8d6@"
p604
tp605
bsS'secnames'
p606
S'Cell[1].axon[4]'
p607
sI64
I13
tp608
a(F1.7745806322078683
S'Cell[0].apic[32] syn_ = new AmpaNmda(0.166666666667)'
p609
I0
(dp610
g591
F0.5
sg592
F16.0
sg593
I64
sg594
g7
(g8
(I0
tp611
g10
tp612
Rp613
(I1
(I3
tp614
g601
I00
S'4\x9d\x05Uc\xc2H@\xaa\xeb\x19x\x9e\xde;@\x00\x00\x00`\xb8\x1e\xd5?'
p615
tp616
bsg606
S'Cell[1].axon[5]'
p617
sI64
I13
tp618
a(F2.400761857058269
S'Cell[1].apic[252] syn_ = new AmpaNmda(0.833333333333)'
p619
I1
(dp620
g591
F0.8333333333333333
sg592
F16.0
sg593
I160
sg594
g7
(g8
(I0
tp621
g10
tp622
Rp623
(I1
(I3
tp624
g601
I00
S'\x95y\xfa\x8b\x01\xef=@\x08\x01t\xd2\x1f\xf1c@\xdd\xf3\x7fk\xe3\x93"@'
p625
tp626
bsg606
S'Cell[3].axon[17]'
p627
sI160
I61
tp628
a(F2.4111546342298844
S'Cell[0].apic[38] syn_ = new AmpaNmda(0.5)'
p629
I0
(dp630
g591
F0.5
sg592
F16.0
sg593
I160
sg594
g7
(g8
(I0
tp631
g10
tp632
Rp633
(I1
(I3
tp634
g601
I00
S'\x10\xd6\x1f\xbfrv@@)#\xcc\xa0\xd1p^@\xacM\xc2\x0f\x82\x99\x16@'
p635
tp636
bsg606
S'Cell[3].axon[20]'
p637
sI160
I13
tp638
a(F1.5591517454518342
S'Cell[0].apic[19] syn_ = new AmpaNmda(0.166666666667)'
p639
I0
(dp640
g591
F0.30000000000000004
sg592
F16.0
sg593
I112
sg594
g7
(g8
(I0
tp641
g10
tp642
Rp643
(I1
(I3
tp644
g601
I00
S'\xd0\xfc\x8b,rM9@\x9e\xc3\xb9\x83\xc6\xe5j@\x1d\x84:\xd0\x19W]\xc0'
p645
tp646
bsg606
S'Cell[2].axon[223]'
p647
sI112
I13
tp648
a(F2.4031091737391477
S'Cell[0].apic[29] syn_ = new ExpSid(0.3)'
p649
I0
(dp650
S'seg'
p651
F0.1
sS'hostfrom'
p652
F17.0
sS'gid'
p653
I113
sS'coords'
p654
g7
(g8
(I0
tp655
g10
tp656
Rp657
(I1
(I3
tp658
g14
(S'f8'
p659
I0
I1
tp660
Rp661
(I3
S'<'
p662
NNNI-1
I-1
I0
tp663
bI00
S'N\xbe\x10\xc4\x7f\xae\x1a@[\xfa\xce\x1f\x87}\xee?WQ\xabR\x84\xfc"\xc0'
p664
tp665
bsS'secnames'
p666
S'Cell[2].axon[512]'
p667
sI113
I13
tp668
a(F2.4775681279546764
S'Cell[0].dend[20] syn_ = new ExpSid(0.166666666667)'
p669
I0
(dp670
g651
F0.16666666666666666
sg652
F17.0
sg653
I113
sg654
g7
(g8
(I0
tp671
g10
tp672
Rp673
(I1
(I3
tp674
g661
I00
S'\x98hl\xd9\x12\xa4\xfc?\xb4\x84!"\x88\x03C\xc0\xbb\xb0\x0b\xf6\xf4T)\xc0'
p675
tp676
bsg666
S'Cell[2].axon[611]'
p677
sI113
I13
tp678
a(F1.286535414669966
S'Cell[3].dend[14] syn_ = new FastInhib(0.7)'
p679
I3
(dp680
g651
F0.5
sg652
F17.0
sg653
I113
sg654
g7
(g8
(I0
tp681
g10
tp682
Rp683
(I1
(I3
tp684
g661
I00
S':\xa1\xc0\xa9\x0b\x0c7\xc0\xb6g\xa7\xcdh\x14`\xc0Lum\xa6m;?\xc0'
p685
tp686
bsg666
S'Cell[2].axon[630]'
p687
sI113
I157
tp688
a(F1.990986501548381
S'Cell[3].dend[49] syn_ = new FastInhib(0.5)'
p689
I3
(dp690
g651
F0.5
sg652
F17.0
sg653
I161
sg654
g7
(g8
(I0
tp691
g10
tp692
Rp693
(I1
(I3
tp694
g661
I00
S'\x0b\xd6\xa6>\x9c\xab\x19@nR\xbe\xba\xe1jW@\x00\x00\x00\x00\xd7#5@'
p695
tp696
bsg666
S'Cell[3].axon[204]'
p697
sI161
I157
tp698
a(F1.9971470379329255
S'Cell[1].apic[271] syn_ = new AmpaNmda(0.5)'
p699
I1
(dp700
S'seg'
p701
F0.07142857142857142
sS'hostfrom'
p702
F18.0
sS'gid'
p703
I162
sS'coords'
p704
g7
(g8
(I0
tp705
g10
tp706
Rp707
(I1
(I3
tp708
g14
(S'f8'
p709
I0
I1
tp710
Rp711
(I3
S'<'
p712
NNNI-1
I-1
I0
tp713
bI00
S'\xb7\xa0\x9a_\x82\x7f=@\x9a\xfa\xb8*\xfd\x03e@\x82,\x1f\\H\xc92\xc0'
p714
tp715
bsS'secnames'
p716
S'Cell[3].axon[172]'
p717
sI162
I61
tp718
a(F1.6074995175968365
S'Cell[1].apic[272] syn_ = new AmpaNmda(0.5)'
p719
I1
g700
I162
I61
tp720
a(F2.3622544655364557
S'Cell[2].dend[32] syn_ = new FastInhib(0.214285714286)'
p721
I2
(dp722
g701
F0.5
sg702
F18.0
sg703
I162
sg704
g7
(g8
(I0
tp723
g10
tp724
Rp725
(I1
(I3
tp726
g711
I00
S'!g>z\xfb\xc1\x1d\xc0X\x99/|\xb0\x18E@A\xed\x17f\x06\xc28@'
p727
tp728
bsg716
S'Cell[3].axon[185]'
p729
sI162
I109
tp730
a(F2.2441862839105196
S'Cell[3].dend[49] syn_ = new FastInhib(0.833333333333)'
p731
I3
(dp732
S'seg'
p733
F0.5
sS'hostfrom'
p734
F19.0
sS'gid'
p735
I115
sS'coords'
p736
g7
(g8
(I0
tp737
g10
tp738
Rp739
(I1
(I3
tp740
g14
(S'f8'
p741
I0
I1
tp742
Rp743
(I3
S'<'
p744
NNNI-1
I-1
I0
tp745
bI00
S'E\x0b\xcb>\x04\xc3 @JLI\xa5\xf1\x8e\\@\x05df\xe2;\xe27@'
p746
tp747
bsS'secnames'
p748
S'Cell[2].axon[172]'
p749
sI115
I157
tp750
a(F1.9175227033987634
S'Cell[0].apic[31] syn_ = new ExpSid(0.5)'
p751
I0
(dp752
g733
F0.8999999999999999
sg734
F19.0
sg735
I115
sg736
g7
(g8
(I0
tp753
g10
tp754
Rp755
(I1
(I3
tp756
g743
I00
S'rr)\x9cS\xccO@\x02E\xadU\x17\x0f>@\x00\x00\x00 \\\x0f/@'
p757
tp758
bsg748
S'Cell[2].axon[179]'
p759
sI115
I13
tp760
a(F1.8198433562233811
S'Cell[2].dend[26] syn_ = new FastInhib(0.5)'
p761
I2
(dp762
g733
F0.8999999999999999
sg734
F19.0
sg735
I115
sg736
g7
(g8
(I0
tp763
g10
tp764
Rp765
(I1
(I3
tp766
g743
I00
S'\x04l\xcd\x03\xa0\xd03@\xea\xe1i\x92(\x17X@\xbdF\xb9tP\xcaB\xc0'
p767
tp768
bsg748
S'Cell[2].axon[241]'
p769
sI115
I109
tp770
a(F2.2016774041873712
S'Cell[3].dend[30] syn_ = new FastInhib(0.0555555555556)'
p771
I3
(dp772
S'seg'
p773
F0.8333333333333333
sS'hostfrom'
p774
F20.0
sS'gid'
p775
I68
sS'coords'
p776
g7
(g8
(I0
tp777
g10
tp778
Rp779
(I1
(I3
tp780
g14
(S'f8'
p781
I0
I1
tp782
Rp783
(I3
S'<'
p784
NNNI-1
I-1
I0
tp785
bI00
S'\x00\x9b\xca_\xce\xe5\x8f\xbf7\x0bL\xcf\xf9\xc7A\xc0\x9ek\x91\x9b\xfbI\x1a\xc0'
p786
tp787
bsS'secnames'
p788
S'Cell[1].axon[29]'
p789
sI68
I157
tp790
a(F2.179197840172915
S'Cell[1].dend[12] syn_ = new AmpaNmda(0.5)'
p791
I1
(dp792
g773
F0.7
sg774
F20.0
sg775
I68
sg776
g7
(g8
(I0
tp793
g10
tp794
Rp795
(I1
(I3
tp796
g783
I00
S'\x9aQa|{FK\xc0@\x11\x8b\x88\x00\x893\xc0\x00\x00\x00 \x85\x8b@\xc0'
p797
tp798
bsg788
S'Cell[1].axon[30]'
p799
sI68
I61
tp800
a(F1.7941178015994996
S'Cell[3].dend[3] syn_ = new FastInhib(0.5)'
p801
I3
(dp802
g773
F0.8333333333333333
sg774
F20.0
sg775
I164
sg776
g7
(g8
(I0
tp803
g10
tp804
Rp805
(I1
(I3
tp806
g783
I00
S'k\x08PJ\xa8D/@`\xd4\x82@)\xefd\xc0\x00\x00\x00\xe0Q8>@'
p807
tp808
bsg788
S'Cell[3].axon[34]'
p809
sI164
I157
tp810
a(F1.9821438720343594
S'Cell[3].dend[14] syn_ = new FastInhib(0.7)'
p811
I3
(dp812
S'seg'
p813
F0.21428571428571427
sS'hostfrom'
p814
F21.0
sS'gid'
p815
I165
sS'coords'
p816
g7
(g8
(I0
tp817
g10
tp818
Rp819
(I1
(I3
tp820
g14
(S'f8'
p821
I0
I1
tp822
Rp823
(I3
S'<'
p824
NNNI-1
I-1
I0
tp825
bI00
S"\xd1'\xd6\xd2\xd1\xdf7\xc0\xe2c\x89\xe3\xc6\xa3_\xc0\xean\xa8\xe3l\xc9>\xc0"
p826
tp827
bsS'secnames'
p828
S'Cell[3].axon[106]'
p829
sI165
I157
tp830
a(F2.3251016575845944
S'Cell[3].dend[30] syn_ = new FastInhib(0.944444444444)'
p831
I3
(dp832
g813
F0.8333333333333333
sg814
F21.0
sg815
I165
sg816
g7
(g8
(I0
tp833
g10
tp834
Rp835
(I1
(I3
tp836
g823
I00
S'?R\xdd\xf4v\x01d@%\xb4\xa7Np\xe14@<\x81\xd5\xb4\xb0\x00\x15@'
p837
tp838
bsg828
S'Cell[3].axon[162]'
p839
sI165
I157
tp840
a(F2.0037172850767564
S'Cell[0].dend[26] syn_ = new ExpSid(0.5)'
p841
I0
(dp842
g813
F0.16666666666666666
sg814
F21.0
sg815
I165
sg816
g7
(g8
(I0
tp843
g10
tp844
Rp845
(I1
(I3
tp846
g823
I00
S'0!{\x1b\xf1\xd1Q@e\xb1\xb2\xd5\xc1S7\xc0~\xc7\x91\x89QS:\xc0'
p847
tp848
bsg828
S'Cell[3].axon[163]'
p849
sI165
I13
tp850
a(F1.9836585014487758
S'Cell[1].dend[6] syn_ = new ExpSid(0.166666666667)'
p851
I1
(dp852
g813
F0.8333333333333333
sg814
F21.0
sg815
I165
sg816
g7
(g8
(I0
tp853
g10
tp854
Rp855
(I1
(I3
tp856
g823
I00
S'Gh\xc7f\x8doa\xc0\xdf)\x1aJ\x96\x94>\xc0RP%#\x8c\x1c\x1d\xc0'
p857
tp858
bsg828
S'Cell[3].axon[186]'
p859
sI165
I61
tp860
a(F2.1195723624464082
S'Cell[1].dend[29] syn_ = new ExpSid(0.5)'
p861
I1
(dp862
g813
F0.8333333333333333
sg814
F21.0
sg815
I165
sg816
g7
(g8
(I0
tp863
g10
tp864
Rp865
(I1
(I3
tp866
g823
I00
S"\xb8\xd0\x93\xf9\xcd\xb1'\xc0\xc0\xf7\x1c\x17 =N\xc0\x8e\xdeP~\xf2eA@"
p867
tp868
bsg828
S'Cell[3].axon[232]'
p869
sI165
I61
tp870
a(F1.7793694254933572
S'Cell[2].dend[14] syn_ = new FastInhib(0.833333333333)'
p871
I2
(dp872
g813
F0.5
sg814
F21.0
sg815
I117
sg816
g7
(g8
(I0
tp873
g10
tp874
Rp875
(I1
(I3
tp876
g823
I00
S'\x00\x00\x0083\xf3!@\x00\x00\x00\x10\xd7\xf3B@\x00\x00\x00\x80\xc2u9\xc0'
p877
tp878
bsg828
S'Cell[2].axon[4]'
p879
sI117
I109
tp880
a(F1.5034568646631439
S'Cell[3].dend[11] syn_ = new FastInhib(0.166666666667)'
p881
I3
(dp882
g813
F0.5
sg814
F21.0
sg815
I117
sg816
g7
(g8
(I0
tp883
g10
tp884
Rp885
(I1
(I3
tp886
g823
I00
S'\x98\xf9\x0fB\xfe\xfa0\xc0\x00cgd\x98\xd9.@\x00\x00\x00\x80\xc2u9\xc0'
p887
tp888
bsg828
S'Cell[2].axon[8]'
p889
sI117
I157
tp890
a(F2.340681126770217
S'Cell[1].apic[327] syn_ = new ExpSid(0.166666666667)'
p891
I1
(dp892
g813
F0.16666666666666666
sg814
F21.0
sg815
I117
sg816
g7
(g8
(I0
tp893
g10
tp894
Rp895
(I1
(I3
tp896
g823
I00
S'\x8c\x91<\xd9\x14\xa6=\xc0\x937\x1c\xb9\x94\xe7@@\x00\x00\x00\x80\xc2u9\xc0'
p897
tp898
bsg828
S'Cell[2].axon[61]'
p899
sI117
I61
tp900
a(F1.8478425212988143
S'Cell[1].apic[325] syn_ = new ExpSid(0.5)'
p901
I1
(dp902
g813
F0.5
sg814
F21.0
sg815
I117
sg816
g7
(g8
(I0
tp903
g10
tp904
Rp905
(I1
(I3
tp906
g823
I00
S'\x85\x8d1\xaaziD\xc0\x1cS\\\xf1)\xcb:@\x00\x00\x00\x80\xc2u9\xc0'
p907
tp908
bsg828
S'Cell[2].axon[61]'
p909
sI117
I61
tp910
a(F1.9521724044685564
S'Cell[1].apic[326] syn_ = new ExpSid(0.5)'
p911
I1
g902
I117
I61
tp912
a(F2.4609784247529247
S'Cell[2].dend[14] syn_ = new FastInhib(0.5)'
p913
I2
(dp914
g813
F0.5
sg814
F21.0
sg815
I117
sg816
g7
(g8
(I0
tp915
g10
tp916
Rp917
(I1
(I3
tp918
g823
I00
S'b\xf98gw\x10\x03@\xa2^\xa9\xd2\xf9\xd7,@\x00\x00\x00\x80\xc2u9\xc0'
p919
tp920
bsg828
S'Cell[2].axon[277]'
p921
sI117
I109
tp922
a(F0.8822335546038576
S'Cell[2].dend[42] syn_ = new FastInhib(0.166666666667)'
p923
I2
(dp924
g813
F0.8333333333333333
sg814
F21.0
sg815
I21
sg816
g7
(g8
(I0
tp925
g10
tp926
Rp927
(I1
(I3
tp928
g823
I00
S':6\xec,,\xf3N@\xab[`W\x0erT\xc0\xbdg\x8e\xa1mr7@'
p929
tp930
bsg828
S'Cell[0].axon[9]'
p931
sI21
I109
tp932
a(F1.1633501768174583
S'Cell[3].dend[43] syn_ = new FastInhib(0.166666666667)'
p933
I3
(dp934
S'seg'
p935
F0.07142857142857142
sS'hostfrom'
p936
F22.0
sS'gid'
p937
I70
sS'coords'
p938
g7
(g8
(I0
tp939
g10
tp940
Rp941
(I1
(I3
tp942
g14
(S'f8'
p943
I0
I1
tp944
Rp945
(I3
S'<'
p946
NNNI-1
I-1
I0
tp947
bI00
S'eZ\xb4\x06a\x8aD\xc0=a%[3j8\xc0~w\x9d\xbb+d/@'
p948
tp949
bsS'secnames'
p950
S'Cell[1].axon[4]'
p951
sI70
I157
tp952
a(F1.3830181868241147
S'Cell[3].dend[44] syn_ = new FastInhib(0.5)'
p953
I3
(dp954
g935
F0.8333333333333333
sg936
F22.0
sg937
I166
sg938
g7
(g8
(I0
tp955
g10
tp956
Rp957
(I1
(I3
tp958
g945
I00
S'\xecD\x84\xbc\xe4\xc7L\xc0\xea\xae\x1b$\x82\x91O@\xb2\xc1\xa9\x89\xf9.\x18@'
p959
tp960
bsg950
S'Cell[3].axon[96]'
p961
sI166
I157
tp962
a(F2.276123618818629
S'Cell[3].dend[45] syn_ = new FastInhib(0.166666666667)'
p963
I3
(dp964
g935
F0.30000000000000004
sg936
F22.0
sg937
I166
sg938
g7
(g8
(I0
tp965
g10
tp966
Rp967
(I1
(I3
tp968
g945
I00
S'\x8a\xcb\x1d8\x15s/\xc0H\x97.\xbe\x8b\x84;\xc0\x00\x00\x00\xa0p=\x08@'
p969
tp970
bsg950
S'Cell[3].axon[149]'
p971
sI166
I157
tp972
a(F1.9481839589836019
S'Cell[3].dend[30] syn_ = new FastInhib(0.944444444444)'
p973
I3
(dp974
g935
F0.8333333333333333
sg936
F22.0
sg937
I166
sg938
g7
(g8
(I0
tp975
g10
tp976
Rp977
(I1
(I3
tp978
g945
I00
S'0\xd2\xef\xe4h\xaac@\x92R\x98\xef\x99\xfc4@\xd8x\xd2o\xf1\xdb\x07@'
p979
tp980
bsg950
S'Cell[3].axon[283]'
p981
sI166
I157
tp982
a(F1.524875737613613
S'Cell[0].apic[27] syn_ = new AmpaNmda(0.5)'
p983
I0
(dp984
g935
F0.5
sg936
F22.0
sg937
I166
sg938
g7
(g8
(I0
tp985
g10
tp986
Rp987
(I1
(I3
tp988
g945
I00
S'z\xcb2<\x88\xbdH@\xa1S\r\x89q\xbe&@ \x98\xb1\x8dd\x0e\xf7?'
p989
tp990
bsg950
S'Cell[3].axon[293]'
p991
sI166
I13
tp992
a(F2.4032812068242153
S'Cell[2].dend[45] syn_ = new FastInhib(0.5)'
p993
I2
(dp994
g935
F0.7
sg936
F22.0
sg937
I166
sg938
g7
(g8
(I0
tp995
g10
tp996
Rp997
(I1
(I3
tp998
g945
I00
S'WalM\xce\x08\xf9\xbf\xf3\xe1 I\x9b+\xfd\xbf\xb9R\xbcnB\xeb%@'
p999
tp1000
bsg950
S'Cell[3].axon[300]'
p1001
sI166
I109
tp1002
a(F1.663032426175032
S'Cell[2].dend[36] syn_ = new FastInhib(0.5)'
p1003
I2
(dp1004
S'seg'
p1005
F0.16666666666666666
sS'hostfrom'
p1006
F23.0
sS'gid'
p1007
I167
sS'coords'
p1008
g7
(g8
(I0
tp1009
g10
tp1010
Rp1011
(I1
(I3
tp1012
g14
(S'f8'
p1013
I0
I1
tp1014
Rp1015
(I3
S'<'
p1016
NNNI-1
I-1
I0
tp1017
bI00
S'\xcc\x01;\xa0yA\x10\xc0\xc1:[VG\x94L\xc0\x169#\xa4f\x04@@'
p1018
tp1019
bsS'secnames'
p1020
S'Cell[3].axon[0]'
p1021
sI167
I109
tp1022
a(F2.3497163314967118
S'Cell[0].apic[26] syn_ = new AmpaNmda(0.5)'
p1023
I0
(dp1024
S'seg'
p1025
F0.5
sS'hostfrom'
p1026
F24.0
sS'gid'
p1027
I72
sS'coords'
p1028
g7
(g8
(I0
tp1029
g10
tp1030
Rp1031
(I1
(I3
tp1032
g14
(S'f8'
p1033
I0
I1
tp1034
Rp1035
(I3
S'<'
p1036
NNNI-1
I-1
I0
tp1037
bI00
S'\x00\x00\x00\x80\xeb\xf1H@\x00\x00\x00\x80\xb8\x1e\xdd?\x00\x00\x00(\x85\xeb\xfb?'
p1038
tp1039
bsS'secnames'
p1040
S'Cell[1].soma[3]'
p1041
sI72
I13
tp1042
a(F1.3877938261253289
S'Cell[0].apic[7] syn_ = new AmpaNmda(0.5)'
p1043
I0
(dp1044
g1025
F0.7
sg1026
F24.0
sg1027
I120
sg1028
g7
(g8
(I0
tp1045
g10
tp1046
Rp1047
(I1
(I3
tp1048
g1035
I00
S'>\x0b\x19_zqU@H\xe2\x940\xd2Y@@\xe7q6k\xed\x85I\xc0'
p1049
tp1050
bsg1040
S'Cell[2].axon[54]'
p1051
sI120
I13
tp1052
a(F1.35846409977272
S'Cell[0].dend[4] syn_ = new AmpaNmda(0.5)'
p1053
I0
(dp1054
g1025
F0.3181818181818182
sg1026
F24.0
sg1027
I120
sg1028
g7
(g8
(I0
tp1055
g10
tp1056
Rp1057
(I1
(I3
tp1058
g1035
I00
S'\xdeE\xe2\x0b\x15\x84F@\xdb\xf6\xd8\xe0?\x82D\xc0\xfa\xcfY\x05=\xb1O\xc0'
p1059
tp1060
bsg1040
S'Cell[2].axon[82]'
p1061
sI120
I13
tp1062
a(F1.562869321668187
S'Cell[0].dend[20] syn_ = new AmpaNmda(0.5)'
p1063
I0
(dp1064
g1025
F0.30000000000000004
sg1026
F24.0
sg1027
I120
sg1028
g7
(g8
(I0
tp1065
g10
tp1066
Rp1067
(I1
(I3
tp1068
g1035
I00
S'b\xb1\x9e\x00A\x024\xc0\x85\x18\xbf6\xad\xa0B\xc0-;\x15\xb8t?+\xc0'
p1069
tp1070
bsg1040
S'Cell[2].axon[137]'
p1071
sI120
I13
tp1072
a(F2.012695292169659
S'Cell[1].apic[326] syn_ = new ExpSid(0.5)'
p1073
I1
(dp1074
S'seg'
p1075
F0.30000000000000004
sS'hostfrom'
p1076
F25.0
sS'gid'
p1077
I121
sS'coords'
p1078
g7
(g8
(I0
tp1079
g10
tp1080
Rp1081
(I1
(I3
tp1082
g14
(S'f8'
p1083
I0
I1
tp1084
Rp1085
(I3
S'<'
p1086
NNNI-1
I-1
I0
tp1087
bI00
S'\xbf\xa0\xc8\xe6\xdd*D\xc0\x86\x95`\x9c,\xa2=@\x00\x00\x00\xa0p\xfd7\xc0'
p1088
tp1089
bsS'secnames'
p1090
S'Cell[2].axon[132]'
p1091
sI121
I61
tp1092
a(F1.879809623353538
S'Cell[1].dend[7] syn_ = new ExpSid(0.1)'
p1093
I1
(dp1094
g1075
F0.5
sg1076
F25.0
sg1077
I121
sg1078
g7
(g8
(I0
tp1095
g10
tp1096
Rp1097
(I1
(I3
tp1098
g1085
I00
S'\xea\xd6\x82\x08$[Z\xc0\x97\r]\x8cB\xf9\x08\xc0\xfe\xb0\xbf>\xf3\xc75\xc0'
p1099
tp1100
bsg1090
S'Cell[2].axon[159]'
p1101
sI121
I61
tp1102
a(F0.616400621130568
S'Cell[3].dend[20] syn_ = new FastInhib(0.0555555555556)'
p1103
I3
(dp1104
g1075
F0.5
sg1076
F25.0
sg1077
I121
sg1078
g7
(g8
(I0
tp1105
g10
tp1106
Rp1107
(I1
(I3
tp1108
g1085
I00
S'n\xe7x\x18w\x7f?\xc0\xb8\xa5n\x7f<\xe2:@\n-_\x9d\xb9k)@'
p1109
tp1110
bsg1090
S'Cell[2].axon[192]'
p1111
sI121
I157
tp1112
a(F2.203151712174028
S'Cell[2].dend[43] syn_ = new FastInhib(0.5)'
p1113
I2
(dp1114
g1075
F0.1
sg1076
F25.0
sg1077
I73
sg1078
g7
(g8
(I0
tp1115
g10
tp1116
Rp1117
(I1
(I3
tp1118
g1085
I00
S"\xcc\xeb|'q\x974@|x\x06\x84C\x17V\xc0\x18b\xdfT\x81\xc3;@"
p1119
tp1120
bsg1090
S'Cell[1].axon[36]'
p1121
sI73
I109
tp1122
a(F2.260768464407531
S'Cell[3].dend[1] syn_ = new FastInhib(0.7)'
p1123
I3
(dp1124
S'seg'
p1125
F0.5
sS'hostfrom'
p1126
F26.0
sS'gid'
p1127
I26
sS'coords'
p1128
g7
(g8
(I0
tp1129
g10
tp1130
Rp1131
(I1
(I3
tp1132
g14
(S'f8'
p1133
I0
I1
tp1134
Rp1135
(I3
S'<'
p1136
NNNI-1
I-1
I0
tp1137
bI00
S'\x04\x9d\xff\xd8\x14=\xdf\xbf\xb6@PeB\x88^\xc0\xcc\xab\xae\xb8\x0fN9@'
p1138
tp1139
bsS'secnames'
p1140
S'Cell[0].axon[44]'
p1141
sI26
I157
tp1142
a(F2.4353241493655022
S'Cell[3].dend[30] syn_ = new FastInhib(0.388888888889)'
p1143
I3
(dp1144
g1125
F0.7
sg1126
F26.0
sg1127
I26
sg1128
g7
(g8
(I0
tp1145
g10
tp1146
Rp1147
(I1
(I3
tp1148
g1135
I00
S'@\x0c\xcft\x02\xe0P@u\x15B\xcc\x8eE:\xc0\xc3\x1b\xc4\xd2\xc0\xb42\xc0'
p1149
tp1150
bsg1140
S'Cell[0].axon[48]'
p1151
sI26
I157
tp1152
a(F2.434692323050423
S'Cell[0].apic[43] syn_ = new AmpaNmda(0.5)'
p1153
I0
(dp1154
g1125
F0.5
sg1126
F26.0
sg1127
I170
sg1128
g7
(g8
(I0
tp1155
g10
tp1156
Rp1157
(I1
(I3
tp1158
g1135
I00
S'\xa0\x0f\x1e\x85\xf2aB@\xe1*\xec\xff=\x1bo@\xb5p\xc2X\x17\x1b<\xc0'
p1159
tp1160
bsg1140
S'Cell[3].axon[121]'
p1161
sI170
I13
tp1162
a(F1.6950685443034832
S'Cell[3].dend[44] syn_ = new FastInhib(0.722222222222)'
p1163
I3
(dp1164
g1125
F0.8333333333333333
sg1126
F26.0
sg1127
I170
sg1128
g7
(g8
(I0
tp1165
g10
tp1166
Rp1167
(I1
(I3
tp1168
g1135
I00
S'4^\xebq.\x94K\xc0v\x95\x9aiK\xc6Y@\x00HN\x99\xb1\x9c\xf6?'
p1169
tp1170
bsg1140
S'Cell[3].axon[291]'
p1171
sI170
I157
tp1172
a(F1.4159438155159356
S'Cell[2].dend[60] syn_ = new FastInhib(0.785714285714)'
p1173
I2
(dp1174
g1125
F0.16666666666666666
sg1126
F26.0
sg1127
I170
sg1128
g7
(g8
(I0
tp1175
g10
tp1176
Rp1177
(I1
(I3
tp1178
g1135
I00
S'\t:m\x03\x81\x16J\xc0)BY\x90\xe6mh@F\x97G\x83\x02`F\xc0'
p1179
tp1180
bsg1140
S'Cell[3].axon[389]'
p1181
sI170
I109
tp1182
a(F2.419744180327948
S'Cell[0].apic[32] syn_ = new ExpSid(0.166666666667)'
p1183
I0
(dp1184
S'seg'
p1185
F0.2777777777777778
sS'hostfrom'
p1186
F27.0
sS'gid'
p1187
I75
sS'coords'
p1188
g7
(g8
(I0
tp1189
g10
tp1190
Rp1191
(I1
(I3
tp1192
g14
(S'f8'
p1193
I0
I1
tp1194
Rp1195
(I3
S'<'
p1196
NNNI-1
I-1
I0
tp1197
bI00
S'"\xab\x1b\xb8\xb58H@8F\x08\xfd\x9bV?@mK(\x08\xb32\xe5?'
p1198
tp1199
bsS'secnames'
p1200
S'Cell[1].axon[2]'
p1201
sI75
I13
tp1202
a(F2.468463429845983
S'Cell[3].dend[45] syn_ = new FastInhib(0.5)'
p1203
I3
(dp1204
g1185
F0.7
sg1186
F27.0
sg1187
I27
sg1188
g7
(g8
(I0
tp1205
g10
tp1206
Rp1207
(I1
(I3
tp1208
g1195
I00
S'\xb4@\x08*\xad\xa74\xc0/\x99&\xb0\x92\xfb=\xc0\xa6l^`Uy/@'
p1209
tp1210
bsg1200
S'Cell[0].axon[4]'
p1211
sI27
I157
tp1212
a(F2.102959777778589
S'Cell[3].dend[36] syn_ = new FastInhib(0.5)'
p1213
I3
(dp1214
g1185
F0.16666666666666666
sg1186
F27.0
sg1187
I171
sg1188
g7
(g8
(I0
tp1215
g10
tp1216
Rp1217
(I1
(I3
tp1218
g1195
I00
S'\x1e\x1d\xc1|\xba\xb11\xc0\x87*\x14)\xb6\x869\xc0u\x07b\xce\xaaF\xc1?'
p1219
tp1220
bsg1200
S'Cell[3].axon[27]'
p1221
sI171
I157
tp1222
a(F1.2559201728064113
S'Cell[3].dend[36] syn_ = new FastInhib(0.5)'
p1223
I3
(dp1224
S'seg'
p1225
F0.8333333333333333
sS'hostfrom'
p1226
F28.0
sS'gid'
p1227
I172
sS'coords'
p1228
g7
(g8
(I0
tp1229
g10
tp1230
Rp1231
(I1
(I3
tp1232
g14
(S'f8'
p1233
I0
I1
tp1234
Rp1235
(I3
S'<'
p1236
NNNI-1
I-1
I0
tp1237
bI00
S'{\xef\xe3\xe0\xdf\xf12\xc0^\xcad\xd7\x0e;:\xc0\xd4\xd4\xb0\x93\xfds\xf3\xbf'
p1238
tp1239
bsS'secnames'
p1240
S'Cell[3].axon[50]'
p1241
sI172
I157
tp1242
a(F2.349300997224152
S'Cell[1].apic[325] syn_ = new AmpaNmda(0.5)'
p1243
I1
(dp1244
g1225
F0.16666666666666666
sg1226
F28.0
sg1227
I172
sg1228
g7
(g8
(I0
tp1245
g10
tp1246
Rp1247
(I1
(I3
tp1248
g1235
I00
S'\xb2\xff\xafq\x03PD\xc0rVD\x1aQ\xa08@AQ;\x82\x16\xd38\xc0'
p1249
tp1250
bsg1240
S'Cell[3].axon[65]'
p1251
sI172
I61
tp1252
a(F2.406046612943284
S'Cell[0].apic[10] syn_ = new AmpaNmda(0.166666666667)'
p1253
I0
(dp1254
g1225
F0.8333333333333333
sg1226
F28.0
sg1227
I172
sg1228
g7
(g8
(I0
tp1255
g10
tp1256
Rp1257
(I1
(I3
tp1258
g1235
I00
S"\x96J\xfbS3\xb0F@\xe4\xf0U\x9bM%P@\x00\x00\x00 \xae'M\xc0"
p1259
tp1260
bsg1240
S'Cell[3].axon[77]'
p1261
sI172
I13
tp1262
a(F1.6378424055663734
S'Cell[0].apic[29] syn_ = new AmpaNmda(0.1)'
p1263
I0
(dp1264
g1225
F0.5
sg1226
F28.0
sg1227
I172
sg1228
g7
(g8
(I0
tp1265
g10
tp1266
Rp1267
(I1
(I3
tp1268
g1235
I00
S'\xbazq1}N@@09\xb6\xca2\x97!@\xfd\x00q\x0cm\x95\x14\xc0'
p1269
tp1270
bsg1240
S'Cell[3].axon[91]'
p1271
sI172
I13
tp1272
a(F2.13758308037853
S'Cell[3].dend[21] syn_ = new FastInhib(0.5)'
p1273
I3
(dp1274
S'seg'
p1275
F0.5
sS'hostfrom'
p1276
F29.0
sS'gid'
p1277
I173
sS'coords'
p1278
g7
(g8
(I0
tp1279
g10
tp1280
Rp1281
(I1
(I3
tp1282
g14
(S'f8'
p1283
I0
I1
tp1284
Rp1285
(I3
S'<'
p1286
NNNI-1
I-1
I0
tp1287
bI00
S'\x00\x00\x00\xa0\x99\x99"\xc0\x00\x00\x00\xe0Q\xb8"\xc0\x00\x00\x00\x80=\n\xd7\xbf'
p1288
tp1289
bsS'secnames'
p1290
S'Cell[3].soma[0]'
p1291
sI173
I157
tp1292
a(F2.1023465580578464
S'Cell[3].dend[6] syn_ = new FastInhib(0.5)'
p1293
I3
(dp1294
g1275
F0.5
sg1276
F29.0
sg1277
I173
sg1278
g7
(g8
(I0
tp1295
g10
tp1296
Rp1297
(I1
(I3
tp1298
g1285
I00
S'\x92F\\\xc7I\xef\x03\xc0\xf2\xfb4\xf6\x9a\x06[@\x00\x00\x00\x00)\xdc=\xc0'
p1299
tp1300
bsg1290
S'Cell[3].axon[1]'
p1301
sI173
I157
tp1302
a(F2.367689279726519
S'Cell[1].dend[23] syn_ = new ExpSid(0.5)'
p1303
I1
(dp1304
g1275
F0.36666666666666664
sg1276
F29.0
sg1277
I77
sg1278
g7
(g8
(I0
tp1305
g10
tp1306
Rp1307
(I1
(I3
tp1308
g1285
I00
S'?\xf0]U\x84\x07U\xc0\xc8\x940VZ\x18L\xc0FD/}\xe4W@\xc0'
p1309
tp1310
bsg1290
S'Cell[1].axon[16]'
p1311
sI77
I61
tp1312
a(F1.4452329827468784
S'Cell[2].dend[46] syn_ = new FastInhib(0.3)'
p1313
I2
(dp1314
S'seg'
p1315
F0.8333333333333333
sS'hostfrom'
p1316
F30.0
sS'gid'
p1317
I126
sS'coords'
p1318
g7
(g8
(I0
tp1319
g10
tp1320
Rp1321
(I1
(I3
tp1322
g14
(S'f8'
p1323
I0
I1
tp1324
Rp1325
(I3
S'<'
p1326
NNNI-1
I-1
I0
tp1327
bI00
S'\x00\x00\x00\x80\xeb\xd1,@\x8dz\xa8G\x84\x9dF@\xfe4\xacWfy\x05\xc0'
p1328
tp1329
bsS'secnames'
p1330
S'Cell[2].axon[2]'
p1331
sI126
I109
tp1332
a(F1.8061539728066003
S'Cell[3].dend[10] syn_ = new FastInhib(0.0555555555556)'
p1333
I3
(dp1334
g1315
F0.3571428571428571
sg1316
F30.0
sg1317
I126
sg1318
g7
(g8
(I0
tp1335
g10
tp1336
Rp1337
(I1
(I3
tp1338
g1325
I00
S'Z>{\x99\xc2\x17\t\xc0\xb8\xee\xf9\xe88\xbdg@\x00\x00\x00\xa0p\x9dM\xc0'
p1339
tp1340
bsg1330
S'Cell[2].axon[107]'
p1341
sI126
I157
tp1342
a(F0.404747900612761
S'Cell[0].dend[21] syn_ = new AmpaNmda(0.5)'
p1343
I0
(dp1344
g1315
F0.16666666666666666
sg1316
F30.0
sg1317
I30
sg1318
g7
(g8
(I0
tp1345
g10
tp1346
Rp1347
(I1
(I3
tp1348
g1325
I00
S'C#K\xf9 \x0e%\xc0\xcc\x19\x92\x16\x8f"D\xc0\xb0 _\t&\x1f/\xc0'
p1349
tp1350
bsg1330
S'Cell[0].axon[0]'
p1351
sI30
I13
tp1352
a(F2.1223187568579505
S'Cell[3].dend[31] syn_ = new FastInhib(0.357142857143)'
p1353
I3
(dp1354
g1315
F0.16666666666666666
sg1316
F30.0
sg1317
I174
sg1318
g7
(g8
(I0
tp1355
g10
tp1356
Rp1357
(I1
(I3
tp1358
g1325
I00
S'\xd6\x08F#\xc2\xfbH\xc0\xd2\xfe\x83^>\xa6E\xc0\x00\x00\x00\xe0Q\xd8B\xc0'
p1359
tp1360
bsg1330
S'Cell[3].axon[146]'
p1361
sI174
I157
tp1362
a(F2.4417061548884123
S'Cell[2].dend[14] syn_ = new FastInhib(0.833333333333)'
p1363
I2
(dp1364
g1315
F0.5
sg1316
F30.0
sg1317
I174
sg1318
g7
(g8
(I0
tp1365
g10
tp1366
Rp1367
(I1
(I3
tp1368
g1325
I00
S'\xf7j\xcc\x08\xdb\xea @\x1b\x01\x82\xf8\xe5\xbeA@\x00\x00\x00`ff;\xc0'
p1369
tp1370
bsg1330
S'Cell[3].axon[152]'
p1371
sI174
I109
tp1372
a(F2.0216652371101174
S'Cell[3].dend[20] syn_ = new FastInhib(0.833333333333)'
p1373
I3
(dp1374
g1315
F0.2777777777777778
sg1316
F30.0
sg1317
I174
sg1318
g7
(g8
(I0
tp1375
g10
tp1376
Rp1377
(I1
(I3
tp1378
g1325
I00
S'\xf8\xf6hN\x0c\xfbI\xc0\x1e\x7f\x94\xfb]\x18`\xc0.\x99w\xf5r\xa2P\xc0'
p1379
tp1380
bsg1330
S'Cell[3].axon[198]'
p1381
sI174
I157
tp1382
a(F1.9899800610762626
S'Cell[1].dend[41] syn_ = new AmpaNmda(0.5)'
p1383
I1
(dp1384
g1315
F0.5
sg1316
F30.0
sg1317
I174
sg1318
g7
(g8
(I0
tp1385
g10
tp1386
Rp1387
(I1
(I3
tp1388
g1325
I00
S'Y\x05\x1f\xe6q\x0bQ\xc0V\x18\xd4\xf8\xf0RQ\xc0`\x182\xb8Z\xe5"\xc0'
p1389
tp1390
bsg1330
S'Cell[3].axon[359]'
p1391
sI174
I61
tp1392
a(F2.2453251711405557
S'Cell[0].dend[21] syn_ = new AmpaNmda(0.833333333333)'
p1393
I0
(dp1394
g1315
F0.16666666666666666
sg1316
F30.0
sg1317
I174
sg1318
g7
(g8
(I0
tp1395
g10
tp1396
Rp1397
(I1
(I3
tp1398
g1325
I00
S'\x88%\xed\x11~\xfb<\xc0\xce\xb5\xddq\xb1\x81F\xc0\xd5\xc9\xb3\x04\x0bb,\xc0'
p1399
tp1400
bsg1330
S'Cell[3].axon[363]'
p1401
sI174
I13
tp1402
a(F2.129410611258995
S'Cell[3].dend[10] syn_ = new FastInhib(0.0555555555556)'
p1403
I3
(dp1404
S'seg'
p1405
F0.9615384615384612
sS'hostfrom'
p1406
F31.0
sS'gid'
p1407
I175
sS'coords'
p1408
g7
(g8
(I0
tp1409
g10
tp1410
Rp1411
(I1
(I3
tp1412
g14
(S'f8'
p1413
I0
I1
tp1414
Rp1415
(I3
S'<'
p1416
NNNI-1
I-1
I0
tp1417
bI00
S'\xf0r\x17\xf8b\xd2\x10\xc0!\x86\xc3\x0f!\xd5g@\x06q\xdc\x0e\xfcAN\xc0'
p1418
tp1419
bsS'secnames'
p1420
S'Cell[3].axon[121]'
p1421
sI175
I157
tp1422
a(F2.076493295481725
S'Cell[3].dend[46] syn_ = new FastInhib(0.5)'
p1423
I3
(dp1424
S'seg'
p1425
F0.1
sS'hostfrom'
p1426
F32.0
sS'gid'
p1427
I176
sS'coords'
p1428
g7
(g8
(I0
tp1429
g10
tp1430
Rp1431
(I1
(I3
tp1432
g14
(S'f8'
p1433
I0
I1
tp1434
Rp1435
(I3
S'<'
p1436
NNNI-1
I-1
I0
tp1437
bI00
S'2\x8b\x8c\x02P*\xe2\xbf\xa6m\x8e\xf9":D@R\xf0!i\x03\xce"@'
p1438
tp1439
bsS'secnames'
p1440
S'Cell[3].axon[127]'
p1441
sI176
I157
tp1442
a(F2.3239471048645464
S'Cell[2].dend[59] syn_ = new FastInhib(0.5)'
p1443
I2
(dp1444
S'seg'
p1445
F0.5
sS'hostfrom'
p1446
F33.0
sS'gid'
p1447
I177
sS'coords'
p1448
g7
(g8
(I0
tp1449
g10
tp1450
Rp1451
(I1
(I3
tp1452
g14
(S'f8'
p1453
I0
I1
tp1454
Rp1455
(I3
S'<'
p1456
NNNI-1
I-1
I0
tp1457
bI00
S'\xcc\xe1\xe2h\x85\x8b\x10\xc0\x1b\xb2K!\xd9sV@\xf6M\x04\x8d\x07\x003\xc0'
p1458
tp1459
bsS'secnames'
p1460
S'Cell[3].axon[178]'
p1461
sI177
I109
tp1462
a(F2.04591689721172
S'Cell[3].dend[14] syn_ = new FastInhib(0.7)'
p1463
I3
(dp1464
g1445
F0.02631578947368421
sg1446
F33.0
sg1447
I81
sg1448
g7
(g8
(I0
tp1465
g10
tp1466
Rp1467
(I1
(I3
tp1468
g1455
I00
S'\x04Ht\xaa;\xac5\xc0\xab\x1d:\xd1X\x1e`\xc0`t\xd4\x94e[@\xc0'
p1469
tp1470
bsg1460
S'Cell[1].axon[10]'
p1471
sI81
I157
tp1472
a(F1.6341618051481732
S'Cell[0].dend[20] syn_ = new AmpaNmda(0.5)'
p1473
I0
(dp1474
S'seg'
p1475
F0.5
sS'hostfrom'
p1476
F34.0
sS'gid'
p1477
I130
sS'coords'
p1478
g7
(g8
(I0
tp1479
g10
tp1480
Rp1481
(I1
(I3
tp1482
g14
(S'f8'
p1483
I0
I1
tp1484
Rp1485
(I3
S'<'
p1486
NNNI-1
I-1
I0
tp1487
bI00
S'\xd26\xa3i\x1d\x113\xc0\xb1v\xfa\xdd\x99oA\xc0\xb0\xea\xca3xo+\xc0'
p1488
tp1489
bsS'secnames'
p1490
S'Cell[2].axon[0]'
p1491
sI130
I13
tp1492
a(F1.1450344193173465
S'Cell[3].dend[37] syn_ = new FastInhib(0.5)'
p1493
I3
(dp1494
g1475
F0.7
sg1476
F34.0
sg1477
I130
sg1478
g7
(g8
(I0
tp1495
g10
tp1496
Rp1497
(I1
(I3
tp1498
g1485
I00
S'\x9am\x8e\x9c\xfe\xf1G\xc0\x14/\x961f\xe8A\xc0CE\\G\n\xa8\xfe?'
p1499
tp1500
bsg1490
S'Cell[2].axon[42]'
p1501
sI130
I157
tp1502
a(F1.8956439688800253
S'Cell[3].dend[39] syn_ = new FastInhib(0.0555555555556)'
p1503
I3
(dp1504
S'seg'
p1505
F0.49999999999999994
sS'hostfrom'
p1506
F35.0
sS'gid'
p1507
I83
sS'coords'
p1508
g7
(g8
(I0
tp1509
g10
tp1510
Rp1511
(I1
(I3
tp1512
g14
(S'f8'
p1513
I0
I1
tp1514
Rp1515
(I3
S'<'
p1516
NNNI-1
I-1
I0
tp1517
bI00
S'"N\x16\'\x04aW\xc0a\xaf\x8et\xcf4<\xc0cXn\x8d\xe3V0\xc0'
p1518
tp1519
bsS'secnames'
p1520
S'Cell[1].axon[19]'
p1521
sI83
I157
tp1522
a(F1.3485025598622138
S'Cell[2].dend[55] syn_ = new FastInhib(0.3)'
p1523
I2
(dp1524
S'seg'
p1525
F0.1
sS'hostfrom'
p1526
F36.0
sS'gid'
p1527
I84
sS'coords'
p1528
g7
(g8
(I0
tp1529
g10
tp1530
Rp1531
(I1
(I3
tp1532
g14
(S'f8'
p1533
I0
I1
tp1534
Rp1535
(I3
S'<'
p1536
NNNI-1
I-1
I0
tp1537
bI00
S'\xae\xf5\x9d\x1a\x90\x87F\xc0\xba\x19\xa4\x1d\xa1\xd2W@J\xdb\x16D\xe6V2\xc0'
p1538
tp1539
bsS'secnames'
p1540
S'Cell[1].axon[269]'
p1541
sI84
I109
tp1542
a(F1.3160392145513866
S'Cell[0].dend[1] syn_ = new AmpaNmda(0.9)'
p1543
I0
(dp1544
g1525
F0.5
sg1526
F36.0
sg1527
I84
sg1528
g7
(g8
(I0
tp1545
g10
tp1546
Rp1547
(I1
(I3
tp1548
g1535
I00
S'\xae\x86\x18+t\x14\x16@P\xdc\xaf\xac\xba\x986@4,\x89\xcd\xa8%V\xc0'
p1549
tp1550
bsg1540
S'Cell[1].axon[595]'
p1551
sI84
I13
tp1552
a(F1.116612722610767
S'Cell[3].dend[20] syn_ = new FastInhib(0.722222222222)'
p1553
I3
(dp1554
g1525
F0.7
sg1526
F36.0
sg1527
I84
sg1528
g7
(g8
(I0
tp1555
g10
tp1556
Rp1557
(I1
(I3
tp1558
g1535
I00
S'\xfa\xd3\x9d\x88\xd5\xc6H\xc0\xee\x80\xc0\x9et#Y\xc0\xecvw\xaa\xb5\xc3M\xc0'
p1559
tp1560
bsg1540
S'Cell[1].axon[604]'
p1561
sI84
I157
tp1562
a(F2.466851925141619
S'Cell[3].dend[20] syn_ = new FastInhib(0.944444444444)'
p1563
I3
(dp1564
g1525
F0.8333333333333333
sg1526
F36.0
sg1527
I84
sg1528
g7
(g8
(I0
tp1565
g10
tp1566
Rp1567
(I1
(I3
tp1568
g1535
I00
S'\xf8\x96b\xa8\x0f\xf9N\xc0l\x88\xec\xcf\x10Nc\xc0\\2\x93\xbe\xfe;Q\xc0'
p1569
tp1570
bsg1540
S'Cell[1].axon[606]'
p1571
sI84
I157
tp1572
a(F2.3088143081625376
S'Cell[1].apic[319] syn_ = new AmpaNmda(0.5)'
p1573
I1
(dp1574
g1525
F0.6111111111111112
sg1526
F36.0
sg1527
I84
sg1528
g7
(g8
(I0
tp1575
g10
tp1576
Rp1577
(I1
(I3
tp1578
g1535
I00
S'\x85Y$\x92\xf6\xd6S\xc0d\x9dld\xe4\x04O@u\x9e\xa7\xe6U`@\xc0'
p1579
tp1580
bsg1540
S'Cell[1].axon[624]'
p1581
sI84
I61
tp1582
a(F2.187603418390303
S'Cell[0].apic[32] syn_ = new AmpaNmda(0.833333333333)'
p1583
I0
(dp1584
g1525
F0.5
sg1526
F36.0
sg1527
I132
sg1528
g7
(g8
(I0
tp1585
g10
tp1586
Rp1587
(I1
(I3
tp1588
g1535
I00
S'\x8f\x7f*\x1dg\xadA@\xa73\xa4O[8P@\xf4\x01\xf7"\xe7\t\x1c\xc0'
p1589
tp1590
bsg1540
S'Cell[2].axon[61]'
p1591
sI132
I13
tp1592
a(F2.0847913512645007
S'Cell[3].dend[20] syn_ = new FastInhib(0.166666666667)'
p1593
I3
(dp1594
g1525
F0.7
sg1526
F36.0
sg1527
I180
sg1528
g7
(g8
(I0
tp1595
g10
tp1596
Rp1597
(I1
(I3
tp1598
g1535
I00
S'\x1c\x14\x05\xaaq\xb7F\xc0\xbcR\x08\x04\xbf\xac!@\x00\x00\x00\x00\x00\x00\xf0?'
p1599
tp1600
bsg1540
S'Cell[3].axon[67]'
p1601
sI180
I157
tp1602
a(F1.7122907567096397
S'Cell[1].apic[2] syn_ = new AmpaNmda(0.5)'
p1603
I1
(dp1604
g1525
F0.5
sg1526
F36.0
sg1527
I180
sg1528
g7
(g8
(I0
tp1605
g10
tp1606
Rp1607
(I1
(I3
tp1608
g1535
I00
S"\x103m\xcd\xa2\x9bS\xc0~\xf6\n\x1fd'D@\xde=\x06\x83\xf7H\x17\xc0"
p1609
tp1610
bsg1540
S'Cell[3].axon[281]'
p1611
sI180
I61
tp1612
a(F1.972224486269716
S'Cell[2].dend[44] syn_ = new FastInhib(0.5)'
p1613
I2
(dp1614
S'seg'
p1615
F0.5
sS'hostfrom'
p1616
F37.0
sS'gid'
p1617
I133
sS'coords'
p1618
g7
(g8
(I0
tp1619
g10
tp1620
Rp1621
(I1
(I3
tp1622
g14
(S'f8'
p1623
I0
I1
tp1624
Rp1625
(I3
S'<'
p1626
NNNI-1
I-1
I0
tp1627
bI00
S"\x1e9>0\xe0\x9b\x12\xc0\x9c<\x19i>\x9a'\xc0>\x8b\x97?\x80\xa6%@"
p1628
tp1629
bsS'secnames'
p1630
S'Cell[2].axon[18]'
p1631
sI133
I109
tp1632
a(F1.9889394372276847
S'Cell[0].apic[39] syn_ = new ExpSid(0.0714285714286)'
p1633
I0
(dp1634
g1615
F0.8999999999999999
sg1616
F37.0
sg1617
I133
sg1618
g7
(g8
(I0
tp1635
g10
tp1636
Rp1637
(I1
(I3
tp1638
g1625
I00
S'\xda\xa5{\xfc\x149<@\xff\x1b\x97\x8b\xe0de@\xe4\xae\xa7\xbdIO\x1f@'
p1639
tp1640
bsg1630
S'Cell[2].axon[113]'
p1641
sI133
I13
tp1642
a(F2.1399202956302323
S'Cell[0].dend[20] syn_ = new ExpSid(0.5)'
p1643
I0
(dp1644
g1615
F0.5
sg1616
F37.0
sg1617
I133
sg1618
g7
(g8
(I0
tp1645
g10
tp1646
Rp1647
(I1
(I3
tp1648
g1625
I00
S'^a\xc78A\\6\xc04#n\x80\x10:B\xc0\x96rn\xa8T\x0b+\xc0'
p1649
tp1650
bsg1630
S'Cell[2].axon[119]'
p1651
sI133
I13
tp1652
a(F1.7250961877677689
S'Cell[0].dend[18] syn_ = new ExpSid(0.166666666667)'
p1653
I0
(dp1654
g1615
F0.16666666666666666
sg1616
F37.0
sg1617
I181
sg1618
g7
(g8
(I0
tp1655
g10
tp1656
Rp1657
(I1
(I3
tp1658
g1625
I00
S'\x93\xb6\x9eC:\x11\x15@\xba\xb3\xff\x12B\xbaI\xc0\x00\x00\x00`\xb8\x1e\xd5?'
p1659
tp1660
bsg1630
S'Cell[3].axon[159]'
p1661
sI181
I13
tp1662
a(F2.0911636550066004
S'Cell[0].dend[17] syn_ = new ExpSid(0.5)'
p1663
I0
(dp1664
g1615
F0.8333333333333333
sg1616
F37.0
sg1617
I181
sg1618
g7
(g8
(I0
tp1665
g10
tp1666
Rp1667
(I1
(I3
tp1668
g1625
I00
S"v\xb1\x16'V\xf0\x0e@$\x98\x18\xb7aLS\xc0\x00\x00\x00`\xb8\x1e\xd5?"
p1669
tp1670
bsg1630
S'Cell[3].axon[159]'
p1671
sI181
I13
tp1672
a(F2.129650976977539
S'Cell[0].dend[20] syn_ = new ExpSid(0.166666666667)'
p1673
I0
(dp1674
g1615
F0.5
sg1616
F37.0
sg1617
I181
sg1618
g7
(g8
(I0
tp1675
g10
tp1676
Rp1677
(I1
(I3
tp1678
g1625
I00
S"5\n\x1a\x87s=\x12@_\x8b'\xb9{FA\xc0\xe4lU~rI+\xc0"
p1679
tp1680
bsg1630
S'Cell[3].axon[269]'
p1681
sI181
I13
tp1682
a(F2.129650976977539
S'Cell[0].dend[20] syn_ = new ExpSid(0.166666666667)'
p1683
I0
(dp1684
g1615
F0.5
sg1616
F37.0
sg1617
I181
sg1618
g7
(g8
(I0
tp1685
g10
tp1686
Rp1687
(I1
(I3
tp1688
g1625
I00
S"5\n\x1a\x87s=\x12@_\x8b'\xb9{FA\xc0\xe4lU~rI+\xc0"
p1689
tp1690
bsg1630
S'Cell[3].axon[286]'
p1691
sI181
I13
tp1692
a(F2.2641842093393567
S'Cell[0].dend[0] syn_ = new AmpaNmda(0.5)'
p1693
I0
(dp1694
S'seg'
p1695
F0.5
sS'hostfrom'
p1696
F38.0
sS'gid'
p1697
I182
sS'coords'
p1698
g7
(g8
(I0
tp1699
g10
tp1700
Rp1701
(I1
(I3
tp1702
g14
(S'f8'
p1703
I0
I1
tp1704
Rp1705
(I3
S'<'
p1706
NNNI-1
I-1
I0
tp1707
bI00
S'\x00\x00\x00P\xb8\xceI@\x00\x00\x00 \xae\x07<\xc0\x00\x00\x00\x90\xeb\xf1G\xc0'
p1708
tp1709
bsS'secnames'
p1710
S'Cell[3].axon[412]'
p1711
sI182
I13
tp1712
a(F1.4318866425418393
S'Cell[0].apic[30] syn_ = new ExpSid(0.5)'
p1713
I0
(dp1714
S'seg'
p1715
F0.1
sS'hostfrom'
p1716
F39.0
sS'gid'
p1717
I87
sS'coords'
p1718
g7
(g8
(I0
tp1719
g10
tp1720
Rp1721
(I1
(I3
tp1722
g14
(S'f8'
p1723
I0
I1
tp1724
Rp1725
(I3
S'<'
p1726
NNNI-1
I-1
I0
tp1727
bI00
S'$\xbb\xb34!<K@\xe9\x8c\x86/\xb3R&@\xe9J\xb6\xaf\xaa\xfe\x02@'
p1728
tp1729
bsS'secnames'
p1730
S'Cell[1].axon[77]'
p1731
sI87
I13
tp1732
a(F2.023487303579948
S'Cell[3].dend[54] syn_ = new FastInhib(0.166666666667)'
p1733
I3
(dp1734
g1715
F0.5
sg1716
F39.0
sg1717
I183
sg1718
g7
(g8
(I0
tp1735
g10
tp1736
Rp1737
(I1
(I3
tp1738
g1725
I00
S'\xbf\xb0\xa9T\xa5\xac0@9\xc4\x9d\x9dj\xd3Q@J\xbam4@\x061@'
p1739
tp1740
bsg1730
S'Cell[3].axon[6]'
p1741
sI183
I157
tp1742
a(F1.0854183277541083
S'Cell[2].dend[63] syn_ = new FastInhib(0.5)'
p1743
I2
(dp1744
g1715
F0.16666666666666666
sg1716
F39.0
sg1717
I183
sg1718
g7
(g8
(I0
tp1745
g10
tp1746
Rp1747
(I1
(I3
tp1748
g1725
I00
S'v\x16\xf3IL\xdd=\xc0^\x13\x84\xf3\xd8\xc2J@\x95a\x92a\xae\x9dR\xc0'
p1749
tp1750
bsg1730
S'Cell[3].axon[170]'
p1751
sI183
I109
tp1752
a(F2.0446075616520036
S'Cell[1].dend[14] syn_ = new AmpaNmda(0.5)'
p1753
I1
(dp1754
S'seg'
p1755
F0.5
sS'hostfrom'
p1756
F40.0
sS'gid'
p1757
I88
sS'coords'
p1758
g7
(g8
(I0
tp1759
g10
tp1760
Rp1761
(I1
(I3
tp1762
g14
(S'f8'
p1763
I0
I1
tp1764
Rp1765
(I3
S'<'
p1766
NNNI-1
I-1
I0
tp1767
bI00
S'\xba\xf6!\xc5\xbe\x14U\xc0<\xbf\xcci\xe9\x81.\xc0\x97\xff\xaf)\xc5 B\xc0'
p1768
tp1769
bsS'secnames'
p1770
S'Cell[1].axon[18]'
p1771
sI88
I61
tp1772
a(F2.4669773931655348
S'Cell[1].apic[327] syn_ = new AmpaNmda(0.166666666667)'
p1773
I1
(dp1774
g1755
F0.5
sg1756
F40.0
sg1757
I88
sg1758
g7
(g8
(I0
tp1775
g10
tp1776
Rp1777
(I1
(I3
tp1778
g1765
I00
S'\xba\xdd2\x96\x9fD=\xc0\x80H\xd4\xa6j\xb2@@\xff\xff\xff?\n\x179\xc0'
p1779
tp1780
bsg1770
S'Cell[1].axon[100]'
p1781
sI88
I61
tp1782
a(F2.0963997029202135
S'Cell[3].dend[20] syn_ = new FastInhib(0.166666666667)'
p1783
I3
(dp1784
g1755
F0.5
sg1756
F40.0
sg1757
I88
sg1758
g7
(g8
(I0
tp1785
g10
tp1786
Rp1787
(I1
(I3
tp1788
g1765
I00
S"\x88B\xaf\x8f\xe8TE\xc0\xa3\t'\xd1Jh!@\xc3\xd6\x13qdJ\xfe\xbf"
p1789
tp1790
bsg1770
S'Cell[1].axon[247]'
p1791
sI88
I157
tp1792
a(F1.7812325311000115
S'Cell[0].dend[24] syn_ = new AmpaNmda(0.5)'
p1793
I0
(dp1794
g1755
F0.30000000000000004
sg1756
F40.0
sg1757
I88
sg1758
g7
(g8
(I0
tp1795
g10
tp1796
Rp1797
(I1
(I3
tp1798
g1765
I00
S'\xf0d\r:\xd1\n@@>\x1a\x0c\xdc\xd3\xccP\xc0:\xe3\xb3H=}&@'
p1799
tp1800
bsg1770
S'Cell[1].axon[340]'
p1801
sI88
I13
tp1802
a(F1.4872817835846865
S'Cell[3].dend[13] syn_ = new FastInhib(0.1)'
p1803
I3
(dp1804
g1755
F0.5
sg1756
F40.0
sg1757
I136
sg1758
g7
(g8
(I0
tp1805
g10
tp1806
Rp1807
(I1
(I3
tp1808
g1765
I00
S'\x00\x00\x00pfF>\xc0\x00\x00\x00\xc8\xf5\xa8\x10\xc0\x00\x00\x000\n\xf7K\xc0'
p1809
tp1810
bsg1770
S'Cell[2].axon[92]'
p1811
sI136
I157
tp1812
a(F2.216768369921438
S'Cell[0].apic[0] syn_ = new ExpSid(0.5)'
p1813
I0
(dp1814
S'seg'
p1815
F0.5
sS'hostfrom'
p1816
F41.0
sS'gid'
p1817
I185
sS'coords'
p1818
g7
(g8
(I0
tp1819
g10
tp1820
Rp1821
(I1
(I3
tp1822
g14
(S'f8'
p1823
I0
I1
tp1824
Rp1825
(I3
S'<'
p1826
NNNI-1
I-1
I0
tp1827
bI00
S'\xe8\x91\x92\xbd\xcd\x94J@\xfa\x89\x00\xb3B\xf9!\xc0\xa4U\xcd\x928\x1a\x00\xc0'
p1828
tp1829
bsS'secnames'
p1830
S'Cell[3].axon[211]'
p1831
sI185
I13
tp1832
a(F2.476086088835229
S'Cell[0].dend[4] syn_ = new AmpaNmda(0.5)'
p1833
I0
(dp1834
S'seg'
p1835
F0.5
sS'hostfrom'
p1836
F42.0
sS'gid'
p1837
I90
sS'coords'
p1838
g7
(g8
(I0
tp1839
g10
tp1840
Rp1841
(I1
(I3
tp1842
g14
(S'f8'
p1843
I0
I1
tp1844
Rp1845
(I3
S'<'
p1846
NNNI-1
I-1
I0
tp1847
bI00
S'\n\xe9g!\xaa\x17G@q\x8c\x07\xbf\x12\xa2E\xc0\xe6\xb8\x9c%\xc4\xd4N\xc0'
p1848
tp1849
bsS'secnames'
p1850
S'Cell[1].axon[5]'
p1851
sI90
I13
tp1852
a(F2.44529504833277
S'Cell[3].dend[54] syn_ = new FastInhib(0.5)'
p1853
I3
(dp1854
g1835
F0.5
sg1836
F42.0
sg1837
I138
sg1838
g7
(g8
(I0
tp1855
g10
tp1856
Rp1857
(I1
(I3
tp1858
g1845
I00
S'l\x9b\xd3w#\xce=@\xd5\xe0\xd9\xa9\xe7PY@\x00\x00\x00\xc0\x1eE3@'
p1859
tp1860
bsg1850
S'Cell[2].axon[96]'
p1861
sI138
I157
tp1862
a(F2.248834069940655
S'Cell[0].apic[32] syn_ = new ExpSid(0.833333333333)'
p1863
I0
(dp1864
S'seg'
p1865
F0.30000000000000004
sS'hostfrom'
p1866
F43.0
sS'gid'
p1867
I91
sS'coords'
p1868
g7
(g8
(I0
tp1869
g10
tp1870
Rp1871
(I1
(I3
tp1872
g14
(S'f8'
p1873
I0
I1
tp1874
Rp1875
(I3
S'<'
p1876
NNNI-1
I-1
I0
tp1877
bI00
S'\xd2X\xff\x11\xc5\\B@[\xa6=|\x9c\x82P@\x15\xd4\xbf\xd3\xc0i\x1c\xc0'
p1878
tp1879
bsS'secnames'
p1880
S'Cell[1].axon[482]'
p1881
sI91
I13
tp1882
a(F2.036533717252474
S'Cell[1].apic[322] syn_ = new ExpSid(0.5)'
p1883
I1
(dp1884
g1865
F0.5
sg1866
F43.0
sg1867
I139
sg1868
g7
(g8
(I0
tp1885
g10
tp1886
Rp1887
(I1
(I3
tp1888
g1875
I00
S'\xd4LZ\xd0k\xedM\xc0"NZ\xff\xc2a9@H\xa0\xea\x87_n.\xc0'
p1889
tp1890
bsg1880
S'Cell[2].axon[377]'
p1891
sI139
I61
tp1892
a(F2.2583710246129423
S'Cell[1].apic[1] syn_ = new ExpSid(0.5)'
p1893
I1
(dp1894
g1865
F0.16666666666666666
sg1866
F43.0
sg1867
I139
sg1868
g7
(g8
(I0
tp1895
g10
tp1896
Rp1897
(I1
(I3
tp1898
g1875
I00
S'D\x11\x05M\t\x80S\xc0&\xcf\x9a\x03\xb6/>@vY\xe7\xf5ec\x1b\xc0'
p1899
tp1900
bsg1880
S'Cell[2].axon[378]'
p1901
sI139
I61
tp1902
a(F2.381204487210514
S'Cell[0].apic[11] syn_ = new ExpSid(0.5)'
p1903
I0
(dp1904
g1865
F0.5
sg1866
F43.0
sg1867
I139
sg1868
g7
(g8
(I0
tp1905
g10
tp1906
Rp1907
(I1
(I3
tp1908
g1875
I00
S'\x8b\x13P\x05\x81\x93G@\xc9C\xd6\xb3\x18\x02\\@\x12;\x14$#@Q\xc0'
p1909
tp1910
bsg1880
S'Cell[2].axon[422]'
p1911
sI139
I13
tp1912
a(F2.3761519986615918
S'Cell[2].dend[64] syn_ = new FastInhib(0.166666666667)'
p1913
I2
(dp1914
S'seg'
p1915
F0.16666666666666666
sS'hostfrom'
p1916
F44.0
sS'gid'
p1917
I188
sS'coords'
p1918
g7
(g8
(I0
tp1919
g10
tp1920
Rp1921
(I1
(I3
tp1922
g14
(S'f8'
p1923
I0
I1
tp1924
Rp1925
(I3
S'<'
p1926
NNNI-1
I-1
I0
tp1927
bI00
S'\x9e_\xf4\rV\x12-\xc0\x89tO\xf4\xfd\xdc\x16@\xb1"\xca\x96\xb4\x99&@'
p1928
tp1929
bsS'secnames'
p1930
S'Cell[3].axon[223]'
p1931
sI188
I109
tp1932
a(F1.1985096185080963
S'Cell[1].dend[7] syn_ = new AmpaNmda(0.3)'
p1933
I1
(dp1934
g1915
F0.6428571428571428
sg1916
F44.0
sg1917
I44
sg1918
g7
(g8
(I0
tp1935
g10
tp1936
Rp1937
(I1
(I3
tp1938
g1925
I00
S'\xe1\xbc\xe7@\xf52b\xc0<\xd8\x1e\x16\xcc \xe2\xbf}\xcf\xe5\x80\xa0\xb93\xc0'
p1939
tp1940
bsg1930
S'Cell[0].axon[36]'
p1941
sI44
I61
tp1942
a(F2.406045749564754
S'Cell[3].dend[0] syn_ = new FastInhib(0.166666666667)'
p1943
I3
(dp1944
S'seg'
p1945
F0.5
sS'hostfrom'
p1946
F45.0
sS'gid'
p1947
I141
sS'coords'
p1948
g7
(g8
(I0
tp1949
g10
tp1950
Rp1951
(I1
(I3
tp1952
g14
(S'f8'
p1953
I0
I1
tp1954
Rp1955
(I3
S'<'
p1956
NNNI-1
I-1
I0
tp1957
bI00
S"\xd4\x15\xa5t\x1f_'\xc0\xc2\xfa\xa3D\xca\xcd\x13\xc0\xd7\x1a_\xf5X\xd90@"
p1958
tp1959
bsS'secnames'
p1960
S'Cell[2].axon[519]'
p1961
sI141
I157
tp1962
a(F2.3083612337777524
S'Cell[2].dend[40] syn_ = new FastInhib(0.928571428571)'
p1963
I2
(dp1964
g1945
F0.5
sg1946
F45.0
sg1947
I93
sg1948
g7
(g8
(I0
tp1965
g10
tp1966
Rp1967
(I1
(I3
tp1968
g1955
I00
S'J\xcfy?A\xb8b@\xf2G\x8f\x10\xed4S@\xde\xbc\xd2\xc1\x8a\x1e1@'
p1969
tp1970
bsg1960
S'Cell[1].axon[41]'
p1971
sI93
I109
tp1972
a(F1.5005419977086503
S'Cell[2].dend[55] syn_ = new FastInhib(0.1)'
p1973
I2
(dp1974
S'seg'
p1975
F0.16666666666666666
sS'hostfrom'
p1976
F46.0
sS'gid'
p1977
I94
sS'coords'
p1978
g7
(g8
(I0
tp1979
g10
tp1980
Rp1981
(I1
(I3
tp1982
g14
(S'f8'
p1983
I0
I1
tp1984
Rp1985
(I3
S'<'
p1986
NNNI-1
I-1
I0
tp1987
bI00
S'\x14\xb6\xfa\xe3\x04,=\xc0\xca\x0f\x0b\xda\x95\x0cS@Dc/\xc7\xb2k0\xc0'
p1988
tp1989
bsS'secnames'
p1990
S'Cell[1].axon[318]'
p1991
sI94
I109
tp1992
a(F2.4192429139598586
S'Cell[0].apic[28] syn_ = new ExpSid(0.166666666667)'
p1993
I0
(dp1994
S'seg'
p1995
F0.16666666666666666
sS'hostfrom'
p1996
F47.0
sS'gid'
p1997
I95
sS'coords'
p1998
g7
(g8
(I0
tp1999
g10
tp2000
Rp2001
(I1
(I3
tp2002
g14
(S'f8'
p2003
I0
I1
tp2004
Rp2005
(I3
S'<'
p2006
NNNI-1
I-1
I0
tp2007
bI00
S'\xbd\xcda.OW@@(\xc9rb\xeb\xb7)@\x06j\x8eq\x81\x8a\x0f@'
p2008
tp2009
bsS'secnames'
p2010
S'Cell[1].axon[172]'
p2011
sI95
I13
tp2012
a(F2.1510865575272997
S'Cell[2].dend[59] syn_ = new FastInhib(0.5)'
p2013
I2
(dp2014
g1995
F0.5
sg1996
F47.0
sg1997
I143
sg1998
g7
(g8
(I0
tp2015
g10
tp2016
Rp2017
(I1
(I3
tp2018
g2005
I00
S'@\x9e\x01A\xb2k\x1a\xc0\xcd`\x9e\'8/V@H\xe0\xe0\xe5\xad"1\xc0'
p2019
tp2020
bsg2010
S'Cell[2].axon[136]'
p2021
sI143
I109
tp2022
a(F2.068545796315213
S'Cell[1].apic[322] syn_ = new ExpSid(0.5)'
p2023
I1
(dp2024
g1995
F0.5
sg1996
F47.0
sg1997
I143
sg1998
g7
(g8
(I0
tp2025
g10
tp2026
Rp2027
(I1
(I3
tp2028
g2005
I00
S"\xc81\xda\x85`[M\xc0b\xfc\xc7\xda\x07'6@\xded\x8fz\x07 +\xc0"
p2029
tp2030
bsg2010
S'Cell[2].axon[142]'
p2031
sI143
I61
tp2032
a(F1.0732704106388866
S'Cell[1].apic[1] syn_ = new ExpSid(0.5)'
p2033
I1
(dp2034
g1995
F0.5
sg1996
F47.0
sg1997
I143
sg1998
g7
(g8
(I0
tp2035
g10
tp2036
Rp2037
(I1
(I3
tp2038
g2005
I00
S'\x147\x97\xe6#4S\xc0\\\xb8\xd4\xd2\xd8\xa9;@t&J\xe9\xee\n \xc0'
p2039
tp2040
bsg2010
S'Cell[2].axon[144]'
p2041
sI143
I61
tp2042
a(F1.3066873950565268
S'Cell[0].apic[37] syn_ = new ExpSid(0.5)'
p2043
I0
(dp2044
g1995
F0.5
sg1996
F47.0
sg1997
I143
sg1998
g7
(g8
(I0
tp2045
g10
tp2046
Rp2047
(I1
(I3
tp2048
g2005
I00
S'd\xa6\xef \xebV-@\xebg\xdcm\x14\xd8Z@\x1a\x88\x11\xb1u\x88\xed\xbf'
p2049
tp2050
bsg2010
S'Cell[2].axon[207]'
p2051
sI143
I13
tp2052
a(F2.4318813008280697
S'Cell[0].dend[13] syn_ = new ExpSid(0.0714285714286)'
p2053
I0
(dp2054
g1995
F0.7
sg1996
F47.0
sg1997
I47
sg1998
g7
(g8
(I0
tp2055
g10
tp2056
Rp2057
(I1
(I3
tp2058
g2005
I00
S'\x15\xcb\xa6q\xdf;<@\x9f\x05\xf4\x8a\x8e\xfeD\xc0\xff\xff\xff\xbf\xcc\xcc-\xc0'
p2059
tp2060
bsg2010
S'Cell[0].axon[41]'
p2061
sI47
I13
tp2062
a.