(lp0
(F2.000497263307715
S'Cell[1].dend[45] syn_ = new ExpSid(0.7)'
p1
I1
(dp2
S'seg'
p3
F0.5
sS'hostfrom'
p4
F1.0
sS'gid'
p5
I145
sS'coords'
p6
cnumpy.core.multiarray
_reconstruct
p7
(cnumpy
ndarray
p8
(I0
tp9
S'b'
p10
tp11
Rp12
(I1
(I3
tp13
cnumpy
dtype
p14
(S'f8'
p15
I0
I1
tp16
Rp17
(I3
S'<'
p18
NNNI-1
I-1
I0
tp19
bI00
S'\x00\x00\x00\xd0\xa3\xe0L\xc0\x00\x00\x00P\xb8\x9eM@\x00\x00\x00\xc0\xf5h0\xc0'
p20
tp21
bsS'secnames'
p22
S'Cell[3].axon[103]'
p23
sI145
I79
tp24
a(F2.266568660372915
S'Cell[1].apic[8] syn_ = new ExpSid(0.166666666667)'
p25
I1
(dp26
g3
F0.5
sg4
F1.0
sg5
I145
sg6
g7
(g8
(I0
tp27
g10
tp28
Rp29
(I1
(I3
tp30
g17
I00
S'^\xbd\xb2M*\x1c3\xc0D\x8c\xc2\xf5QVj@\xff\xff\xff\x9fp\x1dM\xc0'
p31
tp32
bsg22
S'Cell[3].axon[110]'
p33
sI145
I79
tp34
a(F1.3708749666154525
S'Cell[3].dend[36] syn_ = new FastInhib(0.5)'
p35
I3
(dp36
g3
F0.16666666666666666
sg4
F1.0
sg5
I145
sg6
g7
(g8
(I0
tp37
g10
tp38
Rp39
(I1
(I3
tp40
g17
I00
S'\x06\xd9Uf\xd9\x17B\xc0s;|\xf7\xf3\x1b\x11@\x00\x00\x00\xc0\x1e\x85\r\xc0'
p41
tp42
bsg22
S'Cell[3].axon[127]'
p43
sI145
I175
tp44
a(F1.8044578627765095
S'Cell[3].dend[10] syn_ = new FastInhib(0.5)'
p45
I3
(dp46
g3
F0.16666666666666666
sg4
F1.0
sg5
I97
sg6
g7
(g8
(I0
tp47
g10
tp48
Rp49
(I1
(I3
tp50
g17
I00
S'z\xc6\xba\xcem81\xc0\xb0\x7fu\xc3\x1aNA@\x1ce%J\x8f\xe7\x15\xc0'
p51
tp52
bsg22
S'Cell[2].axon[180]'
p53
sI97
I175
tp54
a(F2.4447815404544766
S'Cell[0].dend[23] syn_ = new AmpaNmda(0.833333333333)'
p55
I0
(dp56
S'seg'
p57
F0.5
sS'hostfrom'
p58
F2.0
sS'gid'
p59
I2
sS'coords'
p60
g7
(g8
(I0
tp61
g10
tp62
Rp63
(I1
(I3
tp64
g14
(S'f8'
p65
I0
I1
tp66
Rp67
(I3
S'<'
p68
NNNI-1
I-1
I0
tp69
bI00
S'\xe8\x1d\x9c?\xd2\xb7P\xc0h\xe2YbR\x96-@\x00\x00\x00 \x85\xab4@'
p70
tp71
bsS'secnames'
p72
S'Cell[0].axon[5]'
p73
sI2
I31
tp74
a(F2.138791314164723
S'Cell[0].apic[13] syn_ = new AmpaNmda(0.5)'
p75
I0
(dp76
g57
F0.1
sg58
F2.0
sg59
I98
sg60
g7
(g8
(I0
tp77
g10
tp78
Rp79
(I1
(I3
tp80
g67
I00
S'c\xa5?\xf1\x1f\xd3"\xc0L}\xc9\xab\x15b\xf9\xbf\xcb\x1e\xf2S\xba\x17\x13@'
p81
tp82
bsg72
S'Cell[2].axon[473]'
p83
sI98
I31
tp84
a(F1.236194524769001
S'Cell[3].dend[26] syn_ = new FastInhib(0.166666666667)'
p85
I3
(dp86
g57
F0.5
sg58
F2.0
sg59
I146
sg60
g7
(g8
(I0
tp87
g10
tp88
Rp89
(I1
(I3
tp90
g67
I00
S'@\x13\x96\x10\xb9{?\xc0\xc5\xd0MQ\xaf\xa3\x0c\xc0\x00\x00\x00`ff%@'
p91
tp92
bsg72
S'Cell[3].axon[1]'
p93
sI146
I175
tp94
a(F2.3731247949359413
S'Cell[3].dend[27] syn_ = new FastInhib(0.5)'
p95
I3
(dp96
g57
F0.8333333333333333
sg58
F2.0
sg59
I146
sg60
g7
(g8
(I0
tp97
g10
tp98
Rp99
(I1
(I3
tp100
g67
I00
S'\xadc\r\x9c\x81\x1d=\xc0\xec\xe6\xf3\xb6\xa3\x94\xff\xbf\x93\x1f\xc0\xc2\x1e\x821\xc0'
p101
tp102
bsg72
S'Cell[3].axon[124]'
p103
sI146
I175
tp104
a(F2.4270461580065197
S'Cell[0].apic[0] syn_ = new AmpaNmda(0.5)'
p105
I0
(dp106
g57
F0.5
sg58
F2.0
sg59
I146
sg60
g7
(g8
(I0
tp107
g10
tp108
Rp109
(I1
(I3
tp110
g67
I00
S'\x00\x00\x00p\x14N=\xc0\x00\x00\x00P\xb8\xde)\xc0\x00\x00\x00\x00\xd7c&@'
p111
tp112
bsg72
S'Cell[3].axon[175]'
p113
sI146
I31
tp114
a(F1.403305411286394
S'Cell[3].dend[0] syn_ = new FastInhib(0.7)'
p115
I3
(dp116
g57
F0.1
sg58
F2.0
sg59
I146
sg60
g7
(g8
(I0
tp117
g10
tp118
Rp119
(I1
(I3
tp120
g67
I00
S'\xd4K-\xcc\xe8NV\xc0\xd2\xa7\xb1\xbc\x16\xe9(@\xb8\x9d\r\xa1\xa6VV\xc0'
p121
tp122
bsg72
S'Cell[3].axon[287]'
p123
sI146
I175
tp124
a(F2.138791314164723
S'Cell[0].apic[13] syn_ = new ExpSid(0.5)'
p125
I0
(dp126
S'seg'
p127
F0.1
sS'hostfrom'
p128
F3.0
sS'gid'
p129
I99
sS'coords'
p130
g7
(g8
(I0
tp131
g10
tp132
Rp133
(I1
(I3
tp134
g14
(S'f8'
p135
I0
I1
tp136
Rp137
(I3
S'<'
p138
NNNI-1
I-1
I0
tp139
bI00
S'c\xa5?\xf1\x1f\xd3"\xc0L}\xc9\xab\x15b\xf9\xbf\xcb\x1e\xf2S\xba\x17\x13@'
p140
tp141
bsS'secnames'
p142
S'Cell[2].axon[473]'
p143
sI99
I31
tp144
a(F2.3277920544892474
S'Cell[1].dend[72] syn_ = new AmpaNmda(0.166666666667)'
p145
I1
(dp146
S'seg'
p147
F0.16666666666666666
sS'hostfrom'
p148
F4.0
sS'gid'
p149
I148
sS'coords'
p150
g7
(g8
(I0
tp151
g10
tp152
Rp153
(I1
(I3
tp154
g14
(S'f8'
p155
I0
I1
tp156
Rp157
(I3
S'<'
p158
NNNI-1
I-1
I0
tp159
bI00
S'-3\x16>`HH@\x08\x96^\x07\x9b\xe5?\xc0d\xfa\xd0\x04\xed\xddS\xc0'
p160
tp161
bsS'secnames'
p162
S'Cell[3].axon[1]'
p163
sI148
I79
tp164
a(F1.6866859030088133
S'Cell[1].apic[106] syn_ = new AmpaNmda(0.5)'
p165
I1
(dp166
g147
F0.5
sg148
F4.0
sg149
I148
sg150
g7
(g8
(I0
tp167
g10
tp168
Rp169
(I1
(I3
tp170
g157
I00
S'\xc4c.\xdc\x96Z\x1a@_\xdb\xf7o\t\xc4R@\xd5<\x07>?2R\xc0'
p171
tp172
bsg162
S'Cell[3].axon[57]'
p173
sI148
I79
tp174
a(F2.0624745781484215
S'Cell[1].dend[39] syn_ = new AmpaNmda(0.833333333333)'
p175
I1
(dp176
g147
F0.5
sg148
F4.0
sg149
I148
sg150
g7
(g8
(I0
tp177
g10
tp178
Rp179
(I1
(I3
tp180
g157
I00
S'\x01\x00\x00 \x85kL@\x00\x00\x00@3\x93@\xc0\xe1\xdc\x82O\xf0\x01\x19\xc0'
p181
tp182
bsg162
S'Cell[3].axon[192]'
p183
sI148
I79
tp184
a(F1.7435772726485936
S'Cell[1].dend[33] syn_ = new AmpaNmda(0.5)'
p185
I1
(dp186
g147
F0.3571428571428571
sg148
F4.0
sg149
I148
sg150
g7
(g8
(I0
tp187
g10
tp188
Rp189
(I1
(I3
tp190
g157
I00
S'Ee\xfa}\xcd\x8b[@\xd1\\\nAWGC\xc0\x0e\xfeFL\x9c\x152\xc0'
p191
tp192
bsg162
S'Cell[3].axon[285]'
p193
sI148
I79
tp194
a(F2.0296608291052625
S'Cell[2].dend[12] syn_ = new FastInhib(0.166666666667)'
p195
I2
(dp196
g147
F0.5
sg148
F4.0
sg149
I148
sg150
g7
(g8
(I0
tp197
g10
tp198
Rp199
(I1
(I3
tp200
g157
I00
S'x\xf1}M\x84\xaaF@\xbdH\xc9\x90a\x11W\xc0B\xa9\xc6\xd9\xe565\xc0'
p201
tp202
bsg162
S'Cell[3].axon[345]'
p203
sI148
I127
tp204
a(F1.2991315133537917
S'Cell[0].apic[14] syn_ = new ExpSid(0.1)'
p205
I0
(dp206
S'seg'
p207
F0.8999999999999999
sS'hostfrom'
p208
F5.0
sS'gid'
p209
I149
sS'coords'
p210
g7
(g8
(I0
tp211
g10
tp212
Rp213
(I1
(I3
tp214
g14
(S'f8'
p215
I0
I1
tp216
Rp217
(I3
S'<'
p218
NNNI-1
I-1
I0
tp219
bI00
S'd\x04\x15K\xaa\xeb\x19\xc0<\x1d\x9e\x1a\xfe\x15!@\x00\x00\x00\xc0\x1e\x85\xf7?'
p220
tp221
bsS'secnames'
p222
S'Cell[3].axon[11]'
p223
sI149
I31
tp224
a(F1.690898869441679
S'Cell[2].dend[33] syn_ = new FastInhib(0.0714285714286)'
p225
I2
(dp226
g207
F0.21428571428571427
sg208
F5.0
sg209
I5
sg210
g7
(g8
(I0
tp227
g10
tp228
Rp229
(I1
(I3
tp230
g217
I00
S'\xcc\xc3Zb\xde\xd0R@p\xc1\x96\xe6\t\x85S\xc0RV\xbf\xb3\x1bE5@'
p231
tp232
bsg222
S'Cell[0].axon[17]'
p233
sI5
I127
tp234
a(F2.0814998032231755
S'Cell[3].dend[5] syn_ = new FastInhib(0.0714285714286)'
p235
I3
(dp236
S'seg'
p237
F0.8333333333333333
sS'hostfrom'
p238
F6.0
sS'gid'
p239
I150
sS'coords'
p240
g7
(g8
(I0
tp241
g10
tp242
Rp243
(I1
(I3
tp244
g14
(S'f8'
p245
I0
I1
tp246
Rp247
(I3
S'<'
p248
NNNI-1
I-1
I0
tp249
bI00
S'\x97\xe0 -\x99V&\xc0\xd5\xac\xc0\x9c\x04\xf3H@\x00\x00\x00\x80\x14\xee>\xc0'
p250
tp251
bsS'secnames'
p252
S'Cell[3].axon[125]'
p253
sI150
I175
tp254
a(F1.1382345066362984
S'Cell[1].dend[47] syn_ = new AmpaNmda(0.5)'
p255
I1
(dp256
g237
F0.5
sg238
F6.0
sg239
I150
sg240
g7
(g8
(I0
tp257
g10
tp258
Rp259
(I1
(I3
tp260
g247
I00
S'\xf6\xb9\xfb;\xac\xa76@\xf2\xa3\xdd\xaf\xbe#\xd9?\x00\x00\x00\x80\x14\xee>\xc0'
p261
tp262
bsg252
S'Cell[3].axon[174]'
p263
sI150
I79
tp264
a(F1.6000298753340507
S'Cell[0].dend[17] syn_ = new ExpSid(0.5)'
p265
I0
(dp266
S'seg'
p267
F0.30000000000000004
sS'hostfrom'
p268
F7.0
sS'gid'
p269
I103
sS'coords'
p270
g7
(g8
(I0
tp271
g10
tp272
Rp273
(I1
(I3
tp274
g14
(S'f8'
p275
I0
I1
tp276
Rp277
(I3
S'<'
p278
NNNI-1
I-1
I0
tp279
bI00
S'\xc1\xcbO\xd2\x0baL\xc0h2\xf1G~\xbcG\xc0\xaf\x81I^\x80\x0e4\xc0'
p280
tp281
bsS'secnames'
p282
S'Cell[2].axon[59]'
p283
sI103
I31
tp284
a(F2.366667384260126
S'Cell[1].dend[45] syn_ = new ExpSid(0.9)'
p285
I1
(dp286
g267
F0.5
sg268
F7.0
sg269
I103
sg270
g7
(g8
(I0
tp287
g10
tp288
Rp289
(I1
(I3
tp290
g277
I00
S'\x83h\xec\xa0G\x8eS\xc0\xa2*\xce\xe3f_P@\x85\xb2,\xdf*\x0b\x1e\xc0'
p291
tp292
bsg282
S'Cell[2].axon[125]'
p293
sI103
I79
tp294
a(F2.4036705679687196
S'Cell[3].dend[36] syn_ = new FastInhib(0.5)'
p295
I3
(dp296
g267
F0.5
sg268
F7.0
sg269
I103
sg270
g7
(g8
(I0
tp297
g10
tp298
Rp299
(I1
(I3
tp300
g277
I00
S'H/\x94\xf0\xa8S@\xc09o1\xb48\xde\t@\xea\xc5\xb8\x10\xf9\xcb\t\xc0'
p301
tp302
bsg282
S'Cell[2].axon[161]'
p303
sI103
I175
tp304
a(F2.012486612125723
S'Cell[0].apic[26] syn_ = new ExpSid(0.366666666667)'
p305
I0
(dp306
g267
F0.5
sg268
F7.0
sg269
I103
sg270
g7
(g8
(I0
tp307
g10
tp308
Rp309
(I1
(I3
tp310
g277
I00
S'R3\xc1\x0cv\x9a9\xc0\x88\x84OM*dh@r\xfa\xb1-\x94\xfc:\xc0'
p311
tp312
bsg282
S'Cell[2].axon[183]'
p313
sI103
I31
tp314
a(F2.2731527101424276
S'Cell[0].apic[2] syn_ = new ExpSid(0.166666666667)'
p315
I0
(dp316
g267
F0.7
sg268
F7.0
sg269
I151
sg270
g7
(g8
(I0
tp317
g10
tp318
Rp319
(I1
(I3
tp320
g277
I00
S'\xbc\xc1V<\xd5}>\xc0\xce\x05\xcd\xbd\xcbN @\xf0\xa9\xc6\xe0\x84\xb6\x0e@'
p321
tp322
bsg282
S'Cell[3].axon[36]'
p323
sI151
I31
tp324
a(F2.1273837204647768
S'Cell[0].dend[7] syn_ = new ExpSid(0.357142857143)'
p325
I0
(dp326
g267
F0.16666666666666666
sg268
F7.0
sg269
I151
sg270
g7
(g8
(I0
tp327
g10
tp328
Rp329
(I1
(I3
tp330
g277
I00
S'}\xf1\xb5\xdf9"\x05@,%\xeb\xa1\xfa\xc5P\xc0o\x1bn\x0f\x1d_3\xc0'
p331
tp332
bsg282
S'Cell[3].axon[121]'
p333
sI151
I31
tp334
a(F2.0880141168803346
S'Cell[1].dend[25] syn_ = new ExpSid(0.5)'
p335
I1
(dp336
g267
F0.16666666666666666
sg268
F7.0
sg269
I151
sg270
g7
(g8
(I0
tp337
g10
tp338
Rp339
(I1
(I3
tp340
g277
I00
S'\xac\x0b"\xf1<ZR@\xbe\x0b\xa7\xccZn\xf3?\xc8\xb0A3\x9b}A\xc0'
p341
tp342
bsg282
S'Cell[3].axon[186]'
p343
sI151
I79
tp344
a(F1.4654737383105447
S'Cell[2].dend[29] syn_ = new FastInhib(0.166666666667)'
p345
I2
(dp346
S'seg'
p347
F0.8333333333333333
sS'hostfrom'
p348
F8.0
sS'gid'
p349
I56
sS'coords'
p350
g7
(g8
(I0
tp351
g10
tp352
Rp353
(I1
(I3
tp354
g14
(S'f8'
p355
I0
I1
tp356
Rp357
(I3
S'<'
p358
NNNI-1
I-1
I0
tp359
bI00
S'\xee \x07\xcc\xee\xbfA@"\x83|\xefRgb\xc0DM\xd2v>\xf7!@'
p360
tp361
bsS'secnames'
p362
S'Cell[1].axon[21]'
p363
sI56
I127
tp364
a(F1.3708060327881235
S'Cell[1].apic[95] syn_ = new AmpaNmda(0.166666666667)'
p365
I1
(dp366
g347
F0.5
sg348
F8.0
sg349
I152
sg350
g7
(g8
(I0
tp367
g10
tp368
Rp369
(I1
(I3
tp370
g357
I00
S'\xc3r\xb6Zm\x85\xed?(A\xceFe\xfdc@\xfc\x95.w\x8c<!\xc0'
p371
tp372
bsg362
S'Cell[3].axon[399]'
p373
sI152
I79
tp374
a(F1.9816118773725833
S'Cell[3].dend[13] syn_ = new FastInhib(0.5)'
p375
I3
(dp376
g347
F0.16666666666666666
sg348
F8.0
sg349
I152
sg350
g7
(g8
(I0
tp377
g10
tp378
Rp379
(I1
(I3
tp380
g357
I00
S'\xcd\x08\xfak\xf0\xed7\xc0fl\xd7\xdcyc@@6Mb\xb2\xb1\x01\t\xc0'
p381
tp382
bsg362
S'Cell[3].axon[517]'
p383
sI152
I175
tp384
a(F1.6291413440534803
S'Cell[2].dend[38] syn_ = new FastInhib(0.166666666667)'
p385
I2
(dp386
g347
F0.07142857142857142
sg348
F8.0
sg349
I104
sg350
g7
(g8
(I0
tp387
g10
tp388
Rp389
(I1
(I3
tp390
g357
I00
S'\xd4AK\xcc9_L@ \xd23\xf0\x0fv[@p%\xe6\x86\x9f\x85\x11\xc0'
p391
tp392
bsg362
S'Cell[2].axon[157]'
p393
sI104
I127
tp394
a(F2.4824081866543013
S'Cell[1].apic[13] syn_ = new AmpaNmda(0.5)'
p395
I1
(dp396
g347
F0.5
sg348
F8.0
sg349
I104
sg350
g7
(g8
(I0
tp397
g10
tp398
Rp399
(I1
(I3
tp400
g357
I00
S'\xc7\xbei\xbd\x11\xd0;\xc0\xca\x15\xfa\x90\x0b\xe9c@\x1a\xb1d\xa2\xd75O\xc0'
p401
tp402
bsg362
S'Cell[2].axon[173]'
p403
sI104
I79
tp404
a(F1.8864233922990097
S'Cell[1].dend[4] syn_ = new AmpaNmda(0.5)'
p405
I1
(dp406
g347
F0.7
sg348
F8.0
sg349
I104
sg350
g7
(g8
(I0
tp407
g10
tp408
Rp409
(I1
(I3
tp410
g357
I00
S'H\x14\xce3\x84\xe8[@\x9c\x16\x17\xb1v\xff"@\xe6+2\xf3\xaeD\x13\xc0'
p411
tp412
bsg362
S'Cell[2].axon[259]'
p413
sI104
I79
tp414
a(F2.4514444988432733
S'Cell[3].dend[13] syn_ = new FastInhib(0.5)'
p415
I3
(dp416
g347
F0.5
sg348
F8.0
sg349
I104
sg350
g7
(g8
(I0
tp417
g10
tp418
Rp419
(I1
(I3
tp420
g357
I00
S'\x00\x00\x00\xc0\xf5\xc87\xc0\x00\x00\x00\x10\xd7S@@\x00\x00\x00\x90\xeb\xd1\x11\xc0'
p421
tp422
bsg362
S'Cell[2].axon[386]'
p423
sI104
I175
tp424
a(F2.4141632678261984
S'Cell[0].dend[7] syn_ = new ExpSid(0.357142857143)'
p425
I0
(dp426
S'seg'
p427
F0.8333333333333333
sS'hostfrom'
p428
F9.0
sS'gid'
p429
I105
sS'coords'
p430
g7
(g8
(I0
tp431
g10
tp432
Rp433
(I1
(I3
tp434
g14
(S'f8'
p435
I0
I1
tp436
Rp437
(I3
S'<'
p438
NNNI-1
I-1
I0
tp439
bI00
S'g\x8c\x1c\xe9\x07_\x04@\xa4o\xbf\x80IYP\xc0\xbe\xb0\x83\x10\xbcW1\xc0'
p440
tp441
bsS'secnames'
p442
S'Cell[2].axon[0]'
p443
sI105
I31
tp444
a(F2.4685866315870872
S'Cell[2].dend[29] syn_ = new FastInhib(0.5)'
p445
I2
(dp446
g427
F0.5
sg428
F9.0
sg429
I105
sg430
g7
(g8
(I0
tp447
g10
tp448
Rp449
(I1
(I3
tp450
g437
I00
S'\xb4(\xf9\x85\x9as@@\x19{l\xe2\xdb\xc4e\xc0\x00\x00\x00\xa0\x99\x19$@'
p451
tp452
bsg442
S'Cell[2].axon[72]'
p453
sI105
I127
tp454
a(F2.2730418424233716
S'Cell[2].dend[14] syn_ = new FastInhib(0.5)'
p455
I2
(dp456
g427
F0.16666666666666666
sg428
F9.0
sg429
I105
sg430
g7
(g8
(I0
tp457
g10
tp458
Rp459
(I1
(I3
tp460
g437
I00
S'\xdc)\xd0\xc5i\xc3E@\xa3;\x9d\xce\x83\xa1a\xc0`k\x10\x8e\xf0VD\xc0'
p461
tp462
bsg442
S'Cell[2].axon[134]'
p463
sI105
I127
tp464
a(F1.3151353755251465
S'Cell[1].dend[17] syn_ = new AmpaNmda(0.5)'
p465
I1
(dp466
S'seg'
p467
F0.8999999999999999
sS'hostfrom'
p468
F10.0
sS'gid'
p469
I106
sS'coords'
p470
g7
(g8
(I0
tp471
g10
tp472
Rp473
(I1
(I3
tp474
g14
(S'f8'
p475
I0
I1
tp476
Rp477
(I3
S'<'
p478
NNNI-1
I-1
I0
tp479
bI00
S'#\xd3\xa3D\xe5\xccP@\x01\xfe\xe8\xa4[\x88$@\x94\xd0\x06\x15O\x1aE\xc0'
p480
tp481
bsS'secnames'
p482
S'Cell[2].axon[27]'
p483
sI106
I79
tp484
a(F1.7461009256643005
S'Cell[1].dend[51] syn_ = new AmpaNmda(0.166666666667)'
p485
I1
(dp486
g467
F0.5
sg468
F10.0
sg469
I106
sg470
g7
(g8
(I0
tp487
g10
tp488
Rp489
(I1
(I3
tp490
g477
I00
S'\x05\xd2\xd9\x82iO8@DlZ\xd4\xfe\xeb\x15\xc0\x00\x00\x00 \xae\x878\xc0'
p491
tp492
bsg482
S'Cell[2].axon[48]'
p493
sI106
I79
tp494
a(F0.9420420901668807
S'Cell[3].dend[20] syn_ = new FastInhib(0.5)'
p495
I3
(dp496
g467
F0.8333333333333333
sg468
F10.0
sg469
I106
sg470
g7
(g8
(I0
tp497
g10
tp498
Rp499
(I1
(I3
tp500
g477
I00
S'Ys\xeep\xa18A\xc0r\xc0\xdb5\xcf\xbd9\xc0(\xe57\xbf\xf3\xd9\xf0?'
p501
tp502
bsg482
S'Cell[2].axon[133]'
p503
sI106
I175
tp504
a(F2.4922957108327823
S'Cell[3].dend[34] syn_ = new FastInhib(0.833333333333)'
p505
I3
(dp506
g467
F0.5
sg468
F10.0
sg469
I106
sg470
g7
(g8
(I0
tp507
g10
tp508
Rp509
(I1
(I3
tp510
g477
I00
S'\xdf\x97N\xbc\xdbwK@\xcc\x0e75\x9f\x8bG\xc0\xd9\xc2\xd5V\xe6\x93U\xc0'
p511
tp512
bsg482
S'Cell[2].axon[205]'
p513
sI106
I175
tp514
a(F2.1346871725094765
S'Cell[1].dend[29] syn_ = new AmpaNmda(0.5)'
p515
I1
(dp516
g467
F0.8333333333333333
sg468
F10.0
sg469
I106
sg470
g7
(g8
(I0
tp517
g10
tp518
Rp519
(I1
(I3
tp520
g477
I00
S'O\x17p\xc0:\xd3S@=\xfc\xde\x92K\x165\xc0Dr\x00\x02\xd9\xe8<\xc0'
p521
tp522
bsg482
S'Cell[2].axon[285]'
p523
sI106
I79
tp524
a(F1.819642317876991
S'Cell[3].dend[5] syn_ = new FastInhib(0.0714285714286)'
p525
I3
(dp526
g467
F0.5
sg468
F10.0
sg469
I106
sg470
g7
(g8
(I0
tp527
g10
tp528
Rp529
(I1
(I3
tp530
g477
I00
S'\x94x\r\x84\x0c\xf3#\xc0}\xd6\x9c\x9d\x07TG@\x82\x08t\x80\xdc"@\xc0'
p531
tp532
bsg482
S'Cell[2].axon[305]'
p533
sI106
I175
tp534
a(F1.9551453875472415
S'Cell[3].dend[26] syn_ = new FastInhib(0.166666666667)'
p535
I3
(dp536
S'seg'
p537
F0.07142857142857142
sS'hostfrom'
p538
F11.0
sS'gid'
p539
I59
sS'coords'
p540
g7
(g8
(I0
tp541
g10
tp542
Rp543
(I1
(I3
tp544
g14
(S'f8'
p545
I0
I1
tp546
Rp547
(I3
S'<'
p548
NNNI-1
I-1
I0
tp549
bI00
S'\xc3\xb1u\x18\xd1e?\xc0\x87I.|\xc4\xd8\x19\xc0Q$\xe1W\xd2D%@'
p550
tp551
bsS'secnames'
p552
S'Cell[1].axon[59]'
p553
sI59
I175
tp554
a(F2.4626843731188184
S'Cell[0].dend[14] syn_ = new ExpSid(0.833333333333)'
p555
I0
(dp556
g537
F0.5
sg538
F11.0
sg539
I59
sg540
g7
(g8
(I0
tp557
g10
tp558
Rp559
(I1
(I3
tp560
g547
I00
S'\x9a\xe4B\xb7\x1a\x0bF\xc0\xfco\xef\nDPD@\x15/\x86+.<6\xc0'
p561
tp562
bsg552
S'Cell[1].axon[62]'
p563
sI59
I31
tp564
a(F1.8463290557059753
S'Cell[0].apic[5] syn_ = new ExpSid(0.5)'
p565
I0
g556
I59
I31
tp566
a(F2.1549006028071447
S'Cell[3].dend[38] syn_ = new FastInhib(0.3)'
p567
I3
(dp568
g537
F0.8333333333333333
sg538
F11.0
sg539
I155
sg540
g7
(g8
(I0
tp569
g10
tp570
Rp571
(I1
(I3
tp572
g547
I00
S'.v1x\x85DL\xc0\x96\x83[\x1d\x00\x16F\xc0+\xbe7k\x8a\x92\xfe?'
p573
tp574
bsg552
S'Cell[3].axon[31]'
p575
sI155
I175
tp576
a(F2.1682800749273765
S'Cell[3].dend[20] syn_ = new FastInhib(0.166666666667)'
p577
I3
(dp578
S'seg'
p579
F0.16666666666666666
sS'hostfrom'
p580
F12.0
sS'gid'
p581
I156
sS'coords'
p582
g7
(g8
(I0
tp583
g10
tp584
Rp585
(I1
(I3
tp586
g14
(S'f8'
p587
I0
I1
tp588
Rp589
(I3
S'<'
p590
NNNI-1
I-1
I0
tp591
bI00
S"\xd6Ap\xac\x18\xcc<\xc0nu\x8c\xb3\xe0i'\xc0U\x18(OQ\x0b\x13\xc0"
p592
tp593
bsS'secnames'
p594
S'Cell[3].axon[1]'
p595
sI156
I175
tp596
a(F2.246836870841709
S'Cell[1].dend[55] syn_ = new AmpaNmda(0.5)'
p597
I1
(dp598
g579
F0.038461538461538464
sg580
F12.0
sg581
I156
sg582
g7
(g8
(I0
tp599
g10
tp600
Rp601
(I1
(I3
tp602
g589
I00
S'\x00\x00\x00 \xae\xc79@71\x8bbh\xe33\xc0t\xc7\xa5\x1fA D\xc0'
p603
tp604
bsg594
S'Cell[3].axon[546]'
p605
sI156
I79
tp606
a(F2.2932131812416987
S'Cell[3].dend[9] syn_ = new FastInhib(0.5)'
p607
I3
(dp608
g579
F0.5
sg580
F12.0
sg581
I108
sg582
g7
(g8
(I0
tp609
g10
tp610
Rp611
(I1
(I3
tp612
g589
I00
S'\xb4\xa8\xc2\x97\x14\x856\xc0\xcc\x89\xa3\xa6|\x12<@\xd0\x03G\x13y\x9c\xfa\xbf'
p613
tp614
bsg594
S'Cell[2].axon[0]'
p615
sI108
I175
tp616
a(F2.3993598170873645
S'Cell[2].dend[17] syn_ = new FastInhib(0.785714285714)'
p617
I2
(dp618
g579
F0.5
sg580
F12.0
sg581
I108
sg582
g7
(g8
(I0
tp619
g10
tp620
Rp621
(I1
(I3
tp622
g589
I00
S'\xc3\xde@O\xc4<3\xc0J\xac\x12\xc7FDf\xc0\x00\x00\x00\x80=\n\xb7?'
p623
tp624
bsg594
S'Cell[2].axon[9]'
p625
sI108
I127
tp626
a(F1.7591211733827943
S'Cell[3].dend[12] syn_ = new FastInhib(0.5)'
p627
I3
(dp628
S'seg'
p629
F0.5
sS'hostfrom'
p630
F13.0
sS'gid'
p631
I109
sS'coords'
p632
g7
(g8
(I0
tp633
g10
tp634
Rp635
(I1
(I3
tp636
g14
(S'f8'
p637
I0
I1
tp638
Rp639
(I3
S'<'
p640
NNNI-1
I-1
I0
tp641
bI00
S't\xc0(\xf6<\x934@\x05D-\xa0\x8b\xe3O@\xf7\x7f\xb6\xe4=/-@'
p642
tp643
bsS'secnames'
p644
S'Cell[2].axon[63]'
p645
sI109
I175
tp646
a(F2.229060203895251
S'Cell[2].dend[40] syn_ = new FastInhib(0.5)'
p647
I2
(dp648
g629
F0.8333333333333333
sg630
F13.0
sg631
I109
sg632
g7
(g8
(I0
tp649
g10
tp650
Rp651
(I1
(I3
tp652
g639
I00
S"\x94\x14\xab\xc6\xf3\x02N@ZV\x08\x9d\x93\x15f@\xd8\x9f'r\x84\x9c\xf7\xbf"
p653
tp654
bsg644
S'Cell[2].axon[67]'
p655
sI109
I127
tp656
a(F2.1560566663104184
S'Cell[1].dend[9] syn_ = new ExpSid(0.5)'
p657
I1
(dp658
g629
F0.9285714285714284
sg630
F13.0
sg631
I109
sg632
g7
(g8
(I0
tp659
g10
tp660
Rp661
(I1
(I3
tp662
g639
I00
S'\xd0\x9d\x15\x13\xe2%U@\xfc\x0e\ny0\xe5 @\xc36!.@\x8fV\xc0'
p663
tp664
bsg644
S'Cell[2].axon[148]'
p665
sI109
I79
tp666
a(F1.647288636344079
S'Cell[1].dend[29] syn_ = new ExpSid(0.5)'
p667
I1
(dp668
g629
F0.16666666666666666
sg630
F13.0
sg631
I61
sg632
g7
(g8
(I0
tp669
g10
tp670
Rp671
(I1
(I3
tp672
g639
I00
S'zb\x03\xfd\xf3nS@\xdc\xf6\x856\xed\xf23\xc0\x8c]\xdc\x0e4\x0c=\xc0'
p673
tp674
bsg644
S'Cell[1].axon[37]'
p675
sI61
I79
tp676
a(F2.218949950845621
S'Cell[0].apic[22] syn_ = new AmpaNmda(0.166666666667)'
p677
I0
(dp678
S'seg'
p679
F0.8999999999999999
sS'hostfrom'
p680
F14.0
sS'gid'
p681
I110
sS'coords'
p682
g7
(g8
(I0
tp683
g10
tp684
Rp685
(I1
(I3
tp686
g14
(S'f8'
p687
I0
I1
tp688
Rp689
(I3
S'<'
p690
NNNI-1
I-1
I0
tp691
bI00
S'\x89TN\xac\xbe\xe60\xc0\xc4\x17lH\xd8\x96.@\x92\xd9R\x12\xd1O*\xc0'
p692
tp693
bsS'secnames'
p694
S'Cell[2].axon[29]'
p695
sI110
I31
tp696
a(F1.5296274452440128
S'Cell[0].apic[12] syn_ = new AmpaNmda(0.833333333333)'
p697
I0
(dp698
g679
F0.5
sg680
F14.0
sg681
I110
sg682
g7
(g8
(I0
tp699
g10
tp700
Rp701
(I1
(I3
tp702
g689
I00
S'\x1b\xbc\x08\xc7E\xd7\x1c\xc0\x88\xdf\x90[[4H\xc0\x00\x00\x00\x80\xc2u6@'
p703
tp704
bsg694
S'Cell[2].axon[81]'
p705
sI110
I31
tp706
a(F2.0916697445227492
S'Cell[2].dend[12] syn_ = new FastInhib(0.833333333333)'
p707
I2
(dp708
S'seg'
p709
F0.8333333333333333
sS'hostfrom'
p710
F15.0
sS'gid'
p711
I111
sS'coords'
p712
g7
(g8
(I0
tp713
g10
tp714
Rp715
(I1
(I3
tp716
g14
(S'f8'
p717
I0
I1
tp718
Rp719
(I3
S'<'
p720
NNNI-1
I-1
I0
tp721
bI00
S'Y\xaa2\xe4\x94\x9dC@\x97-\xd4\x1d\xac\xba]\xc0F;@^\xe4\xaa5\xc0'
p722
tp723
bsS'secnames'
p724
S'Cell[2].axon[395]'
p725
sI111
I127
tp726
a(F1.6124097984226915
S'Cell[2].dend[27] syn_ = new FastInhib(0.9)'
p727
I2
(dp728
g709
F0.5
sg710
F15.0
sg711
I15
sg712
g7
(g8
(I0
tp729
g10
tp730
Rp731
(I1
(I3
tp732
g719
I00
S'8\x15\xfb\x8a?\xc3?@\xfa\x823)b\x1c_\xc0/\xea\xb59\x83<,@'
p733
tp734
bsg724
S'Cell[0].axon[11]'
p735
sI15
I127
tp736
a(F2.251031886033534
S'Cell[1].dend[21] syn_ = new AmpaNmda(0.5)'
p737
I1
(dp738
S'seg'
p739
F0.1
sS'hostfrom'
p740
F16.0
sS'gid'
p741
I112
sS'coords'
p742
g7
(g8
(I0
tp743
g10
tp744
Rp745
(I1
(I3
tp746
g14
(S'f8'
p747
I0
I1
tp748
Rp749
(I3
S'<'
p750
NNNI-1
I-1
I0
tp751
bI00
S'\xbd~\xbd*\x9f$Q@\xe0G\xf7\xae\x92\xcd\xed\xbf6s\x02\x15\x86\x9d\xf2\xbf'
p752
tp753
bsS'secnames'
p754
S'Cell[2].axon[118]'
p755
sI112
I79
tp756
a(F1.972059117295471
S'Cell[3].dend[19] syn_ = new FastInhib(0.5)'
p757
I3
(dp758
g739
F0.49999999999999994
sg740
F16.0
sg741
I112
sg742
g7
(g8
(I0
tp759
g10
tp760
Rp761
(I1
(I3
tp762
g749
I00
S't\xec\x93|;\x9c=\xc0\xc6\xc0%\x92\xb9v\x1c\xc0A\xde\xa9w\n\x9a\xef?'
p763
tp764
bsg754
S'Cell[2].axon[207]'
p765
sI112
I175
tp766
a(F1.5117909706156023
S'Cell[0].dend[15] syn_ = new AmpaNmda(0.5)'
p767
I0
(dp768
g739
F0.9285714285714284
sg740
F16.0
sg741
I112
sg742
g7
(g8
(I0
tp769
g10
tp770
Rp771
(I1
(I3
tp772
g749
I00
S'\x0c{\xde\x85\xd9\xb2B\xc0,\xe5\xbe\xb4\xfe\x89E\xc0\xfd:\xa0\x07|D\x0c@'
p773
tp774
bsg754
S'Cell[2].axon[207]'
p775
sI112
I31
tp776
a(F0.573101739908104
S'Cell[3].dend[32] syn_ = new FastInhib(0.166666666667)'
p777
I3
(dp778
S'seg'
p779
F0.5
sS'hostfrom'
p780
F17.0
sS'gid'
p781
I113
sS'coords'
p782
g7
(g8
(I0
tp783
g10
tp784
Rp785
(I1
(I3
tp786
g14
(S'f8'
p787
I0
I1
tp788
Rp789
(I3
S'<'
p790
NNNI-1
I-1
I0
tp791
bI00
S'\xf3\xe3?\x8eA\x05\x00\xc0\x11\x84]`\xfd&`\xc0\x00\x00\x00\xa0G\xa1D\xc0'
p792
tp793
bsS'secnames'
p794
S'Cell[2].axon[27]'
p795
sI113
I175
tp796
a(F1.1729260209068992
S'Cell[3].dend[29] syn_ = new FastInhib(0.5)'
p797
I3
(dp798
g779
F0.5
sg780
F17.0
sg781
I113
sg782
g7
(g8
(I0
tp799
g10
tp800
Rp801
(I1
(I3
tp802
g789
I00
S'8*\xca\x19\xb9\x04\xc1?\xebz\xe8\x06\xb1\xf5C\xc0\x00\x00\x00`\xb8NT\xc0'
p803
tp804
bsg794
S'Cell[2].axon[58]'
p805
sI113
I175
tp806
a(F2.1075114831420265
S'Cell[1].dend[59] syn_ = new ExpSid(0.9)'
p807
I1
(dp808
g779
F0.8333333333333333
sg780
F17.0
sg781
I113
sg782
g7
(g8
(I0
tp809
g10
tp810
Rp811
(I1
(I3
tp812
g789
I00
S'\xfd\x1bqn8\xcfG@\xb0\xfeg\xbc\xf7\xf6`\xc0\xb8\xa4\xafv\x92\\\x1c@'
p813
tp814
bsg794
S'Cell[2].axon[568]'
p815
sI113
I79
tp816
a(F2.3630524876295143
S'Cell[0].apic[17] syn_ = new ExpSid(0.5)'
p817
I0
(dp818
g779
F0.1
sg780
F17.0
sg781
I161
sg782
g7
(g8
(I0
tp819
g10
tp820
Rp821
(I1
(I3
tp822
g789
I00
S'\xaa\xfa\xff\xb7y\xc1&\xc0=\x08@y{"8@\x0e\xac\xf1\x93\x95Z1@'
p823
tp824
bsg794
S'Cell[3].axon[16]'
p825
sI161
I31
tp826
a(F1.6479424378788365
S'Cell[1].dend[45] syn_ = new ExpSid(0.5)'
p827
I1
(dp828
g779
F0.16666666666666666
sg780
F17.0
sg781
I161
sg782
g7
(g8
(I0
tp829
g10
tp830
Rp831
(I1
(I3
tp832
g789
I00
S',+\xac5\xcc\xbeE\xc0\x88S\xfaac\xb5H@\x00\x00\x00\x80\xc25@\xc0'
p833
tp834
bsg794
S'Cell[3].axon[57]'
p835
sI161
I79
tp836
a(F2.276737450222927
S'Cell[1].dend[44] syn_ = new ExpSid(0.166666666667)'
p837
I1
(dp838
g779
F0.5
sg780
F17.0
sg781
I161
sg782
g7
(g8
(I0
tp839
g10
tp840
Rp841
(I1
(I3
tp842
g789
I00
S'\xa6A\xd5\x1a?\xd2\xe0?n\xef\xd9\xf1]\xbb;@\xe8m\x85\xa32\x9e=\xc0'
p843
tp844
bsg794
S'Cell[3].axon[121]'
p845
sI161
I79
tp846
a(F2.3790698690900993
S'Cell[1].dend[68] syn_ = new ExpSid(0.833333333333)'
p847
I1
(dp848
g779
F0.5
sg780
F17.0
sg781
I161
sg782
g7
(g8
(I0
tp849
g10
tp850
Rp851
(I1
(I3
tp852
g789
I00
S'\x00\x00\x00\xd8\xa3p\x14@\x00\x00\x00@\xe1jH\xc0\x00\x00\x00\xe0z\xb4N\xc0'
p853
tp854
bsg794
S'Cell[3].axon[244]'
p855
sI161
I79
tp856
a(F0.47048756407999853
S'Cell[1].dend[1] syn_ = new AmpaNmda(0.5)'
p857
I1
(dp858
S'seg'
p859
F0.5
sS'hostfrom'
p860
F18.0
sS'gid'
p861
I162
sS'coords'
p862
g7
(g8
(I0
tp863
g10
tp864
Rp865
(I1
(I3
tp866
g14
(S'f8'
p867
I0
I1
tp868
Rp869
(I3
S'<'
p870
NNNI-1
I-1
I0
tp871
bI00
S'\x18\xe5\x8eH\tKT@\xcb\xcc7-\xc3\xbd3@\x9d\xdb\x9b\x87GkD\xc0'
p872
tp873
bsS'secnames'
p874
S'Cell[3].axon[25]'
p875
sI162
I79
tp876
a(F2.0927304960619204
S'Cell[0].apic[16] syn_ = new AmpaNmda(0.5)'
p877
I0
(dp878
S'seg'
p879
F0.16666666666666666
sS'hostfrom'
p880
F20.0
sS'gid'
p881
I68
sS'coords'
p882
g7
(g8
(I0
tp883
g10
tp884
Rp885
(I1
(I3
tp886
g14
(S'f8'
p887
I0
I1
tp888
Rp889
(I3
S'<'
p890
NNNI-1
I-1
I0
tp891
bI00
S'\xe6O\x1e\x95\x0c\x8e8\xc0\x96\xc6\xb1\x11\xb9\xab\x1a@\\\x0e=\x00\xea\xab$@'
p892
tp893
bsS'secnames'
p894
S'Cell[1].axon[14]'
p895
sI68
I31
tp896
a(F1.8399122484043098
S'Cell[1].dend[42] syn_ = new ExpSid(0.5)'
p897
I1
(dp898
S'seg'
p899
F0.05555555555555555
sS'hostfrom'
p900
F21.0
sS'gid'
p901
I165
sS'coords'
p902
g7
(g8
(I0
tp903
g10
tp904
Rp905
(I1
(I3
tp906
g14
(S'f8'
p907
I0
I1
tp908
Rp909
(I3
S'<'
p910
NNNI-1
I-1
I0
tp911
bI00
S'\xb6\xc8\x9b\xe3<\xae@@V\x95\xca\xf95\xee%@\x11za\x0f\xbd)E\xc0'
p912
tp913
bsS'secnames'
p914
S'Cell[3].axon[153]'
p915
sI165
I79
tp916
a(F1.509034780695252
S'Cell[3].dend[38] syn_ = new FastInhib(0.7)'
p917
I3
(dp918
g899
F0.30000000000000004
sg900
F21.0
sg901
I165
sg902
g7
(g8
(I0
tp919
g10
tp920
Rp921
(I1
(I3
tp922
g909
I00
S'0\nh\x95\xac0V\xc0\xa5\x16p\xa0\xee\xa0S\xc0\x90\t\xb1\xf5\xe7\xdd,@'
p923
tp924
bsg914
S'Cell[3].axon[297]'
p925
sI165
I175
tp926
a(F2.1247318297065987
S'Cell[1].apic[102] syn_ = new ExpSid(0.9)'
p927
I1
(dp928
g899
F0.5
sg900
F21.0
sg901
I117
sg902
g7
(g8
(I0
tp929
g10
tp930
Rp931
(I1
(I3
tp932
g909
I00
S'\xb3S\xed\x87\xd6]g@\x86\xda\xb0\xeb\xcf\xf6R@\x00\x00\x00\x80\xc2u9\xc0'
p933
tp934
bsg914
S'Cell[2].axon[108]'
p935
sI117
I79
tp936
a(F2.410364238364728
S'Cell[1].dend[5] syn_ = new AmpaNmda(0.0714285714286)'
p937
I1
(dp938
S'seg'
p939
F0.21428571428571427
sS'hostfrom'
p940
F22.0
sS'gid'
p941
I166
sS'coords'
p942
g7
(g8
(I0
tp943
g10
tp944
Rp945
(I1
(I3
tp946
g14
(S'f8'
p947
I0
I1
tp948
Rp949
(I3
S'<'
p950
NNNI-1
I-1
I0
tp951
bI00
S'\xa4\xc80\xcb\x13\xd0Y@\x98\xe8y\xe00:4@\xdf\xc8\xe3\xfe\xf3\x90E\xc0'
p952
tp953
bsS'secnames'
p954
S'Cell[3].axon[135]'
p955
sI166
I79
tp956
a(F2.200283236784836
S'Cell[1].dend[66] syn_ = new AmpaNmda(0.1)'
p957
I1
(dp958
g939
F0.8333333333333333
sg940
F22.0
sg941
I166
sg942
g7
(g8
(I0
tp959
g10
tp960
Rp961
(I1
(I3
tp962
g949
I00
S'9\xa9\xb5\x07\x80\xbcG@\x8e\x86\xf7\r5\xdfE\xc0\xac\xf0\xed\xc9\x1a/G\xc0'
p963
tp964
bsg954
S'Cell[3].axon[206]'
p965
sI166
I79
tp966
a(F2.4607283461633322
S'Cell[3].dend[20] syn_ = new FastInhib(0.5)'
p967
I3
(dp968
S'seg'
p969
F0.7
sS'hostfrom'
p970
F23.0
sS'gid'
p971
I167
sS'coords'
p972
g7
(g8
(I0
tp973
g10
tp974
Rp975
(I1
(I3
tp976
g14
(S'f8'
p977
I0
I1
tp978
Rp979
(I3
S'<'
p980
NNNI-1
I-1
I0
tp981
bI00
S',\x9e{\xa6\xdb\xfc?\xc0o\xf5?\xbcP\xde7\xc0\xd8n\xf7&t\xf9\xb1\xbf'
p982
tp983
bsS'secnames'
p984
S'Cell[3].axon[156]'
p985
sI167
I175
tp986
a(F1.7975540835757813
S'Cell[1].dend[44] syn_ = new ExpSid(0.166666666667)'
p987
I1
(dp988
S'seg'
p989
F0.16666666666666666
sS'hostfrom'
p990
F25.0
sS'gid'
p991
I121
sS'coords'
p992
g7
(g8
(I0
tp993
g10
tp994
Rp995
(I1
(I3
tp996
g14
(S'f8'
p997
I0
I1
tp998
Rp999
(I3
S'<'
p1000
NNNI-1
I-1
I0
tp1001
bI00
S'{\xb4\xc1\x1cS\x08\x04@\xf0l\xe9\xc3\xba\xae8@n\xd0\x98\x1c\xc2e?\xc0'
p1002
tp1003
bsS'secnames'
p1004
S'Cell[2].axon[36]'
p1005
sI121
I79
tp1006
a(F2.30410873288302
S'Cell[0].apic[5] syn_ = new ExpSid(0.5)'
p1007
I0
(dp1008
g989
F0.1
sg990
F25.0
sg991
I121
sg992
g7
(g8
(I0
tp1009
g10
tp1010
Rp1011
(I1
(I3
tp1012
g999
I00
S'\xa0~.\xe3k8E\xc0R*T\x11\x95bE@\xc7\xb6\x84E\x99\x036\xc0'
p1013
tp1014
bsg1004
S'Cell[2].axon[132]'
p1015
sI121
I31
tp1016
a(F0.9650639266163162
S'Cell[0].dend[9] syn_ = new ExpSid(0.5)'
p1017
I0
(dp1018
g989
F0.5
sg990
F25.0
sg991
I121
sg992
g7
(g8
(I0
tp1019
g10
tp1020
Rp1021
(I1
(I3
tp1022
g999
I00
S'F\x96\xf2\xa5\xefXT\xc0\x07\x83J\xaa\xc85\x1d\xc0\xd4\x1as\x86\xdd\x1c\x17\xc0'
p1023
tp1024
bsg1004
S'Cell[2].axon[333]'
p1025
sI121
I31
tp1026
a(F2.0374030305930204
S'Cell[2].dend[20] syn_ = new FastInhib(0.833333333333)'
p1027
I2
(dp1028
g989
F0.8333333333333333
sg990
F25.0
sg991
I169
sg992
g7
(g8
(I0
tp1029
g10
tp1030
Rp1031
(I1
(I3
tp1032
g999
I00
S'\x01y\xb2\x9e\xcc/\x1b\xc0\x9b\\\xb5\xaf\xc4\x93c\xc0r\xcc\xe6\xa3t\xbbB\xc0'
p1033
tp1034
bsg1004
S'Cell[3].axon[77]'
p1035
sI169
I127
tp1036
a(F1.983430952090365
S'Cell[1].dend[72] syn_ = new ExpSid(0.722222222222)'
p1037
I1
(dp1038
g989
F0.16666666666666666
sg990
F25.0
sg991
I169
sg992
g7
(g8
(I0
tp1039
g10
tp1040
Rp1041
(I1
(I3
tp1042
g999
I00
S'\xe4\xec\xd9\r\x87\x86R@H\xdd_\xce\xe5c_\xc0 \xb6\xc1hA\x10X\xc0'
p1043
tp1044
bsg1004
S'Cell[3].axon[93]'
p1045
sI169
I79
tp1046
a(F2.3238396797379584
S'Cell[1].dend[27] syn_ = new AmpaNmda(0.166666666667)'
p1047
I1
(dp1048
S'seg'
p1049
F0.5
sS'hostfrom'
p1050
F26.0
sS'gid'
p1051
I26
sS'coords'
p1052
g7
(g8
(I0
tp1053
g10
tp1054
Rp1055
(I1
(I3
tp1056
g14
(S'f8'
p1057
I0
I1
tp1058
Rp1059
(I3
S'<'
p1060
NNNI-1
I-1
I0
tp1061
bI00
S'NB`\xda\xf5\xe1J@8\xe7t\x91\x83mA\xc0\x9b\xc4\xb6\xd9\xd2O"\xc0'
p1062
tp1063
bsS'secnames'
p1064
S'Cell[0].axon[48]'
p1065
sI26
I79
tp1066
a(F2.459026427102525
S'Cell[2].dend[27] syn_ = new FastInhib(0.9)'
p1067
I2
(dp1068
S'seg'
p1069
F0.5
sS'hostfrom'
p1070
F27.0
sS'gid'
p1071
I75
sS'coords'
p1072
g7
(g8
(I0
tp1073
g10
tp1074
Rp1075
(I1
(I3
tp1076
g14
(S'f8'
p1077
I0
I1
tp1078
Rp1079
(I3
S'<'
p1080
NNNI-1
I-1
I0
tp1081
bI00
S'\x0b+\t\xd7\xe4\xbc<@\x16\xca\x057\x08\xab_\xc0\xfe\xb5*\x18\xd4\x1c)@'
p1082
tp1083
bsS'secnames'
p1084
S'Cell[1].axon[22]'
p1085
sI75
I127
tp1086
a(F1.8464275309248177
S'Cell[1].dend[50] syn_ = new ExpSid(0.5)'
p1087
I1
(dp1088
g1069
F0.1
sg1070
F27.0
sg1071
I27
sg1072
g7
(g8
(I0
tp1089
g10
tp1090
Rp1091
(I1
(I3
tp1092
g1079
I00
S'&\xdc\xb3&\xf4\x05\x03\xc0]\x1c\x1cf\x8eY\xff?N\xc3u\xdep\xa1\x15@'
p1093
tp1094
bsg1084
S'Cell[0].axon[4]'
p1095
sI27
I79
tp1096
a(F2.375577980220948
S'Cell[3].dend[11] syn_ = new FastInhib(0.214285714286)'
p1097
I3
(dp1098
g1069
F0.5
sg1070
F27.0
sg1071
I171
sg1072
g7
(g8
(I0
tp1099
g10
tp1100
Rp1101
(I1
(I3
tp1102
g1079
I00
S'>*\xde\x8cx\xb8=@\x08_\xe9\xe9\xc7\x1dI@\xd3Ge\xb3\x1e\xf7 \xc0'
p1103
tp1104
bsg1084
S'Cell[3].axon[18]'
p1105
sI171
I175
tp1106
a(F2.365991083643654
S'Cell[2].dend[5] syn_ = new FastInhib(0.785714285714)'
p1107
I2
(dp1108
S'seg'
p1109
F0.16666666666666666
sS'hostfrom'
p1110
F29.0
sS'gid'
p1111
I29
sS'coords'
p1112
g7
(g8
(I0
tp1113
g10
tp1114
Rp1115
(I1
(I3
tp1116
g14
(S'f8'
p1117
I0
I1
tp1118
Rp1119
(I3
S'<'
p1120
NNNI-1
I-1
I0
tp1121
bI00
S'>\xd0%%\xa7\x981\xc09\xa6P\xb5\x9a\x9fb\xc0\x00\x00\x00\x00\xd7\xa3\n\xc0'
p1122
tp1123
bsS'secnames'
p1124
S'Cell[0].axon[26]'
p1125
sI29
I127
tp1126
a(F2.22848640921008
S'Cell[0].apic[25] syn_ = new AmpaNmda(0.166666666667)'
p1127
I0
(dp1128
S'seg'
p1129
F0.8333333333333333
sS'hostfrom'
p1130
F30.0
sS'gid'
p1131
I126
sS'coords'
p1132
g7
(g8
(I0
tp1133
g10
tp1134
Rp1135
(I1
(I3
tp1136
g14
(S'f8'
p1137
I0
I1
tp1138
Rp1139
(I3
S'<'
p1140
NNNI-1
I-1
I0
tp1141
bI00
S"\xe5\xa1\xdd\xbcZ\xcb5\xc0\x0c\x0f\xee\x95\xc0\xb6G@\xe8\xef\xee$5y'@"
p1142
tp1143
bsS'secnames'
p1144
S'Cell[2].axon[33]'
p1145
sI126
I31
tp1146
a(F1.6342414175120388
S'Cell[1].dend[44] syn_ = new AmpaNmda(0.5)'
p1147
I1
(dp1148
g1129
F0.8333333333333333
sg1130
F30.0
sg1131
I126
sg1132
g7
(g8
(I0
tp1149
g10
tp1150
Rp1151
(I1
(I3
tp1152
g1139
I00
S"\xb3\x8d\xd0\xc8<\xbf#\xc0\xe0\xd4\x90&\x8b'@@S\xf0\x0f\xfcOs$\xc0"
p1153
tp1154
bsg1144
S'Cell[2].axon[49]'
p1155
sI126
I79
tp1156
a(F1.9931964718110127
S'Cell[1].dend[33] syn_ = new ExpSid(0.166666666667)'
p1157
I1
(dp1158
S'seg'
p1159
F0.1
sS'hostfrom'
p1160
F31.0
sS'gid'
p1161
I127
sS'coords'
p1162
g7
(g8
(I0
tp1163
g10
tp1164
Rp1165
(I1
(I3
tp1166
g14
(S'f8'
p1167
I0
I1
tp1168
Rp1169
(I3
S'<'
p1170
NNNI-1
I-1
I0
tp1171
bI00
S'\xb0\xaa\xec\x98\x9b\xe4V@\x9b\xc21\xcc\xed\x17=\xc0\xe8x#\x1f\xd3\xfd<\xc0'
p1172
tp1173
bsS'secnames'
p1174
S'Cell[2].axon[15]'
p1175
sI127
I79
tp1176
a(F2.465937979646286
S'Cell[0].apic[6] syn_ = new AmpaNmda(0.1)'
p1177
I0
(dp1178
S'seg'
p1179
F0.7
sS'hostfrom'
p1180
F32.0
sS'gid'
p1181
I176
sS'coords'
p1182
g7
(g8
(I0
tp1183
g10
tp1184
Rp1185
(I1
(I3
tp1186
g14
(S'f8'
p1187
I0
I1
tp1188
Rp1189
(I3
S'<'
p1190
NNNI-1
I-1
I0
tp1191
bI00
S'\xee@V\xec\xf5\xa2J\xc0j\x1c\x8f\xd2$\xc7B@\xb6X\x8b\x91\xde\x931\xc0'
p1192
tp1193
bsS'secnames'
p1194
S'Cell[3].axon[127]'
p1195
sI176
I31
tp1196
a(F1.6155400658619739
S'Cell[0].apic[2] syn_ = new ExpSid(0.833333333333)'
p1197
I0
(dp1198
S'seg'
p1199
F0.5
sS'hostfrom'
p1200
F33.0
sS'gid'
p1201
I129
sS'coords'
p1202
g7
(g8
(I0
tp1203
g10
tp1204
Rp1205
(I1
(I3
tp1206
g14
(S'f8'
p1207
I0
I1
tp1208
Rp1209
(I3
S'<'
p1210
NNNI-1
I-1
I0
tp1211
bI00
S'\xc6\xe1\x07\x92\x94\x061\xc0\x84\x96i\x19i`F@\xe0Y\x1b\xeef\xdc\x97\xbf'
p1212
tp1213
bsS'secnames'
p1214
S'Cell[2].axon[10]'
p1215
sI129
I31
tp1216
a(F0.9007321960237379
S'Cell[2].dend[8] syn_ = new FastInhib(0.5)'
p1217
I2
(dp1218
g1199
F0.30000000000000004
sg1200
F33.0
sg1201
I33
sg1202
g7
(g8
(I0
tp1219
g10
tp1220
Rp1221
(I1
(I3
tp1222
g1209
I00
S'\x9b4JJ|%F@A:\xdc\x80\x11\x0cP\xc0\xb6\xd1\x0b\x1b\xcb\x1b\x07\xc0'
p1223
tp1224
bsg1214
S'Cell[0].axon[36]'
p1225
sI33
I127
tp1226
a(F2.1546617181429237
S'Cell[3].dend[9] syn_ = new FastInhib(0.5)'
p1227
I3
(dp1228
g1199
F0.16666666666666666
sg1200
F33.0
sg1201
I177
sg1202
g7
(g8
(I0
tp1229
g10
tp1230
Rp1231
(I1
(I3
tp1232
g1209
I00
S'\xad\x86?\x87\xe8{7\xc0\xb9+j1\xde\xb9>@~cx\xd8\x9a\xc8\x04\xc0'
p1233
tp1234
bsg1214
S'Cell[3].axon[46]'
p1235
sI177
I175
tp1236
a(F1.8656668323792527
S'Cell[3].dend[12] syn_ = new FastInhib(0.166666666667)'
p1237
I3
(dp1238
g1199
F0.9285714285714284
sg1200
F33.0
sg1201
I81
sg1202
g7
(g8
(I0
tp1239
g10
tp1240
Rp1241
(I1
(I3
tp1242
g1209
I00
S'\x04\xcd\xc7[\x7fJ\t\xc0\xcf\\6\x19(\xc5H@\x00\x00\x00@33\xf3?'
p1243
tp1244
bsg1214
S'Cell[1].axon[73]'
p1245
sI81
I175
tp1246
a(F2.450759307947747
S'Cell[1].dend[59] syn_ = new ExpSid(0.7)'
p1247
I1
(dp1248
g1199
F0.5
sg1200
F33.0
sg1201
I81
sg1202
g7
(g8
(I0
tp1249
g10
tp1250
Rp1251
(I1
(I3
tp1252
g1209
I00
S"=\xaf\x00!\x9f'C@\x07\x03\x94U\x12'^\xc0\xfad\xf9\x98\x05\xff)\xc0"
p1253
tp1254
bsg1214
S'Cell[1].axon[77]'
p1255
sI81
I79
tp1256
a(F2.438795781993045
S'Cell[1].dend[70] syn_ = new AmpaNmda(0.357142857143)'
p1257
I1
(dp1258
S'seg'
p1259
F0.5909090909090909
sS'hostfrom'
p1260
F34.0
sS'gid'
p1261
I34
sS'coords'
p1262
g7
(g8
(I0
tp1263
g10
tp1264
Rp1265
(I1
(I3
tp1266
g14
(S'f8'
p1267
I0
I1
tp1268
Rp1269
(I3
S'<'
p1270
NNNI-1
I-1
I0
tp1271
bI00
S'G;\xc8\x15\x82\xb7B\xc0\xb1\x84bq\xb8SX\xc0\xab}\xf8+q.Q\xc0'
p1272
tp1273
bsS'secnames'
p1274
S'Cell[0].axon[48]'
p1275
sI34
I79
tp1276
a(F1.9728054367588819
S'Cell[0].dend[13] syn_ = new AmpaNmda(0.5)'
p1277
I0
(dp1278
g1259
F0.30000000000000004
sg1260
F34.0
sg1261
I82
sg1262
g7
(g8
(I0
tp1279
g10
tp1280
Rp1281
(I1
(I3
tp1282
g1269
I00
S";\x18\xbc\xb3e'Z\xc0\xb0\x98J{\x14\x8fF@\x94\x88\x92\x91\xe1\x04H\xc0"
p1283
tp1284
bsg1274
S'Cell[1].axon[237]'
p1285
sI82
I31
tp1286
a(F1.2410486557550253
S'Cell[3].dend[29] syn_ = new FastInhib(0.3)'
p1287
I3
(dp1288
g1259
F0.16666666666666666
sg1260
F34.0
sg1261
I178
sg1262
g7
(g8
(I0
tp1289
g10
tp1290
Rp1291
(I1
(I3
tp1292
g1269
I00
S'\x82(\xd7\xb5t\xd8"\xc0#\x12s\x1b\xcfeA\xc0\x8a57\xfb\xe7\xc9K\xc0'
p1293
tp1294
bsg1274
S'Cell[3].axon[9]'
p1295
sI178
I175
tp1296
a(F2.045038680984848
S'Cell[2].dend[3] syn_ = new FastInhib(0.5)'
p1297
I2
(dp1298
S'seg'
p1299
F0.16666666666666666
sS'hostfrom'
p1300
F35.0
sS'gid'
p1301
I83
sS'coords'
p1302
g7
(g8
(I0
tp1303
g10
tp1304
Rp1305
(I1
(I3
tp1306
g14
(S'f8'
p1307
I0
I1
tp1308
Rp1309
(I3
S'<'
p1310
NNNI-1
I-1
I0
tp1311
bI00
S'HR\x9c\xea\xf2@:@\x81\xbb\xb8\xd5k2M\xc0A\x9c\xc5B9h\xf1?'
p1312
tp1313
bsS'secnames'
p1314
S'Cell[1].axon[51]'
p1315
sI83
I127
tp1316
a(F1.800302227955414
S'Cell[2].dend[16] syn_ = new FastInhib(0.166666666667)'
p1317
I2
(dp1318
g1299
F0.5
sg1300
F35.0
sg1301
I83
sg1302
g7
(g8
(I0
tp1319
g10
tp1320
Rp1321
(I1
(I3
tp1322
g1309
I00
S'\xc2\xc0\x1d\xdc\x98hB@|\x1c,\xcb\xb8N^\xc0\xe3+ks\x8biA\xc0'
p1323
tp1324
bsg1314
S'Cell[1].axon[104]'
p1325
sI83
I127
tp1326
a(F0.1292477873779342
S'Cell[1].dend[70] syn_ = new ExpSid(0.0714285714286)'
p1327
I1
(dp1328
g1299
F0.8333333333333333
sg1300
F35.0
sg1301
I83
sg1302
g7
(g8
(I0
tp1329
g10
tp1330
Rp1331
(I1
(I3
tp1332
g1309
I00
S'\xa6+\xf5\xd9\xdf\xa1"\xc0\xf8\x1e\x08C\xe0PO\xc0%wjw\x88\x93Q\xc0'
p1333
tp1334
bsg1314
S'Cell[1].axon[234]'
p1335
sI83
I79
tp1336
a(F2.144881671253913
S'Cell[0].dend[15] syn_ = new ExpSid(0.5)'
p1337
I0
(dp1338
g1299
F0.5
sg1300
F35.0
sg1301
I35
sg1302
g7
(g8
(I0
tp1339
g10
tp1340
Rp1341
(I1
(I3
tp1342
g1309
I00
S"\x8d\xac\t\xe9\xa2'B\xc0\xae6\x1a5\x8a\x0eD\xc0\x10vr|\xad\xf2\x02@"
p1343
tp1344
bsg1314
S'Cell[0].axon[11]'
p1345
sI35
I31
tp1346
a(F1.9537325373544205
S'Cell[0].apic[14] syn_ = new ExpSid(0.3)'
p1347
I0
(dp1348
g1299
F0.5
sg1300
F35.0
sg1301
I179
sg1302
g7
(g8
(I0
tp1349
g10
tp1350
Rp1351
(I1
(I3
tp1352
g1309
I00
S'\xfe\xa8F\xb1\xb4m\x1a@\xd5\xcd\x14\xac\x03\xbe<@L\x88HN\xa6\x80\x17@'
p1353
tp1354
bsg1314
S'Cell[3].axon[33]'
p1355
sI179
I31
tp1356
a(F1.948128424016076
S'Cell[1].dend[81] syn_ = new AmpaNmda(0.5)'
p1357
I1
(dp1358
S'seg'
p1359
F0.5
sS'hostfrom'
p1360
F36.0
sS'gid'
p1361
I84
sS'coords'
p1362
g7
(g8
(I0
tp1363
g10
tp1364
Rp1365
(I1
(I3
tp1366
g14
(S'f8'
p1367
I0
I1
tp1368
Rp1369
(I3
S'<'
p1370
NNNI-1
I-1
I0
tp1371
bI00
S'Y\xa3\xd0C\x03^.@Z;\x1f\xb4\xd3\x105@\xbc\xf2z\xa4\xae$S\xc0'
p1372
tp1373
bsS'secnames'
p1374
S'Cell[1].axon[560]'
p1375
sI84
I79
tp1376
a(F1.42713348459786
S'Cell[2].dend[4] syn_ = new FastInhib(0.5)'
p1377
I2
(dp1378
g1359
F0.6111111111111112
sg1360
F36.0
sg1361
I132
sg1362
g7
(g8
(I0
tp1379
g10
tp1380
Rp1381
(I1
(I3
tp1382
g1369
I00
S',\xe3S\xd5\xdd\x1e8@\x9cqp< \x1fP\xc0\xa4\xa8P;\xack\xf5?'
p1383
tp1384
bsg1374
S'Cell[2].axon[35]'
p1385
sI132
I127
tp1386
a(F2.2859026605142243
S'Cell[1].dend[24] syn_ = new AmpaNmda(0.5)'
p1387
I1
(dp1388
g1359
F0.16666666666666666
sg1360
F36.0
sg1361
I132
sg1362
g7
(g8
(I0
tp1389
g10
tp1390
Rp1391
(I1
(I3
tp1392
g1369
I00
S'\x85\xef\xcf\x9b\nbX@\xeee\x99\x92\xfc\xc9+@\x14]\xcc\xa6:%\x1f@'
p1393
tp1394
bsg1374
S'Cell[2].axon[103]'
p1395
sI132
I79
tp1396
a(F1.8990897693648048
S'Cell[2].dend[34] syn_ = new FastInhib(0.5)'
p1397
I2
(dp1398
g1359
F0.8999999999999999
sg1360
F36.0
sg1361
I132
sg1362
g7
(g8
(I0
tp1399
g10
tp1400
Rp1401
(I1
(I3
tp1402
g1369
I00
S'|\xce\xa9k7|U@\xe9"\xb4C\xef\xe3Q\xc0\x00\x00\x00\xa0p}6@'
p1403
tp1404
bsg1374
S'Cell[2].axon[115]'
p1405
sI132
I127
tp1406
a(F1.339214401748244
S'Cell[1].dend[62] syn_ = new AmpaNmda(0.1)'
p1407
I1
(dp1408
g1359
F0.5
sg1360
F36.0
sg1361
I180
sg1362
g7
(g8
(I0
tp1409
g10
tp1410
Rp1411
(I1
(I3
tp1412
g1369
I00
S'\x00\x00\x00\x00\xd7\x033\xc0\x00\x00\x00\x90\xc2}P\xc0\x00\x00\x00\xb0pmI\xc0'
p1413
tp1414
bsg1374
S'Cell[3].axon[60]'
p1415
sI180
I79
tp1416
a(F2.1208422609510005
S'Cell[1].apic[2] syn_ = new AmpaNmda(0.5)'
p1417
I1
(dp1418
g1359
F0.21428571428571427
sg1360
F36.0
sg1361
I180
sg1362
g7
(g8
(I0
tp1419
g10
tp1420
Rp1421
(I1
(I3
tp1422
g1369
I00
S'\nu\xc4\xdf{6;@\x00\xf1)LH\xbba@\x86\x16x\x116\xe1E\xc0'
p1423
tp1424
bsg1374
S'Cell[3].axon[207]'
p1425
sI180
I79
tp1426
a(F2.2685154733672355
S'Cell[2].dend[28] syn_ = new FastInhib(0.642857142857)'
p1427
I2
(dp1428
g1359
F0.8333333333333333
sg1360
F36.0
sg1361
I180
sg1362
g7
(g8
(I0
tp1429
g10
tp1430
Rp1431
(I1
(I3
tp1432
g1369
I00
S'^B\x91\x15Z\xd55@\x06\x817K\xd5\x16j\xc0\x00\x00\x00\xe0\xa3p\x14\xc0'
p1433
tp1434
bsg1374
S'Cell[3].axon[257]'
p1435
sI180
I127
tp1436
a(F1.287115681344051
S'Cell[3].dend[10] syn_ = new FastInhib(0.5)'
p1437
I3
(dp1438
S'seg'
p1439
F0.1
sS'hostfrom'
p1440
F37.0
sS'gid'
p1441
I133
sS'coords'
p1442
g7
(g8
(I0
tp1443
g10
tp1444
Rp1445
(I1
(I3
tp1446
g14
(S'f8'
p1447
I0
I1
tp1448
Rp1449
(I3
S'<'
p1450
NNNI-1
I-1
I0
tp1451
bI00
S'(5i&\x00\xc62\xc0\xa7-~d\x9fk@@\x85\xbd\xbd\xf3:e\x18\xc0'
p1452
tp1453
bsS'secnames'
p1454
S'Cell[2].axon[73]'
p1455
sI133
I175
tp1456
a(F1.9406279951634122
S'Cell[1].dend[31] syn_ = new AmpaNmda(0.1)'
p1457
I1
(dp1458
S'seg'
p1459
F0.5
sS'hostfrom'
p1460
F38.0
sS'gid'
p1461
I182
sS'coords'
p1462
g7
(g8
(I0
tp1463
g10
tp1464
Rp1465
(I1
(I3
tp1466
g14
(S'f8'
p1467
I0
I1
tp1468
Rp1469
(I3
S'<'
p1470
NNNI-1
I-1
I0
tp1471
bI00
S'\xa0\x94\x82\xd0k\x1eY@Z\x06K\x18\x0f\xa6E\xc0dqi\xce%\xf2G\xc0'
p1472
tp1473
bsS'secnames'
p1474
S'Cell[3].axon[392]'
p1475
sI182
I79
tp1476
a(F1.509652875432362
S'Cell[2].dend[12] syn_ = new FastInhib(0.5)'
p1477
I2
(dp1478
g1459
F0.5
sg1460
F38.0
sg1461
I86
sg1462
g7
(g8
(I0
tp1479
g10
tp1480
Rp1481
(I1
(I3
tp1482
g1469
I00
S'\xe0k<+T\xa4E@\x89j\x8b\xbc}%[\xc0B\x8e-_\xdb\xc18\xc0'
p1483
tp1484
bsg1474
S'Cell[1].axon[222]'
p1485
sI86
I127
tp1486
a(F1.8369603400091477
S'Cell[1].dend[19] syn_ = new ExpSid(0.5)'
p1487
I1
(dp1488
S'seg'
p1489
F0.1
sS'hostfrom'
p1490
F39.0
sS'gid'
p1491
I87
sS'coords'
p1492
g7
(g8
(I0
tp1493
g10
tp1494
Rp1495
(I1
(I3
tp1496
g14
(S'f8'
p1497
I0
I1
tp1498
Rp1499
(I3
S'<'
p1500
NNNI-1
I-1
I0
tp1501
bI00
S'$\xbb\xb34!<K@\xe9\x8c\x86/\xb3R&@\xe9J\xb6\xaf\xaa\xfe\x02@'
p1502
tp1503
bsS'secnames'
p1504
S'Cell[1].axon[77]'
p1505
sI87
I79
tp1506
a(F2.3824854126640918
S'Cell[1].dend[44] syn_ = new ExpSid(0.5)'
p1507
I1
(dp1508
g1489
F0.30000000000000004
sg1490
F39.0
sg1491
I87
sg1492
g7
(g8
(I0
tp1509
g10
tp1510
Rp1511
(I1
(I3
tp1512
g1499
I00
S'X!\xe0\x00\xaa8 \xc0\xdf\xfcE\x82\xb2\xc9?@\x00\x00\x00\x00\x00\x00&\xc0'
p1513
tp1514
bsg1504
S'Cell[1].axon[106]'
p1515
sI87
I79
tp1516
a(F1.3321864327092805
S'Cell[2].dend[37] syn_ = new FastInhib(0.833333333333)'
p1517
I2
(dp1518
g1489
F0.8333333333333333
sg1490
F39.0
sg1491
I135
sg1492
g7
(g8
(I0
tp1519
g10
tp1520
Rp1521
(I1
(I3
tp1522
g1499
I00
S'\x90\xab\xc0^M\xeeI@\xb3(q\xccC\xb8V@DC\xf40\xaa[\x12\xc0'
p1523
tp1524
bsg1504
S'Cell[2].axon[89]'
p1525
sI135
I127
tp1526
a(F1.9752382524386736
S'Cell[1].apic[81] syn_ = new ExpSid(0.5)'
p1527
I1
(dp1528
g1489
F0.5
sg1490
F39.0
sg1491
I135
sg1492
g7
(g8
(I0
tp1529
g10
tp1530
Rp1531
(I1
(I3
tp1532
g1499
I00
S'%\xe1^\xb9\x16PD@\xd9\x83\x8e?\xe1cc@\xb3\x81\xa5\x92Y\xaf@\xc0'
p1533
tp1534
bsg1504
S'Cell[2].axon[128]'
p1535
sI135
I79
tp1536
a(F2.197604511402332
S'Cell[0].apic[11] syn_ = new ExpSid(0.5)'
p1537
I0
(dp1538
g1489
F0.11538461538461539
sg1490
F39.0
sg1491
I183
sg1492
g7
(g8
(I0
tp1539
g10
tp1540
Rp1541
(I1
(I3
tp1542
g1499
I00
S'B\xcd\\Bs\xc63\xc0\x006s\x80%\x89\xc4?x\x16\xd5\xb6\xa4c\x10@'
p1543
tp1544
bsg1504
S'Cell[3].axon[143]'
p1545
sI183
I31
tp1546
a(F2.0386505386693825
S'Cell[3].dend[18] syn_ = new FastInhib(0.5)'
p1547
I3
(dp1548
S'seg'
p1549
F0.16666666666666666
sS'hostfrom'
p1550
F40.0
sS'gid'
p1551
I88
sS'coords'
p1552
g7
(g8
(I0
tp1553
g10
tp1554
Rp1555
(I1
(I3
tp1556
g14
(S'f8'
p1557
I0
I1
tp1558
Rp1559
(I3
S'<'
p1560
NNNI-1
I-1
I0
tp1561
bI00
S'I\xec\x98^e<>\xc0Y\xe1\x92T\x0bO\xe0?\x00\x00\x00\xa0p=\xfe\xbf'
p1562
tp1563
bsS'secnames'
p1564
S'Cell[1].axon[247]'
p1565
sI88
I175
tp1566
a(F2.454423744899743
S'Cell[3].dend[14] syn_ = new FastInhib(0.1)'
p1567
I3
(dp1568
g1549
F0.8333333333333333
sg1550
F40.0
sg1551
I88
sg1552
g7
(g8
(I0
tp1569
g10
tp1570
Rp1571
(I1
(I3
tp1572
g1559
I00
S'\x00\x00\x00\xc0\x01\x805\xc03\x80*\xb4\x1a6D@\x00\x00\x00\xc0\x1e\x85\xe3\xbf'
p1573
tp1574
bsg1564
S'Cell[1].axon[289]'
p1575
sI88
I175
tp1576
a(F2.1424638702977488
S'Cell[3].dend[14] syn_ = new FastInhib(0.3)'
p1577
I3
(dp1578
g1549
F0.1
sg1550
F40.0
sg1551
I184
sg1552
g7
(g8
(I0
tp1579
g10
tp1580
Rp1581
(I1
(I3
tp1582
g1559
I00
S'B\xf2"\xbe\xb39*\xc0*\x99\xfd\xa3#\x90L@\xbe_<\x9f\xc7\xfc\'@'
p1583
tp1584
bsg1564
S'Cell[3].axon[10]'
p1585
sI184
I175
tp1586
a(F1.3132399504920569
S'Cell[2].dend[8] syn_ = new FastInhib(0.166666666667)'
p1587
I2
(dp1588
S'seg'
p1589
F0.16666666666666666
sS'hostfrom'
p1590
F41.0
sS'gid'
p1591
I41
sS'coords'
p1592
g7
(g8
(I0
tp1593
g10
tp1594
Rp1595
(I1
(I3
tp1596
g14
(S'f8'
p1597
I0
I1
tp1598
Rp1599
(I3
S'<'
p1600
NNNI-1
I-1
I0
tp1601
bI00
S'mx\xd1\xf1\x92{C@\xbc\xa1\xaa\xed4DJ\xc0j\xb5O\xa6\x94H\x12@'
p1602
tp1603
bsS'secnames'
p1604
S'Cell[0].axon[0]'
p1605
sI41
I127
tp1606
a(F1.666817447235601
S'Cell[1].apic[0] syn_ = new ExpSid(0.5)'
p1607
I1
(dp1608
g1589
F0.5
sg1590
F41.0
sg1591
I185
sg1592
g7
(g8
(I0
tp1609
g10
tp1610
Rp1611
(I1
(I3
tp1612
g1599
I00
S'\x87\xde\x85\xe6k\x0cC@!\x80\xc1\xa9\xd7\x88H@\x00\x00\x00\xa0GAJ\xc0'
p1613
tp1614
bsg1604
S'Cell[3].axon[21]'
p1615
sI185
I79
tp1616
a(F1.4000102585076137
S'Cell[1].dend[68] syn_ = new ExpSid(0.166666666667)'
p1617
I1
(dp1618
g1589
F0.7
sg1590
F41.0
sg1591
I89
sg1592
g7
(g8
(I0
tp1619
g10
tp1620
Rp1621
(I1
(I3
tp1622
g1599
I00
S'\xda\xc46\xf3\xa1\xa09@X\x16\x1e\x11\\\x168\xc0\xf8\xef\xfc\x00\xfc\xbbJ\xc0'
p1623
tp1624
bsg1604
S'Cell[1].axon[171]'
p1625
sI89
I79
tp1626
a(F2.397582420501078
S'Cell[0].dend[7] syn_ = new ExpSid(0.357142857143)'
p1627
I0
(dp1628
g1589
F0.8333333333333333
sg1590
F41.0
sg1591
I89
sg1592
g7
(g8
(I0
tp1629
g10
tp1630
Rp1631
(I1
(I3
tp1632
g1599
I00
S'\x1b\x95r\n\xfa\xa3\x07@\x83\x97\xd2\x8b\x83\xabP\xc0c\x99Q\xf1\xbev3\xc0'
p1633
tp1634
bsg1604
S'Cell[1].axon[174]'
p1635
sI89
I31
tp1636
a(F1.1202856417484028
S'Cell[1].dend[51] syn_ = new AmpaNmda(0.5)'
p1637
I1
(dp1638
S'seg'
p1639
F0.5
sS'hostfrom'
p1640
F42.0
sS'gid'
p1641
I42
sS'coords'
p1642
g7
(g8
(I0
tp1643
g10
tp1644
Rp1645
(I1
(I3
tp1646
g14
(S'f8'
p1647
I0
I1
tp1648
Rp1649
(I3
S'<'
p1650
NNNI-1
I-1
I0
tp1651
bI00
S'\x00\x00\x00\x08\x00 @@\x00\x00\x00\xe0\xa3p\r\xc0\x00\x00\x00\xa0\x99\x19!\xc0'
p1652
tp1653
bsS'secnames'
p1654
S'Cell[0].soma[0]'
p1655
sI42
I79
tp1656
a(F1.6923440393939653
S'Cell[2].dend[9] syn_ = new FastInhib(0.166666666667)'
p1657
I2
(dp1658
g1639
F0.5
sg1640
F42.0
sg1641
I42
sg1642
g7
(g8
(I0
tp1659
g10
tp1660
Rp1661
(I1
(I3
tp1662
g1649
I00
S'\x00\x00\x00\x90\xc2ED@\x00\x00\x00\xc0\xf5(T\xc0\x00\x00\x00\x80\xebQ\t\xc0'
p1663
tp1664
bsg1654
S'Cell[0].axon[3]'
p1665
sI42
I127
tp1666
a(F1.0659633516271876
S'Cell[3].dend[20] syn_ = new FastInhib(0.833333333333)'
p1667
I3
(dp1668
g1639
F0.7
sg1640
F42.0
sg1641
I90
sg1642
g7
(g8
(I0
tp1669
g10
tp1670
Rp1671
(I1
(I3
tp1672
g1649
I00
S'\x00\x00\x00\x80=jD\xc0\x00\x00\x00\x80\xeb\x11C\xc0DD\xdaU\xad\xc7\x00\xc0'
p1673
tp1674
bsg1654
S'Cell[1].axon[24]'
p1675
sI90
I175
tp1676
a(F1.2657810445706514
S'Cell[2].dend[6] syn_ = new FastInhib(0.9)'
p1677
I2
(dp1678
g1639
F0.5
sg1640
F42.0
sg1641
I90
sg1642
g7
(g8
(I0
tp1679
g10
tp1680
Rp1681
(I1
(I3
tp1682
g1649
I00
S'Z\xea\xddT?\xafE\xc0\xd0m>\xd9\x82\x02[\xc0\x8e\xcb\x8d\xb0\xbb\xa3-@'
p1683
tp1684
bsg1654
S'Cell[1].axon[61]'
p1685
sI90
I127
tp1686
a(F2.331572110106238
S'Cell[1].dend[21] syn_ = new AmpaNmda(0.5)'
p1687
I1
(dp1688
g1639
F0.03333333333333333
sg1640
F42.0
sg1641
I138
sg1642
g7
(g8
(I0
tp1689
g10
tp1690
Rp1691
(I1
(I3
tp1692
g1649
I00
S'\xcd\xf2\xee\xb1\xa58P@G\xf8\xea\x7f\xc91\xfc\xbf\x19\xf5\xd3\xb5\x03_\xf0\xbf'
p1693
tp1694
bsg1654
S'Cell[2].axon[139]'
p1695
sI138
I79
tp1696
a(F1.7907069520289924
S'Cell[1].dend[59] syn_ = new AmpaNmda(0.7)'
p1697
I1
(dp1698
g1639
F0.16666666666666666
sg1640
F42.0
sg1641
I186
sg1642
g7
(g8
(I0
tp1699
g10
tp1700
Rp1701
(I1
(I3
tp1702
g1649
I00
S'\xcc/\x1b\xa9\xe2!C@h\xea\xdb=*\x9c]\xc0r\r\xdc\x96\xaa\xbe&\xc0'
p1703
tp1704
bsg1654
S'Cell[3].axon[45]'
p1705
sI186
I79
tp1706
a(F2.384357367638583
S'Cell[0].dend[1] syn_ = new ExpSid(0.5)'
p1707
I0
(dp1708
S'seg'
p1709
F0.16666666666666666
sS'hostfrom'
p1710
F43.0
sS'gid'
p1711
I43
sS'coords'
p1712
g7
(g8
(I0
tp1713
g10
tp1714
Rp1715
(I1
(I3
tp1716
g14
(S'f8'
p1717
I0
I1
tp1718
Rp1719
(I3
S'<'
p1720
NNNI-1
I-1
I0
tp1721
bI00
S'\xe4A\x1bHk\x97B\xc0\x1a\xd5\xfe2\xd9\x91<\xc0V\xf3\x86\xee\xda\xab\x1d@'
p1722
tp1723
bsS'secnames'
p1724
S'Cell[0].axon[0]'
p1725
sI43
I31
tp1726
a(F0.9889008612477567
S'Cell[1].dend[32] syn_ = new ExpSid(0.833333333333)'
p1727
I1
(dp1728
g1709
F0.5
sg1710
F43.0
sg1711
I139
sg1712
g7
(g8
(I0
tp1729
g10
tp1730
Rp1731
(I1
(I3
tp1732
g1719
I00
S'\xf6]\xc4.\x06Q`@@\x98\xffv\x81\xd2V\xc0\x00\x00\x00\xe0\xa3p"\xc0'
p1733
tp1734
bsg1724
S'Cell[2].axon[153]'
p1735
sI139
I79
tp1736
a(F2.276371636576532
S'Cell[1].dend[4] syn_ = new ExpSid(0.5)'
p1737
I1
(dp1738
g1709
F0.8333333333333333
sg1710
F43.0
sg1711
I139
sg1712
g7
(g8
(I0
tp1739
g10
tp1740
Rp1741
(I1
(I3
tp1742
g1719
I00
S'z\x8b\xd2\x0b\x8e\xe9Z@R\x0c\xb9\x06\x1e2#@\x00\x00\x00\x00)\\\r\xc0'
p1743
tp1744
bsg1724
S'Cell[2].axon[197]'
p1745
sI139
I79
tp1746
a(F0.5818771786380876
S'Cell[3].dend[0] syn_ = new FastInhib(0.5)'
p1747
I3
(dp1748
g1709
F0.5
sg1710
F43.0
sg1711
I139
sg1712
g7
(g8
(I0
tp1749
g10
tp1750
Rp1751
(I1
(I3
tp1752
g1719
I00
S'hp\x9a\x90\xf3\x11S\xc0\xfe\xffi\xe99\xac,@\n\xb6\xe5\x17\nnQ\xc0'
p1753
tp1754
bsg1724
S'Cell[2].axon[291]'
p1755
sI139
I175
tp1756
a(F2.1144646981242836
S'Cell[3].dend[29] syn_ = new FastInhib(0.5)'
p1757
I3
(dp1758
g1709
F0.5
sg1710
F43.0
sg1711
I187
sg1712
g7
(g8
(I0
tp1759
g10
tp1760
Rp1761
(I1
(I3
tp1762
g1719
I00
S'Rv\xc0\xf1\xa3\x87\x99?\x94\xc4I9\xa4\xc2C\xc0?\x96&\x06\x8a\x12T\xc0'
p1763
tp1764
bsg1724
S'Cell[3].axon[140]'
p1765
sI187
I175
tp1766
a(F1.6271007348607218
S'Cell[0].dend[7] syn_ = new ExpSid(0.642857142857)'
p1767
I0
(dp1768
g1709
F0.5
sg1710
F43.0
sg1711
I187
sg1712
g7
(g8
(I0
tp1769
g10
tp1770
Rp1771
(I1
(I3
tp1772
g1719
I00
S'{\xfc\xc3\xb6L\xc7@@A\x14w\x15C\xcaY\xc07sZ\xf4\xd5\xf0=\xc0'
p1773
tp1774
bsg1724
S'Cell[3].axon[151]'
p1775
sI187
I31
tp1776
a(F2.1532704187940768
S'Cell[3].dend[15] syn_ = new FastInhib(0.166666666667)'
p1777
I3
(dp1778
S'seg'
p1779
F0.16666666666666666
sS'hostfrom'
p1780
F44.0
sS'gid'
p1781
I188
sS'coords'
p1782
g7
(g8
(I0
tp1783
g10
tp1784
Rp1785
(I1
(I3
tp1786
g14
(S'f8'
p1787
I0
I1
tp1788
Rp1789
(I3
S'<'
p1790
NNNI-1
I-1
I0
tp1791
bI00
S'\x83\x1c\xe9\x9f\xce\x846\xc0>y\xed\xba\x01/E@\xb6eP\xdd\x19>\xfa?'
p1792
tp1793
bsS'secnames'
p1794
S'Cell[3].axon[22]'
p1795
sI188
I175
tp1796
a(F2.255148338358255
S'Cell[0].apic[20] syn_ = new AmpaNmda(0.5)'
p1797
I0
(dp1798
g1779
F0.5
sg1780
F44.0
sg1781
I188
sg1782
g7
(g8
(I0
tp1799
g10
tp1800
Rp1801
(I1
(I3
tp1802
g1789
I00
S'\x9c_\xdcQ?\\9\xc0\x91\xb2~O\x9b\t1@\xd7\xd8\xa6T\nH\x17@'
p1803
tp1804
bsg1794
S'Cell[3].axon[36]'
p1805
sI188
I31
tp1806
a(F1.2336532441869474
S'Cell[2].dend[27] syn_ = new FastInhib(0.7)'
p1807
I2
(dp1808
g1779
F0.1
sg1780
F44.0
sg1781
I188
sg1782
g7
(g8
(I0
tp1809
g10
tp1810
Rp1811
(I1
(I3
tp1812
g1789
I00
S'\xf2\xf3\x0e\xb9\x0f\x9a>@\x88\xec\x92;\x02\x9dZ\xc0\xc4\xbf\x05+\xf5\xef+@'
p1813
tp1814
bsg1794
S'Cell[3].axon[64]'
p1815
sI188
I127
tp1816
a(F2.2797907255171297
S'Cell[3].dend[0] syn_ = new FastInhib(0.1)'
p1817
I3
(dp1818
g1779
F0.21428571428571427
sg1780
F44.0
sg1781
I188
sg1782
g7
(g8
(I0
tp1819
g10
tp1820
Rp1821
(I1
(I3
tp1822
g1789
I00
S'\xd5(\xb3INiD\xc0\x81 9\x0e\x01\x025@\x14E\xadp\xa9\xf9:\xc0'
p1823
tp1824
bsg1794
S'Cell[3].axon[156]'
p1825
sI188
I175
tp1826
a(F2.054490378059482
S'Cell[1].dend[57] syn_ = new ExpSid(0.5)'
p1827
I1
(dp1828
S'seg'
p1829
F0.5
sS'hostfrom'
p1830
F45.0
sS'gid'
p1831
I141
sS'coords'
p1832
g7
(g8
(I0
tp1833
g10
tp1834
Rp1835
(I1
(I3
tp1836
g14
(S'f8'
p1837
I0
I1
tp1838
Rp1839
(I3
S'<'
p1840
NNNI-1
I-1
I0
tp1841
bI00
S'\x00\x00\x00\xb0\x1eE;@\x00\x00\x00\x80\xeb\x918\xc0\x00\x00\x00\xc0\x1e\xa5C\xc0'
p1842
tp1843
bsS'secnames'
p1844
S'Cell[2].axon[43]'
p1845
sI141
I79
tp1846
a(F2.351368897060444
S'Cell[1].dend[51] syn_ = new ExpSid(0.5)'
p1847
I1
(dp1848
g1829
F0.16666666666666666
sg1830
F45.0
sg1831
I141
sg1832
g7
(g8
(I0
tp1849
g10
tp1850
Rp1851
(I1
(I3
tp1852
g1839
I00
S'\x94\x912\xb8\x1a\x1d@@\x9a\xd2d\xa5V%\n\xc0T^\x0f\xa9\xf5(\x19\xc0'
p1853
tp1854
bsg1844
S'Cell[2].axon[61]'
p1855
sI141
I79
tp1856
a(F2.0590824027203833
S'Cell[1].dend[5] syn_ = new ExpSid(0.0714285714286)'
p1857
I1
(dp1858
g1829
F0.5
sg1830
F45.0
sg1831
I141
sg1832
g7
(g8
(I0
tp1859
g10
tp1860
Rp1861
(I1
(I3
tp1862
g1839
I00
S'^\x03\x00)\xfe\x0eZ@\x90?i\x18q\xae4@9\x96\xc4X\x02\x88F\xc0'
p1863
tp1864
bsg1844
S'Cell[2].axon[124]'
p1865
sI141
I79
tp1866
a(F2.3494573224946476
S'Cell[1].dend[20] syn_ = new ExpSid(0.5)'
p1867
I1
(dp1868
g1829
F0.5
sg1830
F45.0
sg1831
I141
sg1832
g7
(g8
(I0
tp1869
g10
tp1870
Rp1871
(I1
(I3
tp1872
g1839
I00
S'\xdcj!r<\x1dP@ \xff\xdb\x82\xe2"\x07@4E\xd8\xa0\xfdZ\x1d\xc0'
p1873
tp1874
bsg1844
S'Cell[2].axon[534]'
p1875
sI141
I79
tp1876
a(F1.4266048370411892
S'Cell[1].dend[44] syn_ = new ExpSid(0.5)'
p1877
I1
(dp1878
g1829
F0.5
sg1830
F45.0
sg1831
I93
sg1832
g7
(g8
(I0
tp1879
g10
tp1880
Rp1881
(I1
(I3
tp1882
g1839
I00
S'\x00\x00\x00P\xb8\x9e$\xc0\x00\x00\x00 \x85\xeb@@\x00\x00\x00\x00\x00@$\xc0'
p1883
tp1884
bsg1844
S'Cell[1].axon[164]'
p1885
sI93
I79
tp1886
a(F2.338380271931187
S'Cell[3].dend[15] syn_ = new FastInhib(0.166666666667)'
p1887
I3
(dp1888
g1829
F0.5
sg1830
F45.0
sg1831
I93
sg1832
g7
(g8
(I0
tp1889
g10
tp1890
Rp1891
(I1
(I3
tp1892
g1839
I00
S'\x0e\xc5\x8a\xcc!!4\xc0\x1f\x99\xa0\xda\xb2,F@\xbc~\xb1B$\xba\xf5?'
p1893
tp1894
bsg1844
S'Cell[1].axon[211]'
p1895
sI93
I175
tp1896
a(F1.3270876555333433
S'Cell[2].dend[13] syn_ = new FastInhib(0.5)'
p1897
I2
(dp1898
S'seg'
p1899
F0.7
sS'hostfrom'
p1900
F46.0
sS'gid'
p1901
I94
sS'coords'
p1902
g7
(g8
(I0
tp1903
g10
tp1904
Rp1905
(I1
(I3
tp1906
g14
(S'f8'
p1907
I0
I1
tp1908
Rp1909
(I3
S'<'
p1910
NNNI-1
I-1
I0
tp1911
bI00
S' \x87\x85\x02\x16wF@U\xef\xc5\xa1\xd2*`\xc0"\xa6\x89\xf02\x93A\xc0'
p1912
tp1913
bsS'secnames'
p1914
S'Cell[1].axon[128]'
p1915
sI94
I127
tp1916
a(F1.570104602554472
S'Cell[0].apic[23] syn_ = new AmpaNmda(0.1)'
p1917
I0
(dp1918
g1899
F0.5
sg1900
F46.0
sg1901
I94
sg1902
g7
(g8
(I0
tp1919
g10
tp1920
Rp1921
(I1
(I3
tp1922
g1909
I00
S'\x00\x00\x00\xa0\xc2U1\xc0\x00\x00\x00P\xe1\x1a9@\x00\x00\x00\x90\xebq2\xc0'
p1923
tp1924
bsg1914
S'Cell[1].axon[305]'
p1925
sI94
I31
tp1926
a(F2.260596575847271
S'Cell[0].apic[26] syn_ = new AmpaNmda(0.0333333333333)'
p1927
I0
(dp1928
g1899
F0.5
sg1900
F46.0
sg1901
I94
sg1902
g7
(g8
(I0
tp1929
g10
tp1930
Rp1931
(I1
(I3
tp1932
g1909
I00
S'\x00\x00\x00\xf0(\xbc>\xc0\x00\x00\x0003#K@\x00\x00\x00p=\n\x15\xc0'
p1933
tp1934
bsg1914
S'Cell[1].axon[357]'
p1935
sI94
I31
tp1936
a(F1.990313169578177
S'Cell[1].dend[72] syn_ = new ExpSid(0.722222222222)'
p1937
I1
(dp1938
S'seg'
p1939
F0.8999999999999999
sS'hostfrom'
p1940
F47.0
sS'gid'
p1941
I95
sS'coords'
p1942
g7
(g8
(I0
tp1943
g10
tp1944
Rp1945
(I1
(I3
tp1946
g14
(S'f8'
p1947
I0
I1
tp1948
Rp1949
(I3
S'<'
p1950
NNNI-1
I-1
I0
tp1951
bI00
S'.\x89,\xec\x00\xa7R@\xbf\x1c\x8e\n\xeb\xea^\xc0\xaa\xfd\xd7wd\xefW\xc0'
p1952
tp1953
bsS'secnames'
p1954
S'Cell[1].axon[102]'
p1955
sI95
I79
tp1956
a(F2.1769915215933704
S'Cell[1].dend[59] syn_ = new ExpSid(0.1)'
p1957
I1
(dp1958
g1939
F0.8333333333333333
sg1940
F47.0
sg1941
I95
sg1942
g7
(g8
(I0
tp1959
g10
tp1960
Rp1961
(I1
(I3
tp1962
g1949
I00
S'Y\xb61\xb1^\xadA@x\x8c<\xfe:0G\xc0\xb7\xecy\xcf\xbcS>\xc0'
p1963
tp1964
bsg1954
S'Cell[1].axon[320]'
p1965
sI95
I79
tp1966
a(F2.2554651729775514
S'Cell[0].apic[6] syn_ = new ExpSid(0.7)'
p1967
I0
(dp1968
g1939
F0.8333333333333333
sg1940
F47.0
sg1941
I143
sg1942
g7
(g8
(I0
tp1969
g10
tp1970
Rp1971
(I1
(I3
tp1972
g1949
I00
S'\xa6\r\x17ao\x04T\xc0D\x86\x98\x9c\x18\xfbS@\x00\x00\x00\x80\xebQ3\xc0'
p1973
tp1974
bsg1954
S'Cell[2].axon[10]'
p1975
sI143
I31
tp1976
a(F2.324687023042422
S'Cell[3].dend[14] syn_ = new FastInhib(0.3)'
p1977
I3
(dp1978
g1939
F0.1
sg1940
F47.0
sg1941
I143
sg1942
g7
(g8
(I0
tp1979
g10
tp1980
Rp1981
(I1
(I3
tp1982
g1949
I00
S'\x17\x8by\xef\xd4\xd9)\xc0\xd1\xe9\x0c!\xa9\x84M@\xad\xe9\xa3Q\x05\x82 @'
p1983
tp1984
bsg1954
S'Cell[2].axon[107]'
p1985
sI143
I175
tp1986
a(F2.4688071823242077
S'Cell[1].apic[97] syn_ = new ExpSid(0.5)'
p1987
I1
(dp1988
g1939
F0.16666666666666666
sg1940
F47.0
sg1941
I143
sg1942
g7
(g8
(I0
tp1989
g10
tp1990
Rp1991
(I1
(I3
tp1992
g1949
I00
S'.\x00\xc9H[R)\xc0 \xa5c\xab\xb1\x03e@\xe9\xa9.)3\x80\x1c@'
p1993
tp1994
bsg1954
S'Cell[2].axon[131]'
p1995
sI143
I79
tp1996
a(F1.8422626665347346
S'Cell[3].dend[5] syn_ = new FastInhib(0.0714285714286)'
p1997
I3
(dp1998
g1939
F0.5
sg1940
F47.0
sg1941
I143
sg1942
g7
(g8
(I0
tp1999
g10
tp2000
Rp2001
(I1
(I3
tp2002
g1949
I00
S'\x00\x00\x00\x80)\xdc"\xc0\x00\x00\x00\xc0\xcc\x0cH@\x00\x00\x00\xc0\xcc\xec>\xc0'
p2003
tp2004
bsg1954
S'Cell[2].axon[231]'
p2005
sI143
I175
tp2006
a(F1.8308188281591848
S'Cell[1].dend[45] syn_ = new ExpSid(0.7)'
p2007
I1
(dp2008
g1939
F0.1
sg1940
F47.0
sg1941
I47
sg1942
g7
(g8
(I0
tp2009
g10
tp2010
Rp2011
(I1
(I3
tp2012
g1949
I00
S'P\xad\xa3nP\xc1K\xc0\xab\xa3B\xeb>\xecN@\x00\x00\x00\xa0\x99\xd91\xc0'
p2013
tp2014
bsg1954
S'Cell[0].axon[37]'
p2015
sI47
I79
tp2016
a.