(lp0
(F2.038847092524988
S'Cell[0].dend[0] syn_ = new ExpSid(0.5)'
p1
I0
(dp2
S'seg'
p3
F0.5
sS'hostfrom'
p4
F1.0
sS'gid'
p5
I97
sS'coords'
p6
cnumpy.core.multiarray
_reconstruct
p7
(cnumpy
ndarray
p8
(I0
tp9
S'b'
p10
tp11
Rp12
(I1
(I3
tp13
cnumpy
dtype
p14
(S'f8'
p15
I0
I1
tp16
Rp17
(I3
S'<'
p18
NNNI-1
I-1
I0
tp19
bI00
S'1\x84\xc4\xc2\x05\xa8D@\xd7\xdc\x87\xad?\x98\x1e@\x93\x8c\xbb\xd4\x1cVF\xc0'
p20
tp21
bsS'secnames'
p22
S'Cell[2].axon[81]'
p23
sI97
I9
tp24
a(F1.1690744489627298
S'Cell[0].apic[27] syn_ = new ExpSid(0.357142857143)'
p25
I0
(dp26
g3
F0.3571428571428571
sg4
F1.0
sg5
I97
sg6
g7
(g8
(I0
tp27
g10
tp28
Rp29
(I1
(I3
tp30
g17
I00
S'2B{W\x0b\xad3@\x97ukgZ\x90Q@\x16\x1f\xf1i\xee\xa8A\xc0'
p31
tp32
bsg22
S'Cell[2].axon[204]'
p33
sI97
I9
tp34
a(F2.26510046378668
S'Cell[2].dend[17] syn_ = new FastInhib(0.5)'
p35
I2
(dp36
S'seg'
p37
F0.8333333333333333
sS'hostfrom'
p38
F2.0
sS'gid'
p39
I98
sS'coords'
p40
g7
(g8
(I0
tp41
g10
tp42
Rp43
(I1
(I3
tp44
g14
(S'f8'
p45
I0
I1
tp46
Rp47
(I3
S'<'
p48
NNNI-1
I-1
I0
tp49
bI00
S'Q)\x1e\xde\xdd\xbd\x15\xc0jB\xad\xaaq\xb6C@\xa6\xd5G=J\x04/\xc0'
p50
tp51
bsS'secnames'
p52
S'Cell[2].axon[300]'
p53
sI98
I105
tp54
a(F1.9977926141137876
S'Cell[3].dend[27] syn_ = new FastInhib(0.5)'
p55
I3
(dp56
g37
F0.8333333333333333
sg38
F2.0
sg39
I98
sg40
g7
(g8
(I0
tp57
g10
tp58
Rp59
(I1
(I3
tp60
g47
I00
S'\x124k(\xd67H@ \x89a\x0c\x7f"D@\x92\xd2\xdf/mH\x1a@'
p61
tp62
bsg52
S'Cell[2].axon[374]'
p63
sI98
I153
tp64
a(F2.4787336615793527
S'Cell[0].dend[3] syn_ = new AmpaNmda(0.833333333333)'
p65
I0
(dp66
g37
F0.7
sg38
F2.0
sg39
I98
sg40
g7
(g8
(I0
tp67
g10
tp68
Rp69
(I1
(I3
tp70
g47
I00
S'\x87\xf5\x98uX\xefJ@\x1e\x97\xb9\x1f\xe8\x15#\xc0\x00\x00\x00@\n\xf7@\xc0'
p71
tp72
bsg52
S'Cell[2].axon[427]'
p73
sI98
I9
tp74
a(F2.26510046378668
S'Cell[2].dend[17] syn_ = new FastInhib(0.5)'
p75
I2
(dp76
S'seg'
p77
F0.8333333333333333
sS'hostfrom'
p78
F3.0
sS'gid'
p79
I99
sS'coords'
p80
g7
(g8
(I0
tp81
g10
tp82
Rp83
(I1
(I3
tp84
g14
(S'f8'
p85
I0
I1
tp86
Rp87
(I3
S'<'
p88
NNNI-1
I-1
I0
tp89
bI00
S'Q)\x1e\xde\xdd\xbd\x15\xc0jB\xad\xaaq\xb6C@\xa6\xd5G=J\x04/\xc0'
p90
tp91
bsS'secnames'
p92
S'Cell[2].axon[300]'
p93
sI99
I105
tp94
a(F1.9977926141137876
S'Cell[3].dend[27] syn_ = new FastInhib(0.5)'
p95
I3
(dp96
g77
F0.8333333333333333
sg78
F3.0
sg79
I99
sg80
g7
(g8
(I0
tp97
g10
tp98
Rp99
(I1
(I3
tp100
g87
I00
S'\x124k(\xd67H@ \x89a\x0c\x7f"D@\x92\xd2\xdf/mH\x1a@'
p101
tp102
bsg92
S'Cell[2].axon[374]'
p103
sI99
I153
tp104
a(F2.4787336615793527
S'Cell[0].dend[3] syn_ = new ExpSid(0.833333333333)'
p105
I0
(dp106
g77
F0.7
sg78
F3.0
sg79
I99
sg80
g7
(g8
(I0
tp107
g10
tp108
Rp109
(I1
(I3
tp110
g87
I00
S'\x87\xf5\x98uX\xefJ@\x1e\x97\xb9\x1f\xe8\x15#\xc0\x00\x00\x00@\n\xf7@\xc0'
p111
tp112
bsg92
S'Cell[2].axon[427]'
p113
sI99
I9
tp114
a(F2.3695967170761394
S'Cell[3].dend[16] syn_ = new FastInhib(0.166666666667)'
p115
I3
(dp116
S'seg'
p117
F0.5
sS'hostfrom'
p118
F4.0
sS'gid'
p119
I148
sS'coords'
p120
g7
(g8
(I0
tp121
g10
tp122
Rp123
(I1
(I3
tp124
g14
(S'f8'
p125
I0
I1
tp126
Rp127
(I3
S'<'
p128
NNNI-1
I-1
I0
tp129
bI00
S'\x00\x00\x00\xa0G\xe1;@\x00\x00\x00\xa0pmQ\xc0\x00\x00\x00 \x85\xeb\x10\xc0'
p130
tp131
bsS'secnames'
p132
S'Cell[3].soma[0]'
p133
sI148
I153
tp134
a(F2.0910635167395664
S'Cell[1].dend[3] syn_ = new AmpaNmda(0.366666666667)'
p135
I1
(dp136
g117
F0.5
sg118
F4.0
sg119
I148
sg120
g7
(g8
(I0
tp137
g10
tp138
Rp139
(I1
(I3
tp140
g127
I00
S'\x96\xfdt\xcb\xe7aM@g\xf3\x9a\x123\x88`@\x00\x00\x00 \x85KM\xc0'
p141
tp142
bsg132
S'Cell[3].axon[55]'
p143
sI148
I57
tp144
a(F1.9285697622768452
S'Cell[3].dend[17] syn_ = new FastInhib(0.5)'
p145
I3
(dp146
g117
F0.5
sg118
F4.0
sg119
I148
sg120
g7
(g8
(I0
tp147
g10
tp148
Rp149
(I1
(I3
tp150
g127
I00
S'\xe2\x18\r\xbd\xe9\xce!@\xaf\x03\x0b\xed\xab\xbba\xc0\xbf_{\xd0`\xd5.\xc0'
p151
tp152
bsg132
S'Cell[3].axon[117]'
p153
sI148
I153
tp154
a(F2.1970613797223266
S'Cell[0].apic[28] syn_ = new AmpaNmda(0.9)'
p155
I0
(dp156
g117
F0.8333333333333333
sg118
F4.0
sg119
I148
sg120
g7
(g8
(I0
tp157
g10
tp158
Rp159
(I1
(I3
tp160
g127
I00
S'\xd0\xe1\xcb\xb5\xf1~I@*\xcf\xe6Z\x08tQ@F\x83"\xac\xef\xb8B\xc0'
p161
tp162
bsg132
S'Cell[3].axon[260]'
p163
sI148
I9
tp164
a(F2.2277494206511705
S'Cell[3].dend[24] syn_ = new FastInhib(0.5)'
p165
I3
(dp166
g117
F0.5
sg118
F4.0
sg119
I148
sg120
g7
(g8
(I0
tp167
g10
tp168
Rp169
(I1
(I3
tp170
g127
I00
S'Z\x82G\x14\xea\xc5M@\x03\xc3\xb7B\\\x82\xf8\xbf\x80\x97\x05F\xdc\x15&@'
p171
tp172
bsg132
S'Cell[3].axon[328]'
p173
sI148
I153
tp174
a(F2.2164430186927415
S'Cell[0].apic[12] syn_ = new ExpSid(0.5)'
p175
I0
(dp176
S'seg'
p177
F0.8333333333333333
sS'hostfrom'
p178
F7.0
sS'gid'
p179
I103
sS'coords'
p180
g7
(g8
(I0
tp181
g10
tp182
Rp183
(I1
(I3
tp184
g14
(S'f8'
p185
I0
I1
tp186
Rp187
(I3
S'<'
p188
NNNI-1
I-1
I0
tp189
bI00
S'j$\xb7\xd9\xc1\xeeG\xc0X[\xa8\xb8\xea\x17k@8\xdcD\x8a,\xcb\x05@'
p190
tp191
bsS'secnames'
p192
S'Cell[2].axon[274]'
p193
sI103
I9
tp194
a(F2.4359676705114133
S'Cell[3].dend[28] syn_ = new FastInhib(0.166666666667)'
p195
I3
(dp196
g177
F0.16666666666666666
sg178
F7.0
sg179
I103
sg180
g7
(g8
(I0
tp197
g10
tp198
Rp199
(I1
(I3
tp200
g187
I00
S'\x08\x8d\x899T\x11C@muv\xa5\xec@K@\x00\x00\x00@\xe1z+@'
p201
tp202
bsg192
S'Cell[2].axon[341]'
p203
sI103
I153
tp204
a(F2.1940421168439044
S'Cell[1].dend[11] syn_ = new ExpSid(0.1)'
p205
I1
(dp206
g177
F0.8333333333333333
sg178
F7.0
sg179
I103
sg180
g7
(g8
(I0
tp207
g10
tp208
Rp209
(I1
(I3
tp210
g187
I00
S'4\xe5=\xca\xfd\xc2\x16@ x\x90I\xc1\x177\xc0\x00\x00\x00\x80\x14.$\xc0'
p211
tp212
bsg192
S'Cell[2].axon[369]'
p213
sI103
I57
tp214
a(F1.8089922232206663
S'Cell[1].dend[20] syn_ = new ExpSid(0.1)'
p215
I1
(dp216
g177
F0.5
sg178
F7.0
sg179
I103
sg180
g7
(g8
(I0
tp217
g10
tp218
Rp219
(I1
(I3
tp220
g187
I00
S'\x9c\xa6\x0bQ\x1c|6@\xa1\xa0^\x1d?\xecJ\xc0*Dl\xd3\x89\x95\xf7\xbf'
p221
tp222
bsg192
S'Cell[2].axon[399]'
p223
sI103
I57
tp224
a(F1.9535047918328274
S'Cell[2].dend[3] syn_ = new FastInhib(0.136363636364)'
p225
I2
(dp226
g177
F0.5
sg178
F7.0
sg179
I151
sg180
g7
(g8
(I0
tp227
g10
tp228
Rp229
(I1
(I3
tp230
g187
I00
S'\xfd\xb7r\xb1\xec+\x1e@\xb4\x16z\xa8\xd6\xf3<\xc0\xa1gh\xcbw#H\xc0'
p231
tp232
bsg192
S'Cell[3].axon[33]'
p233
sI151
I105
tp234
a(F2.274187031185366
S'Cell[1].dend[10] syn_ = new ExpSid(0.5)'
p235
I1
(dp236
g177
F0.5
sg178
F7.0
sg179
I151
sg180
g7
(g8
(I0
tp237
g10
tp238
Rp239
(I1
(I3
tp240
g187
I00
S'\x00\x00\x00\x90\xc2u6@\x00\x00\x00\x00\xd7cC\xc0\x00\x00\x00\xf4\xff\xff\xe7\xbf'
p241
tp242
bsg192
S'Cell[3].axon[104]'
p243
sI151
I57
tp244
a(F1.4400098000783457
S'Cell[2].dend[14] syn_ = new FastInhib(0.357142857143)'
p245
I2
(dp246
S'seg'
p247
F0.07142857142857142
sS'hostfrom'
p248
F8.0
sS'gid'
p249
I56
sS'coords'
p250
g7
(g8
(I0
tp251
g10
tp252
Rp253
(I1
(I3
tp254
g14
(S'f8'
p255
I0
I1
tp256
Rp257
(I3
S'<'
p258
NNNI-1
I-1
I0
tp259
bI00
S"w\xacZfw\xe43\xc0\xcc\xc0\x89\xbfv\xdcY\xc0,'Ns\x98sG\xc0"
p260
tp261
bsS'secnames'
p262
S'Cell[1].axon[12]'
p263
sI56
I105
tp264
a(F2.4489504699255336
S'Cell[0].apic[2] syn_ = new AmpaNmda(0.5)'
p265
I0
(dp266
g247
F0.5
sg248
F8.0
sg249
I152
sg250
g7
(g8
(I0
tp267
g10
tp268
Rp269
(I1
(I3
tp270
g257
I00
S'\xc7\xec\xab\x8a;\xc34\xc0\xeah\xdd\xa7\xed\xb4H@\x00\x00\x00\xe0z\xd4?\xc0'
p271
tp272
bsg262
S'Cell[3].axon[357]'
p273
sI152
I9
tp274
a(F2.35253156689275
S'Cell[3].dend[7] syn_ = new FastInhib(0.833333333333)'
p275
I3
(dp276
g247
F0.1
sg248
F8.0
sg249
I152
sg250
g7
(g8
(I0
tp277
g10
tp278
Rp279
(I1
(I3
tp280
g257
I00
S'\xe4\x12bJ|\xc9B@\xc0\xcfc\xa1\xc5>U@t\xad\xf0!\xd0\x8c.\xc0'
p281
tp282
bsg262
S'Cell[3].axon[485]'
p283
sI152
I153
tp284
a(F2.4271324542698984
S'Cell[0].apic[33] syn_ = new AmpaNmda(0.166666666667)'
p285
I0
(dp286
g247
F0.5
sg248
F8.0
sg249
I152
sg250
g7
(g8
(I0
tp287
g10
tp288
Rp289
(I1
(I3
tp290
g257
I00
S'\x00\x00\x00\xa0p\xfdK\xc0\x00\x00\x00`\x8f"<@\x00\x00\x00\x00\x00@"\xc0'
p291
tp292
bsg262
S'Cell[3].axon[564]'
p293
sI152
I9
tp294
a(F2.152647724499107
S'Cell[0].dend[12] syn_ = new AmpaNmda(0.5)'
p295
I0
(dp296
g247
F0.8333333333333333
sg248
F8.0
sg249
I104
sg250
g7
(g8
(I0
tp297
g10
tp298
Rp299
(I1
(I3
tp300
g257
I00
S'|y\x12\xec\x88\xc3T\xc0(\xc0\x84OR\xa75\xc0\xe9\x9f\xe6\xf4d\xf8E\xc0'
p301
tp302
bsg262
S'Cell[2].axon[184]'
p303
sI104
I9
tp304
a(F2.3232835069789703
S'Cell[3].dend[30] syn_ = new FastInhib(0.5)'
p305
I3
(dp306
g247
F0.5
sg248
F8.0
sg249
I104
sg250
g7
(g8
(I0
tp307
g10
tp308
Rp309
(I1
(I3
tp310
g257
I00
S'\xcf_\t"\xe3\xff\xf9\xbf=\x05\x1eO\xd6\xe0R@\xca\x11\x8a\xf9\x8cy3@'
p311
tp312
bsg262
S'Cell[2].axon[432]'
p313
sI104
I153
tp314
a(F2.4819591780737627
S'Cell[1].dend[3] syn_ = new ExpSid(0.0333333333333)'
p315
I1
(dp316
S'seg'
p317
F0.5
sS'hostfrom'
p318
F9.0
sS'gid'
p319
I153
sS'coords'
p320
g7
(g8
(I0
tp321
g10
tp322
Rp323
(I1
(I3
tp324
g14
(S'f8'
p325
I0
I1
tp326
Rp327
(I3
S'<'
p328
NNNI-1
I-1
I0
tp329
bI00
S':\xbbsP\xab|H@\x9e^\xf6Q?\x97@\xc0\x0e\x938\x93;4#\xc0'
p330
tp331
bsS'secnames'
p332
S'Cell[3].axon[49]'
p333
sI153
I57
tp334
a(F2.3649140989511963
S'Cell[0].dend[2] syn_ = new ExpSid(0.1)'
p335
I0
(dp336
g317
F0.7
sg318
F9.0
sg319
I153
sg320
g7
(g8
(I0
tp337
g10
tp338
Rp339
(I1
(I3
tp340
g327
I00
S"\xf8\xfb\xb34iy)\xc0]fS\xa80G2@\xac\x0e\x13\x80\xb0'B@"
p341
tp342
bsg332
S'Cell[3].axon[57]'
p343
sI153
I9
tp344
a(F1.5292555054522539
S'Cell[1].dend[13] syn_ = new ExpSid(0.5)'
p345
I1
(dp346
g317
F0.5
sg318
F9.0
sg319
I105
sg320
g7
(g8
(I0
tp347
g10
tp348
Rp349
(I1
(I3
tp350
g327
I00
S'\\\x99 \x06#\xdc)\xc0\x00\x00\x00@\xe1\x1aM\xc0z!eH\xe6\x89A\xc0'
p351
tp352
bsg332
S'Cell[2].axon[77]'
p353
sI105
I57
tp354
a(F2.2361535166835877
S'Cell[3].dend[6] syn_ = new FastInhib(0.833333333333)'
p355
I3
(dp356
S'seg'
p357
F0.5
sS'hostfrom'
p358
F10.0
sS'gid'
p359
I106
sS'coords'
p360
g7
(g8
(I0
tp361
g10
tp362
Rp363
(I1
(I3
tp364
g14
(S'f8'
p365
I0
I1
tp366
Rp367
(I3
S'<'
p368
NNNI-1
I-1
I0
tp369
bI00
S'\x178\x0b\xf5>\xb97@}|.z\x7f\xcbR@\x00\x00\x00`\x8f\xc20\xc0'
p370
tp371
bsS'secnames'
p372
S'Cell[2].axon[60]'
p373
sI106
I153
tp374
a(F1.9504954464454225
S'Cell[1].dend[13] syn_ = new AmpaNmda(0.3)'
p375
I1
(dp376
g357
F0.5
sg358
F10.0
sg359
I106
sg360
g7
(g8
(I0
tp377
g10
tp378
Rp379
(I1
(I3
tp380
g367
I00
S'\x18\xf4\x82\xc3z\xc1\x1f@\x95\xf7\xf3z\x08\xe7I\xc0\x1e\x03)\xc3\xe1-9\xc0'
p381
tp382
bsg372
S'Cell[2].axon[200]'
p383
sI106
I57
tp384
a(F1.7764000268288316
S'Cell[1].dend[19] syn_ = new ExpSid(0.5)'
p385
I1
(dp386
S'seg'
p387
F0.30000000000000004
sS'hostfrom'
p388
F11.0
sS'gid'
p389
I155
sS'coords'
p390
g7
(g8
(I0
tp391
g10
tp392
Rp393
(I1
(I3
tp394
g14
(S'f8'
p395
I0
I1
tp396
Rp397
(I3
S'<'
p398
NNNI-1
I-1
I0
tp399
bI00
S'\xb0\x9e\xd9\xe6\x07\xea?@\x12e\x1eT[\x1aP\xc0,\xfe\xa7\xd2\x85\xc0\xf5?'
p400
tp401
bsS'secnames'
p402
S'Cell[3].axon[23]'
p403
sI155
I57
tp404
a(F2.0922105331925933
S'Cell[2].dend[26] syn_ = new FastInhib(0.5)'
p405
I2
(dp406
S'seg'
p407
F0.16666666666666666
sS'hostfrom'
p408
F13.0
sS'gid'
p409
I109
sS'coords'
p410
g7
(g8
(I0
tp411
g10
tp412
Rp413
(I1
(I3
tp414
g14
(S'f8'
p415
I0
I1
tp416
Rp417
(I3
S'<'
p418
NNNI-1
I-1
I0
tp419
bI00
S'\x00\x00\x00@\n\xd7\x18\xc0Vw2\xb7\xcd\xf6E@Dg-\x8c\xe0\xe2-@'
p420
tp421
bsS'secnames'
p422
S'Cell[2].axon[153]'
p423
sI109
I105
tp424
a(F2.415859537065198
S'Cell[1].dend[22] syn_ = new ExpSid(0.5)'
p425
I1
(dp426
g407
F0.8999999999999999
sg408
F13.0
sg409
I13
sg410
g7
(g8
(I0
tp427
g10
tp428
Rp429
(I1
(I3
tp430
g417
I00
S'\\\xcd\x19&F\x0b(\xc0\xaaB\xd7\x9d\x9c\xa5L\xc0\xf3\xc1py\x8e(-@'
p431
tp432
bsg422
S'Cell[0].axon[6]'
p433
sI13
I57
tp434
a(F2.100878166463777
S'Cell[3].dend[17] syn_ = new FastInhib(0.5)'
p435
I3
(dp436
g407
F0.8333333333333333
sg408
F13.0
sg409
I13
sg410
g7
(g8
(I0
tp437
g10
tp438
Rp439
(I1
(I3
tp440
g417
I00
S'\xa0\x08\x1bM\nk!@\x08JO\x84<\xc0a\xc0L5L\x9bd\xc70\xc0'
p441
tp442
bsg422
S'Cell[0].axon[11]'
p443
sI13
I153
tp444
a(F1.9770101021824944
S'Cell[0].apic[27] syn_ = new ExpSid(0.357142857143)'
p445
I0
(dp446
S'seg'
p447
F0.16666666666666666
sS'hostfrom'
p448
F15.0
sS'gid'
p449
I111
sS'coords'
p450
g7
(g8
(I0
tp451
g10
tp452
Rp453
(I1
(I3
tp454
g14
(S'f8'
p455
I0
I1
tp456
Rp457
(I3
S'<'
p458
NNNI-1
I-1
I0
tp459
bI00
S'\xeb?\xdb\xc72\xc41@\xf1\xec8\xd6L\xfeQ@\xa1\xda\x08\xf2^uA\xc0'
p460
tp461
bsS'secnames'
p462
S'Cell[2].axon[242]'
p463
sI111
I9
tp464
a(F0.9774969372827353
S'Cell[0].apic[27] syn_ = new ExpSid(0.357142857143)'
p465
I0
(dp466
g447
F0.07142857142857142
sg448
F15.0
sg449
I159
sg450
g7
(g8
(I0
tp467
g10
tp468
Rp469
(I1
(I3
tp470
g457
I00
S'w\x88\xba\\\xfe\xfd2@W6/Q\x02\xb8Q@\x03i\x17wQ\xaaA\xc0'
p471
tp472
bsg462
S'Cell[3].axon[14]'
p473
sI159
I9
tp474
a(F2.244535169111909
S'Cell[0].dend[0] syn_ = new AmpaNmda(0.1)'
p475
I0
(dp476
S'seg'
p477
F0.16666666666666666
sS'hostfrom'
p478
F16.0
sS'gid'
p479
I160
sS'coords'
p480
g7
(g8
(I0
tp481
g10
tp482
Rp483
(I1
(I3
tp484
g14
(S'f8'
p485
I0
I1
tp486
Rp487
(I3
S'<'
p488
NNNI-1
I-1
I0
tp489
bI00
S'\xdaG\x11G\xf4n\x01\xc0$\xcb\x17-\xef\x0f+@\xb8\xa3Mu\xb3\xc6D\xc0'
p490
tp491
bsS'secnames'
p492
S'Cell[3].axon[89]'
p493
sI160
I9
tp494
a(F2.192067303822178
S'Cell[1].dend[13] syn_ = new AmpaNmda(0.3)'
p495
I1
(dp496
g477
F0.5
sg478
F16.0
sg479
I112
sg480
g7
(g8
(I0
tp497
g10
tp498
Rp499
(I1
(I3
tp500
g487
I00
S'\x9f\x06\x0b\x87\x1c(\x16@\x02\x80>\x06\xf7\\I\xc0)G\xfdy\x81+6\xc0'
p501
tp502
bsg492
S'Cell[2].axon[100]'
p503
sI112
I57
tp504
a(F2.164691278826131
S'Cell[1].dend[31] syn_ = new ExpSid(0.3)'
p505
I1
(dp506
S'seg'
p507
F0.5
sS'hostfrom'
p508
F17.0
sS'gid'
p509
I113
sS'coords'
p510
g7
(g8
(I0
tp511
g10
tp512
Rp513
(I1
(I3
tp514
g14
(S'f8'
p515
I0
I1
tp516
Rp517
(I3
S'<'
p518
NNNI-1
I-1
I0
tp519
bI00
S'8\xc0\xc8u\xb4\xccX@\xdc\xac\xe0\xbc\xc4wV\xc0\x00\x00\x00\x00)\\\x1a@'
p520
tp521
bsS'secnames'
p522
S'Cell[2].axon[106]'
p523
sI113
I57
tp524
a(F0.8848750895129832
S'Cell[0].apic[29] syn_ = new ExpSid(0.214285714286)'
p525
I0
(dp526
g507
F0.9285714285714284
sg508
F17.0
sg509
I161
sg510
g7
(g8
(I0
tp527
g10
tp528
Rp529
(I1
(I3
tp530
g517
I00
S'\xdc\xc4\x12\x92\xbe\xed\xd0?\xf4\xb6\xb8,&\xdeD@.\xfeZ\xfcE\xdd\x0f\xc0'
p531
tp532
bsg522
S'Cell[3].axon[209]'
p533
sI161
I9
tp534
a(F2.034998820112634
S'Cell[3].dend[14] syn_ = new FastInhib(0.5)'
p535
I3
(dp536
g507
F0.8333333333333333
sg508
F17.0
sg509
I65
sg510
g7
(g8
(I0
tp537
g10
tp538
Rp539
(I1
(I3
tp540
g517
I00
S'\xa2\x98^\xb6%+G@DkX.#l6\xc0\x0e9+\xb6M\xc2\x05@'
p541
tp542
bsg522
S'Cell[1].axon[4]'
p543
sI65
I153
tp544
a(F1.6212059527542193
S'Cell[0].dend[10] syn_ = new AmpaNmda(0.5)'
p545
I0
(dp546
S'seg'
p547
F0.3461538461538462
sS'hostfrom'
p548
F20.0
sS'gid'
p549
I116
sS'coords'
p550
g7
(g8
(I0
tp551
g10
tp552
Rp553
(I1
(I3
tp554
g14
(S'f8'
p555
I0
I1
tp556
Rp557
(I3
S'<'
p558
NNNI-1
I-1
I0
tp559
bI00
S'\xec\xdc\xd7\xb2\x1etJ\xc0A\xdc\x89\x03\xc8tN\xc0\x00\x00\x00`\x8f\xa2B\xc0'
p560
tp561
bsS'secnames'
p562
S'Cell[2].axon[85]'
p563
sI116
I9
tp564
a(F0.6886576711510775
S'Cell[0].apic[30] syn_ = new AmpaNmda(0.5)'
p565
I0
(dp566
g547
F0.8333333333333333
sg548
F20.0
sg549
I116
sg550
g7
(g8
(I0
tp567
g10
tp568
Rp569
(I1
(I3
tp570
g557
I00
S'h\xea\x9f\xe8\xd2I?\xc0\xf2;Be\xb711@\x12MD\xbf\xffDB\xc0'
p571
tp572
bsg562
S'Cell[2].axon[203]'
p573
sI116
I9
tp574
a(F2.0876857798599953
S'Cell[1].dend[11] syn_ = new ExpSid(0.1)'
p575
I1
(dp576
S'seg'
p577
F0.8333333333333333
sS'hostfrom'
p578
F21.0
sS'gid'
p579
I165
sS'coords'
p580
g7
(g8
(I0
tp581
g10
tp582
Rp583
(I1
(I3
tp584
g14
(S'f8'
p585
I0
I1
tp586
Rp587
(I3
S'<'
p588
NNNI-1
I-1
I0
tp589
bI00
S'<\xc9\xe8\xb4\xfbs\x1f@z\xbd\x12\xba\xc5\xc26\xc03\xf7\xfa{\x0ct%\xc0'
p590
tp591
bsS'secnames'
p592
S'Cell[3].axon[234]'
p593
sI165
I57
tp594
a(F1.4450449926357833
S'Cell[2].dend[19] syn_ = new FastInhib(0.214285714286)'
p595
I2
(dp596
g577
F0.5
sg578
F21.0
sg579
I117
sg580
g7
(g8
(I0
tp597
g10
tp598
Rp599
(I1
(I3
tp600
g587
I00
S'\xb2\x81C\xf5\xae\x91;@2+\xf3+\x88\xcfU@\x00\x00\x00\x80\xc2u9\xc0'
p601
tp602
bsg592
S'Cell[2].axon[263]'
p603
sI117
I105
tp604
a(F1.317923307396681
S'Cell[3].dend[13] syn_ = new FastInhib(0.5)'
p605
I3
(dp606
S'seg'
p607
F0.5
sS'hostfrom'
p608
F24.0
sS'gid'
p609
I72
sS'coords'
p610
g7
(g8
(I0
tp611
g10
tp612
Rp613
(I1
(I3
tp614
g14
(S'f8'
p615
I0
I1
tp616
Rp617
(I3
S'<'
p618
NNNI-1
I-1
I0
tp619
bI00
S'\x00\x00\x00\x80\xeb\xf1H@\x00\x00\x00\x80\xb8\x1e\xdd?\x00\x00\x00(\x85\xeb\xfb?'
p620
tp621
bsS'secnames'
p622
S'Cell[1].soma[3]'
p623
sI72
I153
tp624
a(F1.8183255573588375
S'Cell[2].dend[7] syn_ = new FastInhib(0.833333333333)'
p625
I2
(dp626
g607
F0.16666666666666666
sg608
F24.0
sg609
I168
sg610
g7
(g8
(I0
tp627
g10
tp628
Rp629
(I1
(I3
tp630
g617
I00
S'\x85\xbb\xddV^9H\xc0\xc4\xd8\xfd\x95\xd6h\xe0?\xc8\x92\x8au0\xfb^\xc0'
p631
tp632
bsg622
S'Cell[3].axon[47]'
p633
sI168
I105
tp634
a(F1.1184138671177646
S'Cell[3].dend[18] syn_ = new FastInhib(0.5)'
p635
I3
(dp636
S'seg'
p637
F0.5
sS'hostfrom'
p638
F26.0
sS'gid'
p639
I74
sS'coords'
p640
g7
(g8
(I0
tp641
g10
tp642
Rp643
(I1
(I3
tp644
g14
(S'f8'
p645
I0
I1
tp646
Rp647
(I3
S'<'
p648
NNNI-1
I-1
I0
tp649
bI00
S'\xa6\xae5\x19\x07/\x07@\x9a?\xd7\xd5v\xddc\xc0\xc0\xac>\xc5\xc5\xbd.\xc0'
p650
tp651
bsS'secnames'
p652
S'Cell[1].axon[22]'
p653
sI74
I153
tp654
a(F1.7172768421353257
S'Cell[0].apic[10] syn_ = new AmpaNmda(0.5)'
p655
I0
(dp656
g637
F0.16666666666666666
sg638
F26.0
sg639
I170
sg640
g7
(g8
(I0
tp657
g10
tp658
Rp659
(I1
(I3
tp660
g647
I00
S'\xd2\xc1\xff!\x8b\x0cD\xc0\x04kP\x9ff\xeah@\x86\xec\xdfb[\xcd\n@'
p661
tp662
bsg652
S'Cell[3].axon[66]'
p663
sI170
I9
tp664
a(F2.4432117376474523
S'Cell[0].dend[9] syn_ = new ExpSid(0.5)'
p665
I0
(dp666
S'seg'
p667
F0.40909090909090906
sS'hostfrom'
p668
F27.0
sS'gid'
p669
I75
sS'coords'
p670
g7
(g8
(I0
tp671
g10
tp672
Rp673
(I1
(I3
tp674
g14
(S'f8'
p675
I0
I1
tp676
Rp677
(I3
S'<'
p678
NNNI-1
I-1
I0
tp679
bI00
S'\xfa\xe2\xc7B\x19)K\xc0t\r\xd71\x92\xa1<\xc0\xe5\x0b\x98\xb1\x9b\xceC\xc0'
p680
tp681
bsS'secnames'
p682
S'Cell[1].axon[14]'
p683
sI75
I9
tp684
a(F1.3437298314535713
S'Cell[1].dend[11] syn_ = new ExpSid(0.5)'
p685
I1
(dp686
g667
F0.5
sg668
F27.0
sg669
I171
sg670
g7
(g8
(I0
tp687
g10
tp688
Rp689
(I1
(I3
tp690
g677
I00
S'\xba^i|Mo3\xc0ly\x17\x0b\xf40\x00\xc0\xae^bo7\x92\n\xc0'
p691
tp692
bsg682
S'Cell[3].axon[27]'
p693
sI171
I57
tp694
a(F0.4449512146527768
S'Cell[3].dend[15] syn_ = new FastInhib(0.5)'
p695
I3
(dp696
S'seg'
p697
F0.16666666666666666
sS'hostfrom'
p698
F28.0
sS'gid'
p699
I124
sS'coords'
p700
g7
(g8
(I0
tp701
g10
tp702
Rp703
(I1
(I3
tp704
g14
(S'f8'
p705
I0
I1
tp706
Rp707
(I3
S'<'
p708
NNNI-1
I-1
I0
tp709
bI00
S'\xb4\xb0\xc0\x8d1YA@\xa6u\x8a\x13\x07\x94G\xc0\x00\x00\x00@33\x19\xc0'
p710
tp711
bsS'secnames'
p712
S'Cell[2].axon[0]'
p713
sI124
I153
tp714
a(F2.293722090806542
S'Cell[0].apic[27] syn_ = new AmpaNmda(0.214285714286)'
p715
I0
(dp716
S'seg'
p717
F0.16666666666666666
sS'hostfrom'
p718
F30.0
sS'gid'
p719
I126
sS'coords'
p720
g7
(g8
(I0
tp721
g10
tp722
Rp723
(I1
(I3
tp724
g14
(S'f8'
p725
I0
I1
tp726
Rp727
(I3
S'<'
p728
NNNI-1
I-1
I0
tp729
bI00
S'4\xa3wQA\x04\x13@\xbe\xdeh\x0b\xd3AS@\xd78BIQ\xf6A\xc0'
p730
tp731
bsS'secnames'
p732
S'Cell[2].axon[55]'
p733
sI126
I9
tp734
a(F1.138253701757093
S'Cell[3].dend[19] syn_ = new FastInhib(0.5)'
p735
I3
(dp736
S'seg'
p737
F0.16666666666666666
sS'hostfrom'
p738
F31.0
sS'gid'
p739
I127
sS'coords'
p740
g7
(g8
(I0
tp741
g10
tp742
Rp743
(I1
(I3
tp744
g14
(S'f8'
p745
I0
I1
tp746
Rp747
(I3
S'<'
p748
NNNI-1
I-1
I0
tp749
bI00
S'\x9e\xd8\xe1\x89D\x1a"@\x0f\xd0+\x1e\x0eqc\xc0\x00\x00\x00\x80=\n\'\xc0'
p750
tp751
bsS'secnames'
p752
S'Cell[2].axon[19]'
p753
sI127
I153
tp754
a(F2.374564287238694
S'Cell[0].apic[19] syn_ = new ExpSid(0.5)'
p755
I0
(dp756
g737
F0.8999999999999999
sg738
F31.0
sg739
I175
sg740
g7
(g8
(I0
tp757
g10
tp758
Rp759
(I1
(I3
tp760
g747
I00
S"\xae\xe6\xa7\xc8\x03\xc4V\xc0\xaa7\xca\xf8\xe4rn@O\x16xt\xff\r'@"
p761
tp762
bsg752
S'Cell[3].axon[7]'
p763
sI175
I9
tp764
a(F1.2114152209584865
S'Cell[0].apic[27] syn_ = new ExpSid(0.785714285714)'
p765
I0
(dp766
S'seg'
p767
F0.3571428571428571
sS'hostfrom'
p768
F33.0
sS'gid'
p769
I177
sS'coords'
p770
g7
(g8
(I0
tp771
g10
tp772
Rp773
(I1
(I3
tp774
g14
(S'f8'
p775
I0
I1
tp776
Rp777
(I3
S'<'
p778
NNNI-1
I-1
I0
tp779
bI00
S'\x86\xac?\t\xd1\xb4S@\xbf\x8f\xd2\xafI$K@\x9e\xe1\x04\x83\xd7\xc4<\xc0'
p780
tp781
bsS'secnames'
p782
S'Cell[3].axon[23]'
p783
sI177
I9
tp784
a(F1.270259799651842
S'Cell[2].dend[15] syn_ = new FastInhib(0.166666666667)'
p785
I2
(dp786
S'seg'
p787
F0.5
sS'hostfrom'
p788
F34.0
sS'gid'
p789
I82
sS'coords'
p790
g7
(g8
(I0
tp791
g10
tp792
Rp793
(I1
(I3
tp794
g14
(S'f8'
p795
I0
I1
tp796
Rp797
(I3
S'<'
p798
NNNI-1
I-1
I0
tp799
bI00
S"\xdd\xfc\x9d\x00~\x80\x10@XX\xa2\x9c:\xdb'@\x13\xed\xd48\xc0\xfb \xc0"
p800
tp801
bsS'secnames'
p802
S'Cell[1].axon[132]'
p803
sI82
I105
tp804
a(F2.1465363722738577
S'Cell[0].dend[4] syn_ = new AmpaNmda(0.833333333333)'
p805
I0
(dp806
g787
F0.5
sg788
F34.0
sg789
I82
sg790
g7
(g8
(I0
tp807
g10
tp808
Rp809
(I1
(I3
tp810
g797
I00
S'\x1d\x0c\x1f\xa1\x86\x03G\xc0\xdaH\xf2\xb2Ua2\xc0\x8e\xce\x1b\x15\x0fbB\xc0'
p811
tp812
bsg802
S'Cell[1].axon[203]'
p813
sI82
I9
tp814
a(F2.4418986579329176
S'Cell[1].dend[12] syn_ = new ExpSid(0.166666666667)'
p815
I1
(dp816
S'seg'
p817
F0.5
sS'hostfrom'
p818
F35.0
sS'gid'
p819
I83
sS'coords'
p820
g7
(g8
(I0
tp821
g10
tp822
Rp823
(I1
(I3
tp824
g14
(S'f8'
p825
I0
I1
tp826
Rp827
(I3
S'<'
p828
NNNI-1
I-1
I0
tp829
bI00
S'd\x87\x1fW\xef!-@\x82\x00=\xb1OX:\xc0\x00\x00\x00\xc0\x1e\x85\x18@'
p830
tp831
bsS'secnames'
p832
S'Cell[1].axon[0]'
p833
sI83
I57
tp834
a(F1.5808450318671308
S'Cell[1].dend[11] syn_ = new ExpSid(0.3)'
p835
I1
(dp836
g817
F0.16666666666666666
sg818
F35.0
sg819
I83
sg820
g7
(g8
(I0
tp837
g10
tp838
Rp839
(I1
(I3
tp840
g827
I00
S'M[\x87\x05x;!\xc01\xcd\xae\xbes\xbf*\xc0\xfd}\x80\x93\xf9\xa1"\xc0'
p841
tp842
bsg832
S'Cell[1].axon[14]'
p843
sI83
I57
tp844
a(F1.6233526939782201
S'Cell[3].dend[22] syn_ = new FastInhib(0.7)'
p845
I3
(dp846
g817
F0.5
sg818
F35.0
sg819
I83
sg820
g7
(g8
(I0
tp847
g10
tp848
Rp849
(I1
(I3
tp850
g827
I00
S'a\xb4\xeb:\xa9\x7fG@\xef\xc8_\xef\xbf7Z\xc0\x00\x00\x00\x00)\x9c2@'
p851
tp852
bsg832
S'Cell[1].axon[66]'
p853
sI83
I153
tp854
a(F2.3077325701209563
S'Cell[1].dend[22] syn_ = new ExpSid(0.166666666667)'
p855
I1
(dp856
g817
F0.5
sg818
F35.0
sg819
I83
sg820
g7
(g8
(I0
tp857
g10
tp858
Rp859
(I1
(I3
tp860
g827
I00
S'\x00\x00\x00`\x88k"@\x00\x00\x00`f\xd6L\xc0\x00\x00\x00pf\xe6\x15@'
p861
tp862
bsg832
S'Cell[1].axon[218]'
p863
sI83
I57
tp864
a(F2.4701379514947543
S'Cell[0].apic[4] syn_ = new AmpaNmda(0.5)'
p865
I0
(dp866
S'seg'
p867
F0.30000000000000004
sS'hostfrom'
p868
F36.0
sS'gid'
p869
I84
sS'coords'
p870
g7
(g8
(I0
tp871
g10
tp872
Rp873
(I1
(I3
tp874
g14
(S'f8'
p875
I0
I1
tp876
Rp877
(I3
S'<'
p878
NNNI-1
I-1
I0
tp879
bI00
S'6\xc7\xaf\x13lP>\xc0z\xaf\xb7#\x13AZ@\x00\x00\x00\xc0\xf5(1\xc0'
p880
tp881
bsS'secnames'
p882
S'Cell[1].axon[76]'
p883
sI84
I9
tp884
a(F1.4782664827866148
S'Cell[2].dend[32] syn_ = new FastInhib(0.166666666667)'
p885
I2
(dp886
g867
F0.5
sg868
F36.0
sg869
I84
sg870
g7
(g8
(I0
tp887
g10
tp888
Rp889
(I1
(I3
tp890
g877
I00
S'\xab\x01f\xb5\xdeG6\xc0\x92\x11\xc5\xf0\xb0OJ@\x04K\xb7hI\x9e)\xc0'
p891
tp892
bsg882
S'Cell[1].axon[82]'
p893
sI84
I105
tp894
a(F2.3759977824009995
S'Cell[2].dend[19] syn_ = new FastInhib(0.5)'
p895
I2
(dp896
g867
F0.5
sg868
F36.0
sg869
I84
sg870
g7
(g8
(I0
tp897
g10
tp898
Rp899
(I1
(I3
tp900
g877
I00
S'\x1eR5"\xf0\xd7G@\xfe<\xc1\t\x8e\x18`@\x86\xe0E\xdcC\xeeI\xc0'
p901
tp902
bsg882
S'Cell[1].axon[521]'
p903
sI84
I105
tp904
a(F0.8312406351705347
S'Cell[2].dend[11] syn_ = new FastInhib(0.1)'
p905
I2
(dp906
g867
F0.5
sg868
F36.0
sg869
I84
sg870
g7
(g8
(I0
tp907
g10
tp908
Rp909
(I1
(I3
tp910
g877
I00
S"S\xfb\xba\xe3)*7\xc0\xa0&\t\xa8\xed\x08 \xc0\x9bE'\xcd\xfa\xefH\xc0"
p911
tp912
bsg882
S'Cell[1].axon[603]'
p913
sI84
I105
tp914
a(F1.196036390256999
S'Cell[3].dend[6] syn_ = new FastInhib(0.166666666667)'
p915
I3
(dp916
g867
F0.5
sg868
F36.0
sg869
I132
sg870
g7
(g8
(I0
tp917
g10
tp918
Rp919
(I1
(I3
tp920
g877
I00
S'\x8f\x7f*\x1dg\xadA@\xa73\xa4O[8P@\xf4\x01\xf7"\xe7\t\x1c\xc0'
p921
tp922
bsg882
S'Cell[2].axon[61]'
p923
sI132
I153
tp924
a(F1.8117647650942177
S'Cell[3].dend[3] syn_ = new FastInhib(0.5)'
p925
I3
(dp926
g867
F0.5
sg868
F36.0
sg869
I132
sg870
g7
(g8
(I0
tp927
g10
tp928
Rp929
(I1
(I3
tp930
g877
I00
S'\xfa\x1f\x00\xe2\x8b\x80G@8\x81\xed\x1d\xf1sI@\x00\x00\x00\x00\x00\x00\x00@'
p931
tp932
bsg882
S'Cell[2].axon[151]'
p933
sI132
I153
tp934
a(F1.2307218573411278
S'Cell[1].dend[6] syn_ = new AmpaNmda(0.5)'
p935
I1
(dp936
g867
F0.8333333333333333
sg868
F36.0
sg869
I132
sg870
g7
(g8
(I0
tp937
g10
tp938
Rp939
(I1
(I3
tp940
g877
I00
S'2U\x04\xb3\xd63P@l\xd2\xc4\x06\x932F\xc0-\x17\xbc\xb9e80@'
p941
tp942
bsg882
S'Cell[2].axon[169]'
p943
sI132
I57
tp944
a(F1.9487847331440253
S'Cell[1].dend[21] syn_ = new AmpaNmda(0.5)'
p945
I1
(dp946
g867
F0.8333333333333333
sg868
F36.0
sg869
I132
sg870
g7
(g8
(I0
tp947
g10
tp948
Rp949
(I1
(I3
tp950
g877
I00
S'\xfc\xf4\x91\xe0|\xb48@#\xd8\x0f\xe4\r\x98O\xc0\xab\xa8kZ\xc4\x8e\xf2\xbf'
p951
tp952
bsg882
S'Cell[2].axon[203]'
p953
sI132
I57
tp954
a(F2.356129266071848
S'Cell[1].dend[33] syn_ = new AmpaNmda(0.5)'
p955
I1
(dp956
g867
F0.8333333333333333
sg868
F36.0
sg869
I180
sg870
g7
(g8
(I0
tp957
g10
tp958
Rp959
(I1
(I3
tp960
g877
I00
S'\xf9\xab\x9ex\x9b\x16T@8\x1e\xc3\x91\xf5\xa8Q\xc0\x00\x00\x00 \x85\x8bB@'
p961
tp962
bsg882
S'Cell[3].axon[13]'
p963
sI180
I57
tp964
a(F0.9146568613949725
S'Cell[1].dend[13] syn_ = new AmpaNmda(0.3)'
p965
I1
(dp966
g867
F0.16666666666666666
sg868
F36.0
sg869
I180
sg870
g7
(g8
(I0
tp967
g10
tp968
Rp969
(I1
(I3
tp970
g877
I00
S'\xc0M\x1d\x86\x8a\xa2\x18@J\x14\xe27\x99\xe9I\xc0\xdf\x93&\xf2\x92\x9b7\xc0'
p971
tp972
bsg882
S'Cell[3].axon[58]'
p973
sI180
I57
tp974
a(F1.4969752103855671
S'Cell[3].dend[24] syn_ = new FastInhib(0.5)'
p975
I3
(dp976
g867
F0.8333333333333333
sg868
F36.0
sg869
I180
sg870
g7
(g8
(I0
tp977
g10
tp978
Rp979
(I1
(I3
tp980
g877
I00
S'rU\x92\xf1k]N@\xb3\t\x0eL\xb8\xda\x08\xc0\xa1v\xa1w\xfd\xe7(@'
p981
tp982
bsg882
S'Cell[3].axon[325]'
p983
sI180
I153
tp984
a(F2.1095906208555677
S'Cell[3].dend[20] syn_ = new FastInhib(0.166666666667)'
p985
I3
(dp986
g867
F0.16666666666666666
sg868
F36.0
sg869
I36
sg870
g7
(g8
(I0
tp987
g10
tp988
Rp989
(I1
(I3
tp990
g877
I00
S'\x8f\x8d\xfbu&\xd8#@\xfe2aH.)b\xc0\x00\x00\x00@33%\xc0'
p991
tp992
bsg882
S'Cell[0].axon[31]'
p993
sI36
I153
tp994
a(F1.4440719009437712
S'Cell[2].dend[23] syn_ = new FastInhib(0.5)'
p995
I2
(dp996
S'seg'
p997
F0.8999999999999999
sS'hostfrom'
p998
F37.0
sS'gid'
p999
I133
sS'coords'
p1000
g7
(g8
(I0
tp1001
g10
tp1002
Rp1003
(I1
(I3
tp1004
g14
(S'f8'
p1005
I0
I1
tp1006
Rp1007
(I3
S'<'
p1008
NNNI-1
I-1
I0
tp1009
bI00
S'\xa4\x80z\xf6\x10\\"\xc0\xc2\x98\xa7\x86\xd9(A@\x9bm;5\xe3+\x1d\xc0'
p1010
tp1011
bsS'secnames'
p1012
S'Cell[2].axon[105]'
p1013
sI133
I105
tp1014
a(F1.990400200962671
S'Cell[2].dend[18] syn_ = new FastInhib(0.7)'
p1015
I2
(dp1016
g997
F0.16666666666666666
sg998
F37.0
sg999
I133
sg1000
g7
(g8
(I0
tp1017
g10
tp1018
Rp1019
(I1
(I3
tp1020
g1007
I00
S'\x90\xa3,W\xb0h0\xc0\x1fk\x1bQ\x02\x96Y@\xc4;gU\xc20\xf2?'
p1021
tp1022
bsg1012
S'Cell[2].axon[110]'
p1023
sI133
I105
tp1024
a(F1.16501987497699
S'Cell[2].dend[30] syn_ = new FastInhib(0.5)'
p1025
I2
(dp1026
g997
F0.6428571428571428
sg998
F37.0
sg999
I85
sg1000
g7
(g8
(I0
tp1027
g10
tp1028
Rp1029
(I1
(I3
tp1030
g1007
I00
S'\x95\xe9o\x98)}1\xc0\xa4:<\x7f\xa6\xd0@@\x9c\xc8\xd2w\x9fN"\xc0'
p1031
tp1032
bsg1012
S'Cell[1].axon[229]'
p1033
sI85
I105
tp1034
a(F1.4814768782108865
S'Cell[0].apic[31] syn_ = new AmpaNmda(0.5)'
p1035
I0
(dp1036
S'seg'
p1037
F0.16666666666666666
sS'hostfrom'
p1038
F38.0
sS'gid'
p1039
I182
sS'coords'
p1040
g7
(g8
(I0
tp1041
g10
tp1042
Rp1043
(I1
(I3
tp1044
g14
(S'f8'
p1045
I0
I1
tp1046
Rp1047
(I3
S'<'
p1048
NNNI-1
I-1
I0
tp1049
bI00
S'D\xa2R2&\xe9G\xc0\xcd\xf1\x95,\x88\xac0@\x92H\xa2\x97\xbfH=\xc0'
p1050
tp1051
bsS'secnames'
p1052
S'Cell[3].axon[140]'
p1053
sI182
I9
tp1054
a(F1.3502462144354312
S'Cell[0].apic[28] syn_ = new AmpaNmda(0.7)'
p1055
I0
(dp1056
g1037
F0.8333333333333333
sg1038
F38.0
sg1039
I182
sg1040
g7
(g8
(I0
tp1057
g10
tp1058
Rp1059
(I1
(I3
tp1060
g1047
I00
S'-\xd5\x84!\xdf\xd8A@\x0b)\xd3\xbc \x95Q@5\xee]\x04\x80\x84@\xc0'
p1061
tp1062
bsg1052
S'Cell[3].axon[215]'
p1063
sI182
I9
tp1064
a(F2.1940736182008704
S'Cell[3].dend[19] syn_ = new FastInhib(0.5)'
p1065
I3
(dp1066
g1037
F0.5
sg1038
F38.0
sg1039
I182
sg1040
g7
(g8
(I0
tp1067
g10
tp1068
Rp1069
(I1
(I3
tp1070
g1047
I00
S"\x00\x00\x00\xa0\xc2\xf5\x1d@\x00\x00\x00\x00)\xb8c\xc0\x00\x00\x00\x00\x00\x00'\xc0"
p1071
tp1072
bsg1052
S'Cell[3].axon[319]'
p1073
sI182
I153
tp1074
a(F2.154719232432689
S'Cell[1].dend[28] syn_ = new ExpSid(0.5)'
p1075
I1
(dp1076
S'seg'
p1077
F0.5
sS'hostfrom'
p1078
F39.0
sS'gid'
p1079
I87
sS'coords'
p1080
g7
(g8
(I0
tp1081
g10
tp1082
Rp1083
(I1
(I3
tp1084
g14
(S'f8'
p1085
I0
I1
tp1086
Rp1087
(I3
S'<'
p1088
NNNI-1
I-1
I0
tp1089
bI00
S'\xac\n}\xff\xb1\xfcJ@n\x00\xc1\xb7\x94_P\xc08\xe9 \xb6\x1e\x01\x1e\xc0'
p1090
tp1091
bsS'secnames'
p1092
S'Cell[1].axon[140]'
p1093
sI87
I57
tp1094
a(F1.7114979726952426
S'Cell[2].dend[10] syn_ = new FastInhib(0.722222222222)'
p1095
I2
(dp1096
g1077
F0.5
sg1078
F39.0
sg1079
I135
sg1080
g7
(g8
(I0
tp1097
g10
tp1098
Rp1099
(I1
(I3
tp1100
g1087
I00
S'\xa5*\xbc+\x7f1!\xc05\xb0\xbc#\x81\xbfb@t\x0e\xa0\xdfY7b\xc0'
p1101
tp1102
bsg1092
S'Cell[2].axon[46]'
p1103
sI135
I105
tp1104
a(F2.1094189629661133
S'Cell[1].dend[3] syn_ = new AmpaNmda(0.166666666667)'
p1105
I1
(dp1106
S'seg'
p1107
F0.8333333333333333
sS'hostfrom'
p1108
F40.0
sS'gid'
p1109
I88
sS'coords'
p1110
g7
(g8
(I0
tp1111
g10
tp1112
Rp1113
(I1
(I3
tp1114
g14
(S'f8'
p1115
I0
I1
tp1116
Rp1117
(I3
S'<'
p1118
NNNI-1
I-1
I0
tp1119
bI00
S'\x00\x00\x00\xa0e&J@\x15)\xebE\x04Z?@\xc4\t\xee\n\\\xca;\xc0'
p1120
tp1121
bsS'secnames'
p1122
S'Cell[1].axon[173]'
p1123
sI88
I57
tp1124
a(F1.275458851134648
S'Cell[0].dend[1] syn_ = new AmpaNmda(0.3)'
p1125
I0
(dp1126
g1107
F0.8333333333333333
sg1108
F40.0
sg1109
I88
sg1110
g7
(g8
(I0
tp1127
g10
tp1128
Rp1129
(I1
(I3
tp1130
g1117
I00
S"b\x844\xe2\xe3\xc4K\xc0\xa1\x04\x1d\xac\xca\x12.@'S\xef\xab\xee\x06\xee\xbf"
p1131
tp1132
bsg1122
S'Cell[1].axon[247]'
p1133
sI88
I9
tp1134
a(F2.3219592583084174
S'Cell[1].dend[11] syn_ = new ExpSid(0.3)'
p1135
I1
(dp1136
S'seg'
p1137
F0.045454545454545456
sS'hostfrom'
p1138
F41.0
sS'gid'
p1139
I185
sS'coords'
p1140
g7
(g8
(I0
tp1141
g10
tp1142
Rp1143
(I1
(I3
tp1144
g14
(S'f8'
p1145
I0
I1
tp1146
Rp1147
(I3
S'<'
p1148
NNNI-1
I-1
I0
tp1149
bI00
S'\x95\xe6]9\x87\x9d!\xc0p1\xc0\xd4\xcb^0\xc0\x00\x00\x00\x80\x14.&\xc0'
p1150
tp1151
bsS'secnames'
p1152
S'Cell[3].axon[6]'
p1153
sI185
I57
tp1154
a(F1.6266813175153885
S'Cell[0].apic[27] syn_ = new ExpSid(0.785714285714)'
p1155
I0
(dp1156
g1137
F0.5
sg1138
F41.0
sg1139
I185
sg1140
g7
(g8
(I0
tp1157
g10
tp1158
Rp1159
(I1
(I3
tp1160
g1147
I00
S'\xf1\xb5\x8cE\xf3\xb8S@\xae \xbd$\xef\x1bL@\nh({nL;\xc0'
p1161
tp1162
bsg1152
S'Cell[3].axon[99]'
p1163
sI185
I9
tp1164
a(F0.49432447040840555
S'Cell[2].dend[17] syn_ = new FastInhib(0.5)'
p1165
I2
(dp1166
g1137
F0.5
sg1138
F41.0
sg1139
I185
sg1140
g7
(g8
(I0
tp1167
g10
tp1168
Rp1169
(I1
(I3
tp1170
g1147
I00
S'6\xe8\xae\xad0k\x12\xc0\xfa\x10QvV\xf0B@\xa6\xa1J\x13U\x86,\xc0'
p1171
tp1172
bsg1152
S'Cell[3].axon[104]'
p1173
sI185
I105
tp1174
a(F2.440162308731987
S'Cell[2].dend[32] syn_ = new FastInhib(0.833333333333)'
p1175
I2
(dp1176
g1137
F0.5
sg1138
F41.0
sg1139
I185
sg1140
g7
(g8
(I0
tp1177
g10
tp1178
Rp1179
(I1
(I3
tp1180
g1147
I00
S"\x8e\x10?\xbb\xcc\xb33\xc0[Q'\x80\xd2XW@\x00\x00\x00\x80\xc2u-\xc0"
p1181
tp1182
bsg1152
S'Cell[3].axon[205]'
p1183
sI185
I105
tp1184
a(F2.4522436820078997
S'Cell[2].dend[5] syn_ = new FastInhib(0.5)'
p1185
I2
(dp1186
g1137
F0.8333333333333333
sg1138
F41.0
sg1139
I185
sg1140
g7
(g8
(I0
tp1187
g10
tp1188
Rp1189
(I1
(I3
tp1190
g1147
I00
S'z\xbc\xed\xb8\x16\x91$\xc0\xbdV\xd8\x03\x1e\xd0!\xc0\x087\xf7\xc7;\x9b?\xc0'
p1191
tp1192
bsg1152
S'Cell[3].axon[240]'
p1193
sI185
I105
tp1194
a(F2.4842659208590465
S'Cell[1].dend[14] syn_ = new AmpaNmda(0.5)'
p1195
I1
(dp1196
S'seg'
p1197
F0.5
sS'hostfrom'
p1198
F42.0
sS'gid'
p1199
I42
sS'coords'
p1200
g7
(g8
(I0
tp1201
g10
tp1202
Rp1203
(I1
(I3
tp1204
g14
(S'f8'
p1205
I0
I1
tp1206
Rp1207
(I3
S'<'
p1208
NNNI-1
I-1
I0
tp1209
bI00
S'E9Y\xd1\xb5,I@B^\x1d\xff\xde1I\xc0\x00\x00\x00`ff\x0c\xc0'
p1210
tp1211
bsS'secnames'
p1212
S'Cell[0].axon[16]'
p1213
sI42
I57
tp1214
a(F2.4995572316248897
S'Cell[2].dend[29] syn_ = new FastInhib(0.5)'
p1215
I2
(dp1216
g1197
F0.44117647058823534
sg1198
F42.0
sg1199
I90
sg1200
g7
(g8
(I0
tp1217
g10
tp1218
Rp1219
(I1
(I3
tp1220
g1207
I00
S"\xaa\xb5\x93y\x1am9\xc0Q'\x9c{\x80 V@\xbe\x07>\x06U\xc1@@"
p1221
tp1222
bsg1212
S'Cell[1].axon[19]'
p1223
sI90
I105
tp1224
a(F1.8010405976556592
S'Cell[1].dend[22] syn_ = new AmpaNmda(0.166666666667)'
p1225
I1
(dp1226
g1197
F0.16666666666666666
sg1198
F42.0
sg1199
I90
sg1200
g7
(g8
(I0
tp1227
g10
tp1228
Rp1229
(I1
(I3
tp1230
g1207
I00
S'\xceA\xcf:\xfe\x0e(@\xd1%=\xf1\x84%M\xc0\xa6\xbeaL]\xca\x1a@'
p1231
tp1232
bsg1212
S'Cell[1].axon[128]'
p1233
sI90
I57
tp1234
a(F1.7970539782614003
S'Cell[2].dend[15] syn_ = new FastInhib(0.833333333333)'
p1235
I2
(dp1236
g1197
F0.5
sg1198
F42.0
sg1199
I138
sg1200
g7
(g8
(I0
tp1237
g10
tp1238
Rp1239
(I1
(I3
tp1240
g1207
I00
S'\xadAxF\x81\x98.@.\xcdh\xbe\x89\x0bH@\xb4n\x0b;n\xb9 \xc0'
p1241
tp1242
bsg1212
S'Cell[2].axon[0]'
p1243
sI138
I105
tp1244
a(F1.116560376740179
S'Cell[0].apic[27] syn_ = new ExpSid(0.0714285714286)'
p1245
I0
(dp1246
S'seg'
p1247
F0.5
sS'hostfrom'
p1248
F43.0
sS'gid'
p1249
I91
sS'coords'
p1250
g7
(g8
(I0
tp1251
g10
tp1252
Rp1253
(I1
(I3
tp1254
g14
(S'f8'
p1255
I0
I1
tp1256
Rp1257
(I3
S'<'
p1258
NNNI-1
I-1
I0
tp1259
bI00
S"L\x06r\xd6#\xb00\xc0\x8b'\x95\x84\x9e\x83S@\x15\xe7]\xb5z4B\xc0"
p1260
tp1261
bsS'secnames'
p1262
S'Cell[1].axon[522]'
p1263
sI91
I9
tp1264
a(F2.1869138847938667
S'Cell[1].dend[30] syn_ = new ExpSid(0.5)'
p1265
I1
(dp1266
g1247
F0.5
sg1248
F43.0
sg1249
I139
sg1250
g7
(g8
(I0
tp1267
g10
tp1268
Rp1269
(I1
(I3
tp1270
g1257
I00
S'\xba\xe4c\xb5\x81\x8cP@\xe9}\x04\xa2\x9brR\xc0|\x04\xf6\x8b\xcb["\xc0'
p1271
tp1272
bsg1262
S'Cell[2].axon[328]'
p1273
sI139
I57
tp1274
a(F1.9872423384538949
S'Cell[1].dend[9] syn_ = new AmpaNmda(0.5)'
p1275
I1
(dp1276
S'seg'
p1277
F0.30000000000000004
sS'hostfrom'
p1278
F44.0
sS'gid'
p1279
I92
sS'coords'
p1280
g7
(g8
(I0
tp1281
g10
tp1282
Rp1283
(I1
(I3
tp1284
g14
(S'f8'
p1285
I0
I1
tp1286
Rp1287
(I3
S'<'
p1288
NNNI-1
I-1
I0
tp1289
bI00
S"$'\x17\xe0\xa2\xccC@\xba\xa7\xbet=\xe2G\xc0\xd9\x03zb\x06\x00\x17\xc0"
p1290
tp1291
bsS'secnames'
p1292
S'Cell[1].axon[103]'
p1293
sI92
I57
tp1294
a(F2.4135857558883216
S'Cell[2].dend[15] syn_ = new FastInhib(0.166666666667)'
p1295
I2
(dp1296
g1277
F0.5
sg1278
F44.0
sg1279
I92
sg1280
g7
(g8
(I0
tp1297
g10
tp1298
Rp1299
(I1
(I3
tp1300
g1287
I00
S'\xef\xa9N\x9d\x84\xb2\x01@\xb8\xb6Fh0j*@s\x9d:\xc4\xd5b\x1f\xc0'
p1301
tp1302
bsg1292
S'Cell[1].axon[210]'
p1303
sI92
I105
tp1304
a(F1.6910584944604226
S'Cell[0].apic[4] syn_ = new AmpaNmda(0.5)'
p1305
I0
(dp1306
g1277
F0.5
sg1278
F44.0
sg1279
I140
sg1280
g7
(g8
(I0
tp1307
g10
tp1308
Rp1309
(I1
(I3
tp1310
g1287
I00
S'\xc9\x1d M.\x8b?\xc0\xba\x9f\x1b\xf8\x8c~Z@5\xf9\x17\xd3\x04h2\xc0'
p1311
tp1312
bsg1292
S'Cell[2].axon[14]'
p1313
sI140
I9
tp1314
a(F2.4052350043964417
S'Cell[2].dend[19] syn_ = new FastInhib(0.214285714286)'
p1315
I2
(dp1316
g1277
F0.5
sg1278
F44.0
sg1279
I188
sg1280
g7
(g8
(I0
tp1317
g10
tp1318
Rp1319
(I1
(I3
tp1320
g1287
I00
S'\xba\xd0S\x1c\xc4\x92=@\xb0k\x8c\x89[\x01V@|\x1b\xb3\xaa\xf4\x88<\xc0'
p1321
tp1322
bsg1292
S'Cell[3].axon[107]'
p1323
sI188
I105
tp1324
a(F0.7701920103876967
S'Cell[3].dend[0] syn_ = new FastInhib(0.5)'
p1325
I3
(dp1326
g1277
F0.1
sg1278
F44.0
sg1279
I188
sg1280
g7
(g8
(I0
tp1327
g10
tp1328
Rp1329
(I1
(I3
tp1330
g1287
I00
S'\x10\xc8\x06\x0c\xb9rJ@\xd2\xf8=\xf7\xb3\xd6A@3I:\x84\xdd\x90\x02@'
p1331
tp1332
bsg1292
S'Cell[3].axon[232]'
p1333
sI188
I153
tp1334
a(F1.4532192841660474
S'Cell[2].dend[22] syn_ = new FastInhib(0.5)'
p1335
I2
(dp1336
g1277
F0.05555555555555555
sg1278
F44.0
sg1279
I44
sg1280
g7
(g8
(I0
tp1337
g10
tp1338
Rp1339
(I1
(I3
tp1340
g1287
I00
S'\x99\xa3G\xf2\xbaf)\xc0\xb9\x80\xabJe>7@p\xaa\x8a\x0f\xdeE!\xc0'
p1341
tp1342
bsg1292
S'Cell[0].axon[18]'
p1343
sI44
I105
tp1344
a(F0.6692325530609161
S'Cell[1].dend[33] syn_ = new ExpSid(0.3)'
p1345
I1
(dp1346
S'seg'
p1347
F0.9285714285714284
sS'hostfrom'
p1348
F45.0
sS'gid'
p1349
I141
sS'coords'
p1350
g7
(g8
(I0
tp1351
g10
tp1352
Rp1353
(I1
(I3
tp1354
g14
(S'f8'
p1355
I0
I1
tp1356
Rp1357
(I3
S'<'
p1358
NNNI-1
I-1
I0
tp1359
bI00
S'l\xfc\xa6> \xe6Q@\x02\x10 \xa0\xfe\xd9P\xc0\x9c@o"\x87\x892@'
p1360
tp1361
bsS'secnames'
p1362
S'Cell[2].axon[147]'
p1363
sI141
I57
tp1364
a(F1.4654855400128606
S'Cell[1].dend[33] syn_ = new ExpSid(0.5)'
p1365
I1
(dp1366
g1347
F0.5
sg1348
F45.0
sg1349
I141
sg1350
g7
(g8
(I0
tp1367
g10
tp1368
Rp1369
(I1
(I3
tp1370
g1357
I00
S'\xd4\xc0H\xc0\nlT@)\xa4Z\xbe\xa3*Q\xc0i\x18}tS\x04D@'
p1371
tp1372
bsg1362
S'Cell[2].axon[150]'
p1373
sI141
I57
tp1374
a(F1.627003956701017
S'Cell[2].dend[19] syn_ = new FastInhib(0.0714285714286)'
p1375
I2
(dp1376
g1347
F0.5
sg1348
F45.0
sg1349
I93
sg1350
g7
(g8
(I0
tp1377
g10
tp1378
Rp1379
(I1
(I3
tp1380
g1357
I00
S'P\x8e>B\x93\x8b @\x1f$O\x94r&P@\xcd\x06\xb1Fp\x859\xc0'
p1381
tp1382
bsg1362
S'Cell[1].axon[2]'
p1383
sI93
I105
tp1384
a(F1.5942917237262755
S'Cell[2].dend[31] syn_ = new FastInhib(0.166666666667)'
p1385
I2
(dp1386
g1347
F0.5
sg1348
F45.0
sg1349
I93
sg1350
g7
(g8
(I0
tp1387
g10
tp1388
Rp1389
(I1
(I3
tp1390
g1357
I00
S'\x1c\xd3n)\x1c\xe39\xc0\x99\x05,q\xcaMI@_\t\xfa^\xf7d\x01\xc0'
p1391
tp1392
bsg1362
S'Cell[1].axon[212]'
p1393
sI93
I105
tp1394
a(F2.206726814652187
S'Cell[0].apic[27] syn_ = new ExpSid(0.642857142857)'
p1395
I0
(dp1396
S'seg'
p1397
F0.5
sS'hostfrom'
p1398
F47.0
sS'gid'
p1399
I95
sS'coords'
p1400
g7
(g8
(I0
tp1401
g10
tp1402
Rp1403
(I1
(I3
tp1404
g14
(S'f8'
p1405
I0
I1
tp1406
Rp1407
(I3
S'<'
p1408
NNNI-1
I-1
I0
tp1409
bI00
S'\x00\x00\x00\xd0\xa3`K@\x00\x00\x00`f\xf6I@\x00\x00\x00@\xb8~?\xc0'
p1410
tp1411
bsS'secnames'
p1412
S'Cell[1].axon[3]'
p1413
sI95
I9
tp1414
a(F1.8042257605906498
S'Cell[0].apic[5] syn_ = new ExpSid(0.166666666667)'
p1415
I0
(dp1416
g1397
F0.8999999999999999
sg1398
F47.0
sg1399
I95
sg1400
g7
(g8
(I0
tp1417
g10
tp1418
Rp1419
(I1
(I3
tp1420
g1407
I00
S'\xab\xbd\xf8\xca\xba;A\xc0\n\xf21#\xdd4c@\x08\x17\xc9f\x86\x7f\x14\xc0'
p1421
tp1422
bsg1412
S'Cell[1].axon[81]'
p1423
sI95
I9
tp1424
a(F2.450980131439419
S'Cell[1].dend[3] syn_ = new ExpSid(0.366666666667)'
p1425
I1
(dp1426
g1397
F0.5
sg1398
F47.0
sg1399
I95
sg1400
g7
(g8
(I0
tp1427
g10
tp1428
Rp1429
(I1
(I3
tp1430
g1407
I00
S'\xa3\xd5\x98\x80\x82iM@Y\x0f\x8d\xab\xe9k`@\xb9~\xed]\xafkM\xc0'
p1431
tp1432
bsg1412
S'Cell[1].axon[287]'
p1433
sI95
I57
tp1434
a(F1.3022523749319086
S'Cell[0].apic[4] syn_ = new ExpSid(0.5)'
p1435
I0
(dp1436
g1397
F0.5
sg1398
F47.0
sg1399
I95
sg1400
g7
(g8
(I0
tp1437
g10
tp1438
Rp1439
(I1
(I3
tp1440
g1407
I00
S'\xb4>\x84=w\x0f?\xc0\xe8\x18Db\xbfzZ@\xa1\xedH\xd9K(1\xc0'
p1441
tp1442
bsg1412
S'Cell[1].axon[294]'
p1443
sI95
I9
tp1444
a(F1.0963360858997402
S'Cell[2].dend[15] syn_ = new FastInhib(0.5)'
p1445
I2
(dp1446
g1397
F0.7
sg1398
F47.0
sg1399
I143
sg1400
g7
(g8
(I0
tp1447
g10
tp1448
Rp1449
(I1
(I3
tp1450
g1407
I00
S"6 \x9f\x82\xe9\xdb2@\xd4\x14'N\xf4\x19@@+5H]^\xb4\xef\xbf"
p1451
tp1452
bsg1412
S'Cell[2].axon[162]'
p1453
sI143
I105
tp1454
a(F2.43957968884802
S'Cell[0].apic[28] syn_ = new ExpSid(0.9)'
p1455
I0
(dp1456
g1397
F0.2777777777777778
sg1398
F47.0
sg1399
I143
sg1400
g7
(g8
(I0
tp1457
g10
tp1458
Rp1459
(I1
(I3
tp1460
g1407
I00
S'\xad\x14\xc6\x96\xf0GJ@"^J]\xb8\rR@\xbcg\x80V\x90\xeeB\xc0'
p1461
tp1462
bsg1412
S'Cell[2].axon[217]'
p1463
sI143
I9
tp1464
a(F2.1300897975620408
S'Cell[1].dend[22] syn_ = new ExpSid(0.5)'
p1465
I1
(dp1466
g1397
F0.8333333333333333
sg1398
F47.0
sg1399
I47
sg1400
g7
(g8
(I0
tp1467
g10
tp1468
Rp1469
(I1
(I3
tp1470
g1407
I00
S'\x8d\xe8\t\x92F~&\xc0F\n\x96\xa1P2N\xc0Ap\xddE\xae\xf5-@'
p1471
tp1472
bsg1412
S'Cell[0].axon[13]'
p1473
sI47
I57
tp1474
a.