(lp0
(F1.4656321896812816
S'Cell[0].dend[14] syn_ = new ExpSid(0.5)'
p1
I0
(dp2
S'seg'
p3
F0.8333333333333333
sS'hostfrom'
p4
F1.0
sS'gid'
p5
I145
sS'coords'
p6
cnumpy.core.multiarray
_reconstruct
p7
(cnumpy
ndarray
p8
(I0
tp9
S'b'
p10
tp11
Rp12
(I1
(I3
tp13
cnumpy
dtype
p14
(S'f8'
p15
I0
I1
tp16
Rp17
(I3
S'<'
p18
NNNI-1
I-1
I0
tp19
bI00
S'\x80\x94e\xa2\x00#<\xc0f\xa19\xb6v\x011\xc0&\xd2\x85%\xa3\xeb\x13\xc0'
p20
tp21
bsS'secnames'
p22
S'Cell[3].axon[127]'
p23
sI145
I43
tp24
a(F1.060881603788213
S'Cell[0].apic[13] syn_ = new ExpSid(0.5)'
p25
I0
(dp26
g3
F0.30000000000000004
sg4
F1.0
sg5
I145
sg6
g7
(g8
(I0
tp27
g10
tp28
Rp29
(I1
(I3
tp30
g17
I00
S'\x11\x80E#\x83\xd6K\xc0g\xbd\x90-M\xd0+@\xddu\xb8+\n\x88\x18@'
p31
tp32
bsg22
S'Cell[3].axon[135]'
p33
sI145
I43
tp34
a(F1.4372640191271755
S'Cell[0].apic[2] syn_ = new ExpSid(0.5)'
p35
I0
(dp36
g3
F0.5
sg4
F1.0
sg5
I145
sg6
g7
(g8
(I0
tp37
g10
tp38
Rp39
(I1
(I3
tp40
g17
I00
S'\xc6\xfe\xd2\xd7R>L\xc0\x14b\n\xe9\xc0\xb0>@0\xac\x0eA\xa8\x1cB@'
p41
tp42
bsg22
S'Cell[3].axon[142]'
p43
sI145
I43
tp44
a(F2.4254063633344853
S'Cell[2].apic[29] syn_ = new FastInhib(0.166666666667)'
p45
I2
(dp46
g3
F0.16666666666666666
sg4
F1.0
sg5
I1
sg6
g7
(g8
(I0
tp47
g10
tp48
Rp49
(I1
(I3
tp50
g17
I00
S'\xe7\xe4h\xbe\xd9\xa9K@^%\x7fR\xbc~R\xc0a\xef:_I}!@'
p51
tp52
bsg22
S'Cell[0].axon[4]'
p53
sI1
I139
tp54
a(F1.4155009415908546
S'Cell[1].dend[7] syn_ = new FastInhib(0.5)'
p55
I1
(dp56
g3
F0.5
sg4
F1.0
sg5
I97
sg6
g7
(g8
(I0
tp57
g10
tp58
Rp59
(I1
(I3
tp60
g17
I00
S'\xd5\xa1e\xce\xfd?I@d\xbc\x14\x8c\x16\xcf!@\x00\x00\x00\x80\x14\xae\x01@'
p61
tp62
bsg22
S'Cell[2].axon[70]'
p63
sI97
I91
tp64
a(F0.8975829163453412
S'Cell[3].dend[5] syn_ = new FastInhib(0.5)'
p65
I3
(dp66
g3
F0.5
sg4
F1.0
sg5
I97
sg6
g7
(g8
(I0
tp67
g10
tp68
Rp69
(I1
(I3
tp70
g17
I00
S'\xdc\x940\xd2\x0f\xa92@,\x08\x9d\x0b\x1a|N@\xbfFM[gy$@'
p71
tp72
bsg22
S'Cell[2].axon[221]'
p73
sI97
I187
tp74
a(F2.2078228454417346
S'Cell[1].dend[33] syn_ = new FastInhib(0.833333333333)'
p75
I1
(dp76
S'seg'
p77
F0.16666666666666666
sS'hostfrom'
p78
F2.0
sS'gid'
p79
I98
sS'coords'
p80
g7
(g8
(I0
tp81
g10
tp82
Rp83
(I1
(I3
tp84
g14
(S'f8'
p85
I0
I1
tp86
Rp87
(I3
S'<'
p88
NNNI-1
I-1
I0
tp89
bI00
S'\x00\x00\x00\x80\x14.F@\x80\x95\xf6\xebp\xb4[@>\xc7\xf9\xef\xaf\xfd\x10\xc0'
p90
tp91
bsS'secnames'
p92
S'Cell[2].axon[74]'
p93
sI98
I91
tp94
a(F1.7470182696625423
S'Cell[2].dend[9] syn_ = new FastInhib(0.3)'
p95
I2
(dp96
g77
F0.8333333333333333
sg78
F2.0
sg79
I98
sg80
g7
(g8
(I0
tp97
g10
tp98
Rp99
(I1
(I3
tp100
g87
I00
S"\x84\xd5\xf86<'\x18\xc0\xe7S9\x88\xd6\xe4\xfb?\x00\x00\x00\xc0\xf5(\xfc?"
p101
tp102
bsg92
S'Cell[2].axon[301]'
p103
sI98
I139
tp104
a(F2.303318742597705
S'Cell[1].dend[31] syn_ = new FastInhib(0.166666666667)'
p105
I1
(dp106
g77
F0.16666666666666666
sg78
F2.0
sg79
I98
sg80
g7
(g8
(I0
tp107
g10
tp108
Rp109
(I1
(I3
tp110
g87
I00
S'p\xbc\xfd\x84\x99\xf1@@\xd0],+\xb6\x0cA@"\xe0\xa7\xec\xa4\xb5;\xc0'
p111
tp112
bsg92
S'Cell[2].axon[428]'
p113
sI98
I91
tp114
a(F1.4400980022313787
S'Cell[0].dend[14] syn_ = new AmpaNmda(0.5)'
p115
I0
(dp116
g77
F0.16666666666666666
sg78
F2.0
sg79
I146
sg80
g7
(g8
(I0
tp117
g10
tp118
Rp119
(I1
(I3
tp120
g87
I00
S'\xa6v7\x84w\xd7;\xc0\xa21\x8f\x07Fu0\xc0L\xbd\x81I\x91Y\x1a\xc0'
p121
tp122
bsg92
S'Cell[3].axon[124]'
p123
sI146
I43
tp124
a(F2.2078228454417346
S'Cell[1].dend[33] syn_ = new FastInhib(0.833333333333)'
p125
I1
(dp126
S'seg'
p127
F0.16666666666666666
sS'hostfrom'
p128
F3.0
sS'gid'
p129
I99
sS'coords'
p130
g7
(g8
(I0
tp131
g10
tp132
Rp133
(I1
(I3
tp134
g14
(S'f8'
p135
I0
I1
tp136
Rp137
(I3
S'<'
p138
NNNI-1
I-1
I0
tp139
bI00
S'\x00\x00\x00\x80\x14.F@\x80\x95\xf6\xebp\xb4[@>\xc7\xf9\xef\xaf\xfd\x10\xc0'
p140
tp141
bsS'secnames'
p142
S'Cell[2].axon[74]'
p143
sI99
I91
tp144
a(F1.7470182696625423
S'Cell[2].dend[9] syn_ = new FastInhib(0.3)'
p145
I2
(dp146
g127
F0.8333333333333333
sg128
F3.0
sg129
I99
sg130
g7
(g8
(I0
tp147
g10
tp148
Rp149
(I1
(I3
tp150
g137
I00
S"\x84\xd5\xf86<'\x18\xc0\xe7S9\x88\xd6\xe4\xfb?\x00\x00\x00\xc0\xf5(\xfc?"
p151
tp152
bsg142
S'Cell[2].axon[301]'
p153
sI99
I139
tp154
a(F2.303318742597705
S'Cell[1].dend[31] syn_ = new FastInhib(0.166666666667)'
p155
I1
(dp156
g127
F0.16666666666666666
sg128
F3.0
sg129
I99
sg130
g7
(g8
(I0
tp157
g10
tp158
Rp159
(I1
(I3
tp160
g137
I00
S'p\xbc\xfd\x84\x99\xf1@@\xd0],+\xb6\x0cA@"\xe0\xa7\xec\xa4\xb5;\xc0'
p161
tp162
bsg142
S'Cell[2].axon[428]'
p163
sI99
I91
tp164
a(F1.7619246600682532
S'Cell[3].dend[45] syn_ = new FastInhib(0.166666666667)'
p165
I3
(dp166
g127
F0.3571428571428571
sg128
F3.0
sg129
I147
sg130
g7
(g8
(I0
tp167
g10
tp168
Rp169
(I1
(I3
tp170
g137
I00
S'\x85\xf8\xcd\xaa\xf6\xfa\x00@JU2\x05I\xfc*\xc0\x81\x18\x89&\xf6\xb56\xc0'
p171
tp172
bsg142
S'Cell[3].axon[135]'
p173
sI147
I187
tp174
a(F1.8555480382112057
S'Cell[3].dend[41] syn_ = new FastInhib(0.5)'
p175
I3
(dp176
g127
F0.49999999999999994
sg128
F3.0
sg129
I147
sg130
g7
(g8
(I0
tp177
g10
tp178
Rp179
(I1
(I3
tp180
g137
I00
S'\xb0\x1f\xa6\x91V\x986@\x10\x0c\xfc\x12\xb5:\xee\xbf\xda#&\xa7\xfb\x0e#@'
p181
tp182
bsg142
S'Cell[3].axon[136]'
p183
sI147
I187
tp184
a(F1.6316853573199426
S'Cell[2].dend[6] syn_ = new FastInhib(0.5)'
p185
I2
(dp186
S'seg'
p187
F0.8333333333333333
sS'hostfrom'
p188
F4.0
sS'gid'
p189
I148
sS'coords'
p190
g7
(g8
(I0
tp191
g10
tp192
Rp193
(I1
(I3
tp194
g14
(S'f8'
p195
I0
I1
tp196
Rp197
(I3
S'<'
p198
NNNI-1
I-1
I0
tp199
bI00
S'k\xa2l\xad8gL@\xa34\xfd\xfb\xdf\x7f5\xc0\xf6\xe8\xd1iu\x803@'
p200
tp201
bsS'secnames'
p202
S'Cell[3].axon[326]'
p203
sI148
I139
tp204
a(F0.8336052920826745
S'Cell[1].dend[0] syn_ = new FastInhib(0.5)'
p205
I1
(dp206
g187
F0.8333333333333333
sg188
F4.0
sg189
I148
sg190
g7
(g8
(I0
tp207
g10
tp208
Rp209
(I1
(I3
tp210
g197
I00
S'\xc2y\xfb)\xb1>?@[\x88\x19\x0f\xdbW2\xc0\x00\x00\x00\xc0\xcc\xcc\x1f@'
p211
tp212
bsg202
S'Cell[3].axon[337]'
p213
sI148
I91
tp214
a(F2.0282059715351264
S'Cell[0].dend[14] syn_ = new AmpaNmda(0.5)'
p215
I0
(dp216
g187
F0.5
sg188
F4.0
sg189
I100
sg190
g7
(g8
(I0
tp217
g10
tp218
Rp219
(I1
(I3
tp220
g197
I00
S'\x00\x00\x00\xd0z\x14=\xc0\x00\x00\x00\xe0Qx0\xc0\x00\x00\x00 \x85\xeb\x1a\xc0'
p221
tp222
bsg202
S'Cell[2].soma[0]'
p223
sI100
I43
tp224
a(F1.9632551534825426
S'Cell[0].apic[4] syn_ = new AmpaNmda(0.5)'
p225
I0
(dp226
g187
F0.16666666666666666
sg188
F4.0
sg189
I100
sg190
g7
(g8
(I0
tp227
g10
tp228
Rp229
(I1
(I3
tp230
g197
I00
S'\xe8<\xbd\xe6\xe1\xcd@\xc0\x8f\x92\x03gD\xea\x1d@\x89Yu\xb7\xde\xe1\xe5\xbf'
p231
tp232
bsg202
S'Cell[2].axon[0]'
p233
sI100
I43
tp234
a(F1.6752935692277533
S'Cell[3].dend[48] syn_ = new FastInhib(0.7)'
p235
I3
(dp236
g187
F0.2692307692307693
sg188
F4.0
sg189
I100
sg190
g7
(g8
(I0
tp237
g10
tp238
Rp239
(I1
(I3
tp240
g197
I00
S'\xa7\x17\xec:\x0c\x8dL\xc0\xb0\xf7\x8b\xf1\x80\xd0X\xc04\xea\xf1\x8f\xc7`Q\xc0'
p241
tp242
bsg202
S'Cell[2].axon[16]'
p243
sI100
I187
tp244
a(F2.491912472864516
S'Cell[3].dend[39] syn_ = new FastInhib(0.1)'
p245
I3
(dp246
g187
F0.5
sg188
F4.0
sg189
I100
sg190
g7
(g8
(I0
tp247
g10
tp248
Rp249
(I1
(I3
tp250
g197
I00
S'\xd6\x9b\x8d}\xf2\xa49@;B\xb1\x11\xaa\x9c>\xc0\xb6\xc5*\xe5E\x15.\xc0'
p251
tp252
bsg202
S'Cell[2].axon[72]'
p253
sI100
I187
tp254
a(F2.0180919390569683
S'Cell[0].apic[36] syn_ = new AmpaNmda(0.5)'
p255
I0
(dp256
g187
F0.8333333333333335
sg188
F4.0
sg189
I100
sg190
g7
(g8
(I0
tp257
g10
tp258
Rp259
(I1
(I3
tp260
g197
I00
S'\xa0\x84\xf2\xfcB\xdb\xae?G/\x1a\xf0\xfaXV@8f\xa3\xb19\xea\xff\xbf'
p261
tp262
bsg202
S'Cell[2].axon[117]'
p263
sI100
I43
tp264
a(F2.456318649240502
S'Cell[0].apic[28] syn_ = new ExpSid(0.5)'
p265
I0
(dp266
S'seg'
p267
F0.5
sS'hostfrom'
p268
F5.0
sS'gid'
p269
I5
sS'coords'
p270
g7
(g8
(I0
tp271
g10
tp272
Rp273
(I1
(I3
tp274
g14
(S'f8'
p275
I0
I1
tp276
Rp277
(I3
S'<'
p278
NNNI-1
I-1
I0
tp279
bI00
S'\xdf\xc2|a\xf0$=\xc0S\x0b\xf8\xb8\x12\x8eQ@\xa8\xbe\xd4}\x01\xf8\x14\xc0'
p280
tp281
bsS'secnames'
p282
S'Cell[0].axon[12]'
p283
sI5
I43
tp284
a(F2.499023769451427
S'Cell[3].dend[51] syn_ = new FastInhib(0.5)'
p285
I3
(dp286
S'seg'
p287
F0.9285714285714284
sS'hostfrom'
p288
F6.0
sS'gid'
p289
I102
sS'coords'
p290
g7
(g8
(I0
tp291
g10
tp292
Rp293
(I1
(I3
tp294
g14
(S'f8'
p295
I0
I1
tp296
Rp297
(I3
S'<'
p298
NNNI-1
I-1
I0
tp299
bI00
S"\x07'\xce\x13\x99\xc6$\xc0\xe7\x96@,N\x8d@\xc0\x00\x00\x00\xe0\xa3p\x16\xc0"
p300
tp301
bsS'secnames'
p302
S'Cell[2].axon[30]'
p303
sI102
I187
tp304
a(F1.1102921548476774
S'Cell[3].dend[10] syn_ = new FastInhib(0.5)'
p305
I3
(dp306
g287
F0.5
sg288
F6.0
sg289
I150
sg290
g7
(g8
(I0
tp307
g10
tp308
Rp309
(I1
(I3
tp310
g297
I00
S'0]\x08\x85\x9e\tM@k\x06\xbb\xd0\x0b\x93O@\x00\x00\x00\x80\x14\xee>\xc0'
p311
tp312
bsg302
S'Cell[3].axon[18]'
p313
sI150
I187
tp314
a(F1.7297957140484237
S'Cell[3].dend[49] syn_ = new FastInhib(0.5)'
p315
I3
(dp316
g287
F0.5
sg288
F6.0
sg289
I150
sg290
g7
(g8
(I0
tp317
g10
tp318
Rp319
(I1
(I3
tp320
g297
I00
S'\x96\xc9\x0e"\x80FF\xc0p\xec\x8e\xc1\xab\xf3K\xc0\xdc\xcd\x85D/iB\xc0'
p321
tp322
bsg302
S'Cell[3].axon[105]'
p323
sI150
I187
tp324
a(F1.425458288680857
S'Cell[3].dend[52] syn_ = new FastInhib(0.833333333333)'
p325
I3
(dp326
S'seg'
p327
F0.5
sS'hostfrom'
p328
F7.0
sS'gid'
p329
I103
sS'coords'
p330
g7
(g8
(I0
tp331
g10
tp332
Rp333
(I1
(I3
tp334
g14
(S'f8'
p335
I0
I1
tp336
Rp337
(I3
S'<'
p338
NNNI-1
I-1
I0
tp339
bI00
S'\x9eK%\xb0I\xe0+\xc0\xa6\xae\xac\xeaCNT\xc0r\x07[D\xea\xe1\xc9\xbf'
p340
tp341
bsS'secnames'
p342
S'Cell[2].axon[2]'
p343
sI103
I187
tp344
a(F1.4751780752903036
S'Cell[3].dend[50] syn_ = new FastInhib(0.5)'
p345
I3
(dp346
g327
F0.16666666666666666
sg328
F7.0
sg329
I103
sg330
g7
(g8
(I0
tp347
g10
tp348
Rp349
(I1
(I3
tp350
g337
I00
S'`\xd1\xc2\xfe\xf9\x90\xb7\xbf\x91\xdc4\xee#&1\xc0\x00\x00\x00\x00\x00\xc05\xc0'
p351
tp352
bsg342
S'Cell[2].axon[154]'
p353
sI103
I187
tp354
a(F2.3871662183889915
S'Cell[3].dend[13] syn_ = new FastInhib(0.5)'
p355
I3
(dp356
g327
F0.07142857142857142
sg328
F7.0
sg329
I103
sg330
g7
(g8
(I0
tp357
g10
tp358
Rp359
(I1
(I3
tp360
g337
I00
S'2\xcd\xac\xf6\n>;@\xec\xa2\x91\xf8\x18\x12F@$\xf0\xbe\xcf\xd6\x7f#\xc0'
p361
tp362
bsg342
S'Cell[2].axon[226]'
p363
sI103
I187
tp364
a(F1.6793152410558192
S'Cell[3].dend[28] syn_ = new FastInhib(0.166666666667)'
p365
I3
(dp366
g327
F0.8333333333333333
sg328
F7.0
sg329
I103
sg330
g7
(g8
(I0
tp367
g10
tp368
Rp369
(I1
(I3
tp370
g337
I00
S'\xce\xb6\xb7\x10\xc0AC@M\x12_\x1cv[?@\x92\xd1\xb7qOB\xed\xbf'
p371
tp372
bsg342
S'Cell[2].axon[298]'
p373
sI103
I187
tp374
a(F2.401655650291228
S'Cell[2].dend[40] syn_ = new FastInhib(0.3)'
p375
I2
(dp376
g327
F0.7
sg328
F7.0
sg329
I103
sg330
g7
(g8
(I0
tp377
g10
tp378
Rp379
(I1
(I3
tp380
g337
I00
S'\xe4(=\xf2\x01\xe8a@-\xf1\xc9\xe0E\xefB\xc0\\9<\x03\xfe\x9a)\xc0'
p381
tp382
bsg342
S'Cell[2].axon[357]'
p383
sI103
I139
tp384
a(F1.5486369528585704
S'Cell[1].dend[36] syn_ = new FastInhib(0.833333333333)'
p385
I1
(dp386
g327
F0.7
sg328
F7.0
sg329
I103
sg330
g7
(g8
(I0
tp387
g10
tp388
Rp389
(I1
(I3
tp390
g337
I00
S'\x18\xf1\x8d\xaf\x8bpE@j\xec\x9a\xa4\xeepF\xc0\xa33\xf2\x15\n\x8d3\xc0'
p391
tp392
bsg342
S'Cell[2].axon[361]'
p393
sI103
I91
tp394
a(F2.052451220400035
S'Cell[3].dend[23] syn_ = new FastInhib(0.5)'
p395
I3
(dp396
g327
F0.5
sg328
F7.0
sg329
I151
sg330
g7
(g8
(I0
tp397
g10
tp398
Rp399
(I1
(I3
tp400
g337
I00
S'\x94Q\x8d\xac\x046A@\xd1\x91\x011\x8e\x965@-\xa9\xa8+\xf8\xfcQ\xc0'
p401
tp402
bsg342
S'Cell[3].axon[68]'
p403
sI151
I187
tp404
a(F1.9764650334440117
S'Cell[1].dend[36] syn_ = new FastInhib(0.166666666667)'
p405
I1
(dp406
g327
F0.8333333333333333
sg328
F7.0
sg329
I151
sg330
g7
(g8
(I0
tp407
g10
tp408
Rp409
(I1
(I3
tp410
g337
I00
S'"\x94\xca\x1d\x03\\B@F\xd0\xee\x84\x97\xa1K\xc0\n0;\xf5x\xac\xf5\xbf'
p411
tp412
bsg342
S'Cell[3].axon[107]'
p413
sI151
I91
tp414
a(F1.5362983566448531
S'Cell[2].apic[11] syn_ = new FastInhib(0.5)'
p415
I2
(dp416
g327
F0.3571428571428571
sg328
F7.0
sg329
I151
sg330
g7
(g8
(I0
tp417
g10
tp418
Rp419
(I1
(I3
tp420
g337
I00
S'`F\xeb+]\x95W@\x7f\xea\x9d\xfa\xee1Q\xc0\x00\x00\x00\x00\xd7c0\xc0'
p421
tp422
bsg342
S'Cell[3].axon[160]'
p423
sI151
I139
tp424
a(F2.476503349425224
S'Cell[1].dend[50] syn_ = new FastInhib(0.5)'
p425
I1
(dp426
g327
F0.8333333333333333
sg328
F7.0
sg329
I151
sg330
g7
(g8
(I0
tp427
g10
tp428
Rp429
(I1
(I3
tp430
g337
I00
S'v\xf1+\xc4\xfa9\xf4?\xe7\xb8\x1b\x1eZ)A\xc0I:\x96\x9e\n\xc7\r@'
p431
tp432
bsg342
S'Cell[3].axon[286]'
p433
sI151
I91
tp434
a(F0.764583667057416
S'Cell[0].apic[20] syn_ = new AmpaNmda(0.833333333333)'
p435
I0
(dp436
S'seg'
p437
F0.30000000000000004
sS'hostfrom'
p438
F8.0
sS'gid'
p439
I8
sS'coords'
p440
g7
(g8
(I0
tp441
g10
tp442
Rp443
(I1
(I3
tp444
g14
(S'f8'
p445
I0
I1
tp446
Rp447
(I3
S'<'
p448
NNNI-1
I-1
I0
tp449
bI00
S'J\xa6\tV\x13wV\xc0\xa6\xa3]\xa2\xc2\xc9`@\xe8D\xcd-]5B\xc0'
p450
tp451
bsS'secnames'
p452
S'Cell[0].axon[48]'
p453
sI8
I43
tp454
a(F1.9926299747048497
S'Cell[1].dend[31] syn_ = new FastInhib(0.166666666667)'
p455
I1
(dp456
g437
F0.5
sg438
F8.0
sg439
I152
sg440
g7
(g8
(I0
tp457
g10
tp458
Rp459
(I1
(I3
tp460
g447
I00
S'\xf4\xc0gM\xfa\xf0A@\xfc\x8d\t\x7f\xcbG?@\x88e\x1d\x17\xdf\t:\xc0'
p461
tp462
bsg452
S'Cell[3].axon[342]'
p463
sI152
I91
tp464
a(F2.4269815597029467
S'Cell[2].dend[17] syn_ = new FastInhib(0.5)'
p465
I2
(dp466
g437
F0.8333333333333333
sg438
F8.0
sg439
I152
sg440
g7
(g8
(I0
tp467
g10
tp468
Rp469
(I1
(I3
tp470
g447
I00
S'P\x9d\x1bHI\x86P@)\x0e\xe7\x97\xe0\x04\xe1\xbf\x00\x00\x00\x80\xeb1A\xc0'
p471
tp472
bsg452
S'Cell[3].axon[363]'
p473
sI152
I139
tp474
a(F2.2820717973626254
S'Cell[2].dend[1] syn_ = new FastInhib(0.5)'
p475
I2
(dp476
g437
F0.5
sg438
F8.0
sg439
I104
sg440
g7
(g8
(I0
tp477
g10
tp478
Rp479
(I1
(I3
tp480
g447
I00
S'T\xe2L\xeax\xf0R@q\x92\x88U-\x1d5\xc0u\xbeH\xee\xf8\xaf+@'
p481
tp482
bsg452
S'Cell[2].axon[94]'
p483
sI104
I139
tp484
a(F1.5823082820138068
S'Cell[2].dend[42] syn_ = new FastInhib(0.7)'
p485
I2
(dp486
g437
F0.7857142857142856
sg438
F8.0
sg439
I104
sg440
g7
(g8
(I0
tp487
g10
tp488
Rp489
(I1
(I3
tp490
g447
I00
S'\xa2\xae\xff\xd3;oe@\xab\xcd \\\xfe\xf0A\xc0"\x8b\x96?\xde\x12=\xc0'
p491
tp492
bsg452
S'Cell[2].axon[102]'
p493
sI104
I139
tp494
a(F2.467100164031935
S'Cell[2].apic[15] syn_ = new FastInhib(0.5)'
p495
I2
(dp496
g437
F0.8333333333333333
sg438
F8.0
sg439
I104
sg440
g7
(g8
(I0
tp497
g10
tp498
Rp499
(I1
(I3
tp500
g447
I00
S'b x\x12\xe8|T@\x17\xf6<K\xbd\xbaQ\xc0\xec\xbei\xb9Pz\x0c@'
p501
tp502
bsg452
S'Cell[2].axon[166]'
p503
sI104
I139
tp504
a(F2.116872789725622
S'Cell[1].dend[16] syn_ = new FastInhib(0.5)'
p505
I1
(dp506
g437
F0.8999999999999999
sg438
F8.0
sg439
I104
sg440
g7
(g8
(I0
tp507
g10
tp508
Rp509
(I1
(I3
tp510
g447
I00
S'V\x17JK4pi@\xfaK1\xc4&\tE@\x0b\x07%V\xd0\x02F\xc0'
p511
tp512
bsg452
S'Cell[2].axon[318]'
p513
sI104
I91
tp514
a(F2.3660442308287757
S'Cell[2].dend[41] syn_ = new FastInhib(0.5)'
p515
I2
(dp516
g437
F0.5
sg438
F8.0
sg439
I104
sg440
g7
(g8
(I0
tp517
g10
tp518
Rp519
(I1
(I3
tp520
g447
I00
S'\x00\x00\x00P\xb8\xbe[@\x00\x00\x00\xe0\xa3p?\xc0\x00\x00\x00\xc0\xf5(\x17@'
p521
tp522
bsg452
S'Cell[2].axon[328]'
p523
sI104
I139
tp524
a(F1.7339130580835194
S'Cell[0].dend[21] syn_ = new AmpaNmda(0.833333333333)'
p525
I0
(dp526
g437
F0.8333333333333333
sg438
F8.0
sg439
I104
sg440
g7
(g8
(I0
tp527
g10
tp528
Rp529
(I1
(I3
tp530
g447
I00
S'R\xf6^M\x8dGF@\xbb\xbfj+\xbe\xaf\x1a\xc0]\x17N\x8e\xb9\xac9@'
p531
tp532
bsg452
S'Cell[2].axon[332]'
p533
sI104
I43
tp534
a(F1.4647832816291908
S'Cell[1].dend[47] syn_ = new FastInhib(0.166666666667)'
p535
I1
(dp536
S'seg'
p537
F0.8333333333333333
sS'hostfrom'
p538
F9.0
sS'gid'
p539
I105
sS'coords'
p540
g7
(g8
(I0
tp541
g10
tp542
Rp543
(I1
(I3
tp544
g14
(S'f8'
p545
I0
I1
tp546
Rp547
(I3
S'<'
p548
NNNI-1
I-1
I0
tp549
bI00
S'L0\xc8 *\xcf:\xc0\xfd\x96\xf4\x08\xe7\x82 \xc0\x05<\x12\xb1\xa6\x98L\xc0'
p550
tp551
bsS'secnames'
p552
S'Cell[2].axon[260]'
p553
sI105
I91
tp554
a(F2.4494624304302253
S'Cell[1].dend[49] syn_ = new FastInhib(0.3)'
p555
I1
(dp556
g537
F0.1
sg538
F9.0
sg539
I105
sg540
g7
(g8
(I0
tp557
g10
tp558
Rp559
(I1
(I3
tp560
g547
I00
S'\xb3 h\x10\x1d\x9f"\xc0>&U\x15\x87\xfdB\xc0\x1c\xeaf\x80\xdf J\xc0'
p561
tp562
bsg552
S'Cell[2].axon[272]'
p563
sI105
I91
tp564
a(F0.888090115988757
S'Cell[1].dend[46] syn_ = new FastInhib(0.166666666667)'
p565
I1
(dp566
S'seg'
p567
F0.5
sS'hostfrom'
p568
F10.0
sS'gid'
p569
I106
sS'coords'
p570
g7
(g8
(I0
tp571
g10
tp572
Rp573
(I1
(I3
tp574
g14
(S'f8'
p575
I0
I1
tp576
Rp577
(I3
S'<'
p578
NNNI-1
I-1
I0
tp579
bI00
S'V\x12\x84>.\x13\x15@\x91\x99\rj\x87\x1fC\xc0\xee\xe5y\xd5\x8a\xf59\xc0'
p580
tp581
bsS'secnames'
p582
S'Cell[2].axon[201]'
p583
sI106
I91
tp584
a(F2.43918275386513
S'Cell[3].dend[9] syn_ = new FastInhib(0.1)'
p585
I3
(dp586
g567
F0.16666666666666666
sg568
F10.0
sg569
I106
sg570
g7
(g8
(I0
tp587
g10
tp588
Rp589
(I1
(I3
tp590
g577
I00
S'\xa5\xc7f\xf8\x02[\x05@\xa8\xb0\xb2\x0b.\xcfJ@\xf1\xfey\xb7\xe5\xba"\xc0'
p591
tp592
bsg582
S'Cell[2].axon[224]'
p593
sI106
I187
tp594
a(F2.1992163640390694
S'Cell[3].dend[60] syn_ = new FastInhib(0.5)'
p595
I3
(dp596
g567
F0.16666666666666666
sg568
F10.0
sg569
I106
sg570
g7
(g8
(I0
tp597
g10
tp598
Rp599
(I1
(I3
tp600
g577
I00
S'\x802\x0c\xd2\xad\xe4>\xc0W\x13\x92\x8ap\xd65@\x00\x00\x00 \x85+=\xc0'
p601
tp602
bsg582
S'Cell[2].axon[302]'
p603
sI106
I187
tp604
a(F2.320027014261533
S'Cell[1].dend[34] syn_ = new FastInhib(0.5)'
p605
I1
(dp606
g567
F0.3461538461538462
sg568
F10.0
sg569
I58
sg570
g7
(g8
(I0
tp607
g10
tp608
Rp609
(I1
(I3
tp610
g577
I00
S',\xd3\x9e\x1f%\xc5P@\xb2\xf7\xc3\xe4\xc21R@\x00\x00\x00\xc0\xf5\xa8(\xc0'
p611
tp612
bsg582
S'Cell[1].axon[36]'
p613
sI58
I91
tp614
a(F1.0853312753028375
S'Cell[1].dend[49] syn_ = new FastInhib(0.7)'
p615
I1
(dp616
S'seg'
p617
F0.5
sS'hostfrom'
p618
F11.0
sS'gid'
p619
I155
sS'coords'
p620
g7
(g8
(I0
tp621
g10
tp622
Rp623
(I1
(I3
tp624
g14
(S'f8'
p625
I0
I1
tp626
Rp627
(I3
S'<'
p628
NNNI-1
I-1
I0
tp629
bI00
S'\x96\xba\x8e7Z%L\xc0\xbb\xac1,\x1b\xe6@\xc0\xb5\x1e>\xa3\x07\xbeV\xc0'
p630
tp631
bsS'secnames'
p632
S'Cell[3].axon[207]'
p633
sI155
I91
tp634
a(F2.2822990321554157
S'Cell[3].dend[51] syn_ = new FastInhib(0.833333333333)'
p635
I3
(dp636
g617
F0.30000000000000004
sg618
F11.0
sg619
I155
sg620
g7
(g8
(I0
tp637
g10
tp638
Rp639
(I1
(I3
tp640
g627
I00
S'<\x14\xe4\xc7\x97\xe30\xc0-\xd4\xa6\r\x18\x8bE\xc0\xfeO\xe2G\x89U\x1f\xc0'
p641
tp642
bsg632
S'Cell[3].axon[220]'
p643
sI155
I187
tp644
a(F0.7537410148852522
S'Cell[2].apic[20] syn_ = new FastInhib(0.5)'
p645
I2
(dp646
S'seg'
p647
F0.5
sS'hostfrom'
p648
F12.0
sS'gid'
p649
I60
sS'coords'
p650
g7
(g8
(I0
tp651
g10
tp652
Rp653
(I1
(I3
tp654
g14
(S'f8'
p655
I0
I1
tp656
Rp657
(I3
S'<'
p658
NNNI-1
I-1
I0
tp659
bI00
S'\x81\xdf^U\\\x18K@:\xe2\xe01[\xc8[\xc0\x00\x00\x00`f\xa64@'
p660
tp661
bsS'secnames'
p662
S'Cell[1].axon[76]'
p663
sI60
I139
tp664
a(F2.3816043361959442
S'Cell[2].apic[29] syn_ = new FastInhib(0.166666666667)'
p665
I2
(dp666
S'seg'
p667
F0.8999999999999999
sS'hostfrom'
p668
F13.0
sS'gid'
p669
I109
sS'coords'
p670
g7
(g8
(I0
tp671
g10
tp672
Rp673
(I1
(I3
tp674
g14
(S'f8'
p675
I0
I1
tp676
Rp677
(I3
S'<'
p678
NNNI-1
I-1
I0
tp679
bI00
S"\xe4\x1d\x92\x89&'J@\xfe\x8c\xab\x1f\xea\xc5R\xc0\x00\x00\x00`\x8f\xc2%@"
p680
tp681
bsS'secnames'
p682
S'Cell[2].axon[100]'
p683
sI109
I139
tp684
a(F1.6170641232405962
S'Cell[2].dend[3] syn_ = new FastInhib(0.7)'
p685
I2
(dp686
S'seg'
p687
F0.16666666666666666
sS'hostfrom'
p688
F14.0
sS'gid'
p689
I110
sS'coords'
p690
g7
(g8
(I0
tp691
g10
tp692
Rp693
(I1
(I3
tp694
g14
(S'f8'
p695
I0
I1
tp696
Rp697
(I3
S'<'
p698
NNNI-1
I-1
I0
tp699
bI00
S'ww\xce7\xe9|*\xc0\xb2u\t\x1f\xf2|A\xc0\xd9\xf4\xcb~\xc9*\x11\xc0'
p700
tp701
bsS'secnames'
p702
S'Cell[2].axon[3]'
p703
sI110
I139
tp704
a(F1.6925365852692889
S'Cell[2].dend[4] syn_ = new FastInhib(0.5)'
p705
I2
(dp706
g687
F0.16666666666666666
sg688
F14.0
sg689
I110
sg690
g7
(g8
(I0
tp707
g10
tp708
Rp709
(I1
(I3
tp710
g697
I00
S'\x84\x1f\xd4*i\x7fM@[\x82\xd5\xac\xd5\xe53\xc0\xfb%\r\xe6~~3@'
p711
tp712
bsg702
S'Cell[2].axon[79]'
p713
sI110
I139
tp714
a(F2.25782562658302
S'Cell[2].dend[4] syn_ = new FastInhib(0.5)'
p715
I2
(dp716
g687
F0.5
sg688
F14.0
sg689
I110
sg690
g7
(g8
(I0
tp717
g10
tp718
Rp719
(I1
(I3
tp720
g697
I00
S'Q\x03\x9c\xe8\xbfRM@\xd2\xce\xd0\r\x7f\x804\xc0\xdbgs\x97\t 2@'
p721
tp722
bsg702
S'Cell[2].axon[128]'
p723
sI110
I139
tp724
a(F2.179925376358651
S'Cell[2].dend[3] syn_ = new FastInhib(0.1)'
p725
I2
(dp726
g687
F0.5
sg688
F14.0
sg689
I110
sg690
g7
(g8
(I0
tp727
g10
tp728
Rp729
(I1
(I3
tp730
g697
I00
S'\x0eC\x7fv\xfeFH@\xb2K\x17\x82\xa3\x90/\xc0:\x06tT\x1f\xba)@'
p731
tp732
bsg702
S'Cell[2].axon[129]'
p733
sI110
I139
tp734
a(F2.2492846584056503
S'Cell[2].apic[28] syn_ = new FastInhib(0.5)'
p735
I2
(dp736
g687
F0.8333333333333333
sg688
F14.0
sg689
I110
sg690
g7
(g8
(I0
tp737
g10
tp738
Rp739
(I1
(I3
tp740
g697
I00
S'Q\nvT\xd4\xf7O@\xe8\xdd\x87K\xf08R\xc0\x18v:)1\xad\x1c@'
p741
tp742
bsg702
S'Cell[2].axon[133]'
p743
sI110
I139
tp744
a(F2.3436857337264954
S'Cell[2].dend[38] syn_ = new FastInhib(0.5)'
p745
I2
(dp746
g687
F0.5
sg688
F14.0
sg689
I158
sg690
g7
(g8
(I0
tp747
g10
tp748
Rp749
(I1
(I3
tp750
g697
I00
S'\xf3\xb7\xd9\xd2W\xaa^@\x04Y\xd5\xebD\xb1?\xc0\x982\x06\x9bZ\xae2@'
p751
tp752
bsg702
S'Cell[3].axon[131]'
p753
sI158
I139
tp754
a(F1.1141138864791305
S'Cell[0].dend[9] syn_ = new AmpaNmda(0.5)'
p755
I0
(dp756
S'seg'
p757
F0.5
sS'hostfrom'
p758
F16.0
sS'gid'
p759
I16
sS'coords'
p760
g7
(g8
(I0
tp761
g10
tp762
Rp763
(I1
(I3
tp764
g14
(S'f8'
p765
I0
I1
tp766
Rp767
(I3
S'<'
p768
NNNI-1
I-1
I0
tp769
bI00
S'\x00\x00\x00\xd8\xa3pG\xc0\x00\x00\x00\xe0z\x94(\xc0\x00\x00\x00@\n\xd7\x0f@'
p770
tp771
bsS'secnames'
p772
S'Cell[0].soma[0]'
p773
sI16
I43
tp774
a(F2.065396200506133
S'Cell[1].dend[42] syn_ = new FastInhib(0.1)'
p775
I1
(dp776
g757
F0.30000000000000004
sg758
F16.0
sg759
I64
sg760
g7
(g8
(I0
tp777
g10
tp778
Rp779
(I1
(I3
tp780
g767
I00
S'\x80g\x83\x1a\xf83G@\x8c\x08O!\x9f)I\xc0[\xd7<\xd5C\xad\x08\xc0'
p781
tp782
bsg772
S'Cell[1].axon[11]'
p783
sI64
I91
tp784
a(F1.9798102724973856
S'Cell[3].dend[31] syn_ = new FastInhib(0.5)'
p785
I3
(dp786
g757
F0.16666666666666666
sg758
F16.0
sg759
I160
sg760
g7
(g8
(I0
tp787
g10
tp788
Rp789
(I1
(I3
tp790
g767
I00
S'\xe8\xa8\xe9`\xef\x005@\xd4iE.\xe5\xe6+@\xa2\xda\xe0N\xc8[)\xc0'
p791
tp792
bsg772
S'Cell[3].axon[138]'
p793
sI160
I187
tp794
a(F1.6504379732806267
S'Cell[2].dend[9] syn_ = new FastInhib(0.5)'
p795
I2
(dp796
g757
F0.5
sg758
F16.0
sg759
I112
sg760
g7
(g8
(I0
tp797
g10
tp798
Rp799
(I1
(I3
tp800
g767
I00
S'\xc43S\xbc\xde\t9\xc0\xf6\x8a\xd7\x87r\x1b#@\x02,}\x1d>g\x18\xc0'
p801
tp802
bsg772
S'Cell[2].axon[27]'
p803
sI112
I139
tp804
a(F1.5536580510584335
S'Cell[0].dend[18] syn_ = new ExpSid(0.166666666667)'
p805
I0
(dp806
S'seg'
p807
F0.5
sS'hostfrom'
p808
F17.0
sS'gid'
p809
I161
sS'coords'
p810
g7
(g8
(I0
tp811
g10
tp812
Rp813
(I1
(I3
tp814
g14
(S'f8'
p815
I0
I1
tp816
Rp817
(I3
S'<'
p818
NNNI-1
I-1
I0
tp819
bI00
S'\x00\x00\x00\xe0z\xb46\xc0\x00\x00\x00\x00\x00\x80%\xc0\x00\x00\x00\x10\xae\x074@'
p820
tp821
bsS'secnames'
p822
S'Cell[3].axon[75]'
p823
sI161
I43
tp824
a(F1.6897469792911752
S'Cell[3].dend[13] syn_ = new FastInhib(0.5)'
p825
I3
(dp826
g807
F0.5
sg808
F17.0
sg809
I161
sg810
g7
(g8
(I0
tp827
g10
tp828
Rp829
(I1
(I3
tp830
g817
I00
S'\x00\x00\x00\xa0p\x9d;@\x00\x00\x00 \x85\x0bE@\x00\x00\x00\xc0\xf5\xa8&\xc0'
p831
tp832
bsg822
S'Cell[3].axon[125]'
p833
sI161
I187
tp834
a(F2.3401539221724117
S'Cell[3].dend[9] syn_ = new FastInhib(0.5)'
p835
I3
(dp836
g807
F0.7
sg808
F17.0
sg809
I161
sg810
g7
(g8
(I0
tp837
g10
tp838
Rp839
(I1
(I3
tp840
g817
I00
S"\x08i\xe3B\xab\xbc(\xc0\x84\xdc\x13\xb6a\xf2S@F'\xc3\x9d\xde\x93F\xc0"
p841
tp842
bsg822
S'Cell[3].axon[233]'
p843
sI161
I187
tp844
a(F2.315599651655429
S'Cell[1].dend[27] syn_ = new FastInhib(0.5)'
p845
I1
(dp846
g807
F0.5
sg808
F17.0
sg809
I161
sg810
g7
(g8
(I0
tp847
g10
tp848
Rp849
(I1
(I3
tp850
g817
I00
S'\x00\x00\x00\xf0z,P@\x00\x00\x0003\x83D@\x00\x00\x0003CC\xc0'
p851
tp852
bsg822
S'Cell[3].axon[297]'
p853
sI161
I91
tp854
a(F2.208138599873874
S'Cell[1].dend[49] syn_ = new FastInhib(0.1)'
p855
I1
(dp856
g807
F0.5
sg808
F17.0
sg809
I65
sg810
g7
(g8
(I0
tp857
g10
tp858
Rp859
(I1
(I3
tp860
g817
I00
S'\x9f\xb3\x8f\xe7\xc4\x91%@}\xee\x04\x08\xa8UE\xc0\x9d\xcc\x97\xeb\x81\xc1?\xc0'
p861
tp862
bsg822
S'Cell[1].axon[26]'
p863
sI65
I91
tp864
a(F2.4040558032841415
S'Cell[0].apic[26] syn_ = new AmpaNmda(0.5)'
p865
I0
(dp866
S'seg'
p867
F0.8999999999999999
sS'hostfrom'
p868
F18.0
sS'gid'
p869
I162
sS'coords'
p870
g7
(g8
(I0
tp871
g10
tp872
Rp873
(I1
(I3
tp874
g14
(S'f8'
p875
I0
I1
tp876
Rp877
(I3
S'<'
p878
NNNI-1
I-1
I0
tp879
bI00
S'\x89\xa72\xd1.\xd54@\x86\x9e\xb4I\x08&h@\x857\n[.\xd1,@'
p880
tp881
bsS'secnames'
p882
S'Cell[3].axon[78]'
p883
sI162
I43
tp884
a(F2.2507613512311813
S'Cell[3].dend[15] syn_ = new FastInhib(0.5)'
p885
I3
(dp886
S'seg'
p887
F0.5
sS'hostfrom'
p888
F19.0
sS'gid'
p889
I115
sS'coords'
p890
g7
(g8
(I0
tp891
g10
tp892
Rp893
(I1
(I3
tp894
g14
(S'f8'
p895
I0
I1
tp896
Rp897
(I3
S'<'
p898
NNNI-1
I-1
I0
tp899
bI00
S'\x04S\x90\x83\x89VB@^\xf2\x80%\xd4\xb0J@\x00\x00\x00@33\x16\xc0'
p900
tp901
bsS'secnames'
p902
S'Cell[2].axon[78]'
p903
sI115
I187
tp904
a(F2.1148501034692577
S'Cell[1].dend[10] syn_ = new FastInhib(0.5)'
p905
I1
(dp906
S'seg'
p907
F0.8999999999999999
sS'hostfrom'
p908
F20.0
sS'gid'
p909
I68
sS'coords'
p910
g7
(g8
(I0
tp911
g10
tp912
Rp913
(I1
(I3
tp914
g14
(S'f8'
p915
I0
I1
tp916
Rp917
(I3
S'<'
p918
NNNI-1
I-1
I0
tp919
bI00
S'\xbe\x82%\xd8$\xeeX@\xba\xdc\xaf\xf5\xf4_?@\x00\x00\x00@3\xb33@'
p920
tp921
bsS'secnames'
p922
S'Cell[1].axon[8]'
p923
sI68
I91
tp924
a(F2.481451847602555
S'Cell[0].apic[0] syn_ = new ExpSid(0.5)'
p925
I0
(dp926
S'seg'
p927
F0.16666666666666666
sS'hostfrom'
p928
F21.0
sS'gid'
p929
I165
sS'coords'
p930
g7
(g8
(I0
tp931
g10
tp932
Rp933
(I1
(I3
tp934
g14
(S'f8'
p935
I0
I1
tp936
Rp937
(I3
S'<'
p938
NNNI-1
I-1
I0
tp939
bI00
S'\xc8\x0b\xb5#o5B\xc0\x1caB\x84ae\xfb?\xec>bb\x94v\xf8?'
p940
tp941
bsS'secnames'
p942
S'Cell[3].axon[99]'
p943
sI165
I43
tp944
a(F1.142555874625512
S'Cell[3].dend[44] syn_ = new FastInhib(0.5)'
p945
I3
(dp946
g927
F0.5
sg928
F21.0
sg929
I165
sg930
g7
(g8
(I0
tp947
g10
tp948
Rp949
(I1
(I3
tp950
g937
I00
S'\xaf\xb7\x00\x92\xf0\xc9\x17@:\x01A\xbb\x8b\xbd\x07\xc0l7 \x9d\xec\x8a,\xc0'
p951
tp952
bsg942
S'Cell[3].axon[104]'
p953
sI165
I187
tp954
a(F2.2993741951413553
S'Cell[2].dend[22] syn_ = new FastInhib(0.5)'
p955
I2
(dp956
S'seg'
p957
F0.16666666666666666
sS'hostfrom'
p958
F24.0
sS'gid'
p959
I72
sS'coords'
p960
g7
(g8
(I0
tp961
g10
tp962
Rp963
(I1
(I3
tp964
g14
(S'f8'
p965
I0
I1
tp966
Rp967
(I3
S'<'
p968
NNNI-1
I-1
I0
tp969
bI00
S"\xf9'\xd87\x8a\xc3[@\xb7\x93\xd7\xe5\xfe\x8f\x10\xc0\x87\xdb\xf0\xab\xc4\xae@\xc0"
p970
tp971
bsS'secnames'
p972
S'Cell[1].axon[24]'
p973
sI72
I139
tp974
a(F2.1453964280589077
S'Cell[1].dend[49] syn_ = new FastInhib(0.5)'
p975
I1
(dp976
g957
F0.5
sg958
F24.0
sg959
I168
sg960
g7
(g8
(I0
tp977
g10
tp978
Rp979
(I1
(I3
tp980
g967
I00
S'\xa0.\x1e\x0f\xec\xfe@\xc0x\xe7\x87\xc4p\xf0A\xc0\x00\x00\x00\xc0\xcc\xdcQ\xc0'
p981
tp982
bsg972
S'Cell[3].axon[325]'
p983
sI168
I91
tp984
a(F1.1977848425278523
S'Cell[0].apic[15] syn_ = new AmpaNmda(0.1)'
p985
I0
(dp986
g957
F0.8999999999999999
sg958
F24.0
sg959
I120
sg960
g7
(g8
(I0
tp987
g10
tp988
Rp989
(I1
(I3
tp990
g967
I00
S'\xb2U\x98I6\xa5@\xc0\x1a\xa4\xeb\xb4\xb9CC@t\xfco1]"*\xc0'
p991
tp992
bsg972
S'Cell[2].axon[46]'
p993
sI120
I43
tp994
a(F2.241478219956869
S'Cell[3].dend[51] syn_ = new FastInhib(0.833333333333)'
p995
I3
(dp996
g957
F0.5
sg958
F24.0
sg959
I120
sg960
g7
(g8
(I0
tp997
g10
tp998
Rp999
(I1
(I3
tp1000
g967
I00
S'k\x06-\xdai\x9c2\xc0\x1fO\xe0\xd73\xcbD\xc0\x00\x00\x00@\n\xd7\x12\xc0'
p1001
tp1002
bsg972
S'Cell[2].axon[286]'
p1003
sI120
I187
tp1004
a(F1.9978811519109467
S'Cell[2].dend[17] syn_ = new FastInhib(0.833333333333)'
p1005
I2
(dp1006
S'seg'
p1007
F0.5
sS'hostfrom'
p1008
F25.0
sS'gid'
p1009
I121
sS'coords'
p1010
g7
(g8
(I0
tp1011
g10
tp1012
Rp1013
(I1
(I3
tp1014
g14
(S'f8'
p1015
I0
I1
tp1016
Rp1017
(I3
S'<'
p1018
NNNI-1
I-1
I0
tp1019
bI00
S'h2\xc0\xbdP\xc3I@\xa4\xef\xe2\xca a\r@\xa3\x95\tF\xfa<L\xc0'
p1020
tp1021
bsS'secnames'
p1022
S'Cell[2].axon[18]'
p1023
sI121
I139
tp1024
a(F2.3336010780902954
S'Cell[3].dend[9] syn_ = new FastInhib(0.5)'
p1025
I3
(dp1026
g1007
F0.5
sg1008
F25.0
sg1009
I121
sg1010
g7
(g8
(I0
tp1027
g10
tp1028
Rp1029
(I1
(I3
tp1030
g1017
I00
S'\xd7\x819\x93\xd3\xee*\xc0\xf2\\\xb5\x93t\xf5S@`\t"\xa1DBE\xc0'
p1031
tp1032
bsg1022
S'Cell[2].axon[116]'
p1033
sI121
I187
tp1034
a(F2.0923051241017596
S'Cell[2].dend[3] syn_ = new FastInhib(0.9)'
p1035
I2
(dp1036
S'seg'
p1037
F0.8333333333333333
sS'hostfrom'
p1038
F26.0
sS'gid'
p1039
I74
sS'coords'
p1040
g7
(g8
(I0
tp1041
g10
tp1042
Rp1043
(I1
(I3
tp1044
g14
(S'f8'
p1045
I0
I1
tp1046
Rp1047
(I3
S'<'
p1048
NNNI-1
I-1
I0
tp1049
bI00
S"\xe5\x84\n\xa4h\xfb=\xc0I\xd1'\x19]\x83@\xc0\x88\x02\xc0\xeeN\x9d#@"
p1050
tp1051
bsS'secnames'
p1052
S'Cell[1].axon[0]'
p1053
sI74
I139
tp1054
a(F2.324407654485224
S'Cell[3].dend[3] syn_ = new FastInhib(0.5)'
p1055
I3
(dp1056
g1037
F0.5
sg1038
F26.0
sg1039
I170
sg1040
g7
(g8
(I0
tp1057
g10
tp1058
Rp1059
(I1
(I3
tp1060
g1047
I00
S'\xc0\x05\xac\x0f,\xfd*@\x91\xfc\xcd\xd2)?E@\xf4\x10\xbd\x7f\xd5I$\xc0'
p1061
tp1062
bsg1052
S'Cell[3].axon[472]'
p1063
sI170
I187
tp1064
a(F2.000275813049179
S'Cell[1].dend[3] syn_ = new FastInhib(0.5)'
p1065
I1
(dp1066
g1037
F0.5
sg1038
F26.0
sg1039
I170
sg1040
g7
(g8
(I0
tp1067
g10
tp1068
Rp1069
(I1
(I3
tp1070
g1047
I00
S'I3\xe9\x0e\x1f;%\xc0\xdb\xa4\xd0\x94\xae\xa8F@\x00\x00\x00\xc0\xcc\xcc2@'
p1071
tp1072
bsg1052
S'Cell[3].axon[495]'
p1073
sI170
I91
tp1074
a(F1.8622229530103538
S'Cell[3].dend[16] syn_ = new FastInhib(0.5)'
p1075
I3
(dp1076
S'seg'
p1077
F0.36666666666666664
sS'hostfrom'
p1078
F27.0
sS'gid'
p1079
I123
sS'coords'
p1080
g7
(g8
(I0
tp1081
g10
tp1082
Rp1083
(I1
(I3
tp1084
g14
(S'f8'
p1085
I0
I1
tp1086
Rp1087
(I3
S'<'
p1088
NNNI-1
I-1
I0
tp1089
bI00
S'#0\xed\x9f\x1e\r8@l,&\xe0\x06\xf8;@\xfb8\x0fN\x00\x925\xc0'
p1090
tp1091
bsS'secnames'
p1092
S'Cell[2].axon[32]'
p1093
sI123
I187
tp1094
a(F1.8171420631235833
S'Cell[3].dend[14] syn_ = new FastInhib(0.5)'
p1095
I3
(dp1096
g1077
F0.5
sg1078
F27.0
sg1079
I171
sg1080
g7
(g8
(I0
tp1097
g10
tp1098
Rp1099
(I1
(I3
tp1100
g1087
I00
S'\xd9\x8f\xa1\xa8f\xfd8@\xbc\x95\xac\x9fd\xb3P@\x00\x00\x00\xc0\x1e\x85\x1f\xc0'
p1101
tp1102
bsg1092
S'Cell[3].axon[8]'
p1103
sI171
I187
tp1104
a(F1.9917393664737197
S'Cell[1].dend[34] syn_ = new FastInhib(0.166666666667)'
p1105
I1
(dp1106
g1077
F0.5
sg1078
F27.0
sg1079
I171
sg1080
g7
(g8
(I0
tp1107
g10
tp1108
Rp1109
(I1
(I3
tp1110
g1087
I00
S'\x97]\xcc\xf9\xcb\nK@\xd1\xd5\x7f\xaaV\xdaH@\x10\xcc\x12Y&\xc5\x0e\xc0'
p1111
tp1112
bsg1092
S'Cell[3].axon[17]'
p1113
sI171
I91
tp1114
a(F1.603099343070152
S'Cell[3].dend[9] syn_ = new FastInhib(0.3)'
p1115
I3
(dp1116
g1077
F0.5
sg1078
F27.0
sg1079
I171
sg1080
g7
(g8
(I0
tp1117
g10
tp1118
Rp1119
(I1
(I3
tp1120
g1087
I00
S'Z}\x1b\xf37.\xf0\xbfy\xfd\xd6\xac\xb7\x81P@\xcd62\xae#\x82<\xc0'
p1121
tp1122
bsg1092
S'Cell[3].axon[40]'
p1123
sI171
I187
tp1124
a(F0.8923309971804324
S'Cell[3].dend[56] syn_ = new FastInhib(0.5)'
p1125
I3
(dp1126
S'seg'
p1127
F0.5
sS'hostfrom'
p1128
F30.0
sS'gid'
p1129
I126
sS'coords'
p1130
g7
(g8
(I0
tp1131
g10
tp1132
Rp1133
(I1
(I3
tp1134
g14
(S'f8'
p1135
I0
I1
tp1136
Rp1137
(I3
S'<'
p1138
NNNI-1
I-1
I0
tp1139
bI00
S'\x8e4\r\x84E\x810@\xda\x80\xba\xdd\xa7\x87,@\xb20\xc8\xec\xb5\x1b1\xc0'
p1140
tp1141
bsS'secnames'
p1142
S'Cell[2].axon[3]'
p1143
sI126
I187
tp1144
a(F1.8522774337966261
S'Cell[3].dend[25] syn_ = new FastInhib(0.5)'
p1145
I3
(dp1146
g1127
F0.8333333333333333
sg1128
F30.0
sg1129
I126
sg1130
g7
(g8
(I0
tp1147
g10
tp1148
Rp1149
(I1
(I3
tp1150
g1137
I00
S'W2Vl\x88/7@\xd0\x1d\x06t\x0c\n=@\x8a\x9a\xe9\x05-L$@'
p1151
tp1152
bsg1142
S'Cell[2].axon[30]'
p1153
sI126
I187
tp1154
a(F1.6274440698384895
S'Cell[3].dend[5] syn_ = new FastInhib(0.5)'
p1155
I3
(dp1156
g1127
F0.5
sg1128
F30.0
sg1129
I126
sg1130
g7
(g8
(I0
tp1157
g10
tp1158
Rp1159
(I1
(I3
tp1160
g1137
I00
S'\x81j\'\xf5\n\x0e3@`\xb4\xe7w\xbf"N@\x9f\xd4X\xb7\xa5|"@'
p1161
tp1162
bsg1142
S'Cell[2].axon[181]'
p1163
sI126
I187
tp1164
a(F2.015407984430953
S'Cell[1].dend[53] syn_ = new FastInhib(0.166666666667)'
p1165
I1
(dp1166
g1127
F0.5
sg1128
F30.0
sg1129
I174
sg1130
g7
(g8
(I0
tp1167
g10
tp1168
Rp1169
(I1
(I3
tp1170
g1137
I00
S' \x9f\x124\x1b^B\xc0V\xd7\x08\xef(yE@\xce[\xc4\xc5)\xda.\xc0'
p1171
tp1172
bsg1142
S'Cell[3].axon[103]'
p1173
sI174
I91
tp1174
a(F2.2962061104176463
S'Cell[1].dend[14] syn_ = new FastInhib(0.166666666667)'
p1175
I1
(dp1176
g1127
F0.5
sg1128
F30.0
sg1129
I174
sg1130
g7
(g8
(I0
tp1177
g10
tp1178
Rp1179
(I1
(I3
tp1180
g1137
I00
S'\xc9\x86\xce\x10:\xa5S@\x88\xa3"fo\xcd,@\x00\x00\x00`\xb8\x1e\x11\xc0'
p1181
tp1182
bsg1142
S'Cell[3].axon[280]'
p1183
sI174
I91
tp1184
a(F2.2480706521848015
S'Cell[0].dend[17] syn_ = new AmpaNmda(0.5)'
p1185
I0
(dp1186
g1127
F0.5
sg1128
F30.0
sg1129
I174
sg1130
g7
(g8
(I0
tp1187
g10
tp1188
Rp1189
(I1
(I3
tp1190
g1137
I00
S'\x00\x00\x00@3\xb3=\xc0\xb3{w\xc1\xec\xd3*\xc0\xd6&B\x8b]`.@'
p1191
tp1192
bsg1142
S'Cell[3].axon[297]'
p1193
sI174
I43
tp1194
a(F2.3349136646300583
S'Cell[3].dend[7] syn_ = new FastInhib(0.5)'
p1195
I3
(dp1196
S'seg'
p1197
F0.8333333333333333
sS'hostfrom'
p1198
F32.0
sS'gid'
p1199
I176
sS'coords'
p1200
g7
(g8
(I0
tp1201
g10
tp1202
Rp1203
(I1
(I3
tp1204
g14
(S'f8'
p1205
I0
I1
tp1206
Rp1207
(I3
S'<'
p1208
NNNI-1
I-1
I0
tp1209
bI00
S'\x04\'y\xceu\xd4\x16\xc0\xdc1\xc2\x1fF\xe5N@%\xc2\xb4\x8f\x83L"@'
p1210
tp1211
bsS'secnames'
p1212
S'Cell[3].axon[126]'
p1213
sI176
I187
tp1214
a(F2.3719985844744276
S'Cell[2].apic[12] syn_ = new FastInhib(0.166666666667)'
p1215
I2
(dp1216
S'seg'
p1217
F0.07142857142857142
sS'hostfrom'
p1218
F33.0
sS'gid'
p1219
I81
sS'coords'
p1220
g7
(g8
(I0
tp1221
g10
tp1222
Rp1223
(I1
(I3
tp1224
g14
(S'f8'
p1225
I0
I1
tp1226
Rp1227
(I3
S'<'
p1228
NNNI-1
I-1
I0
tp1229
bI00
S'\xf8L&\x04\xd5\xfdX@\x17\xaa\xaa\x8epzR\xc0W\xce\x12\x95o\x0e;\xc0'
p1230
tp1231
bsS'secnames'
p1232
S'Cell[1].axon[6]'
p1233
sI81
I139
tp1234
a(F2.3405153118567315
S'Cell[2].apic[33] syn_ = new FastInhib(0.5)'
p1235
I2
(dp1236
S'seg'
p1237
F0.5
sS'hostfrom'
p1238
F35.0
sS'gid'
p1239
I83
sS'coords'
p1240
g7
(g8
(I0
tp1241
g10
tp1242
Rp1243
(I1
(I3
tp1244
g14
(S'f8'
p1245
I0
I1
tp1246
Rp1247
(I3
S'<'
p1248
NNNI-1
I-1
I0
tp1249
bI00
S'\xf9\xba\x06(%\x03H@\x87\xfa^|\x8c(M\xc0h\xd2\x94\xee8B#@'
p1250
tp1251
bsS'secnames'
p1252
S'Cell[1].axon[159]'
p1253
sI83
I139
tp1254
a(F2.4260291746038165
S'Cell[0].dend[21] syn_ = new ExpSid(0.166666666667)'
p1255
I0
(dp1256
g1237
F0.8333333333333333
sg1238
F35.0
sg1239
I83
sg1240
g7
(g8
(I0
tp1257
g10
tp1258
Rp1259
(I1
(I3
tp1260
g1247
I00
S'l\x85\xd3\xfe\x0e54@\xec$S\x8c\xc0z\x19\xc0!\xc9I\x7f\xfc\xe97@'
p1261
tp1262
bsg1252
S'Cell[1].axon[203]'
p1263
sI83
I43
tp1264
a(F1.7323933003325944
S'Cell[3].dend[4] syn_ = new FastInhib(0.5)'
p1265
I3
(dp1266
g1237
F0.30000000000000004
sg1238
F35.0
sg1239
I179
sg1240
g7
(g8
(I0
tp1267
g10
tp1268
Rp1269
(I1
(I3
tp1270
g1247
I00
S'<\xb3\r\xa1\xf7M&@\x9dL\xf5\xa0\x8aSG@>4C\xec\xd6n\xd5?'
p1271
tp1272
bsg1252
S'Cell[3].axon[33]'
p1273
sI179
I187
tp1274
a(F2.3918131776246554
S'Cell[1].dend[34] syn_ = new FastInhib(0.166666666667)'
p1275
I1
(dp1276
g1237
F0.5
sg1238
F35.0
sg1239
I179
sg1240
g7
(g8
(I0
tp1277
g10
tp1278
Rp1279
(I1
(I3
tp1280
g1247
I00
S'\x14\x97\xb4\xa4\x87\x10L@\x05}\x97cz\x8fG@\xa1\xbc\x0e\x8e\xe7\xac\x14\xc0'
p1281
tp1282
bsg1252
S'Cell[3].axon[159]'
p1283
sI179
I91
tp1284
a(F2.2842408087987884
S'Cell[3].dend[6] syn_ = new FastInhib(0.5)'
p1285
I3
(dp1286
S'seg'
p1287
F0.5
sS'hostfrom'
p1288
F36.0
sS'gid'
p1289
I84
sS'coords'
p1290
g7
(g8
(I0
tp1291
g10
tp1292
Rp1293
(I1
(I3
tp1294
g14
(S'f8'
p1295
I0
I1
tp1296
Rp1297
(I3
S'<'
p1298
NNNI-1
I-1
I0
tp1299
bI00
S'"\xa6a\x0eM\x0c\x14@\x90\x15\xbb\x12p\x8dK@f\x8c\xec\x07!]\x18@'
p1300
tp1301
bsS'secnames'
p1302
S'Cell[1].axon[428]'
p1303
sI84
I187
tp1304
a(F1.8217041133342189
S'Cell[1].dend[48] syn_ = new FastInhib(0.3)'
p1305
I1
(dp1306
g1287
F0.30000000000000004
sg1288
F36.0
sg1289
I84
sg1290
g7
(g8
(I0
tp1307
g10
tp1308
Rp1309
(I1
(I3
tp1310
g1297
I00
S'K\x87;i\xf28C\xc0\x8au\'r\x8a\x11"@\x0f\xa3\xb0\x1a\x85QQ\xc0'
p1311
tp1312
bsg1302
S'Cell[1].axon[622]'
p1313
sI84
I91
tp1314
a(F1.1559022371373648
S'Cell[2].dend[0] syn_ = new FastInhib(0.5)'
p1315
I2
(dp1316
g1287
F0.16666666666666669
sg1288
F36.0
sg1289
I132
sg1290
g7
(g8
(I0
tp1317
g10
tp1318
Rp1319
(I1
(I3
tp1320
g1297
I00
S'\xc5&AfoaT@\r\xc7zBo{4\xc0\x00\x00\x00 \\\x8f\xea?'
p1321
tp1322
bsg1302
S'Cell[2].axon[127]'
p1323
sI132
I139
tp1324
a(F1.365832072278573
S'Cell[1].dend[34] syn_ = new FastInhib(0.166666666667)'
p1325
I1
(dp1326
g1287
F0.16666666666666666
sg1288
F36.0
sg1289
I132
sg1290
g7
(g8
(I0
tp1327
g10
tp1328
Rp1329
(I1
(I3
tp1330
g1297
I00
S'\t\x00\xa0g\xf4"L@\xb5R+\x0f\x16\x15H@\x8ef.\xc6\tP\x13\xc0'
p1331
tp1332
bsg1302
S'Cell[2].axon[133]'
p1333
sI132
I91
tp1334
a(F1.1100685865753868
S'Cell[1].dend[36] syn_ = new FastInhib(0.5)'
p1335
I1
(dp1336
g1287
F0.16666666666666666
sg1288
F36.0
sg1289
I132
sg1290
g7
(g8
(I0
tp1337
g10
tp1338
Rp1339
(I1
(I3
tp1340
g1297
I00
S'mp2W\x1a\x1bC@\xd4\xe5%\xc3\xa2\xf1J\xc0\x00\x00\x00@\xe1z\x1c\xc0'
p1341
tp1342
bsg1302
S'Cell[2].axon[189]'
p1343
sI132
I91
tp1344
a(F2.002071158475219
S'Cell[3].dend[35] syn_ = new FastInhib(0.5)'
p1345
I3
(dp1346
g1287
F0.5
sg1288
F36.0
sg1289
I132
sg1290
g7
(g8
(I0
tp1347
g10
tp1348
Rp1349
(I1
(I3
tp1350
g1297
I00
S'\xa5\xa0T\xda[c;@S\x95\xe3\xaf\x94\xbb\x1d\xc0\xceP\xef\xd6\x1a]\x10\xc0'
p1351
tp1352
bsg1302
S'Cell[2].axon[202]'
p1353
sI132
I187
tp1354
a(F1.868228542027929
S'Cell[2].dend[1] syn_ = new FastInhib(0.5)'
p1355
I2
(dp1356
g1287
F0.5
sg1288
F36.0
sg1289
I180
sg1290
g7
(g8
(I0
tp1357
g10
tp1358
Rp1359
(I1
(I3
tp1360
g1297
I00
S'\xfa)~\x895\xf3R@\x82#\xf7\xa5\xed\x884\xc0\x00\x00\x00\xa0\x99\x19)@'
p1361
tp1362
bsg1302
S'Cell[3].axon[128]'
p1363
sI180
I139
tp1364
a(F1.3772151481006574
S'Cell[0].apic[1] syn_ = new AmpaNmda(0.5)'
p1365
I0
(dp1366
g1287
F0.8333333333333333
sg1288
F36.0
sg1289
I180
sg1290
g7
(g8
(I0
tp1367
g10
tp1368
Rp1369
(I1
(I3
tp1370
g1297
I00
S'\x8e\xd6\x9f\xd8\x07uB\xc0\xe8\xf7\x16\xe4M\xc4\x17@\x1f\xc9K\xa1\xed\x9e0@'
p1371
tp1372
bsg1302
S'Cell[3].axon[162]'
p1373
sI180
I43
tp1374
a(F2.415316365644693
S'Cell[3].dend[1] syn_ = new FastInhib(0.833333333333)'
p1375
I3
g1366
I180
I187
tp1376
a(F1.4362226214166918
S'Cell[1].dend[2] syn_ = new FastInhib(0.5)'
p1377
I1
(dp1378
g1287
F0.16666666666666666
sg1288
F36.0
sg1289
I180
sg1290
g7
(g8
(I0
tp1379
g10
tp1380
Rp1381
(I1
(I3
tp1382
g1297
I00
S'h4\x9er\x9dQ9@\xe9\x06H\x14t \xd4?\x00\x00\x00`\x8f\xc2-@'
p1383
tp1384
bsg1302
S'Cell[3].axon[214]'
p1385
sI180
I91
tp1386
a(F2.0867437356489527
S'Cell[3].dend[51] syn_ = new FastInhib(0.5)'
p1387
I3
(dp1388
S'seg'
p1389
F0.5
sS'hostfrom'
p1390
F37.0
sS'gid'
p1391
I133
sS'coords'
p1392
g7
(g8
(I0
tp1393
g10
tp1394
Rp1395
(I1
(I3
tp1396
g14
(S'f8'
p1397
I0
I1
tp1398
Rp1399
(I3
S'<'
p1400
NNNI-1
I-1
I0
tp1401
bI00
S'_l\x8d\xa0\x95\xd7\x1d\xc0Y\t*dS\xf7@\xc0\x00\x00\x00\xc0\x1e\x85\x14\xc0'
p1402
tp1403
bsS'secnames'
p1404
S'Cell[2].axon[50]'
p1405
sI133
I187
tp1406
a(F2.373730978759542
S'Cell[0].apic[0] syn_ = new ExpSid(0.5)'
p1407
I0
(dp1408
g1389
F0.8333333333333333
sg1390
F37.0
sg1391
I133
sg1392
g7
(g8
(I0
tp1409
g10
tp1410
Rp1411
(I1
(I3
tp1412
g1399
I00
S'\xc21\x03XNJ@\xc0\xb07\x9e\xca\x89\xdd\xb2\xbf\x82^,\x89I\xe9\xf4?'
p1413
tp1414
bsg1404
S'Cell[2].axon[51]'
p1415
sI133
I43
tp1416
a(F2.3701427105520274
S'Cell[3].dend[28] syn_ = new FastInhib(0.166666666667)'
p1417
I3
(dp1418
g1389
F0.8333333333333333
sg1390
F37.0
sg1391
I133
sg1392
g7
(g8
(I0
tp1419
g10
tp1420
Rp1421
(I1
(I3
tp1422
g1399
I00
S'B\x07\xf8\t\x90[B@\x10\xbb\xd8r\x98\x12>@nt\x08\x985\x8b\xe2\xbf'
p1423
tp1424
bsg1404
S'Cell[2].axon[93]'
p1425
sI133
I187
tp1426
a(F1.818334708549304
S'Cell[0].apic[36] syn_ = new ExpSid(0.166666666667)'
p1427
I0
(dp1428
g1389
F0.16666666666666666
sg1390
F37.0
sg1391
I133
sg1392
g7
(g8
(I0
tp1429
g10
tp1430
Rp1431
(I1
(I3
tp1432
g1399
I00
S'\xee\x16\xc1thA.\xc0\x03\xc9O{\xf7\xfcS@\x10Fs\x99\x83\x18\n@'
p1433
tp1434
bsg1404
S'Cell[2].axon[109]'
p1435
sI133
I43
tp1436
a(F1.5835443411704009
S'Cell[1].dend[49] syn_ = new FastInhib(0.1)'
p1437
I1
(dp1438
g1389
F0.5
sg1390
F37.0
sg1391
I181
sg1392
g7
(g8
(I0
tp1439
g10
tp1440
Rp1441
(I1
(I3
tp1442
g1399
I00
S'&{\x17\x01(\x13$@\xf2v\x86|AmE\xc0\xf4\x92\xad\x8d\x96\xc1?\xc0'
p1443
tp1444
bsg1404
S'Cell[3].axon[271]'
p1445
sI181
I91
tp1446
a(F1.5835443411704009
S'Cell[1].dend[49] syn_ = new FastInhib(0.1)'
p1447
I1
(dp1448
g1389
F0.5
sg1390
F37.0
sg1391
I181
sg1392
g7
(g8
(I0
tp1449
g10
tp1450
Rp1451
(I1
(I3
tp1452
g1399
I00
S'&{\x17\x01(\x13$@\xf2v\x86|AmE\xc0\xf4\x92\xad\x8d\x96\xc1?\xc0'
p1453
tp1454
bsg1404
S'Cell[3].axon[287]'
p1455
sI181
I91
tp1456
a(F2.07093216961745
S'Cell[1].dend[45] syn_ = new FastInhib(0.5)'
p1457
I1
(dp1458
S'seg'
p1459
F0.16666666666666666
sS'hostfrom'
p1460
F38.0
sS'gid'
p1461
I182
sS'coords'
p1462
g7
(g8
(I0
tp1463
g10
tp1464
Rp1465
(I1
(I3
tp1466
g14
(S'f8'
p1467
I0
I1
tp1468
Rp1469
(I3
S'<'
p1470
NNNI-1
I-1
I0
tp1471
bI00
S'FS\xf0r<>\x1d@\xa0\xb8\xec\x84R\xadF\xc0\xaa\x89+\xb9L\xa5\x06\xc0'
p1472
tp1473
bsS'secnames'
p1474
S'Cell[3].axon[292]'
p1475
sI182
I91
tp1476
a(F2.249657233641262
S'Cell[1].dend[44] syn_ = new FastInhib(0.5)'
p1477
I1
(dp1478
g1459
F0.5
sg1460
F38.0
sg1461
I182
sg1462
g7
(g8
(I0
tp1479
g10
tp1480
Rp1481
(I1
(I3
tp1482
g1469
I00
S'f\xfc\xf5\xe2\x8c"*@/=V\x08^\x1dD\xc0\xb4\xb8\xb6\xd3R\n\x11\xc0'
p1483
tp1484
bsg1474
S'Cell[3].axon[367]'
p1485
sI182
I91
tp1486
a(F1.3298043826081536
S'Cell[1].dend[32] syn_ = new FastInhib(0.5)'
p1487
I1
(dp1488
g1459
F0.16666666666666666
sg1460
F38.0
sg1461
I38
sg1462
g7
(g8
(I0
tp1489
g10
tp1490
Rp1491
(I1
(I3
tp1492
g1469
I00
S'\xbc\xee\x83\xa3\xf1\x0bH@0\xf5\x0f\xe3\xca\x88?@\xec\x9f\xb7\x0e\xd0\x1a\x17\xc0'
p1493
tp1494
bsg1474
S'Cell[0].axon[0]'
p1495
sI38
I91
tp1496
a(F2.0002755659540257
S'Cell[3].dend[39] syn_ = new FastInhib(0.5)'
p1497
I3
(dp1498
S'seg'
p1499
F0.5
sS'hostfrom'
p1500
F39.0
sS'gid'
p1501
I87
sS'coords'
p1502
g7
(g8
(I0
tp1503
g10
tp1504
Rp1505
(I1
(I3
tp1506
g14
(S'f8'
p1507
I0
I1
tp1508
Rp1509
(I3
S'<'
p1510
NNNI-1
I-1
I0
tp1511
bI00
S'C\xa0g\xf4\xeb\xc89@ \x1c\xa7\x8ce\x9aS\xc0j\x0b\xa9V\xc1\xe8&\xc0'
p1512
tp1513
bsS'secnames'
p1514
S'Cell[1].axon[160]'
p1515
sI87
I187
tp1516
a(F1.8810138509315488
S'Cell[2].dend[27] syn_ = new FastInhib(0.5)'
p1517
I2
(dp1518
g1499
F0.5
sg1500
F39.0
sg1501
I135
sg1502
g7
(g8
(I0
tp1519
g10
tp1520
Rp1521
(I1
(I3
tp1522
g1509
I00
S'\x84\x9c\xc9\x95\xa4\x00M@\x1e\xef\xc3O\x1b\xfcC@\xf9\xf7`\xe7\xb29W\xc0'
p1523
tp1524
bsg1514
S'Cell[2].axon[91]'
p1525
sI135
I139
tp1526
a(F2.2148558283416575
S'Cell[0].apic[15] syn_ = new ExpSid(0.9)'
p1527
I0
(dp1528
g1499
F0.9285714285714284
sg1500
F39.0
sg1501
I135
sg1502
g7
(g8
(I0
tp1529
g10
tp1530
Rp1531
(I1
(I3
tp1532
g1509
I00
S'\x80\x86|@\n.4\xc0>\xa8\xaf\xbc\xd3\xb3R@(\xdcc\xe9\x7f\xf8S\xc0'
p1533
tp1534
bsg1514
S'Cell[2].axon[155]'
p1535
sI135
I43
tp1536
a(F1.708256087205122
S'Cell[3].dend[0] syn_ = new FastInhib(0.5)'
p1537
I3
(dp1538
g1499
F0.1
sg1500
F39.0
sg1501
I183
sg1502
g7
(g8
(I0
tp1539
g10
tp1540
Rp1541
(I1
(I3
tp1542
g1509
I00
S'\xd7\x12\xb7:!&\xfa?\x10\xef[^\xbb\xa9A@\x89k\xa0\n\xc4K"\xc0'
p1543
tp1544
bsg1514
S'Cell[3].axon[31]'
p1545
sI183
I187
tp1546
a(F2.1370031968710768
S'Cell[3].dend[10] syn_ = new FastInhib(0.9)'
p1547
I3
(dp1548
g1499
F0.2777777777777778
sg1500
F39.0
sg1501
I183
sg1502
g7
(g8
(I0
tp1549
g10
tp1550
Rp1551
(I1
(I3
tp1552
g1509
I00
S'\x91\x80\x05I\xc4\xc2Q@(\xfb\xcf\x11\x15:S@\x00\x00\x00\xa0p\x1dL\xc0'
p1553
tp1554
bsg1514
S'Cell[3].axon[36]'
p1555
sI183
I187
tp1556
a(F2.4889981228264944
S'Cell[3].dend[24] syn_ = new FastInhib(0.3)'
p1557
I3
(dp1558
S'seg'
p1559
F0.16666666666666666
sS'hostfrom'
p1560
F40.0
sS'gid'
p1561
I88
sS'coords'
p1562
g7
(g8
(I0
tp1563
g10
tp1564
Rp1565
(I1
(I3
tp1566
g14
(S'f8'
p1567
I0
I1
tp1568
Rp1569
(I3
S'<'
p1570
NNNI-1
I-1
I0
tp1571
bI00
S'\xaf"VLh\xcfO@\xd01#\x0f\xae\xb8?@N-o\xf0\xdf\xb1F\xc0'
p1572
tp1573
bsS'secnames'
p1574
S'Cell[1].axon[107]'
p1575
sI88
I187
tp1576
a(F2.0797430328753994
S'Cell[1].dend[27] syn_ = new FastInhib(0.166666666667)'
p1577
I1
(dp1578
g1559
F0.8333333333333333
sg1560
F40.0
sg1561
I88
sg1562
g7
(g8
(I0
tp1579
g10
tp1580
Rp1581
(I1
(I3
tp1582
g1569
I00
S'\x9a\xfa0F\xe0\x01M@b(\x93\xb8\xea\xac;@8\x18!Pp#/\xc0'
p1583
tp1584
bsg1574
S'Cell[1].axon[176]'
p1585
sI88
I91
tp1586
a(F1.259195410890549
S'Cell[3].dend[14] syn_ = new FastInhib(0.833333333333)'
p1587
I3
(dp1588
g1559
F0.16666666666666666
sg1560
F40.0
sg1561
I88
sg1562
g7
(g8
(I0
tp1589
g10
tp1590
Rp1591
(I1
(I3
tp1592
g1569
I00
S'I&\xfaJ\x08w:@P\xbe\xcd1\xcd\x13U@\xad \xd0\xfb\xfb\x00$\xc0'
p1593
tp1594
bsg1574
S'Cell[1].axon[192]'
p1595
sI88
I187
tp1596
a(F2.336074718841087
S'Cell[3].dend[24] syn_ = new FastInhib(0.3)'
p1597
I3
(dp1598
g1559
F0.8333333333333333
sg1560
F40.0
sg1561
I88
sg1562
g7
(g8
(I0
tp1599
g10
tp1600
Rp1601
(I1
(I3
tp1602
g1569
I00
S"\x98t\xb88oKP@\r\x947\xf7\xc2\x95?@p\xa0\xc1q'\x84G\xc0"
p1603
tp1604
bsg1574
S'Cell[1].axon[200]'
p1605
sI88
I187
tp1606
a(F2.348748237847183
S'Cell[3].dend[14] syn_ = new FastInhib(0.166666666667)'
p1607
I3
(dp1608
g1559
F0.16666666666666666
sg1560
F40.0
sg1561
I88
sg1562
g7
(g8
(I0
tp1609
g10
tp1610
Rp1611
(I1
(I3
tp1612
g1569
I00
S'\x0c\xe5\xcb<7l9@\r\x9e\xf0\xb8|\x94H@\x04\xf0\xd4\xe8\xd1\x00#\xc0'
p1613
tp1614
bsg1574
S'Cell[1].axon[278]'
p1615
sI88
I187
tp1616
a(F1.838924088823161
S'Cell[3].dend[9] syn_ = new FastInhib(0.3)'
p1617
I3
(dp1618
g1559
F0.30000000000000004
sg1560
F40.0
sg1561
I88
sg1562
g7
(g8
(I0
tp1619
g10
tp1620
Rp1621
(I1
(I3
tp1622
g1569
I00
S'\x85\xeb\x9cJ\xf4\xd4\xff\xbf\xfa\xe4x\xe8g-P@\xb8eaF\n\x1e;\xc0'
p1623
tp1624
bsg1574
S'Cell[1].axon[342]'
p1625
sI88
I187
tp1626
a(F0.7012614237288327
S'Cell[1].dend[5] syn_ = new FastInhib(0.3)'
p1627
I1
(dp1628
g1559
F0.5
sg1560
F40.0
sg1561
I184
sg1562
g7
(g8
(I0
tp1629
g10
tp1630
Rp1631
(I1
(I3
tp1632
g1569
I00
S'\xee\x1a\rh-l\xea?\n\x91\\\xaeV\xce\t@\x00\x00\x00\xc0\x1e\x85\x03\xc0'
p1633
tp1634
bsg1574
S'Cell[3].axon[62]'
p1635
sI184
I91
tp1636
a(F2.4864702336363242
S'Cell[3].dend[59] syn_ = new FastInhib(0.1)'
p1637
I3
(dp1638
S'seg'
p1639
F0.5
sS'hostfrom'
p1640
F41.0
sS'gid'
p1641
I185
sS'coords'
p1642
g7
(g8
(I0
tp1643
g10
tp1644
Rp1645
(I1
(I3
tp1646
g14
(S'f8'
p1647
I0
I1
tp1648
Rp1649
(I3
S'<'
p1650
NNNI-1
I-1
I0
tp1651
bI00
S'\x00\x00\x00\xb0\x1e\x05\x1e\xc0\x00\x00\x00 \xaeG\xfb\xbf\x00\x00\x00\xd0\xf5h2\xc0'
p1652
tp1653
bsS'secnames'
p1654
S'Cell[3].axon[18]'
p1655
sI185
I187
tp1656
a(F2.302191992279292
S'Cell[2].dend[26] syn_ = new FastInhib(0.5)'
p1657
I2
(dp1658
g1639
F0.16666666666666666
sg1640
F41.0
sg1641
I185
sg1642
g7
(g8
(I0
tp1659
g10
tp1660
Rp1661
(I1
(I3
tp1662
g1649
I00
S'\xd8\xada\xb2\xf6=V@\xbeV\x1cs\xc9\x19$@\x00\x00\x00\xc0\x1e\xa5I\xc0'
p1663
tp1664
bsg1654
S'Cell[3].axon[40]'
p1665
sI185
I139
tp1666
a(F1.0446744114118953
S'Cell[1].dend[5] syn_ = new FastInhib(0.5)'
p1667
I1
(dp1668
g1639
F0.5
sg1640
F41.0
sg1641
I185
sg1642
g7
(g8
(I0
tp1669
g10
tp1670
Rp1671
(I1
(I3
tp1672
g1649
I00
S"\x00\x00\x00@3\xf30\xc0\x00\x00\x00\x90\xc25'@\x00\x00\x00\xa0\x99\xd9.\xc0"
p1673
tp1674
bsg1654
S'Cell[3].axon[77]'
p1675
sI185
I91
tp1676
a(F1.756855091331273
S'Cell[3].dend[16] syn_ = new FastInhib(0.5)'
p1677
I3
(dp1678
g1639
F0.5
sg1640
F41.0
sg1641
I185
sg1642
g7
(g8
(I0
tp1679
g10
tp1680
Rp1681
(I1
(I3
tp1682
g1649
I00
S'~\xc6\xa1\xea\xea\x1d9@T\xba\xd9\x90d\x15<@\x00\x00\x00\x80\xeb\x915\xc0'
p1683
tp1684
bsg1654
S'Cell[3].axon[209]'
p1685
sI185
I187
tp1686
a(F2.153699356435083
S'Cell[3].dend[28] syn_ = new FastInhib(0.5)'
p1687
I3
(dp1688
g1639
F0.30000000000000004
sg1640
F41.0
sg1641
I185
sg1642
g7
(g8
(I0
tp1689
g10
tp1690
Rp1691
(I1
(I3
tp1692
g1649
I00
S'Lu\x85\xcf\x91\xd8N@\x11\xa2\x1d\x1c\xe4\xe3G@\x00\x00\x00\xc0\xf5(*\xc0'
p1693
tp1694
bsg1654
S'Cell[3].axon[218]'
p1695
sI185
I187
tp1696
a(F1.700196979576811
S'Cell[1].dend[23] syn_ = new FastInhib(0.7)'
p1697
I1
(dp1698
g1639
F0.6111111111111112
sg1640
F41.0
sg1641
I89
sg1642
g7
(g8
(I0
tp1699
g10
tp1700
Rp1701
(I1
(I3
tp1702
g1649
I00
S'\xd9\x83\xf9\x83G\x9fa@\xfb\xb6;iY^<@\xf83\x15v\xd8\xc9V\xc0'
p1703
tp1704
bsg1654
S'Cell[1].axon[25]'
p1705
sI89
I91
tp1706
a(F2.4460845359427448
S'Cell[0].apic[36] syn_ = new ExpSid(0.833333333333)'
p1707
I0
(dp1708
g1639
F0.30000000000000004
sg1640
F41.0
sg1641
I89
sg1642
g7
(g8
(I0
tp1709
g10
tp1710
Rp1711
(I1
(I3
tp1712
g1649
I00
S'\xae@\xf1J8\x9e#@x[\x82#]\x1dY@\x00\x00\x00\x80\xc2u.\xc0'
p1713
tp1714
bsg1654
S'Cell[1].axon[94]'
p1715
sI89
I43
tp1716
a(F1.0017509511475713
S'Cell[0].apic[15] syn_ = new ExpSid(0.7)'
p1717
I0
(dp1718
g1639
F0.16666666666666666
sg1640
F41.0
sg1641
I89
sg1642
g7
(g8
(I0
tp1719
g10
tp1720
Rp1721
(I1
(I3
tp1722
g1649
I00
S'\x16\xf0\xc3\xa5\x88\xb98\xc0\xb6\x04\xcey\xb7\x02P@\xbd^\x83#\xce4P\xc0'
p1723
tp1724
bsg1654
S'Cell[1].axon[127]'
p1725
sI89
I43
tp1726
a(F2.3147708919562846
S'Cell[0].dend[2] syn_ = new AmpaNmda(0.166666666667)'
p1727
I0
(dp1728
S'seg'
p1729
F0.5
sS'hostfrom'
p1730
F42.0
sS'gid'
p1731
I90
sS'coords'
p1732
g7
(g8
(I0
tp1733
g10
tp1734
Rp1735
(I1
(I3
tp1736
g14
(S'f8'
p1737
I0
I1
tp1738
Rp1739
(I3
S'<'
p1740
NNNI-1
I-1
I0
tp1741
bI00
S'\x00\x00\x00p=\x9aK\xc0\x00\x00\x00\xb0p=\xf8?\x00\x00\x00\xe0\xa3\xd0=@'
p1742
tp1743
bsS'secnames'
p1744
S'Cell[1].axon[13]'
p1745
sI90
I43
tp1746
a(F0.910860169259962
S'Cell[0].apic[12] syn_ = new AmpaNmda(0.166666666667)'
p1747
I0
(dp1748
g1729
F0.5
sg1730
F42.0
sg1731
I90
sg1732
g7
(g8
(I0
tp1749
g10
tp1750
Rp1751
(I1
(I3
tp1752
g1739
I00
S"'\xafu#\xd1HJ\xc0\xf5\xcc\xae\xb0\x11\x1c8@\x00\x00\x00\xc0\x1e\x85@@"
p1753
tp1754
bsg1744
S'Cell[1].axon[190]'
p1755
sI90
I43
tp1756
a(F2.088912519904609
S'Cell[0].dend[11] syn_ = new AmpaNmda(0.5)'
p1757
I0
(dp1758
g1729
F0.5
sg1730
F42.0
sg1731
I138
sg1732
g7
(g8
(I0
tp1759
g10
tp1760
Rp1761
(I1
(I3
tp1762
g1739
I00
S'\xdf$[\xc6\rfJ\xc006ow\x12\xc8#\xc0\x9cjUF\xad\x1f\xe0?'
p1763
tp1764
bsg1744
S'Cell[2].axon[79]'
p1765
sI138
I43
tp1766
a(F2.4638218051306486
S'Cell[3].dend[52] syn_ = new FastInhib(0.833333333333)'
p1767
I3
(dp1768
g1729
F0.11538461538461539
sg1730
F42.0
sg1731
I138
sg1732
g7
(g8
(I0
tp1769
g10
tp1770
Rp1771
(I1
(I3
tp1772
g1739
I00
S'\xa4\x12\xfcuP\xba&\xc0\xbf^\xec\xb9\\\xd8S\xc0\xee\x83\xb5\x95N\xbb\xf9?'
p1773
tp1774
bsg1744
S'Cell[2].axon[111]'
p1775
sI138
I187
tp1776
a(F2.3170153230605757
S'Cell[3].dend[1] syn_ = new FastInhib(0.5)'
p1777
I3
(dp1778
S'seg'
p1779
F0.8333333333333333
sS'hostfrom'
p1780
F43.0
sS'gid'
p1781
I91
sS'coords'
p1782
g7
(g8
(I0
tp1783
g10
tp1784
Rp1785
(I1
(I3
tp1786
g14
(S'f8'
p1787
I0
I1
tp1788
Rp1789
(I3
S'<'
p1790
NNNI-1
I-1
I0
tp1791
bI00
S'\xbe\x80\x9e\xa5\tP6\xc0\xc0\xce\x03\x84\t^0@\x10q\x95\xc2(F\x07@'
p1792
tp1793
bsS'secnames'
p1794
S'Cell[1].axon[443]'
p1795
sI91
I187
tp1796
a(F0.881752629712902
S'Cell[3].dend[40] syn_ = new FastInhib(0.5)'
p1797
I3
(dp1798
g1779
F0.5
sg1780
F43.0
sg1781
I139
sg1782
g7
(g8
(I0
tp1799
g10
tp1800
Rp1801
(I1
(I3
tp1802
g1789
I00
S'/I\t\xc5\x9a\x82B@\x98U\xbb6h}B\xc0\xbc]\xdf\x7f\xdf\x1e?\xc0'
p1803
tp1804
bsg1794
S'Cell[2].axon[312]'
p1805
sI139
I187
tp1806
a(F1.8659728308368464
S'Cell[2].dend[42] syn_ = new FastInhib(0.9)'
p1807
I2
(dp1808
g1779
F0.5
sg1780
F43.0
sg1781
I187
sg1782
g7
(g8
(I0
tp1809
g10
tp1810
Rp1811
(I1
(I3
tp1812
g1789
I00
S'\x1e\xff\xb9$\x8a\xcfg@\xe64\xe2\x19\xdc\xddG\xc0\x00\x00\x00\xa0\x99\x19>\xc0'
p1813
tp1814
bsg1794
S'Cell[3].axon[178]'
p1815
sI187
I139
tp1816
a(F2.090259103790088
S'Cell[3].dend[60] syn_ = new FastInhib(0.166666666667)'
p1817
I3
(dp1818
S'seg'
p1819
F0.7222222222222223
sS'hostfrom'
p1820
F44.0
sS'gid'
p1821
I92
sS'coords'
p1822
g7
(g8
(I0
tp1823
g10
tp1824
Rp1825
(I1
(I3
tp1826
g14
(S'f8'
p1827
I0
I1
tp1828
Rp1829
(I3
S'<'
p1830
NNNI-1
I-1
I0
tp1831
bI00
S'~\xf4\xe2$[\x84\x0b\xc00?2\xc6\x89Q/@\x00]V\xd1\xc9\r5\xc0'
p1832
tp1833
bsS'secnames'
p1834
S'Cell[1].axon[227]'
p1835
sI92
I187
tp1836
a(F2.4474786664103814
S'Cell[3].dend[1] syn_ = new FastInhib(0.166666666667)'
p1837
I3
(dp1838
g1819
F0.9444444444444446
sg1820
F44.0
sg1821
I92
sg1822
g7
(g8
(I0
tp1839
g10
tp1840
Rp1841
(I1
(I3
tp1842
g1829
I00
S'\x7f\xec\xefu"y)\xc0\xdeC\xa0M\x91\xd09@p\x1c\xa7\x86\xeb6\xce\xbf'
p1843
tp1844
bsg1834
S'Cell[1].axon[227]'
p1845
sI92
I187
tp1846
a(F1.1986724899749537
S'Cell[3].dend[40] syn_ = new FastInhib(0.833333333333)'
p1847
I3
(dp1848
g1819
F0.7857142857142856
sg1820
F44.0
sg1821
I140
sg1822
g7
(g8
(I0
tp1849
g10
tp1850
Rp1851
(I1
(I3
tp1852
g1829
I00
S'\xd0\x88b\xa5\xb8\x81C@\xd3\x0fm\xdf\x97}C\xc0\x04;\xa2\xfcE!F\xc0'
p1853
tp1854
bsg1834
S'Cell[2].axon[6]'
p1855
sI140
I187
tp1856
a(F1.5355028180659283
S'Cell[0].apic[17] syn_ = new AmpaNmda(0.5)'
p1857
I0
(dp1858
g1819
F0.8333333333333333
sg1820
F44.0
sg1821
I188
sg1822
g7
(g8
(I0
tp1859
g10
tp1860
Rp1861
(I1
(I3
tp1862
g1829
I00
S'\xba0[1\x93\xadF\xc0\x8e=\xeb\xc4(\x12T@\xedQ\x19\xc5\xff\xb6\xfb\xbf'
p1863
tp1864
bsg1834
S'Cell[3].axon[185]'
p1865
sI188
I43
tp1866
a(F2.146245634678255
S'Cell[3].dend[19] syn_ = new FastInhib(0.3)'
p1867
I3
(dp1868
S'seg'
p1869
F0.1
sS'hostfrom'
p1870
F45.0
sS'gid'
p1871
I141
sS'coords'
p1872
g7
(g8
(I0
tp1873
g10
tp1874
Rp1875
(I1
(I3
tp1876
g14
(S'f8'
p1877
I0
I1
tp1878
Rp1879
(I3
S'<'
p1880
NNNI-1
I-1
I0
tp1881
bI00
S'\xfc;\x97\x0cT+C@-\xeb4\x04(\xec@\xc0\x9b\x99=\xee\xafYC\xc0'
p1882
tp1883
bsS'secnames'
p1884
S'Cell[2].axon[37]'
p1885
sI141
I187
tp1886
a(F1.5675620526083638
S'Cell[1].dend[5] syn_ = new FastInhib(0.5)'
p1887
I1
(dp1888
g1869
F0.8333333333333333
sg1870
F45.0
sg1871
I141
sg1872
g7
(g8
(I0
tp1889
g10
tp1890
Rp1891
(I1
(I3
tp1892
g1879
I00
S'.\x93md\xeb\xaa1\xc0\xc6\x07#\x0b\xe5\x97$@\x00\x00\x00 \xaeG1\xc0'
p1893
tp1894
bsg1884
S'Cell[2].axon[75]'
p1895
sI141
I91
tp1896
a(F2.3669071343292423
S'Cell[1].dend[52] syn_ = new FastInhib(0.5)'
p1897
I1
g1888
I141
I91
tp1898
a(F1.4954683281509742
S'Cell[2].dend[42] syn_ = new FastInhib(0.7)'
p1899
I2
(dp1900
g1869
F0.16666666666666666
sg1870
F45.0
sg1871
I141
sg1872
g7
(g8
(I0
tp1901
g10
tp1902
Rp1903
(I1
(I3
tp1904
g1879
I00
S'\xdc\r\xefQv\xb3e@\xa1C\xdb\xb5\xa3\xaaB\xc02Y\x87\xbb\xd9\xa5=\xc0'
p1905
tp1906
bsg1884
S'Cell[2].axon[395]'
p1907
sI141
I139
tp1908
a(F1.4011286135796988
S'Cell[0].apic[1] syn_ = new ExpSid(0.5)'
p1909
I0
(dp1910
g1869
F0.16666666666666666
sg1870
F45.0
sg1871
I141
sg1872
g7
(g8
(I0
tp1911
g10
tp1912
Rp1913
(I1
(I3
tp1914
g1879
I00
S'H\xb0N\x13\x19\xfbA\xc0"\xcd|\xac\x10\xc4\x1b@\xf0\xf5\x01\n\x01\x1e0@'
p1915
tp1916
bsg1884
S'Cell[2].axon[522]'
p1917
sI141
I43
tp1918
a(F1.4323111076891797
S'Cell[3].dend[1] syn_ = new FastInhib(0.833333333333)'
p1919
I3
g1910
I141
I187
tp1920
a(F2.312415864033968
S'Cell[1].dend[34] syn_ = new FastInhib(0.166666666667)'
p1921
I1
(dp1922
g1869
F0.2777777777777778
sg1870
F45.0
sg1871
I189
sg1872
g7
(g8
(I0
tp1923
g10
tp1924
Rp1925
(I1
(I3
tp1926
g1879
I00
S'w,+\xaf\xa46K@\x0b\xa9\xbd\xeaT9I@\xb0 2\x97\xd7D\x14\xc0'
p1927
tp1928
bsg1884
S'Cell[3].axon[179]'
p1929
sI189
I91
tp1930
a(F1.9819497770660948
S'Cell[3].dend[24] syn_ = new FastInhib(0.3)'
p1931
I3
(dp1932
g1869
F0.16666666666666666
sg1870
F45.0
sg1871
I93
sg1872
g7
(g8
(I0
tp1933
g10
tp1934
Rp1935
(I1
(I3
tp1936
g1879
I00
S'$lu\xbb\x90VP@\xaaf5\x88\x01\x0b=@)\xacZ\xd0\x95\xfeG\xc0'
p1937
tp1938
bsg1884
S'Cell[1].axon[23]'
p1939
sI93
I187
tp1940
a(F0.8643463695921287
S'Cell[3].dend[58] syn_ = new FastInhib(0.1)'
p1941
I3
(dp1942
S'seg'
p1943
F0.5
sS'hostfrom'
p1944
F46.0
sS'gid'
p1945
I94
sS'coords'
p1946
g7
(g8
(I0
tp1947
g10
tp1948
Rp1949
(I1
(I3
tp1950
g14
(S'f8'
p1951
I0
I1
tp1952
Rp1953
(I3
S'<'
p1954
NNNI-1
I-1
I0
tp1955
bI00
S'@(\x81\xb9\x8ae\x06@,\xc2\xe0\xf1FM&\xc0h\x94\x9dsx\x8a4\xc0'
p1956
tp1957
bsS'secnames'
p1958
S'Cell[1].axon[236]'
p1959
sI94
I187
tp1960
a(F2.301172470675117
S'Cell[3].dend[24] syn_ = new FastInhib(0.3)'
p1961
I3
(dp1962
S'seg'
p1963
F0.8333333333333333
sS'hostfrom'
p1964
F47.0
sS'gid'
p1965
I95
sS'coords'
p1966
g7
(g8
(I0
tp1967
g10
tp1968
Rp1969
(I1
(I3
tp1970
g14
(S'f8'
p1971
I0
I1
tp1972
Rp1973
(I3
S'<'
p1974
NNNI-1
I-1
I0
tp1975
bI00
S'\xe4\x8a\x13a\x8f9P@\xf5\xe5\x9f\xa0\xb72?@h\x89_l\t\xf9G\xc0'
p1976
tp1977
bsS'secnames'
p1978
S'Cell[1].axon[5]'
p1979
sI95
I187
tp1980
a(F2.4232251370689464
S'Cell[1].dend[44] syn_ = new FastInhib(0.5)'
p1981
I1
(dp1982
g1963
F0.8333333333333333
sg1964
F47.0
sg1965
I95
sg1966
g7
(g8
(I0
tp1983
g10
tp1984
Rp1985
(I1
(I3
tp1986
g1973
I00
S'\x863=\xbcD\xbf0@\xccT\x17=\xb3`D\xc0\x00\x00\x00`\x8f\xc2\x13\xc0'
p1987
tp1988
bsg1978
S'Cell[1].axon[162]'
p1989
sI95
I91
tp1990
a(F1.8186004802304425
S'Cell[1].dend[6] syn_ = new FastInhib(0.5)'
p1991
I1
(dp1992
g1963
F0.8333333333333333
sg1964
F47.0
sg1965
I95
sg1966
g7
(g8
(I0
tp1993
g10
tp1994
Rp1995
(I1
(I3
tp1996
g1973
I00
S'\x15\xba?\xc1\xbd[B@\xa7\xaa\xdcj\x9f\x03\x08@f\x18\xbeh\xf6S @'
p1997
tp1998
bsg1978
S'Cell[1].axon[174]'
p1999
sI95
I91
tp2000
a(F2.1877729484254953
S'Cell[1].dend[42] syn_ = new FastInhib(0.5)'
p2001
I1
(dp2002
g1963
F0.16666666666666666
sg1964
F47.0
sg1965
I95
sg1966
g7
(g8
(I0
tp2003
g10
tp2004
Rp2005
(I1
(I3
tp2006
g1973
I00
S'\xf8\xd3\\~\xad\x81L@\xcb\xb6m\xe7\xb5\\J\xc0hw\xd2Fu\x1fE\xc0'
p2007
tp2008
bsg1978
S'Cell[1].axon[244]'
p2009
sI95
I91
tp2010
a(F0.4078459748620268
S'Cell[0].apic[29] syn_ = new ExpSid(0.166666666667)'
p2011
I0
(dp2012
g1963
F0.16666666666666666
sg1964
F47.0
sg1965
I143
sg1966
g7
(g8
(I0
tp2013
g10
tp2014
Rp2015
(I1
(I3
tp2016
g1973
I00
S'\xa8*N\x1f\xf5 9\xc0\x1a\xae>=h\x8aT@\xf5\x9e\xa3\x14\x17\x9d!@'
p2017
tp2018
bsg1978
S'Cell[2].axon[52]'
p2019
sI143
I43
tp2020
a(F0.8146336684403235
S'Cell[0].apic[16] syn_ = new ExpSid(0.5)'
p2021
I0
(dp2022
g1963
F0.8333333333333333
sg1964
F47.0
sg1965
I143
sg1966
g7
(g8
(I0
tp2023
g10
tp2024
Rp2025
(I1
(I3
tp2026
g1973
I00
S'3\x93i\x00\x0e\xc3A\xc0s_\x85\t\xd8uI@\x00\x00\x00\x00\x00\x00\x00@'
p2027
tp2028
bsg1978
S'Cell[2].axon[93]'
p2029
sI143
I43
tp2030
a(F2.3262448997436236
S'Cell[0].apic[15] syn_ = new ExpSid(0.1)'
p2031
I0
(dp2032
g1963
F0.5
sg1964
F47.0
sg1965
I143
sg1966
g7
(g8
(I0
tp2033
g10
tp2034
Rp2035
(I1
(I3
tp2036
g1973
I00
S'\x0b+\xca8\xeffA\xc0\xc6t\xbb}\xb20D@.\xed\xa3%\xf0\x17+\xc0'
p2037
tp2038
bsg1978
S'Cell[2].axon[194]'
p2039
sI143
I43
tp2040
a(F2.3979908122929676
S'Cell[0].dend[10] syn_ = new ExpSid(0.166666666667)'
p2041
I0
(dp2042
g1963
F0.8333333333333333
sg1964
F47.0
sg1965
I47
sg1966
g7
(g8
(I0
tp2043
g10
tp2044
Rp2045
(I1
(I3
tp2046
g1973
I00
S'@\x0459\xbf-N\xc0#\x80\xbf>_\x1d\x00\xc0\x82\xd1\xb9\xd4\xca\xee\xfb?'
p2047
tp2048
bsg1978
S'Cell[0].axon[31]'
p2049
sI47
I43
tp2050
a.