(lp0
(F2.14346754236706
S'Cell[1].dend[5] syn_ = new FastInhib(0.642857142857)'
p1
I1
(dp2
S'seg'
p3
F0.07142857142857142
sS'hostfrom'
p4
F1.0
sS'gid'
p5
I145
sS'coords'
p6
cnumpy.core.multiarray
_reconstruct
p7
(cnumpy
ndarray
p8
(I0
tp9
S'b'
p10
tp11
Rp12
(I1
(I3
tp13
cnumpy
dtype
p14
(S'f8'
p15
I0
I1
tp16
Rp17
(I3
S'<'
p18
NNNI-1
I-1
I0
tp19
bI00
S"~\xf8F\x080+_\xc0f\xc2i\x929\x1c'\xc0\xb2\x06|\x99e\x94T\xc0"
p20
tp21
bsS'secnames'
p22
S'Cell[3].axon[56]'
p23
sI145
I89
tp24
a(F2.4615390915244775
S'Cell[2].dend[18] syn_ = new FastInhib(0.5)'
p25
I2
(dp26
g3
F0.16666666666666666
sg4
F1.0
sg5
I97
sg6
g7
(g8
(I0
tp27
g10
tp28
Rp29
(I1
(I3
tp30
g17
I00
S'R\xbf\x99\\\xcf\xc2+@up^\x15h:<@\x92\x80\x87\x16HF\x00@'
p31
tp32
bsg22
S'Cell[2].axon[208]'
p33
sI97
I137
tp34
a(F1.579395399442806
S'Cell[1].dend[36] syn_ = new FastInhib(0.1)'
p35
I1
(dp36
S'seg'
p37
F0.8999999999999999
sS'hostfrom'
p38
F2.0
sS'gid'
p39
I2
sS'coords'
p40
g7
(g8
(I0
tp41
g10
tp42
Rp43
(I1
(I3
tp44
g14
(S'f8'
p45
I0
I1
tp46
Rp47
(I3
S'<'
p48
NNNI-1
I-1
I0
tp49
bI00
S'\x93\xce[\xe2\xf5\\5\xc0NjU\xbf\xf1\xfeO\xc0\x8e\xf4\x9eA\xbc\x14,\xc0'
p50
tp51
bsS'secnames'
p52
S'Cell[0].axon[11]'
p53
sI2
I89
tp54
a(F2.3243147344612085
S'Cell[1].dend[8] syn_ = new FastInhib(0.1)'
p55
I1
(dp56
g37
F0.8333333333333333
sg38
F2.0
sg39
I146
sg40
g7
(g8
(I0
tp57
g10
tp58
Rp59
(I1
(I3
tp60
g47
I00
S'\x97:\xdf)\xeeeO\xc0\x80\x07\xd3\x01y\xcdG@\x00\x00\x00\xe0Q\x98M\xc0'
p61
tp62
bsg52
S'Cell[3].axon[128]'
p63
sI146
I89
tp64
a(F1.159227185371517
S'Cell[1].dend[5] syn_ = new FastInhib(0.214285714286)'
p65
I1
(dp66
g37
F0.5
sg38
F2.0
sg39
I146
sg40
g7
(g8
(I0
tp67
g10
tp68
Rp69
(I1
(I3
tp70
g47
I00
S'\x00\x00\x00@\n\xb7S\xc0\x00\x00\x00\x00\xd7#>@\x00\x00\x00\x90\xeb\xf1Q\xc0'
p71
tp72
bsg52
S'Cell[3].axon[268]'
p73
sI146
I89
tp74
a(F1.996216461246703
S'Cell[3].dend[18] syn_ = new FastInhib(0.3)'
p75
I3
(dp76
S'seg'
p77
F0.30000000000000004
sS'hostfrom'
p78
F4.0
sS'gid'
p79
I148
sS'coords'
p80
g7
(g8
(I0
tp81
g10
tp82
Rp83
(I1
(I3
tp84
g14
(S'f8'
p85
I0
I1
tp86
Rp87
(I3
S'<'
p88
NNNI-1
I-1
I0
tp89
bI00
S'.k\xff\x83\xf0\x97B\xc0\xa4?\x8e\x7f\xebv@\xc0ZH\xd8\x05\x0f\xe2\x15@'
p90
tp91
bsS'secnames'
p92
S'Cell[3].axon[81]'
p93
sI148
I185
tp94
a(F1.6595254520920808
S'Cell[2].dend[16] syn_ = new FastInhib(0.5)'
p95
I2
(dp96
g77
F0.6111111111111112
sg78
F4.0
sg79
I100
sg80
g7
(g8
(I0
tp97
g10
tp98
Rp99
(I1
(I3
tp100
g87
I00
S"\xf8-^yo5\xb5?\xf2'\xb5\xec*%J@\x80\xce_\xe8\xb2h\xe5\xbf"
p101
tp102
bsg92
S'Cell[2].axon[117]'
p103
sI100
I137
tp104
a(F1.6586852442829971
S'Cell[3].dend[11] syn_ = new FastInhib(0.5)'
p105
I3
(dp106
S'seg'
p107
F0.16666666666666666
sS'hostfrom'
p108
F6.0
sS'gid'
p109
I102
sS'coords'
p110
g7
(g8
(I0
tp111
g10
tp112
Rp113
(I1
(I3
tp114
g14
(S'f8'
p115
I0
I1
tp116
Rp117
(I3
S'<'
p118
NNNI-1
I-1
I0
tp119
bI00
S'\x8bV}U4\x03<\xc0U\x8cn\xe1wU\x13@\x8a\xa5\xe4\xee\x16\xce#\xc0'
p120
tp121
bsS'secnames'
p122
S'Cell[2].axon[46]'
p123
sI102
I185
tp124
a(F2.2070398839461314
S'Cell[3].dend[7] syn_ = new FastInhib(0.3)'
p125
I3
(dp126
g107
F0.5
sg108
F6.0
sg109
I150
sg110
g7
(g8
(I0
tp127
g10
tp128
Rp129
(I1
(I3
tp130
g117
I00
S'\xf8Rc\xa9P9\x14\xc07\x98I,\x9c\x13\x12@\x00\x00\x00\x80\x14\xee>\xc0'
p131
tp132
bsg122
S'Cell[3].axon[119]'
p133
sI150
I185
tp134
a(F1.9223107994769983
S'Cell[3].dend[31] syn_ = new FastInhib(0.166666666667)'
p135
I3
(dp136
g107
F0.5
sg108
F6.0
sg109
I150
sg110
g7
(g8
(I0
tp137
g10
tp138
Rp139
(I1
(I3
tp140
g117
I00
S'\x0f\x8b\x7f\xd1\xb8\tA\xc09\x7f\xea-\x90\xdaO@\x00\x00\x00\x80\x14\xee>\xc0'
p141
tp142
bsg122
S'Cell[3].axon[127]'
p143
sI150
I185
tp144
a(F2.4104350318337646
S'Cell[3].dend[13] syn_ = new FastInhib(0.1)'
p145
I3
(dp146
g107
F0.8333333333333333
sg108
F6.0
sg109
I150
sg110
g7
(g8
(I0
tp147
g10
tp148
Rp149
(I1
(I3
tp150
g117
I00
S'\xd3\xfdSe \x901\xc09\x85\xccB\xbed\x1d@\x00\x00\x00\x80\x14\xee>\xc0'
p151
tp152
bsg122
S'Cell[3].axon[221]'
p153
sI150
I185
tp154
a(F2.244767562118464
S'Cell[0].dend[5] syn_ = new ExpSid(0.3)'
p155
I0
(dp156
S'seg'
p157
F0.8999999999999999
sS'hostfrom'
p158
F7.0
sS'gid'
p159
I103
sS'coords'
p160
g7
(g8
(I0
tp161
g10
tp162
Rp163
(I1
(I3
tp164
g14
(S'f8'
p165
I0
I1
tp166
Rp167
(I3
S'<'
p168
NNNI-1
I-1
I0
tp169
bI00
S'\xd9A\x02p\xd4\xe9\xf2\xbf^\xa1Y\x98\xa0\x90G\xc0x\xd0\xa4\xc4X\x13,\xc0'
p170
tp171
bsS'secnames'
p172
S'Cell[2].axon[39]'
p173
sI103
I41
tp174
a(F0.940784616889502
S'Cell[1].dend[8] syn_ = new FastInhib(0.1)'
p175
I1
(dp176
g157
F0.5
sg158
F7.0
sg159
I103
sg160
g7
(g8
(I0
tp177
g10
tp178
Rp179
(I1
(I3
tp180
g167
I00
S'3m\xb0\x9e\xc1(P\xc0\xcbp\xd28\xbf\xb8H@\x99\x8c\xb0\x8f\xd2\x05M\xc0'
p181
tp182
bsg172
S'Cell[2].axon[62]'
p183
sI103
I89
tp184
a(F2.117718040874596
S'Cell[3].dend[27] syn_ = new FastInhib(0.5)'
p185
I3
(dp186
g157
F0.8333333333333333
sg158
F7.0
sg159
I103
sg160
g7
(g8
(I0
tp187
g10
tp188
Rp189
(I1
(I3
tp190
g167
I00
S"\xba\x97~\xad\xe2ME\xc0V\xed\xe6\xfa\x07\xa6C@PP\xe4\xd5T\x06'\xc0"
p191
tp192
bsg172
S'Cell[2].axon[89]'
p193
sI103
I185
tp194
a(F1.4114129255839243
S'Cell[2].dend[4] syn_ = new FastInhib(0.5)'
p195
I2
(dp196
g157
F0.5
sg158
F7.0
sg159
I103
sg160
g7
(g8
(I0
tp197
g10
tp198
Rp199
(I1
(I3
tp200
g167
I00
S'\xa4\xe4\xe5\xfdE\xac\x05@\x9c\xac\xb2X \xa0D\xc0\x00\x00\x00 \x85\xeb\xe9\xbf'
p201
tp202
bsg172
S'Cell[2].axon[261]'
p203
sI103
I137
tp204
a(F2.389728436563995
S'Cell[1].dend[2] syn_ = new FastInhib(0.5)'
p205
I1
(dp206
g157
F0.8333333333333333
sg158
F7.0
sg159
I103
sg160
g7
(g8
(I0
tp207
g10
tp208
Rp209
(I1
(I3
tp210
g167
I00
S'0\x13k\xeecH4\xc01\x81\x15\xae&\xe4B@\xd3\x96\xb3\x0c\x7f.0\xc0'
p211
tp212
bsg172
S'Cell[2].axon[445]'
p213
sI103
I89
tp214
a(F2.1099392488735824
S'Cell[1].dend[35] syn_ = new FastInhib(0.5)'
p215
I1
(dp216
g157
F0.16666666666666666
sg158
F7.0
sg159
I151
sg160
g7
(g8
(I0
tp217
g10
tp218
Rp219
(I1
(I3
tp220
g167
I00
S'[!\x16\xa1\xfc\x90%\xc0\xccq\xda\xbb,\x1aI\xc0\x13X\xccF\xdd\xf18\xc0'
p221
tp222
bsg172
S'Cell[3].axon[13]'
p223
sI151
I89
tp224
a(F2.3926367789474337
S'Cell[3].dend[17] syn_ = new FastInhib(0.5)'
p225
I3
(dp226
g157
F0.5
sg158
F7.0
sg159
I151
sg160
g7
(g8
(I0
tp227
g10
tp228
Rp229
(I1
(I3
tp230
g167
I00
S'\xc5e\xbf\x06\xa9%L\xc0\xef\x961\xe5&s<\xc0\x00\x00\x00\xa0p\xbd(@'
p231
tp232
bsg172
S'Cell[3].axon[83]'
p233
sI151
I185
tp234
a(F2.287316133793768
S'Cell[3].dend[2] syn_ = new FastInhib(0.5)'
p235
I3
(dp236
g157
F0.5
sg158
F7.0
sg159
I151
sg160
g7
(g8
(I0
tp237
g10
tp238
Rp239
(I1
(I3
tp240
g167
I00
S'w\x17\xca\xc1i\x944@u\xa4\xe5\xa1\xf9\xfa5\xc0gzQ\x99\xbf\x93\x0b\xc0'
p241
tp242
bsg172
S'Cell[3].axon[100]'
p243
sI151
I185
tp244
a(F2.160281270229833
S'Cell[2].dend[5] syn_ = new FastInhib(0.5)'
p245
I2
(dp246
g157
F0.5
sg158
F7.0
sg159
I151
sg160
g7
(g8
(I0
tp247
g10
tp248
Rp249
(I1
(I3
tp250
g167
I00
S'w\xeb\x189\x03\xce @\\\xef\x04W\xf6\xa6P\xc0\xbe\xf8l\xc4z\xb9\x1f\xc0'
p251
tp252
bsg172
S'Cell[3].axon[120]'
p253
sI151
I137
tp254
a(F2.137543228090895
S'Cell[2].dend[11] syn_ = new FastInhib(0.166666666667)'
p255
I2
(dp256
g157
F0.5
sg158
F7.0
sg159
I151
sg160
g7
(g8
(I0
tp257
g10
tp258
Rp259
(I1
(I3
tp260
g167
I00
S"\xf2sqy'D*@\x8a\xb8\x93a\x9d\xc3T\xc0\x8c\x1b\xd2\x90\xff\xa8*\xc0"
p261
tp262
bsg172
S'Cell[3].axon[150]'
p263
sI151
I137
tp264
a(F2.4294198707276053
S'Cell[1].dend[36] syn_ = new FastInhib(0.9)'
p265
I1
(dp266
g157
F0.49999999999999994
sg158
F7.0
sg159
I151
sg160
g7
(g8
(I0
tp267
g10
tp268
Rp269
(I1
(I3
tp270
g167
I00
S'\xcd\xcee4\x81dP\xc0\xc0\xe19\xbf\x06\xb3Y\xc0G;\x16\x13S\x9fR\xc0'
p271
tp272
bsg172
S'Cell[3].axon[191]'
p273
sI151
I89
tp274
a(F1.4684171884000825
S'Cell[0].dend[11] syn_ = new ExpSid(0.3)'
p275
I0
(dp276
g157
F0.5
sg158
F7.0
sg159
I151
sg160
g7
(g8
(I0
tp277
g10
tp278
Rp279
(I1
(I3
tp280
g167
I00
S'\x9e\xed\xc7\xd4\xd8$(\xc0|\xdc\xc49X=O\xc0\xeb\xe8\x19\xf5\r\x163\xc0'
p281
tp282
bsg172
S'Cell[3].axon[256]'
p283
sI151
I41
tp284
a(F1.698703363042214
S'Cell[3].dend[31] syn_ = new FastInhib(0.5)'
p285
I3
(dp286
S'seg'
p287
F0.5
sS'hostfrom'
p288
F8.0
sS'gid'
p289
I152
sS'coords'
p290
g7
(g8
(I0
tp291
g10
tp292
Rp293
(I1
(I3
tp294
g14
(S'f8'
p295
I0
I1
tp296
Rp297
(I3
S'<'
p298
NNNI-1
I-1
I0
tp299
bI00
S'\x06/q!*B1\xc0F\x18\xf1\xd0\xb5(T@\x00\x00\x00`\x8fBD\xc0'
p300
tp301
bsS'secnames'
p302
S'Cell[3].axon[328]'
p303
sI152
I185
tp304
a(F1.302685996166029
S'Cell[2].dend[18] syn_ = new FastInhib(0.5)'
p305
I2
(dp306
S'seg'
p307
F0.16666666666666666
sS'hostfrom'
p308
F10.0
sS'gid'
p309
I10
sS'coords'
p310
g7
(g8
(I0
tp311
g10
tp312
Rp313
(I1
(I3
tp314
g14
(S'f8'
p315
I0
I1
tp316
Rp317
(I3
S'<'
p318
NNNI-1
I-1
I0
tp319
bI00
S'\xb29\xe8\xa8Y|/@zQvU\x94\xe7<@\x00\x00\x00\x80\xebQ\x08@'
p320
tp321
bsS'secnames'
p322
S'Cell[0].axon[0]'
p323
sI10
I137
tp324
a(F1.7122059183769778
S'Cell[1].dend[20] syn_ = new FastInhib(0.5)'
p325
I1
g306
I10
I89
tp326
a(F2.4311354263847145
S'Cell[1].dend[24] syn_ = new FastInhib(0.166666666667)'
p327
I1
(dp328
g307
F0.07142857142857142
sg308
F10.0
sg309
I58
sg310
g7
(g8
(I0
tp329
g10
tp330
Rp331
(I1
(I3
tp332
g317
I00
S'"C\xb6\x0c\xc0f\x07@!C\xff\x98p\x11;\xc0\xe5\x917\xac\xa3\xf8(\xc0'
p333
tp334
bsg322
S'Cell[1].axon[3]'
p335
sI58
I89
tp336
a(F2.2696129801141414
S'Cell[0].dend[17] syn_ = new AmpaNmda(0.166666666667)'
p337
I0
(dp338
g307
F0.5
sg308
F10.0
sg309
I58
sg310
g7
(g8
(I0
tp339
g10
tp340
Rp341
(I1
(I3
tp342
g317
I00
S'\xdcTC\x86\xa9i$@m0\x15\x02\xfdxV\xc0\x00\x00\x00\xa0G\xe1\x18@'
p343
tp344
bsg322
S'Cell[1].axon[15]'
p345
sI58
I41
tp346
a(F2.2027961475318483
S'Cell[3].dend[18] syn_ = new FastInhib(0.7)'
p347
I3
(dp348
S'seg'
p349
F0.2692307692307693
sS'hostfrom'
p350
F11.0
sS'gid'
p351
I155
sS'coords'
p352
g7
(g8
(I0
tp353
g10
tp354
Rp355
(I1
(I3
tp356
g14
(S'f8'
p357
I0
I1
tp358
Rp359
(I3
S'<'
p360
NNNI-1
I-1
I0
tp361
bI00
S' AP\xd3-q@\xc0\xd1K\x16\t\x16\x93R\xc07:\x7f\xb9;-\x1c@'
p362
tp363
bsS'secnames'
p364
S'Cell[3].axon[188]'
p365
sI155
I185
tp366
a(F1.9976580734467317
S'Cell[1].dend[36] syn_ = new FastInhib(0.3)'
p367
I1
(dp368
S'seg'
p369
F0.5
sS'hostfrom'
p370
F12.0
sS'gid'
p371
I156
sS'coords'
p372
g7
(g8
(I0
tp373
g10
tp374
Rp375
(I1
(I3
tp376
g14
(S'f8'
p377
I0
I1
tp378
Rp379
(I3
S'<'
p380
NNNI-1
I-1
I0
tp381
bI00
S'\x19\x10d\x9e\x82\n?\xc0\xa7J``\xb1\x11R\xc0\x06\xd2p\xc2f\xff\x17\xc0'
p382
tp383
bsS'secnames'
p384
S'Cell[3].axon[617]'
p385
sI156
I89
tp386
a(F2.4218167444235577
S'Cell[1].dend[34] syn_ = new FastInhib(0.5)'
p387
I1
(dp388
S'seg'
p389
F0.5
sS'hostfrom'
p390
F14.0
sS'gid'
p391
I110
sS'coords'
p392
g7
(g8
(I0
tp393
g10
tp394
Rp395
(I1
(I3
tp396
g14
(S'f8'
p397
I0
I1
tp398
Rp399
(I3
S'<'
p400
NNNI-1
I-1
I0
tp401
bI00
S'\xd7\x07\xf4\xdd6\xa1*@\xda<y\xaf\xc8>`\xc0\x13`\xfd4#VN\xc0'
p402
tp403
bsS'secnames'
p404
S'Cell[2].axon[62]'
p405
sI110
I89
tp406
a(F2.454696848934141
S'Cell[0].apic[0] syn_ = new AmpaNmda(0.5)'
p407
I0
(dp408
g389
F0.8333333333333333
sg390
F14.0
sg391
I110
sg392
g7
(g8
(I0
tp409
g10
tp410
Rp411
(I1
(I3
tp412
g399
I00
S'\xdccF\xed\xa6\xfbE@\x1a\xdd\xfb8\xab\x1c \xc0:\x9d\x8f^\x12z @'
p413
tp414
bsg404
S'Cell[2].axon[68]'
p415
sI110
I41
tp416
a(F2.096041717829403
S'Cell[1].dend[24] syn_ = new FastInhib(0.833333333333)'
p417
I1
(dp418
g389
F0.8333333333333333
sg390
F14.0
sg391
I110
sg392
g7
(g8
(I0
tp419
g10
tp420
Rp421
(I1
(I3
tp422
g399
I00
S'\x8c\x86\xe6\xaal&G@\xcf\xec\xae\xfa?@6\xc0\xb33/\xb2\x08~0@'
p423
tp424
bsg404
S'Cell[2].axon[79]'
p425
sI110
I89
tp426
a(F2.288130399089719
S'Cell[0].apic[0] syn_ = new AmpaNmda(0.5)'
p427
I0
(dp428
g389
F0.8333333333333333
sg390
F14.0
sg391
I110
sg392
g7
(g8
(I0
tp429
g10
tp430
Rp431
(I1
(I3
tp432
g399
I00
S'\x00\x00\x00`\xb8\x1eG@lP\xf9N\x972\x1e\xc0\xba\x16H\xc7\xd5@#@'
p433
tp434
bsg404
S'Cell[2].axon[129]'
p435
sI110
I41
tp436
a(F2.397279058963939
S'Cell[2].dend[19] syn_ = new FastInhib(0.5)'
p437
I2
(dp438
S'seg'
p439
F0.8333333333333333
sS'hostfrom'
p440
F15.0
sS'gid'
p441
I111
sS'coords'
p442
g7
(g8
(I0
tp443
g10
tp444
Rp445
(I1
(I3
tp446
g14
(S'f8'
p447
I0
I1
tp448
Rp449
(I3
S'<'
p450
NNNI-1
I-1
I0
tp451
bI00
S'h\x13\xe8\xfah\xc25@8\x1d\xc1\xd1wgC@\x02V\x98\xa2\xc2\x0c\x18@'
p452
tp453
bsS'secnames'
p454
S'Cell[2].axon[158]'
p455
sI111
I137
tp456
a(F1.2906690881093752
S'Cell[3].dend[34] syn_ = new FastInhib(0.5)'
p457
I3
(dp458
g439
F0.5
sg440
F15.0
sg441
I159
sg442
g7
(g8
(I0
tp459
g10
tp460
Rp461
(I1
(I3
tp462
g449
I00
S'\x00\x00\x00\xb0Gy\\\xc0\x00\x00\x00\xb0\x1e%L@\x00\x00\x00\x80\xebQ<\xc0'
p463
tp464
bsg454
S'Cell[3].axon[319]'
p465
sI159
I185
tp466
a(F2.110638931633742
S'Cell[0].dend[11] syn_ = new AmpaNmda(0.5)'
p467
I0
(dp468
S'seg'
p469
F0.22727272727272727
sS'hostfrom'
p470
F16.0
sS'gid'
p471
I160
sS'coords'
p472
g7
(g8
(I0
tp473
g10
tp474
Rp475
(I1
(I3
tp476
g14
(S'f8'
p477
I0
I1
tp478
Rp479
(I3
S'<'
p480
NNNI-1
I-1
I0
tp481
bI00
S'\xac\x8dj\xb7x?D\xc0&?\xabr\xffRS\xc0\x16\xd7\x83\xb5\x10Y7\xc0'
p482
tp483
bsS'secnames'
p484
S'Cell[3].axon[76]'
p485
sI160
I41
tp486
a(F1.6931505509408697
S'Cell[1].dend[24] syn_ = new FastInhib(0.166666666667)'
p487
I1
(dp488
S'seg'
p489
F0.16666666666666666
sS'hostfrom'
p490
F17.0
sS'gid'
p491
I113
sS'coords'
p492
g7
(g8
(I0
tp493
g10
tp494
Rp495
(I1
(I3
tp496
g14
(S'f8'
p497
I0
I1
tp498
Rp499
(I3
S'<'
p500
NNNI-1
I-1
I0
tp501
bI00
S"\xc8iVB\xf2\xed\x11@\x92\x11\x1d\x97\xb0':\xc0[\xb2\xbe9\xe35%\xc0"
p502
tp503
bsS'secnames'
p504
S'Cell[2].axon[496]'
p505
sI113
I89
tp506
a(F2.0889445561289284
S'Cell[0].dend[17] syn_ = new ExpSid(0.833333333333)'
p507
I0
(dp508
g489
F0.5
sg490
F17.0
sg491
I113
sg492
g7
(g8
(I0
tp509
g10
tp510
Rp511
(I1
(I3
tp512
g499
I00
S'\x00\x00\x00P\xe1z5\xc0\x00\x00\x00\xc0\x1e}\\\xc0\x00\x00\x00\x00\x00@-@'
p513
tp514
bsg504
S'Cell[2].axon[599]'
p515
sI113
I41
tp516
a(F2.15803892593765
S'Cell[0].dend[17] syn_ = new ExpSid(0.833333333333)'
p517
I0
(dp518
g489
F0.8333333333333333
sg490
F17.0
sg491
I161
sg492
g7
(g8
(I0
tp519
g10
tp520
Rp521
(I1
(I3
tp522
g499
I00
S'\xb2\x90C\xf5\x95\x054\xc0\x88B\x07b\xbdD\\\xc0\x00\x00\x00\xa0G\xe1/@'
p523
tp524
bsg504
S'Cell[3].axon[31]'
p525
sI161
I41
tp526
a(F1.5393680918875157
S'Cell[1].dend[47] syn_ = new FastInhib(0.1)'
p527
I1
(dp528
g489
F0.16666666666666669
sg490
F17.0
sg491
I65
sg492
g7
(g8
(I0
tp529
g10
tp530
Rp531
(I1
(I3
tp532
g499
I00
S'\xc5\xa4\x00\xcc6\xedE\xc0\x932\x10\x84+\xb5?\xc0\x00\x00\x00\xe0z\x14\x06@'
p533
tp534
bsg504
S'Cell[1].axon[13]'
p535
sI65
I89
tp536
a(F2.360549538906285
S'Cell[0].dend[13] syn_ = new AmpaNmda(0.5)'
p537
I0
(dp538
S'seg'
p539
F0.5
sS'hostfrom'
p540
F18.0
sS'gid'
p541
I18
sS'coords'
p542
g7
(g8
(I0
tp543
g10
tp544
Rp545
(I1
(I3
tp546
g14
(S'f8'
p547
I0
I1
tp548
Rp549
(I3
S'<'
p550
NNNI-1
I-1
I0
tp551
bI00
S"\xb6'5\x95\xa3\xc42@\xe2p\xb8\x83\xa4\x1bY\xc0\xf9@\x9e\xd8J\xb5\x08@"
p552
tp553
bsS'secnames'
p554
S'Cell[0].axon[3]'
p555
sI18
I41
tp556
a(F2.0432575108073894
S'Cell[1].dend[40] syn_ = new FastInhib(0.214285714286)'
p557
I1
(dp558
g539
F0.5
sg540
F18.0
sg541
I114
sg542
g7
(g8
(I0
tp559
g10
tp560
Rp561
(I1
(I3
tp562
g549
I00
S'\x82\xa3\xb2\x1bS\x01G\xc0*\xb3.r\x01=S\xc0a d3\xe3\xae2@'
p563
tp564
bsg554
S'Cell[2].axon[64]'
p565
sI114
I89
tp566
a(F2.3352717994914065
S'Cell[0].dend[8] syn_ = new AmpaNmda(0.5)'
p567
I0
(dp568
g539
F0.5
sg540
F18.0
sg541
I114
sg542
g7
(g8
(I0
tp569
g10
tp570
Rp571
(I1
(I3
tp572
g549
I00
S'\x1f\\\xeal\xb95B@\xc3\xab\x0cK\x03\x17C\xc0~$k\x1d{\xd7\xcd\xbf'
p573
tp574
bsg554
S'Cell[2].axon[175]'
p575
sI114
I41
tp576
a(F2.435799533444289
S'Cell[3].dend[7] syn_ = new FastInhib(0.1)'
p577
I3
(dp578
g539
F0.8333333333333333
sg540
F18.0
sg541
I66
sg542
g7
(g8
(I0
tp579
g10
tp580
Rp581
(I1
(I3
tp582
g549
I00
S'k-j\x14\xd4h8\xc0\xb8\x9f\xae\x17J\xa5\x08@[\xf3\x9a95\xcc3\xc0'
p583
tp584
bsg554
S'Cell[1].axon[26]'
p585
sI66
I185
tp586
a(F1.9467626621258705
S'Cell[2].dend[5] syn_ = new FastInhib(0.5)'
p587
I2
(dp588
g539
F0.8999999999999999
sg540
F18.0
sg541
I162
sg542
g7
(g8
(I0
tp589
g10
tp590
Rp591
(I1
(I3
tp592
g549
I00
S'\x00\x00\x00\xa0\x99\x99\x1a@\xb85\x84\x9fxuP\xc0\xb2B\xc1M\x17Z\x14\xc0'
p593
tp594
bsg554
S'Cell[3].axon[92]'
p595
sI162
I137
tp596
a(F1.4860836621468765
S'Cell[0].apic[4] syn_ = new ExpSid(0.5)'
p597
I0
(dp598
S'seg'
p599
F0.7
sS'hostfrom'
p600
F19.0
sS'gid'
p601
I115
sS'coords'
p602
g7
(g8
(I0
tp603
g10
tp604
Rp605
(I1
(I3
tp606
g14
(S'f8'
p607
I0
I1
tp608
Rp609
(I3
S'<'
p610
NNNI-1
I-1
I0
tp611
bI00
S'n\x9b\x81w\x11\xf7F@\xf0\xb2\xb7K\r\xe9A@\xe3\xea\x90\xf6\x08\xdc6@'
p612
tp613
bsS'secnames'
p614
S'Cell[2].axon[179]'
p615
sI115
I41
tp616
a(F1.6587094378758827
S'Cell[3].dend[28] syn_ = new FastInhib(0.357142857143)'
p617
I3
(dp618
g599
F0.5
sg600
F19.0
sg601
I115
sg602
g7
(g8
(I0
tp619
g10
tp620
Rp621
(I1
(I3
tp622
g609
I00
S'p\xfei \xa1\xb3?\xc0\x10C\xc0b\x83d\\@\xa11>\xa8\xbeQ%\xc0'
p623
tp624
bsg614
S'Cell[2].axon[239]'
p625
sI115
I185
tp626
a(F2.2041384424237855
S'Cell[1].dend[37] syn_ = new FastInhib(0.5)'
p627
I1
(dp628
g599
F0.5
sg600
F19.0
sg601
I163
sg602
g7
(g8
(I0
tp629
g10
tp630
Rp631
(I1
(I3
tp632
g609
I00
S'\x00\x00\x00\x10\xd7\x037\xc0\x00\x00\x00 \\\x17X\xc0\x00\x00\x00@\n\x970@'
p633
tp634
bsg614
S'Cell[3].axon[50]'
p635
sI163
I89
tp636
a(F1.8532715025791135
S'Cell[1].dend[37] syn_ = new FastInhib(0.5)'
p637
I1
(dp638
g599
F0.5
sg600
F19.0
sg601
I163
sg602
g7
(g8
(I0
tp639
g10
tp640
Rp641
(I1
(I3
tp642
g609
I00
S'\x00\x00\x00@3\xb37\xc0\x00\x00\x00`ffX\xc0\x00\x00\x00\xa0p}1@'
p643
tp644
bsg614
S'Cell[3].axon[51]'
p645
sI163
I89
tp646
a(F2.279422682032837
S'Cell[1].dend[37] syn_ = new FastInhib(0.5)'
p647
I1
(dp648
g599
F0.5
sg600
F19.0
sg601
I163
sg602
g7
(g8
(I0
tp649
g10
tp650
Rp651
(I1
(I3
tp652
g609
I00
S'\x00\x00\x00\xa0\x99Y7\xc0\x00\x00\x00\xd0\xa3\xa8X\xc0\x00\x00\x00\xa0p}1@'
p653
tp654
bsg614
S'Cell[3].axon[67]'
p655
sI163
I89
tp656
a(F1.801102596794275
S'Cell[3].dend[18] syn_ = new FastInhib(0.3)'
p657
I3
(dp658
S'seg'
p659
F0.5
sS'hostfrom'
p660
F20.0
sS'gid'
p661
I68
sS'coords'
p662
g7
(g8
(I0
tp663
g10
tp664
Rp665
(I1
(I3
tp666
g14
(S'f8'
p667
I0
I1
tp668
Rp669
(I3
S'<'
p670
NNNI-1
I-1
I0
tp671
bI00
S'\x16\xe1<\x8d\xcb\x98C\xc0U\xcek\xff\xe1T?\xc0\x00\x00\x00\x00)\\\x10@'
p672
tp673
bsS'secnames'
p674
S'Cell[1].axon[24]'
p675
sI68
I185
tp676
a(F2.045959045923614
S'Cell[2].dend[21] syn_ = new FastInhib(0.5)'
p677
I2
(dp678
g659
F0.8333333333333333
sg660
F20.0
sg661
I116
sg662
g7
(g8
(I0
tp679
g10
tp680
Rp681
(I1
(I3
tp682
g669
I00
S',\xbe\x83w1\xc5S@E\xf1z\x814HO@\x0c\xd5\x1e\x94\xbalG\xc0'
p683
tp684
bsg674
S'Cell[2].axon[173]'
p685
sI116
I137
tp686
a(F2.2766721335795794
S'Cell[3].dend[13] syn_ = new FastInhib(0.5)'
p687
I3
(dp688
S'seg'
p689
F0.16666666666666666
sS'hostfrom'
p690
F21.0
sS'gid'
p691
I165
sS'coords'
p692
g7
(g8
(I0
tp693
g10
tp694
Rp695
(I1
(I3
tp696
g14
(S'f8'
p697
I0
I1
tp698
Rp699
(I3
S'<'
p700
NNNI-1
I-1
I0
tp701
bI00
S'w\x162\xe9\x02\x100@0\xbd\x1a\xad\xa1\x16 \xc0\xb5\x05\xdd\xf8\xa6\xd4G\xc0'
p702
tp703
bsS'secnames'
p704
S'Cell[3].axon[119]'
p705
sI165
I185
tp706
a(F2.0453983306133785
S'Cell[2].dend[12] syn_ = new FastInhib(0.5)'
p707
I2
(dp708
g689
F0.16666666666666666
sg690
F21.0
sg691
I165
sg692
g7
(g8
(I0
tp709
g10
tp710
Rp711
(I1
(I3
tp712
g699
I00
S'\x83C\x86\x9d\x1c\xed$@\x8c\xc3\xd2\xfeF\x10K\xc0\x8e\xb3\x04\xa6\xa7\xae"\xc0'
p713
tp714
bsg704
S'Cell[3].axon[236]'
p715
sI165
I137
tp716
a(F1.8466309393178921
S'Cell[1].dend[42] syn_ = new FastInhib(0.3)'
p717
I1
(dp718
S'seg'
p719
F0.5
sS'hostfrom'
p720
F22.0
sS'gid'
p721
I70
sS'coords'
p722
g7
(g8
(I0
tp723
g10
tp724
Rp725
(I1
(I3
tp726
g14
(S'f8'
p727
I0
I1
tp728
Rp729
(I3
S'<'
p730
NNNI-1
I-1
I0
tp731
bI00
S'y\xcd\xb6\ro@H\xc0h[I\xb8z\xe8p\xc0\xe6\xb1\\\xd4\xb1\xff&\xc0'
p732
tp733
bsS'secnames'
p734
S'Cell[1].axon[36]'
p735
sI70
I89
tp736
a(F1.4932862783048302
S'Cell[0].dend[17] syn_ = new AmpaNmda(0.833333333333)'
p737
I0
(dp738
g719
F0.8333333333333333
sg720
F22.0
sg721
I166
sg722
g7
(g8
(I0
tp739
g10
tp740
Rp741
(I1
(I3
tp742
g729
I00
S'\xf6\x05jL3\x1d4\xc0XT"yQ\x99\\\xc0\x87\x1d\xdd_r\x08,@'
p743
tp744
bsg734
S'Cell[3].axon[303]'
p745
sI166
I41
tp746
a(F2.049677980558496
S'Cell[1].dend[27] syn_ = new FastInhib(0.5)'
p747
I1
(dp748
g719
F0.5
sg720
F22.0
sg721
I166
sg722
g7
(g8
(I0
tp749
g10
tp750
Rp751
(I1
(I3
tp752
g729
I00
S"Bu\xb2t\xe9\x9cC@4;j\x97[}'\xc0\x1cV\xd8rha(@"
p753
tp754
bsg734
S'Cell[3].axon[308]'
p755
sI166
I89
tp756
a(F1.1339474152034434
S'Cell[3].dend[2] syn_ = new FastInhib(0.3)'
p757
I3
(dp758
S'seg'
p759
F0.5
sS'hostfrom'
p760
F23.0
sS'gid'
p761
I119
sS'coords'
p762
g7
(g8
(I0
tp763
g10
tp764
Rp765
(I1
(I3
tp766
g14
(S'f8'
p767
I0
I1
tp768
Rp769
(I3
S'<'
p770
NNNI-1
I-1
I0
tp771
bI00
S'\x00\x00\x00@33\x1c@\x00\x00\x00\xe0Q\xb8\x1c\xc0\x00\x00\x00\x00)\\\x13@'
p772
tp773
bsS'secnames'
p774
S'Cell[2].soma[0]'
p775
sI119
I185
tp776
a(F0.17350233491463665
S'Cell[2].dend[15] syn_ = new FastInhib(0.5)'
p777
I2
(dp778
g759
F0.8636363636363638
sg760
F23.0
sg761
I23
sg762
g7
(g8
(I0
tp779
g10
tp780
Rp781
(I1
(I3
tp782
g769
I00
S'\xecN9=le!@Q\xb8\xbb\x0bC\xbfB@\x81h\xd5\xa0\xc2v\xf0?'
p783
tp784
bsg774
S'Cell[0].axon[8]'
p785
sI23
I137
tp786
a(F2.483306688239412
S'Cell[1].dend[7] syn_ = new FastInhib(0.5)'
p787
I1
(dp788
S'seg'
p789
F0.16666666666666666
sS'hostfrom'
p790
F24.0
sS'gid'
p791
I168
sS'coords'
p792
g7
(g8
(I0
tp793
g10
tp794
Rp795
(I1
(I3
tp796
g14
(S'f8'
p797
I0
I1
tp798
Rp799
(I3
S'<'
p800
NNNI-1
I-1
I0
tp801
bI00
S'\xa8\xe2a\xb9[\xbab\xc0)V\x05\x917\x1eR\xc0\x00\x00\x00\xc0\xcc\xdcQ\xc0'
p802
tp803
bsS'secnames'
p804
S'Cell[3].axon[219]'
p805
sI168
I89
tp806
a(F2.2505373018676877
S'Cell[1].dend[5] syn_ = new FastInhib(0.214285714286)'
p807
I1
(dp808
g789
F0.8333333333333333
sg790
F24.0
sg791
I168
sg792
g7
(g8
(I0
tp809
g10
tp810
Rp811
(I1
(I3
tp812
g799
I00
S'\xbcX9\xb5T.S\xc0^\x0b\xab\x9e?;>@\x00\x00\x00\xc0\xcc\xdcQ\xc0'
p813
tp814
bsg804
S'Cell[3].axon[344]'
p815
sI168
I89
tp816
a(F2.3624189965078957
S'Cell[3].dend[2] syn_ = new FastInhib(0.7)'
p817
I3
(dp818
g789
F0.5
sg790
F24.0
sg791
I120
sg792
g7
(g8
(I0
tp819
g10
tp820
Rp821
(I1
(I3
tp822
g799
I00
S'tb\xec7\xa8\xafB@\x1a\xe93~\xcc)A\xc0|\xc6\xf6\xe3k\xfb\xfe\xbf'
p823
tp824
bsg804
S'Cell[2].axon[58]'
p825
sI120
I185
tp826
a(F1.3944787105070249
S'Cell[2].dend[24] syn_ = new FastInhib(0.7)'
p827
I2
(dp828
S'seg'
p829
F0.49999999999999994
sS'hostfrom'
p830
F25.0
sS'gid'
p831
I121
sS'coords'
p832
g7
(g8
(I0
tp833
g10
tp834
Rp835
(I1
(I3
tp836
g14
(S'f8'
p837
I0
I1
tp838
Rp839
(I3
S'<'
p840
NNNI-1
I-1
I0
tp841
bI00
S'\xe2}x\r$za@\xd3y\x9aZ\x18\x95!@:v\x97\xf1\xdd\x90T\xc0'
p842
tp843
bsS'secnames'
p844
S'Cell[2].axon[6]'
p845
sI121
I137
tp846
a(F2.3716170697967005
S'Cell[3].dend[25] syn_ = new FastInhib(0.5)'
p847
I3
(dp848
S'seg'
p849
F0.5
sS'hostfrom'
p850
F26.0
sS'gid'
p851
I170
sS'coords'
p852
g7
(g8
(I0
tp853
g10
tp854
Rp855
(I1
(I3
tp856
g14
(S'f8'
p857
I0
I1
tp858
Rp859
(I3
S'<'
p860
NNNI-1
I-1
I0
tp861
bI00
S'\xfd\x1aEzL\x12=\xc0\xec\x9a/\xfd\xe7\x99I@\x0eU\xc1\x17\xbe^*@'
p862
tp863
bsS'secnames'
p864
S'Cell[3].axon[460]'
p865
sI170
I185
tp866
a(F1.2684095782815261
S'Cell[0].apic[8] syn_ = new ExpSid(0.5)'
p867
I0
(dp868
S'seg'
p869
F0.5
sS'hostfrom'
p870
F27.0
sS'gid'
p871
I75
sS'coords'
p872
g7
(g8
(I0
tp873
g10
tp874
Rp875
(I1
(I3
tp876
g14
(S'f8'
p877
I0
I1
tp878
Rp879
(I3
S'<'
p880
NNNI-1
I-1
I0
tp881
bI00
S'i`\xa8\x1bH\xd6B@\xed\xcfH[\xe6W"@\xf2J\xe4\xed\x86(.@'
p882
tp883
bsS'secnames'
p884
S'Cell[1].axon[4]'
p885
sI75
I41
tp886
a(F1.8101979201595586
S'Cell[0].dend[13] syn_ = new ExpSid(0.833333333333)'
p887
I0
(dp888
g869
F0.8333333333333333
sg870
F27.0
sg871
I27
sg872
g7
(g8
(I0
tp889
g10
tp890
Rp891
(I1
(I3
tp892
g879
I00
S'n\xe1\xed\\\xad|,@\xb0\x0f\xdf\xaf\xeb\xe6\\\xc0/dNNE\xd0\x19@'
p893
tp894
bsg884
S'Cell[0].axon[36]'
p895
sI27
I41
tp896
a(F2.1821600797293206
S'Cell[2].dend[11] syn_ = new FastInhib(0.166666666667)'
p897
I2
(dp898
S'seg'
p899
F0.5
sS'hostfrom'
p900
F29.0
sS'gid'
p901
I125
sS'coords'
p902
g7
(g8
(I0
tp903
g10
tp904
Rp905
(I1
(I3
tp906
g14
(S'f8'
p907
I0
I1
tp908
Rp909
(I3
S'<'
p910
NNNI-1
I-1
I0
tp911
bI00
S'\x80s\xa9P\xa1\xa10@\xb1\x04\xc2+7iT\xc0A\t\x91\xbc\xa2f(\xc0'
p912
tp913
bsS'secnames'
p914
S'Cell[2].axon[0]'
p915
sI125
I137
tp916
a(F1.2306696004494162
S'Cell[0].dend[14] syn_ = new ExpSid(0.5)'
p917
I0
(dp918
g899
F0.5
sg900
F29.0
sg901
I125
sg902
g7
(g8
(I0
tp919
g10
tp920
Rp921
(I1
(I3
tp922
g909
I00
S'A\xb6\xbb_\xd2\xff!@\x92\x9d\xd9\x16\x1b\x1a`\xc0\x00\x00\x00\x80=\x8a.@'
p923
tp924
bsg914
S'Cell[2].axon[200]'
p925
sI125
I41
tp926
a(F1.8227987161359849
S'Cell[3].dend[6] syn_ = new FastInhib(0.214285714286)'
p927
I3
(dp928
g899
F0.21428571428571427
sg900
F29.0
sg901
I77
sg902
g7
(g8
(I0
tp929
g10
tp930
Rp931
(I1
(I3
tp932
g909
I00
S"\x125\x0cW[`'\xc0F\x9eT0\xeaj$\xc0\xedHRV\xf5\xb8F\xc0"
p933
tp934
bsg914
S'Cell[1].axon[9]'
p935
sI77
I185
tp936
a(F1.7857461316509706
S'Cell[3].dend[19] syn_ = new FastInhib(0.5)'
p937
I3
(dp938
S'seg'
p939
F0.5
sS'hostfrom'
p940
F30.0
sS'gid'
p941
I174
sS'coords'
p942
g7
(g8
(I0
tp943
g10
tp944
Rp945
(I1
(I3
tp946
g14
(S'f8'
p947
I0
I1
tp948
Rp949
(I3
S'<'
p950
NNNI-1
I-1
I0
tp951
bI00
S'\xa8\xb2\x8arAJE\xc0\r\t\x1d\xa6WS2@\xdb\xdeLnU\xa14@'
p952
tp953
bsS'secnames'
p954
S'Cell[3].axon[241]'
p955
sI174
I185
tp956
a(F1.8586832234676647
S'Cell[2].dend[17] syn_ = new FastInhib(0.833333333333)'
p957
I2
(dp958
g939
F0.5
sg940
F30.0
sg941
I174
sg942
g7
(g8
(I0
tp959
g10
tp960
Rp961
(I1
(I3
tp962
g949
I00
S'\x00\x00\x00P\xb8\x1e7\xc0\x00\x00\x00 \x85\xabJ@\x00\x00\x00\xa0\x99\x19(@'
p963
tp964
bsg954
S'Cell[3].axon[302]'
p965
sI174
I137
tp966
a(F1.9730394221320275
S'Cell[2].dend[17] syn_ = new FastInhib(0.833333333333)'
p967
I2
(dp968
g939
F0.5
sg940
F30.0
sg941
I174
sg942
g7
(g8
(I0
tp969
g10
tp970
Rp971
(I1
(I3
tp972
g949
I00
S'\x00\x00\x00\xc0\x1e\x855\xc0\x00\x00\x00 \x85\x0bK@\x00\x00\x00 \x85k&@'
p973
tp974
bsg954
S'Cell[3].axon[303]'
p975
sI174
I137
tp976
a(F0.7688851891292213
S'Cell[1].dend[10] syn_ = new FastInhib(0.5)'
p977
I1
(dp978
g939
F0.5
sg940
F30.0
sg941
I174
sg942
g7
(g8
(I0
tp979
g10
tp980
Rp981
(I1
(I3
tp982
g949
I00
S'\xf9\x84\xec\x13\x8c`@\xc0\xbf\xaaUm\x9b"H@\x03d@\x95\xa4_\xc4\xbf'
p983
tp984
bsg954
S'Cell[3].axon[366]'
p985
sI174
I89
tp986
a(F2.1132784889599754
S'Cell[0].dend[15] syn_ = new AmpaNmda(0.5)'
p987
I0
(dp988
g939
F0.30000000000000004
sg940
F30.0
sg941
I174
sg942
g7
(g8
(I0
tp989
g10
tp990
Rp991
(I1
(I3
tp992
g949
I00
S'\r\xa72\xaa\xd5a#@\xb9Ncx\xdf\x03`\xc0\x11\xb34B7\x1f%@'
p993
tp994
bsg954
S'Cell[3].axon[397]'
p995
sI174
I41
tp996
a(F1.5033527810345075
S'Cell[3].dend[18] syn_ = new FastInhib(0.7)'
p997
I3
(dp998
S'seg'
p999
F0.5
sS'hostfrom'
p1000
F31.0
sS'gid'
p1001
I175
sS'coords'
p1002
g7
(g8
(I0
tp1003
g10
tp1004
Rp1005
(I1
(I3
tp1006
g14
(S'f8'
p1007
I0
I1
tp1008
Rp1009
(I3
S'<'
p1010
NNNI-1
I-1
I0
tp1011
bI00
S'g\xc7i\x8dU\x87@\xc0\xec\xfa\xbdCu\xbcR\xc0U\xce\x01\xe16\xbc\x1f@'
p1012
tp1013
bsS'secnames'
p1014
S'Cell[3].axon[197]'
p1015
sI175
I185
tp1016
a(F2.267416590879433
S'Cell[3].dend[6] syn_ = new FastInhib(0.214285714286)'
p1017
I3
(dp1018
g999
F0.8333333333333333
sg1000
F31.0
sg1001
I175
sg1002
g7
(g8
(I0
tp1019
g10
tp1020
Rp1021
(I1
(I3
tp1022
g1009
I00
S'\x99\xaf\xcfK\\\x8f(\xc0\xa8\x83\x17\xb2\xe1\xfa)\xc0\x00\x00\x00\xc0\x1e\xe5E\xc0'
p1023
tp1024
bsg1014
S'Cell[3].axon[227]'
p1025
sI175
I185
tp1026
a(F2.1761887047932262
S'Cell[1].dend[21] syn_ = new FastInhib(0.590909090909)'
p1027
I1
(dp1028
S'seg'
p1029
F0.6428571428571428
sS'hostfrom'
p1030
F33.0
sS'gid'
p1031
I81
sS'coords'
p1032
g7
(g8
(I0
tp1033
g10
tp1034
Rp1035
(I1
(I3
tp1036
g14
(S'f8'
p1037
I0
I1
tp1038
Rp1039
(I3
S'<'
p1040
NNNI-1
I-1
I0
tp1041
bI00
S'\xc1]\xba\xb0X\xf8N@f%g\xe0\xad\xdbX\xc0F\xd1H.\xd1z6\xc0'
p1042
tp1043
bsS'secnames'
p1044
S'Cell[1].axon[4]'
p1045
sI81
I89
tp1046
a(F2.005988048486968
S'Cell[2].dend[3] syn_ = new FastInhib(0.5)'
p1047
I2
(dp1048
g1029
F0.7
sg1030
F33.0
sg1031
I81
sg1032
g7
(g8
(I0
tp1049
g10
tp1050
Rp1051
(I1
(I3
tp1052
g1039
I00
S'\x9eJS\xedC\x87=\xc0\xbc\x0e\x04nXmP\xc0\xaa\\\x951\xe9\xf9B\xc0'
p1053
tp1054
bsg1044
S'Cell[1].axon[11]'
p1055
sI81
I137
tp1056
a(F2.4291067867782106
S'Cell[1].dend[29] syn_ = new FastInhib(0.5)'
p1057
I1
(dp1058
g1029
F0.21428571428571427
sg1030
F33.0
sg1031
I81
sg1032
g7
(g8
(I0
tp1059
g10
tp1060
Rp1061
(I1
(I3
tp1062
g1039
I00
S'1\x81I\x95\x08&\x1b\xc0\x1b\xed\xbb/=\x89;\xc0\xbaEo\xd0}P5\xc0'
p1063
tp1064
bsg1044
S'Cell[1].axon[73]'
p1065
sI81
I89
tp1066
a(F2.360684196587227
S'Cell[2].dend[17] syn_ = new FastInhib(0.166666666667)'
p1067
I2
(dp1068
g1029
F0.9285714285714284
sg1030
F33.0
sg1031
I81
sg1032
g7
(g8
(I0
tp1069
g10
tp1070
Rp1071
(I1
(I3
tp1072
g1039
I00
S'\x04\xcd\xc7[\x7fJ\t\xc0\xcf\\6\x19(\xc5H@\x00\x00\x00@33\xf3?'
p1073
tp1074
bsg1044
S'Cell[1].axon[73]'
p1075
sI81
I137
tp1076
a(F0.9606404002398424
S'Cell[2].dend[21] syn_ = new FastInhib(0.3)'
p1077
I2
(dp1078
S'seg'
p1079
F0.5
sS'hostfrom'
p1080
F34.0
sS'gid'
p1081
I82
sS'coords'
p1082
g7
(g8
(I0
tp1083
g10
tp1084
Rp1085
(I1
(I3
tp1086
g14
(S'f8'
p1087
I0
I1
tp1088
Rp1089
(I3
S'<'
p1090
NNNI-1
I-1
I0
tp1091
bI00
S':\x0f#\x8e\xd8\x8eP@\xdfJD\xb9,\xcbK@\x00\x00\x00 \x85K@\xc0'
p1092
tp1093
bsS'secnames'
p1094
S'Cell[1].axon[88]'
p1095
sI82
I137
tp1096
a(F2.2952289707984397
S'Cell[0].dend[6] syn_ = new ExpSid(0.166666666667)'
p1097
I0
(dp1098
S'seg'
p1099
F0.5
sS'hostfrom'
p1100
F35.0
sS'gid'
p1101
I83
sS'coords'
p1102
g7
(g8
(I0
tp1103
g10
tp1104
Rp1105
(I1
(I3
tp1106
g14
(S'f8'
p1107
I0
I1
tp1108
Rp1109
(I3
S'<'
p1110
NNNI-1
I-1
I0
tp1111
bI00
S'd\x87\x1fW\xef!-@\x82\x00=\xb1OX:\xc0\x00\x00\x00\xc0\x1e\x85\x18@'
p1112
tp1113
bsS'secnames'
p1114
S'Cell[1].axon[0]'
p1115
sI83
I41
tp1116
a(F1.359007184418078
S'Cell[3].dend[28] syn_ = new FastInhib(0.214285714286)'
p1117
I3
(dp1118
S'seg'
p1119
F0.5
sS'hostfrom'
p1120
F36.0
sS'gid'
p1121
I84
sS'coords'
p1122
g7
(g8
(I0
tp1123
g10
tp1124
Rp1125
(I1
(I3
tp1126
g14
(S'f8'
p1127
I0
I1
tp1128
Rp1129
(I3
S'<'
p1130
NNNI-1
I-1
I0
tp1131
bI00
S'\n\xb2\xe1\xdf\x02$B\xc0+\xb1hN\x8bmU@\xa0\x08|\x01&S-\xc0'
p1132
tp1133
bsS'secnames'
p1134
S'Cell[1].axon[441]'
p1135
sI84
I185
tp1136
a(F1.8035248539935163
S'Cell[3].dend[21] syn_ = new FastInhib(0.166666666667)'
p1137
I3
(dp1138
g1119
F0.16666666666666666
sg1120
F36.0
sg1121
I180
sg1122
g7
(g8
(I0
tp1139
g10
tp1140
Rp1141
(I1
(I3
tp1142
g1129
I00
S'\xaf\xaa\xcf\xc2(\x9fD\xc0\xda\x81\xa3\x83\x05\xbb7@\x00\x00\x00\x80\xc254@'
p1143
tp1144
bsg1134
S'Cell[3].axon[279]'
p1145
sI180
I185
tp1146
a(F0.8682201527598875
S'Cell[1].dend[29] syn_ = new FastInhib(0.5)'
p1147
I1
(dp1148
S'seg'
p1149
F0.5
sS'hostfrom'
p1150
F38.0
sS'gid'
p1151
I86
sS'coords'
p1152
g7
(g8
(I0
tp1153
g10
tp1154
Rp1155
(I1
(I3
tp1156
g14
(S'f8'
p1157
I0
I1
tp1158
Rp1159
(I3
S'<'
p1160
NNNI-1
I-1
I0
tp1161
bI00
S'\xe4\xc6\xba!\x01\xb3\x13\xc0\x93m\xfb%\xb1z;\xc0?\x94\xb8:yg7\xc0'
p1162
tp1163
bsS'secnames'
p1164
S'Cell[1].axon[87]'
p1165
sI86
I89
tp1166
a(F2.106514083778429
S'Cell[0].dend[11] syn_ = new AmpaNmda(0.3)'
p1167
I0
(dp1168
g1149
F0.5
sg1150
F38.0
sg1151
I86
sg1152
g7
(g8
(I0
tp1169
g10
tp1170
Rp1171
(I1
(I3
tp1172
g1159
I00
S'\x13\x88\x9d\xe0\xc7\xe2&\xc06R/\x12\xb1\xfaO\xc0X\xb1\x17\xa7<\x854\xc0'
p1173
tp1174
bsg1164
S'Cell[1].axon[212]'
p1175
sI86
I41
tp1176
a(F1.822483982324348
S'Cell[0].apic[8] syn_ = new ExpSid(0.5)'
p1177
I0
(dp1178
S'seg'
p1179
F0.5
sS'hostfrom'
p1180
F39.0
sS'gid'
p1181
I87
sS'coords'
p1182
g7
(g8
(I0
tp1183
g10
tp1184
Rp1185
(I1
(I3
tp1186
g14
(S'f8'
p1187
I0
I1
tp1188
Rp1189
(I3
S'<'
p1190
NNNI-1
I-1
I0
tp1191
bI00
S',\x95l\xa1/\x9dB@<\xb6\x12\xf2\xc8\x17"@\xa0$\x8b\x96\xa1\xf9.@'
p1192
tp1193
bsS'secnames'
p1194
S'Cell[1].axon[88]'
p1195
sI87
I41
tp1196
a(F0.8194334097260321
S'Cell[3].dend[10] syn_ = new FastInhib(0.833333333333)'
p1197
I3
(dp1198
S'seg'
p1199
F0.5
sS'hostfrom'
p1200
F40.0
sS'gid'
p1201
I88
sS'coords'
p1202
g7
(g8
(I0
tp1203
g10
tp1204
Rp1205
(I1
(I3
tp1206
g14
(S'f8'
p1207
I0
I1
tp1208
Rp1209
(I3
S'<'
p1210
NNNI-1
I-1
I0
tp1211
bI00
S'(\xaf\x16\xa4qi@\xc0p_\xe2\x18\x84\x1cC\xc0\xe6\x8a\x07D\x01\xe3\x1d\xc0'
p1212
tp1213
bsS'secnames'
p1214
S'Cell[1].axon[76]'
p1215
sI88
I185
tp1216
a(F2.361403563277519
S'Cell[0].dend[2] syn_ = new AmpaNmda(0.5)'
p1217
I0
(dp1218
g1199
F0.5
sg1200
F40.0
sg1201
I88
sg1202
g7
(g8
(I0
tp1219
g10
tp1220
Rp1221
(I1
(I3
tp1222
g1209
I00
S'?\xd6\xf7\xcc\xf4yY@C\x066\xf7\xc14Q\xc0\xab\xb0\xcd\xb1\xfcWN\xc0'
p1223
tp1224
bsg1214
S'Cell[1].axon[364]'
p1225
sI88
I41
tp1226
a(F1.1959094980647285
S'Cell[2].dend[4] syn_ = new FastInhib(0.5)'
p1227
I2
(dp1228
g1199
F0.16666666666666666
sg1200
F40.0
sg1201
I184
sg1202
g7
(g8
(I0
tp1229
g10
tp1230
Rp1231
(I1
(I3
tp1232
g1209
I00
S'H\xed\x93O\x1e@\x08@bG\x03\x1c0\x99E\xc0\r\xdd\xd7\xa9?\x8e\xf1\xbf'
p1233
tp1234
bsg1214
S'Cell[3].axon[64]'
p1235
sI184
I137
tp1236
a(F1.3497395659265983
S'Cell[1].dend[10] syn_ = new FastInhib(0.5)'
p1237
I1
(dp1238
S'seg'
p1239
F0.1
sS'hostfrom'
p1240
F41.0
sS'gid'
p1241
I185
sS'coords'
p1242
g7
(g8
(I0
tp1243
g10
tp1244
Rp1245
(I1
(I3
tp1246
g14
(S'f8'
p1247
I0
I1
tp1248
Rp1249
(I3
S'<'
p1250
NNNI-1
I-1
I0
tp1251
bI00
S'\x93\x9brko\xe6?\xc0\xf7\xc6Cd\xbe\x9bH@c\xfa\x9c\x90f`\xe6\xbf'
p1252
tp1253
bsS'secnames'
p1254
S'Cell[3].axon[113]'
p1255
sI185
I89
tp1256
a(F2.2990471288952454
S'Cell[1].dend[47] syn_ = new FastInhib(0.1)'
p1257
I1
(dp1258
S'seg'
p1259
F0.5
sS'hostfrom'
p1260
F42.0
sS'gid'
p1261
I90
sS'coords'
p1262
g7
(g8
(I0
tp1263
g10
tp1264
Rp1265
(I1
(I3
tp1266
g14
(S'f8'
p1267
I0
I1
tp1268
Rp1269
(I3
S'<'
p1270
NNNI-1
I-1
I0
tp1271
bI00
S'\xb2#)\xe6\\\xbaD\xc0\xc7\x80\xad&\x9f\x0f@\xc0\xfbb\x118\xfb\xa8\x03@'
p1272
tp1273
bsS'secnames'
p1274
S'Cell[1].axon[24]'
p1275
sI90
I89
tp1276
a(F1.4621383985091443
S'Cell[1].dend[16] syn_ = new FastInhib(0.7)'
p1277
I1
(dp1278
S'seg'
p1279
F0.5
sS'hostfrom'
p1280
F43.0
sS'gid'
p1281
I91
sS'coords'
p1282
g7
(g8
(I0
tp1283
g10
tp1284
Rp1285
(I1
(I3
tp1286
g14
(S'f8'
p1287
I0
I1
tp1288
Rp1289
(I3
S'<'
p1290
NNNI-1
I-1
I0
tp1291
bI00
S'\xe5\xa0\xae\xb9R\xf9\x1a\xc0\x06\xec\x8ek\x874X@\xe1[\x8c{\xe8NV\xc0'
p1292
tp1293
bsS'secnames'
p1294
S'Cell[1].axon[21]'
p1295
sI91
I89
tp1296
a(F0.8836786371397226
S'Cell[2].dend[18] syn_ = new FastInhib(0.5)'
p1297
I2
(dp1298
g1279
F0.5
sg1280
F43.0
sg1281
I91
sg1282
g7
(g8
(I0
tp1299
g10
tp1300
Rp1301
(I1
(I3
tp1302
g1289
I00
S'\xe5\x92IVB\xab.@\x0cv\x00\xbc\xadx=@\xe6$\xc5\xf8 ^\xf8?'
p1303
tp1304
bsg1294
S'Cell[1].axon[204]'
p1305
sI91
I137
tp1306
a(F1.4206594362578193
S'Cell[2].dend[30] syn_ = new FastInhib(0.5)'
p1307
I2
(dp1308
g1279
F0.7
sg1280
F43.0
sg1281
I91
sg1282
g7
(g8
(I0
tp1309
g10
tp1310
Rp1311
(I1
(I3
tp1312
g1289
I00
S'\x94\x82\x80\xe6\xd6sW@\xfc\x0fTV\xc8K0@G~k\xdcw\xffG\xc0'
p1313
tp1314
bsg1294
S'Cell[1].axon[248]'
p1315
sI91
I137
tp1316
a(F1.813798372630539
S'Cell[2].dend[6] syn_ = new FastInhib(0.1)'
p1317
I2
(dp1318
S'seg'
p1319
F0.5
sS'hostfrom'
p1320
F44.0
sS'gid'
p1321
I92
sS'coords'
p1322
g7
(g8
(I0
tp1323
g10
tp1324
Rp1325
(I1
(I3
tp1326
g14
(S'f8'
p1327
I0
I1
tp1328
Rp1329
(I3
S'<'
p1330
NNNI-1
I-1
I0
tp1331
bI00
S"wEpd\x95\x1b\xe1\xbf\x83\x0e;\x10\xc0\xd0V\xc0\x1f\xf4R48\xd6'\xc0"
p1332
tp1333
bsS'secnames'
p1334
S'Cell[1].axon[80]'
p1335
sI92
I137
tp1336
a(F1.9630283198895755
S'Cell[1].dend[29] syn_ = new FastInhib(0.5)'
p1337
I1
(dp1338
S'seg'
p1339
F0.5
sS'hostfrom'
p1340
F45.0
sS'gid'
p1341
I141
sS'coords'
p1342
g7
(g8
(I0
tp1343
g10
tp1344
Rp1345
(I1
(I3
tp1346
g14
(S'f8'
p1347
I0
I1
tp1348
Rp1349
(I3
S'<'
p1350
NNNI-1
I-1
I0
tp1351
bI00
S'\xa6\x08\x93\x98\xc9\xb2\x19\xc0\x04\x8b\xce\x0b\xf5-:\xc0\x84\x00N\xc7\x19a6\xc0'
p1352
tp1353
bsS'secnames'
p1354
S'Cell[2].axon[138]'
p1355
sI141
I89
tp1356
a(F0.983418813269334
S'Cell[3].dend[7] syn_ = new FastInhib(0.1)'
p1357
I3
(dp1358
g1339
F0.5
sg1340
F45.0
sg1341
I141
sg1342
g7
(g8
(I0
tp1359
g10
tp1360
Rp1361
(I1
(I3
tp1362
g1349
I00
S'\x98\x05\xcd\x18\xees9\xc0VD\xbe\xf1\x84Q\n@\x1e\x92\x94\xe6\xab\xa25\xc0'
p1363
tp1364
bsg1354
S'Cell[2].axon[212]'
p1365
sI141
I185
tp1366
a(F2.417606929946513
S'Cell[1].dend[22] syn_ = new FastInhib(0.833333333333)'
p1367
I1
(dp1368
g1339
F0.2777777777777778
sg1340
F45.0
sg1341
I93
sg1342
g7
(g8
(I0
tp1369
g10
tp1370
Rp1371
(I1
(I3
tp1372
g1349
I00
S'<u\x89g\x04\\T@\xa2\x89\n\nF\xc1F@\x06\xac\xce\xe2v\xcb<@'
p1373
tp1374
bsg1354
S'Cell[1].axon[274]'
p1375
sI93
I89
tp1376
a(F2.1973748911752766
S'Cell[0].dend[7] syn_ = new AmpaNmda(0.833333333333)'
p1377
I0
(dp1378
S'seg'
p1379
F0.5
sS'hostfrom'
p1380
F46.0
sS'gid'
p1381
I94
sS'coords'
p1382
g7
(g8
(I0
tp1383
g10
tp1384
Rp1385
(I1
(I3
tp1386
g14
(S'f8'
p1387
I0
I1
tp1388
Rp1389
(I3
S'<'
p1390
NNNI-1
I-1
I0
tp1391
bI00
S'X\x1e\xab\xb4\xa5\x8eI@\xf0\x87\xfe\xf6 \xaaX\xc0\x00\x00\x00\x80=\x8a \xc0'
p1392
tp1393
bsS'secnames'
p1394
S'Cell[1].axon[99]'
p1395
sI94
I41
tp1396
a(F2.10850739334348
S'Cell[0].dend[12] syn_ = new AmpaNmda(0.5)'
p1397
I0
(dp1398
g1379
F0.8333333333333333
sg1380
F46.0
sg1381
I94
sg1382
g7
(g8
(I0
tp1399
g10
tp1400
Rp1401
(I1
(I3
tp1402
g1389
I00
S':y@\x173\xe76@\x03]\xecw\xcd\xceL\xc0aH\x12\x0e\xd6\xdf\xf3\xbf'
p1403
tp1404
bsg1394
S'Cell[1].axon[102]'
p1405
sI94
I41
tp1406
a(F1.7587569359834656
S'Cell[2].dend[24] syn_ = new FastInhib(0.3)'
p1407
I2
(dp1408
S'seg'
p1409
F0.8333333333333333
sS'hostfrom'
p1410
F47.0
sS'gid'
p1411
I95
sS'coords'
p1412
g7
(g8
(I0
tp1413
g10
tp1414
Rp1415
(I1
(I3
tp1416
g14
(S'f8'
p1417
I0
I1
tp1418
Rp1419
(I3
S'<'
p1420
NNNI-1
I-1
I0
tp1421
bI00
S'b\xafa\xde\x94\xdcX@\xbb\nEi\xff\xf6.@[\x95\xbbvK\x90P\xc0'
p1422
tp1423
bsS'secnames'
p1424
S'Cell[1].axon[43]'
p1425
sI95
I137
tp1426
a(F2.1658932962400175
S'Cell[0].apic[9] syn_ = new ExpSid(0.5)'
p1427
I0
(dp1428
g1409
F0.5
sg1410
F47.0
sg1411
I95
sg1412
g7
(g8
(I0
tp1429
g10
tp1430
Rp1431
(I1
(I3
tp1432
g1419
I00
S'\x01d\x93|\xdaw@@\x8c>\x1c\x13\x02\x1d2@\xa2nd\xdc\x8f5\x06@'
p1433
tp1434
bsg1424
S'Cell[1].axon[174]'
p1435
sI95
I41
tp1436
a.