(lp0
(F2.165180374377768
S'Cell[1].dend[9] syn_ = new ExpSid(0.833333333333)'
p1
I1
(dp2
S'seg'
p3
F0.5
sS'hostfrom'
p4
F1.0
sS'gid'
p5
I145
sS'coords'
p6
cnumpy.core.multiarray
_reconstruct
p7
(cnumpy
ndarray
p8
(I0
tp9
S'b'
p10
tp11
Rp12
(I1
(I3
tp13
cnumpy
dtype
p14
(S'f8'
p15
I0
I1
tp16
Rp17
(I3
S'<'
p18
NNNI-1
I-1
I0
tp19
bI00
S'\x00\x00\x000\\\xefR\xc0\x00\x00\x00@\xe1\xbaQ\xc0\x00\x00\x000\\\xbfK\xc0'
p20
tp21
bsS'secnames'
p22
S'Cell[3].axon[150]'
p23
sI145
I69
tp24
a(F1.1888708704699937
S'Cell[2].dend[43] syn_ = new FastInhib(0.5)'
p25
I2
(dp26
g3
F0.8333333333333333
sg4
F1.0
sg5
I97
sg6
g7
(g8
(I0
tp27
g10
tp28
Rp29
(I1
(I3
tp30
g17
I00
S'<\xb6^\xe2\xeb\x12T\xc0i$\xe3\tZ\xc9G@\xc22\xe9\xe7\xb8t!@'
p31
tp32
bsg22
S'Cell[2].axon[25]'
p33
sI97
I117
tp34
a(F2.1119416936304574
S'Cell[0].apic[15] syn_ = new ExpSid(0.7)'
p35
I0
(dp36
g3
F0.16666666666666666
sg4
F1.0
sg5
I97
sg6
g7
(g8
(I0
tp37
g10
tp38
Rp39
(I1
(I3
tp40
g17
I00
S'\x1e\x00\xa2\xc7T<4@\x02\x0e\xae^\x05\xf7L@.\x9dt}\x99 G\xc0'
p41
tp42
bsg22
S'Cell[2].axon[72]'
p43
sI97
I21
tp44
a(F1.7492876489243538
S'Cell[2].dend[0] syn_ = new FastInhib(0.5)'
p45
I2
(dp46
g3
F0.5
sg4
F1.0
sg5
I97
sg6
g7
(g8
(I0
tp47
g10
tp48
Rp49
(I1
(I3
tp50
g17
I00
S'\xc8\x18\xcd\xe9=\x1a=@\x9e\xad\x0f\x11]\xd92@\x90\xc66\xf0X\x86\xf8?'
p51
tp52
bsg22
S'Cell[2].axon[104]'
p53
sI97
I117
tp54
a(F2.393471868908781
S'Cell[0].dend[2] syn_ = new ExpSid(0.833333333333)'
p55
I0
(dp56
g3
F0.5
sg4
F1.0
sg5
I97
sg6
g7
(g8
(I0
tp57
g10
tp58
Rp59
(I1
(I3
tp60
g17
I00
S'\xbd>\xe5o\xed\x8d\x1d@\x93>ej\xd4a\x00\xc0T\\;`\x9b}\xf7?'
p61
tp62
bsg22
S'Cell[2].axon[160]'
p63
sI97
I21
tp64
a(F0.8317461304556878
S'Cell[1].dend[23] syn_ = new ExpSid(0.5)'
p65
I1
(dp66
g3
F0.5
sg4
F1.0
sg5
I97
sg6
g7
(g8
(I0
tp67
g10
tp68
Rp69
(I1
(I3
tp70
g17
I00
S'\xdev,\x9c\x81\xab#@\x7f,\xabO\xf5\xa8?\xc0\x93\x81d\xee\x8d2\x1a@'
p71
tp72
bsg22
S'Cell[2].axon[164]'
p73
sI97
I69
tp74
a(F2.3950464566128273
S'Cell[0].dend[3] syn_ = new ExpSid(0.5)'
p75
I0
(dp76
g3
F0.21428571428571427
sg4
F1.0
sg5
I97
sg6
g7
(g8
(I0
tp77
g10
tp78
Rp79
(I1
(I3
tp80
g17
I00
S'v\x97[6z\xdb6\xc0D\xdfP\x07\x02\xe5 @DL\\\xd3T\x83&@'
p81
tp82
bsg22
S'Cell[2].axon[193]'
p83
sI97
I21
tp84
a(F1.445647543125922
S'Cell[0].apic[15] syn_ = new ExpSid(0.3)'
p85
I0
(dp86
g3
F0.8333333333333333
sg4
F1.0
sg5
I97
sg6
g7
(g8
(I0
tp87
g10
tp88
Rp89
(I1
(I3
tp90
g17
I00
S'\xe0+\x00\xb51*E@\xc0\x98\x8b\xc6-IB@;3\x03;\xe9\x829\xc0'
p91
tp92
bsg22
S'Cell[2].axon[196]'
p93
sI97
I21
tp94
a(F1.6389123352526158
S'Cell[2].dend[1] syn_ = new FastInhib(0.5)'
p95
I2
(dp96
g3
F0.5
sg4
F1.0
sg5
I97
sg6
g7
(g8
(I0
tp97
g10
tp98
Rp99
(I1
(I3
tp100
g17
I00
S'\x18\xe79\xab,\x907@\x1d\x85\xd0\xb8\x8d\x13;@W\x137\xb6B\xcb\xfb\xbf'
p101
tp102
bsg22
S'Cell[2].axon[207]'
p103
sI97
I117
tp104
a(F2.230418153462277
S'Cell[3].dend[36] syn_ = new FastInhib(0.5)'
p105
I3
(dp106
g3
F0.8333333333333333
sg4
F1.0
sg5
I97
sg6
g7
(g8
(I0
tp107
g10
tp108
Rp109
(I1
(I3
tp110
g17
I00
S'\xea\xa6\x00\x87\xe4\xd1P@ (ro\xc3\x1eK@\xaa\xa2\xd3!b(2@'
p111
tp112
bsg22
S'Cell[2].axon[248]'
p113
sI97
I165
tp114
a(F2.494756964866465
S'Cell[2].dend[37] syn_ = new FastInhib(0.5)'
p115
I2
(dp116
S'seg'
p117
F0.5
sS'hostfrom'
p118
F2.0
sS'gid'
p119
I98
sS'coords'
p120
g7
(g8
(I0
tp121
g10
tp122
Rp123
(I1
(I3
tp124
g14
(S'f8'
p125
I0
I1
tp126
Rp127
(I3
S'<'
p128
NNNI-1
I-1
I0
tp129
bI00
S"g|\xdc'C\x04\x16@\xa4_\xe2\x94\xb3\xae5@u\xd3\xb1\x8c\x95\xaf-\xc0"
p130
tp131
bsS'secnames'
p132
S'Cell[2].axon[473]'
p133
sI98
I117
tp134
a(F2.026224327305853
S'Cell[2].dend[23] syn_ = new FastInhib(0.5)'
p135
I2
(dp136
g117
F0.16666666666666666
sg118
F2.0
sg119
I98
sg120
g7
(g8
(I0
tp137
g10
tp138
Rp139
(I1
(I3
tp140
g127
I00
S'\x0fQ\x96\x86\xd2i=\xc0\x19"\x96w\xf7{/@P\xb4\xd2\xff\x89\xfe2\xc0'
p141
tp142
bsg132
S'Cell[2].axon[476]'
p143
sI98
I117
tp144
a(F0.5695374610223257
S'Cell[2].dend[40] syn_ = new FastInhib(0.166666666667)'
p145
I2
(dp146
g117
F0.8333333333333333
sg118
F2.0
sg119
I146
sg120
g7
(g8
(I0
tp147
g10
tp148
Rp149
(I1
(I3
tp150
g127
I00
S"\xc8%{o\xb1O'\xc0|\x94-?&\x0f<@:\x14\xcdi\x94P!\xc0"
p151
tp152
bsg132
S'Cell[3].axon[176]'
p153
sI146
I117
tp154
a(F1.7116506112144683
S'Cell[3].dend[14] syn_ = new FastInhib(0.166666666667)'
p155
I3
(dp156
g117
F0.16666666666666666
sg118
F2.0
sg119
I146
sg120
g7
(g8
(I0
tp157
g10
tp158
Rp159
(I1
(I3
tp160
g127
I00
S'\xe7\xd2\x99D\xa2\x8d!\xc0_\xa4\xc5\x93\xdc\xeb_@\x00\x00\x00 \x85\xcb@\xc0'
p161
tp162
bsg132
S'Cell[3].axon[206]'
p163
sI146
I165
tp164
a(F2.494756964866465
S'Cell[2].dend[37] syn_ = new FastInhib(0.5)'
p165
I2
(dp166
S'seg'
p167
F0.5
sS'hostfrom'
p168
F3.0
sS'gid'
p169
I99
sS'coords'
p170
g7
(g8
(I0
tp171
g10
tp172
Rp173
(I1
(I3
tp174
g14
(S'f8'
p175
I0
I1
tp176
Rp177
(I3
S'<'
p178
NNNI-1
I-1
I0
tp179
bI00
S"g|\xdc'C\x04\x16@\xa4_\xe2\x94\xb3\xae5@u\xd3\xb1\x8c\x95\xaf-\xc0"
p180
tp181
bsS'secnames'
p182
S'Cell[2].axon[473]'
p183
sI99
I117
tp184
a(F2.026224327305853
S'Cell[2].dend[23] syn_ = new FastInhib(0.5)'
p185
I2
(dp186
g167
F0.16666666666666666
sg168
F3.0
sg169
I99
sg170
g7
(g8
(I0
tp187
g10
tp188
Rp189
(I1
(I3
tp190
g177
I00
S'\x0fQ\x96\x86\xd2i=\xc0\x19"\x96w\xf7{/@P\xb4\xd2\xff\x89\xfe2\xc0'
p191
tp192
bsg182
S'Cell[2].axon[476]'
p193
sI99
I117
tp194
a(F2.3522671670694297
S'Cell[2].dend[39] syn_ = new FastInhib(0.5)'
p195
I2
(dp196
g167
F0.5
sg168
F3.0
sg169
I147
sg170
g7
(g8
(I0
tp197
g10
tp198
Rp199
(I1
(I3
tp200
g177
I00
S'\xc2x!\xab\xdd\xa5+\xc0|\xd1\x1bL\xa9\xa56@\x8c\x17\x04\x16X\xd2\x0e@'
p201
tp202
bsg182
S'Cell[3].axon[6]'
p203
sI147
I117
tp204
a(F1.965779612277975
S'Cell[2].dend[24] syn_ = new FastInhib(0.5)'
p205
I2
(dp206
S'seg'
p207
F0.5
sS'hostfrom'
p208
F6.0
sS'gid'
p209
I102
sS'coords'
p210
g7
(g8
(I0
tp211
g10
tp212
Rp213
(I1
(I3
tp214
g14
(S'f8'
p215
I0
I1
tp216
Rp217
(I3
S'<'
p218
NNNI-1
I-1
I0
tp219
bI00
S'\xf5\x96\xc4\xbcY\x18B\xc0\x96\xf7\xd7u\xdeu8@\x00\x00\x00\xc0\xcc\xcc$\xc0'
p220
tp221
bsS'secnames'
p222
S'Cell[2].axon[76]'
p223
sI102
I117
tp224
a(F2.134731115382506
S'Cell[2].dend[51] syn_ = new FastInhib(0.166666666667)'
p225
I2
(dp226
g207
F0.5
sg208
F6.0
sg209
I150
sg210
g7
(g8
(I0
tp227
g10
tp228
Rp229
(I1
(I3
tp230
g217
I00
S"\xfc\xd4>\x95\xc35 \xc0\xd2\xd4\xe2'\xd6\xd1F@\x00\x00\x00\x80\x14\xee>\xc0"
p231
tp232
bsg222
S'Cell[3].axon[41]'
p233
sI150
I117
tp234
a(F2.399829735038991
S'Cell[2].dend[51] syn_ = new FastInhib(0.166666666667)'
p235
I2
(dp236
g207
F0.16666666666666666
sg208
F6.0
sg209
I150
sg210
g7
(g8
(I0
tp237
g10
tp238
Rp239
(I1
(I3
tp240
g217
I00
S'\x81?3\xa8J\xb5\x1d\xc0\x00,K9\x9e\xd5F@\x00\x00\x00\x80\x14\xee>\xc0'
p241
tp242
bsg222
S'Cell[3].axon[42]'
p243
sI150
I117
tp244
a(F2.2876698037161245
S'Cell[2].dend[51] syn_ = new FastInhib(0.166666666667)'
p245
I2
(dp246
g207
F0.16666666666666666
sg208
F6.0
sg209
I150
sg210
g7
(g8
(I0
tp247
g10
tp248
Rp249
(I1
(I3
tp250
g217
I00
S'\x02Z\xf5\x92\xf3r#\xc0\xbeZ\x1fH\n\xc0F@\x00\x00\x00\x80\x14\xee>\xc0'
p251
tp252
bsg222
S'Cell[3].axon[58]'
p253
sI150
I117
tp254
a(F1.4895118336129756
S'Cell[1].dend[0] syn_ = new ExpSid(0.5)'
p255
I1
(dp256
S'seg'
p257
F0.8333333333333333
sS'hostfrom'
p258
F7.0
sS'gid'
p259
I103
sS'coords'
p260
g7
(g8
(I0
tp261
g10
tp262
Rp263
(I1
(I3
tp264
g14
(S'f8'
p265
I0
I1
tp266
Rp267
(I3
S'<'
p268
NNNI-1
I-1
I0
tp269
bI00
S'4\xe5=\xca\xfd\xc2\x16@ x\x90I\xc1\x177\xc0\x00\x00\x00\x80\x14.$\xc0'
p270
tp271
bsS'secnames'
p272
S'Cell[2].axon[369]'
p273
sI103
I69
tp274
a(F2.292756176617039
S'Cell[2].dend[29] syn_ = new FastInhib(0.5)'
p275
I2
(dp276
g257
F0.8333333333333333
sg258
F7.0
sg259
I103
sg260
g7
(g8
(I0
tp277
g10
tp278
Rp279
(I1
(I3
tp280
g267
I00
S'\xfa\r=\xcbjt1\xc0\x0e\xed\xa4\x1a\xef\x011@\xb9\xaeN\xf8\xaa\xbe\x10@'
p281
tp282
bsg272
S'Cell[2].axon[402]'
p283
sI103
I117
tp284
a(F1.7163472419636259
S'Cell[3].dend[23] syn_ = new FastInhib(0.5)'
p285
I3
(dp286
g257
F0.5
sg258
F7.0
sg259
I151
sg260
g7
(g8
(I0
tp287
g10
tp288
Rp289
(I1
(I3
tp290
g267
I00
S'\x00\x00\x00\xd0\xf5(\x11@\x00\x00\x00\xc0\xf5\xa8F@\x00\x00\x00\xc0\x1e\x85$\xc0'
p291
tp292
bsg272
S'Cell[3].soma[0]'
p293
sI151
I165
tp294
a(F1.2774291319890274
S'Cell[3].dend[10] syn_ = new FastInhib(0.5)'
p295
I3
(dp296
S'seg'
p297
F0.5
sS'hostfrom'
p298
F8.0
sS'gid'
p299
I152
sS'coords'
p300
g7
(g8
(I0
tp301
g10
tp302
Rp303
(I1
(I3
tp304
g14
(S'f8'
p305
I0
I1
tp306
Rp307
(I3
S'<'
p308
NNNI-1
I-1
I0
tp309
bI00
S'\x00\x00\x00X\xb8\x1e\x00@\x00\x00\x00P\xb8NH@\x00\x00\x00\x10\xaeG.\xc0'
p310
tp311
bsS'secnames'
p312
S'Cell[3].axon[60]'
p313
sI152
I165
tp314
a(F2.4030851061360194
S'Cell[0].apic[11] syn_ = new AmpaNmda(0.833333333333)'
p315
I0
(dp316
g297
F0.5
sg298
F8.0
sg299
I152
sg300
g7
(g8
(I0
tp317
g10
tp318
Rp319
(I1
(I3
tp320
g307
I00
S'\xa3\x98\x14_\xc4b3\xc0\x89\xcf\x0ec\x17<Q@\xe9G[%\x95\n!\xc0'
p321
tp322
bsg312
S'Cell[3].axon[323]'
p323
sI152
I21
tp324
a(F1.8382863237197702
S'Cell[2].dend[24] syn_ = new FastInhib(0.166666666667)'
p325
I2
(dp326
g297
F0.8333333333333333
sg298
F8.0
sg299
I152
sg300
g7
(g8
(I0
tp327
g10
tp328
Rp329
(I1
(I3
tp330
g307
I00
S'\xef7b\x10\x02\x813\xc0 \xb0\xe7dz\xce1@\xcd6K\tF\x12)\xc0'
p331
tp332
bsg312
S'Cell[3].axon[517]'
p333
sI152
I117
tp334
a(F2.364939967475579
S'Cell[2].dend[34] syn_ = new FastInhib(0.5)'
p335
I2
(dp336
g297
F0.5
sg298
F8.0
sg299
I152
sg300
g7
(g8
(I0
tp337
g10
tp338
Rp339
(I1
(I3
tp340
g307
I00
S'\x84\xda\x97\x7f\xce\x1c7\xc0enn\x96\x80IT@\x00\x00\x00\xa0p=\x06\xc0'
p341
tp342
bsg312
S'Cell[3].axon[556]'
p343
sI152
I117
tp344
a(F2.1782134095556405
S'Cell[3].dend[24] syn_ = new FastInhib(0.166666666667)'
p345
I3
(dp346
g297
F0.5
sg298
F8.0
sg299
I152
sg300
g7
(g8
(I0
tp347
g10
tp348
Rp349
(I1
(I3
tp350
g307
I00
S'\xde\xb7\x99\xc7\xc9\xd7\x1d@|\xb5\xe9\xceo\x1dI@\x00\x00\x00\x00\x00\x00\x00\xc0'
p351
tp352
bsg312
S'Cell[3].axon[558]'
p353
sI152
I165
tp354
a(F2.3485865361279
S'Cell[3].dend[6] syn_ = new FastInhib(0.833333333333)'
p355
I3
(dp356
g297
F0.8333333333333333
sg298
F8.0
sg299
I152
sg300
g7
(g8
(I0
tp357
g10
tp358
Rp359
(I1
(I3
tp360
g307
I00
S'\xdemt\x88\xc8<R\xc0\x06\xbf\xbb\xc8\x9a\x9dK@\x0e\x9b\x97g\x95\xe3(@'
p361
tp362
bsg312
S'Cell[3].axon[580]'
p363
sI152
I165
tp364
a(F2.3158669066253026
S'Cell[0].apic[15] syn_ = new AmpaNmda(0.1)'
p365
I0
(dp366
g297
F0.5
sg298
F8.0
sg299
I104
sg300
g7
(g8
(I0
tp367
g10
tp368
Rp369
(I1
(I3
tp370
g307
I00
S'\x00\x00\x00\x00\x00\xb0I@\x00\x00\x00@\xe1\xba>@\x00\x00\x00\x80\x14.#\xc0'
p371
tp372
bsg312
S'Cell[2].axon[348]'
p373
sI104
I21
tp374
a(F2.1002465953676177
S'Cell[2].dend[34] syn_ = new FastInhib(0.5)'
p375
I2
(dp376
g297
F0.2777777777777778
sg298
F8.0
sg299
I104
sg300
g7
(g8
(I0
tp377
g10
tp378
Rp379
(I1
(I3
tp380
g307
I00
S"\xd8\xc7\x9e\xe1\x97\x988\xc0\xfbh\xabm\xad\xd6S@\xeb\n\x93'\x81f\xb2\xbf"
p381
tp382
bsg312
S'Cell[2].axon[436]'
p383
sI104
I117
tp384
a(F2.242891991477376
S'Cell[0].apic[1] syn_ = new ExpSid(0.5)'
p385
I0
(dp386
S'seg'
p387
F0.5
sS'hostfrom'
p388
F9.0
sS'gid'
p389
I153
sS'coords'
p390
g7
(g8
(I0
tp391
g10
tp392
Rp393
(I1
(I3
tp394
g14
(S'f8'
p395
I0
I1
tp396
Rp397
(I3
S'<'
p398
NNNI-1
I-1
I0
tp399
bI00
S'\x00\x00\x00\x80\xeb\xf1J@\x00\x00\x00\x80\xc259@\x00\x00\x00\xe0Q\xb8\xe6?'
p400
tp401
bsS'secnames'
p402
S'Cell[3].soma[0]'
p403
sI153
I21
tp404
a(F1.67011473994873
S'Cell[2].dend[5] syn_ = new FastInhib(0.1)'
p405
I2
(dp406
g387
F0.5
sg388
F9.0
sg389
I153
sg390
g7
(g8
(I0
tp407
g10
tp408
Rp409
(I1
(I3
tp410
g397
I00
S"\xb7\xa9\x06\xf6rN-@\xda\xb5(F\xa3\xbfO@\xd6\xcf\x9f\xb4\xfdG'\xc0"
p411
tp412
bsg402
S'Cell[3].axon[80]'
p413
sI153
I117
tp414
a(F1.2424222086445185
S'Cell[0].apic[18] syn_ = new ExpSid(0.5)'
p415
I0
(dp416
g387
F0.8333333333333333
sg388
F9.0
sg389
I153
sg390
g7
(g8
(I0
tp417
g10
tp418
Rp419
(I1
(I3
tp420
g397
I00
S'6\x97\xa8\xc82wH@\x02 t3w<2@\x00\x00\x00\x80\xeb\xd1$@'
p421
tp422
bsg402
S'Cell[3].axon[86]'
p423
sI153
I21
tp424
a(F1.8111564363539603
S'Cell[3].dend[17] syn_ = new FastInhib(0.5)'
p425
I3
(dp426
g387
F0.5
sg388
F9.0
sg389
I105
sg390
g7
(g8
(I0
tp427
g10
tp428
Rp429
(I1
(I3
tp430
g397
I00
S'\x00\x00\x00\x00\x00\xc0&@\x00\x00\x00\x80\xebYW@\x00\x00\x00@\nWD\xc0'
p431
tp432
bsg402
S'Cell[2].axon[20]'
p433
sI105
I165
tp434
a(F1.3810553232660285
S'Cell[3].dend[24] syn_ = new FastInhib(0.5)'
p435
I3
(dp436
S'seg'
p437
F0.7
sS'hostfrom'
p438
F10.0
sS'gid'
p439
I10
sS'coords'
p440
g7
(g8
(I0
tp441
g10
tp442
Rp443
(I1
(I3
tp444
g14
(S'f8'
p445
I0
I1
tp446
Rp447
(I3
S'<'
p448
NNNI-1
I-1
I0
tp449
bI00
S'\xa9\xef\xc9\x80\x18\x15*@\xee\x17\xff\xb9\xb7\xb8L@\x00\x00\x00`ff\x16@'
p450
tp451
bsS'secnames'
p452
S'Cell[0].axon[3]'
p453
sI10
I165
tp454
a(F2.382202628712041
S'Cell[2].dend[30] syn_ = new FastInhib(0.5)'
p455
I2
(dp456
g437
F0.16666666666666666
sg438
F10.0
sg439
I10
sg440
g7
(g8
(I0
tp457
g10
tp458
Rp459
(I1
(I3
tp460
g447
I00
S'\xd4\xb6\xad\x1fd\x02\xc4?\x8e\x1d\x94\xa153@@\x9d;P\x92^O\x19@'
p461
tp462
bsg452
S'Cell[0].axon[4]'
p463
sI10
I117
tp464
a(F2.411401800894205
S'Cell[1].dend[33] syn_ = new AmpaNmda(0.5)'
p465
I1
(dp466
g437
F0.1
sg438
F10.0
sg439
I106
sg440
g7
(g8
(I0
tp467
g10
tp468
Rp469
(I1
(I3
tp470
g447
I00
S'd\xbf\xa5Q\xad\x9b=@\x96;\xa7\xc9\xef\x829\xc0\xb0\xa0S\xfc\x84\x00C\xc0'
p471
tp472
bsg452
S'Cell[2].axon[79]'
p473
sI106
I69
tp474
a(F1.1812482436695222
S'Cell[1].dend[17] syn_ = new AmpaNmda(0.5)'
p475
I1
(dp476
g437
F0.5
sg438
F10.0
sg439
I106
sg440
g7
(g8
(I0
tp477
g10
tp478
Rp479
(I1
(I3
tp480
g447
I00
S'\xd2&\xc9\x1a\xb9?\xf2\xbf\x86;\x879r\xdf:\xc0\x00\x00\x00\xe0\xa3\x10B\xc0'
p481
tp482
bsg452
S'Cell[2].axon[278]'
p483
sI106
I69
tp484
a(F2.012241966078545
S'Cell[3].dend[11] syn_ = new FastInhib(0.5)'
p485
I3
(dp486
g437
F0.5
sg438
F10.0
sg439
I106
sg440
g7
(g8
(I0
tp487
g10
tp488
Rp489
(I1
(I3
tp490
g447
I00
S'O\xbe] e\x05\x00@.\x1e~\x98]\x9bL@\x00\x00\x00\xa0p\xfd6\xc0'
p491
tp492
bsg452
S'Cell[2].axon[340]'
p493
sI106
I165
tp494
a(F1.4230404643429753
S'Cell[2].dend[14] syn_ = new FastInhib(0.5)'
p495
I2
(dp496
S'seg'
p497
F0.5
sS'hostfrom'
p498
F11.0
sS'gid'
p499
I155
sS'coords'
p500
g7
(g8
(I0
tp501
g10
tp502
Rp503
(I1
(I3
tp504
g14
(S'f8'
p505
I0
I1
tp506
Rp507
(I3
S'<'
p508
NNNI-1
I-1
I0
tp509
bI00
S'\xae;B\xc2:qI@\x02Q9s\x08\xd1?@\x12\xe3\xf0\x7f5B\x17@'
p510
tp511
bsS'secnames'
p512
S'Cell[3].axon[15]'
p513
sI155
I117
tp514
a(F2.3297453615911894
S'Cell[1].dend[6] syn_ = new ExpSid(0.166666666667)'
p515
I1
(dp516
S'seg'
p517
F0.05555555555555555
sS'hostfrom'
p518
F13.0
sS'gid'
p519
I157
sS'coords'
p520
g7
(g8
(I0
tp521
g10
tp522
Rp523
(I1
(I3
tp524
g14
(S'f8'
p525
I0
I1
tp526
Rp527
(I3
S'<'
p528
NNNI-1
I-1
I0
tp529
bI00
S'\x18\x87\x10\x1d/|A\xc0\x00\xd7\xf1\x83\x83(P\xc0\xbe|\x17\x91+[U\xc0'
p530
tp531
bsS'secnames'
p532
S'Cell[3].axon[25]'
p533
sI157
I69
tp534
a(F1.3218368871580701
S'Cell[0].dend[26] syn_ = new ExpSid(0.166666666667)'
p535
I0
(dp536
g517
F0.22727272727272727
sg518
F13.0
sg519
I13
sg520
g7
(g8
(I0
tp537
g10
tp538
Rp539
(I1
(I3
tp540
g527
I00
S'\xd2\x01\xf4\x7f]\x89S@\xa2\xdd\x08\xa3\xe0\xbf9\xc0\x00\x00\x00\xa0Ga*\xc0'
p541
tp542
bsg532
S'Cell[0].axon[3]'
p543
sI13
I21
tp544
a(F1.4153973688338124
S'Cell[0].apic[1] syn_ = new AmpaNmda(0.5)'
p545
I0
(dp546
S'seg'
p547
F0.5
sS'hostfrom'
p548
F14.0
sS'gid'
p549
I110
sS'coords'
p550
g7
(g8
(I0
tp551
g10
tp552
Rp553
(I1
(I3
tp554
g14
(S'f8'
p555
I0
I1
tp556
Rp557
(I3
S'<'
p558
NNNI-1
I-1
I0
tp559
bI00
S"\x00\x00\x00`f\xa6K@}4'\x1c\xc0`6@\x00\xe1\x87\x8e\x10!t\xbf"
p560
tp561
bsS'secnames'
p562
S'Cell[2].axon[160]'
p563
sI110
I21
tp564
a(F1.5891884846543136
S'Cell[3].dend[40] syn_ = new FastInhib(0.5)'
p565
I3
(dp566
g547
F0.5
sg548
F14.0
sg549
I110
sg550
g7
(g8
(I0
tp567
g10
tp568
Rp569
(I1
(I3
tp570
g557
I00
S'\x18\x18\x07\t0|R@)\x01#\xc0\x90p2@\xc4<D~\xe3\xfd/\xc0'
p571
tp572
bsg562
S'Cell[2].axon[162]'
p573
sI110
I165
tp574
a(F1.335732749612706
S'Cell[1].dend[45] syn_ = new ExpSid(0.5)'
p575
I1
(dp576
S'seg'
p577
F0.5
sS'hostfrom'
p578
F15.0
sS'gid'
p579
I111
sS'coords'
p580
g7
(g8
(I0
tp581
g10
tp582
Rp583
(I1
(I3
tp584
g14
(S'f8'
p585
I0
I1
tp586
Rp587
(I3
S'<'
p588
NNNI-1
I-1
I0
tp589
bI00
S'&\x19r\x8b\xde\x9d3@kIM\x9a>\x9d@\xc0#\x83o\x9e\xcb\x07H\xc0'
p590
tp591
bsS'secnames'
p592
S'Cell[2].axon[290]'
p593
sI111
I69
tp594
a(F1.0620534731990796
S'Cell[1].dend[41] syn_ = new ExpSid(0.166666666667)'
p595
I1
(dp596
g577
F0.8333333333333333
sg578
F15.0
sg579
I111
sg580
g7
(g8
(I0
tp597
g10
tp598
Rp599
(I1
(I3
tp600
g587
I00
S'g\xc0\xcb\xf6\x14\xe9K@\xa3\x00\xf1\x1f\x85\x03N\xc0\x1b>W)X\x0fT\xc0'
p601
tp602
bsg592
S'Cell[2].axon[327]'
p603
sI111
I69
tp604
a(F0.6344388058012843
S'Cell[1].apic[0] syn_ = new ExpSid(0.5)'
p605
I1
(dp606
g577
F0.5
sg578
F15.0
sg579
I159
sg580
g7
(g8
(I0
tp607
g10
tp608
Rp609
(I1
(I3
tp610
g587
I00
S'\xa8\xa8H\x10\x15\x1b(@\x9a\xb7I\xef\x13>\x17\xc0\xd8\xd6|\xf4\xd8\xfd#@'
p611
tp612
bsg592
S'Cell[3].axon[79]'
p613
sI159
I69
tp614
a(F2.3013002405074783
S'Cell[3].dend[13] syn_ = new FastInhib(0.833333333333)'
p615
I3
(dp616
S'seg'
p617
F0.23333333333333334
sS'hostfrom'
p618
F16.0
sS'gid'
p619
I160
sS'coords'
p620
g7
(g8
(I0
tp621
g10
tp622
Rp623
(I1
(I3
tp624
g14
(S'f8'
p625
I0
I1
tp626
Rp627
(I3
S'<'
p628
NNNI-1
I-1
I0
tp629
bI00
S'\x1e\x8d*\xf8!\xf9F\xc0\xeb)\xf2\xcfsXb@B\xd1\x00\x00\x91\x1e4\xc0'
p630
tp631
bsS'secnames'
p632
S'Cell[3].axon[4]'
p633
sI160
I165
tp634
a(F2.21682774532564
S'Cell[1].dend[47] syn_ = new AmpaNmda(0.1)'
p635
I1
(dp636
g617
F0.8333333333333333
sg618
F16.0
sg619
I160
sg620
g7
(g8
(I0
tp637
g10
tp638
Rp639
(I1
(I3
tp640
g627
I00
S'\xf0\x139\xb8\xa3X%@\x7f\xcf\x14\xc1j\x9dE\xc0?<\xb3\xe4\xbd\x83P\xc0'
p641
tp642
bsg632
S'Cell[3].axon[111]'
p643
sI160
I69
tp644
a(F1.9112810354700862
S'Cell[1].dend[0] syn_ = new ExpSid(0.5)'
p645
I1
(dp646
S'seg'
p647
F0.16666666666666666
sS'hostfrom'
p648
F17.0
sS'gid'
p649
I113
sS'coords'
p650
g7
(g8
(I0
tp651
g10
tp652
Rp653
(I1
(I3
tp654
g14
(S'f8'
p655
I0
I1
tp656
Rp657
(I3
S'<'
p658
NNNI-1
I-1
I0
tp659
bI00
S"\xc8iVB\xf2\xed\x11@\x92\x11\x1d\x97\xb0':\xc0[\xb2\xbe9\xe35%\xc0"
p660
tp661
bsS'secnames'
p662
S'Cell[2].axon[496]'
p663
sI113
I69
tp664
a(F2.2156838759045256
S'Cell[0].dend[4] syn_ = new ExpSid(0.833333333333)'
p665
I0
(dp666
g647
F0.5
sg648
F17.0
sg649
I161
sg650
g7
(g8
(I0
tp667
g10
tp668
Rp669
(I1
(I3
tp670
g657
I00
S'\x00\x00\x00\xe0z\xb46\xc0\x00\x00\x00\x00\x00\x80%\xc0\x00\x00\x00\x10\xae\x074@'
p671
tp672
bsg662
S'Cell[3].axon[75]'
p673
sI161
I21
tp674
a(F2.2506055626338712
S'Cell[2].dend[5] syn_ = new FastInhib(0.9)'
p675
I2
(dp676
g647
F0.8333333333333333
sg648
F17.0
sg649
I161
sg650
g7
(g8
(I0
tp677
g10
tp678
Rp679
(I1
(I3
tp680
g657
I00
S'\xd3L\x8b\xaa{ \xff?z>\x87\xdb\xd6?`@\xdb\xd8\x9e\xcc\xc3\xa7D\xc0'
p681
tp682
bsg662
S'Cell[3].axon[134]'
p683
sI161
I117
tp684
a(F1.507945740500608
S'Cell[2].dend[5] syn_ = new FastInhib(0.9)'
p685
I2
(dp686
g647
F0.16666666666666666
sg648
F17.0
sg649
I161
sg650
g7
(g8
(I0
tp687
g10
tp688
Rp689
(I1
(I3
tp690
g657
I00
S'\x8b\xdb\xdd\xc6\xa6\xd9\xf6?\xc4c\xea\x89"]`@S\xa1J\x1a\x8c\xfcC\xc0'
p691
tp692
bsg662
S'Cell[3].axon[178]'
p693
sI161
I117
tp694
a(F1.0748482047855419
S'Cell[3].dend[13] syn_ = new FastInhib(0.166666666667)'
p695
I3
(dp696
g647
F0.8333333333333333
sg648
F17.0
sg649
I161
sg650
g7
(g8
(I0
tp697
g10
tp698
Rp699
(I1
(I3
tp700
g657
I00
S'|\xfd;\xe9\xccy3\xc0(("\xc4e\x90\\@\xea\x1c\xb0\xc6\r\xfe<\xc0'
p701
tp702
bsg662
S'Cell[3].axon[231]'
p703
sI161
I165
tp704
a(F2.3519504839247727
S'Cell[1].apic[8] syn_ = new ExpSid(0.5)'
p705
I1
(dp706
g647
F0.16666666666666666
sg648
F17.0
sg649
I161
sg650
g7
(g8
(I0
tp707
g10
tp708
Rp709
(I1
(I3
tp710
g657
I00
S'\xe8\xe9\xf6\x98_\xe1&@\x9c\xfe\xb02\x0f\xbbk@\x08Q\x84\xe5]\xe1\x16\xc0'
p711
tp712
bsg662
S'Cell[3].axon[274]'
p713
sI161
I69
tp714
a(F2.0196351149780702
S'Cell[0].dend[18] syn_ = new ExpSid(0.166666666667)'
p715
I0
(dp716
g647
F0.5
sg648
F17.0
sg649
I65
sg650
g7
(g8
(I0
tp717
g10
tp718
Rp719
(I1
(I3
tp720
g657
I00
S'\x00\x00\x00\x90\xc2\xa5G@\x00\x00\x00\xe0z4=\xc0\x00\x00\x00\x18\xae\xc7\x18@'
p721
tp722
bsg662
S'Cell[1].axon[5]'
p723
sI65
I21
tp724
a(F1.902239946509124
S'Cell[0].dend[17] syn_ = new ExpSid(0.3)'
p725
I0
(dp726
g647
F0.16666666666666666
sg648
F17.0
sg649
I65
sg650
g7
(g8
(I0
tp727
g10
tp728
Rp729
(I1
(I3
tp730
g657
I00
S'4\xfa\xf6F\x82\x12\x06@\x0e\xc7\xd0\xa4\x1d\x07;\xc00\x86\x7f4\x08\xb5\x11\xc0'
p731
tp732
bsg662
S'Cell[1].axon[24]'
p733
sI65
I21
tp734
a(F2.3885065130668393
S'Cell[0].apic[6] syn_ = new ExpSid(0.5)'
p735
I0
(dp736
g647
F0.8636363636363638
sg648
F17.0
sg649
I65
sg650
g7
(g8
(I0
tp737
g10
tp738
Rp739
(I1
(I3
tp740
g657
I00
S'\x02\xd79\xa6\nDK@\xa5\xf6T\x19\xc0\xa2p@\xf73\xcd\xcd=\\1\xc0'
p741
tp742
bsg662
S'Cell[1].axon[27]'
p743
sI65
I21
tp744
a(F1.9181244997778328
S'Cell[3].dend[45] syn_ = new FastInhib(0.166666666667)'
p745
I3
(dp746
S'seg'
p747
F0.30000000000000004
sS'hostfrom'
p748
F18.0
sS'gid'
p749
I114
sS'coords'
p750
g7
(g8
(I0
tp751
g10
tp752
Rp753
(I1
(I3
tp754
g14
(S'f8'
p755
I0
I1
tp756
Rp757
(I3
S'<'
p758
NNNI-1
I-1
I0
tp759
bI00
S'r\xec\xc9\x16aV\x1e\xc0\x9fL\x13\xa9m\xa85\xc0\xcd\xde\xe1=\x90W\xf2?'
p760
tp761
bsS'secnames'
p762
S'Cell[2].axon[79]'
p763
sI114
I165
tp764
a(F2.3032126078732604
S'Cell[2].dend[51] syn_ = new FastInhib(0.166666666667)'
p765
I2
(dp766
g747
F0.1
sg748
F18.0
sg749
I162
sg750
g7
(g8
(I0
tp767
g10
tp768
Rp769
(I1
(I3
tp770
g757
I00
S'p\xb3B\x96\x06\x9c"\xc0\xc7\xb8\xf7\x10\xcc\xfdF@\x00\x00\x00\x80\xc2\xb5>\xc0'
p771
tp772
bsg762
S'Cell[3].axon[97]'
p773
sI162
I117
tp774
a(F2.202196247270933
S'Cell[3].dend[3] syn_ = new FastInhib(0.5)'
p775
I3
(dp776
S'seg'
p777
F0.5
sS'hostfrom'
p778
F20.0
sS'gid'
p779
I116
sS'coords'
p780
g7
(g8
(I0
tp781
g10
tp782
Rp783
(I1
(I3
tp784
g14
(S'f8'
p785
I0
I1
tp786
Rp787
(I3
S'<'
p788
NNNI-1
I-1
I0
tp789
bI00
S'\xe6\xbd|\x01\xe4"R\xc0\x92\xad\xdb`\x87QD@\xb2<\xcef\xf2\xdbP\xc0'
p790
tp791
bsS'secnames'
p792
S'Cell[2].axon[88]'
p793
sI116
I165
tp794
a(F2.3741917928737717
S'Cell[0].dend[26] syn_ = new ExpSid(0.5)'
p795
I0
(dp796
S'seg'
p797
F0.16666666666666666
sS'hostfrom'
p798
F21.0
sS'gid'
p799
I165
sS'coords'
p800
g7
(g8
(I0
tp801
g10
tp802
Rp803
(I1
(I3
tp804
g14
(S'f8'
p805
I0
I1
tp806
Rp807
(I3
S'<'
p808
NNNI-1
I-1
I0
tp809
bI00
S'0!{\x1b\xf1\xd1Q@e\xb1\xb2\xd5\xc1S7\xc0~\xc7\x91\x89QS:\xc0'
p810
tp811
bsS'secnames'
p812
S'Cell[3].axon[163]'
p813
sI165
I21
tp814
a(F1.9606214084161475
S'Cell[3].dend[13] syn_ = new FastInhib(0.5)'
p815
I3
(dp816
g797
F0.5
sg798
F21.0
sg799
I117
sg800
g7
(g8
(I0
tp817
g10
tp818
Rp819
(I1
(I3
tp820
g807
I00
S'\xd2\xe6-\xad\xfa@?\xc0\xb7\xc1\x1a\x0bt\xfd`@\x00\x00\x00\x80\xc2u9\xc0'
p821
tp822
bsg812
S'Cell[2].axon[193]'
p823
sI117
I165
tp824
a(F2.458814634151494
S'Cell[1].dend[27] syn_ = new AmpaNmda(0.5)'
p825
I1
(dp826
S'seg'
p827
F0.30000000000000004
sS'hostfrom'
p828
F22.0
sS'gid'
p829
I70
sS'coords'
p830
g7
(g8
(I0
tp831
g10
tp832
Rp833
(I1
(I3
tp834
g14
(S'f8'
p835
I0
I1
tp836
Rp837
(I3
S'<'
p838
NNNI-1
I-1
I0
tp839
bI00
S'Z\xca\x19b\rf\x10@\xdal7\\\xc8\x1eA\xc0I\x93v5%< @'
p840
tp841
bsS'secnames'
p842
S'Cell[1].axon[7]'
p843
sI70
I69
tp844
a(F2.4490035737241556
S'Cell[3].dend[43] syn_ = new FastInhib(0.3)'
p845
I3
(dp846
g827
F0.5
sg828
F22.0
sg829
I166
sg830
g7
(g8
(I0
tp847
g10
tp848
Rp849
(I1
(I3
tp850
g837
I00
S'\xd1S\x1d\x12:\xd8J@\xf4n\x115\xe4\x7f>@d3\x16\xeeT\x80K\xc0'
p851
tp852
bsg842
S'Cell[3].axon[296]'
p853
sI166
I165
tp854
a(F2.363546452185899
S'Cell[3].dend[2] syn_ = new FastInhib(0.5)'
p855
I3
(dp856
S'seg'
p857
F0.8333333333333335
sS'hostfrom'
p858
F23.0
sS'gid'
p859
I119
sS'coords'
p860
g7
(g8
(I0
tp861
g10
tp862
Rp863
(I1
(I3
tp864
g14
(S'f8'
p865
I0
I1
tp866
Rp867
(I3
S'<'
p868
NNNI-1
I-1
I0
tp869
bI00
S'\xad7\xb7\x91y\x02Y\xc0\x99\xb1\x85\x19,\xa95@\x00\x00\x00\x80\x14n4\xc0'
p870
tp871
bsS'secnames'
p872
S'Cell[2].axon[2]'
p873
sI119
I165
tp874
a(F2.1584648664382597
S'Cell[3].dend[5] syn_ = new FastInhib(0.214285714286)'
p875
I3
(dp876
g857
F0.5
sg858
F23.0
sg859
I167
sg860
g7
(g8
(I0
tp877
g10
tp878
Rp879
(I1
(I3
tp880
g867
I00
S'\x95\xa2\xf9e`\xc8J\xc0SU\xc8\xdf\xb3\x0bB@A\x11,\xba\xb6H;\xc0'
p881
tp882
bsg872
S'Cell[3].axon[170]'
p883
sI167
I165
tp884
a(F2.4682346533691404
S'Cell[2].dend[36] syn_ = new FastInhib(0.166666666667)'
p885
I2
(dp886
S'seg'
p887
F0.30000000000000004
sS'hostfrom'
p888
F24.0
sS'gid'
p889
I120
sS'coords'
p890
g7
(g8
(I0
tp891
g10
tp892
Rp893
(I1
(I3
tp894
g14
(S'f8'
p895
I0
I1
tp896
Rp897
(I3
S'<'
p898
NNNI-1
I-1
I0
tp899
bI00
S'\xd8\xf8\xb9\xb4I\x93\x12@\xaa\xd5\x83^I\xc5+@\x06\xf3_\x10\xabB5\xc0'
p900
tp901
bsS'secnames'
p902
S'Cell[2].axon[46]'
p903
sI120
I117
tp904
a(F2.033181360283441
S'Cell[2].dend[22] syn_ = new FastInhib(0.5)'
p905
I2
(dp906
g887
F0.5
sg888
F24.0
sg889
I120
sg890
g7
(g8
(I0
tp907
g10
tp908
Rp909
(I1
(I3
tp910
g897
I00
S'R\xb3\xcb\xe4\xe54\x0f\xc0\\\x9bJG,\xe1\x1c@|\xdc\x8a\xef\xc4\\\x18\xc0'
p911
tp912
bsg902
S'Cell[2].axon[131]'
p913
sI120
I117
tp914
a(F2.32519180721873
S'Cell[2].dend[36] syn_ = new FastInhib(0.166666666667)'
p915
I2
(dp916
S'seg'
p917
F0.5
sS'hostfrom'
p918
F25.0
sS'gid'
p919
I121
sS'coords'
p920
g7
(g8
(I0
tp921
g10
tp922
Rp923
(I1
(I3
tp924
g14
(S'f8'
p925
I0
I1
tp926
Rp927
(I3
S'<'
p928
NNNI-1
I-1
I0
tp929
bI00
S'\x04N)7\xbb\xd5\n@\xbc\xc7\xa4\\\xe5h,@\x00\x00\x00\xa0\x99\x993\xc0'
p930
tp931
bsS'secnames'
p932
S'Cell[2].axon[5]'
p933
sI121
I117
tp934
a(F1.7260424284881097
S'Cell[3].dend[17] syn_ = new FastInhib(0.5)'
p935
I3
(dp936
g917
F0.16666666666666666
sg918
F25.0
sg919
I121
sg920
g7
(g8
(I0
tp937
g10
tp938
Rp939
(I1
(I3
tp940
g927
I00
S'\xda\xc8\xce}y\xfc#@\xad\x1a\nL\x18\xabW@K\xe4\xe7\xff\xd8KC\xc0'
p941
tp942
bsg932
S'Cell[2].axon[16]'
p943
sI121
I165
tp944
a(F1.9977605015530504
S'Cell[2].dend[51] syn_ = new FastInhib(0.5)'
p945
I2
(dp946
g917
F0.8333333333333333
sg918
F25.0
sg919
I121
sg920
g7
(g8
(I0
tp947
g10
tp948
Rp949
(I1
(I3
tp950
g927
I00
S'|\x19\x80\xde]\xcd*\xc0MO\x0f7\xd8kQ@*\xea\x98\x08\xde\xa7D\xc0'
p951
tp952
bsg932
S'Cell[2].axon[34]'
p953
sI121
I117
tp954
a(F2.155058101167993
S'Cell[1].dend[28] syn_ = new ExpSid(0.5)'
p955
I1
(dp956
g917
F0.5
sg918
F25.0
sg919
I169
sg920
g7
(g8
(I0
tp957
g10
tp958
Rp959
(I1
(I3
tp960
g927
I00
S'x\xea\x12\xcc\x0fd\x17\xc0\x01a\x85\xafM\tB\xc0\xca\xde\xe7[\xa0\xf0)@'
p961
tp962
bsg932
S'Cell[3].axon[235]'
p963
sI169
I69
tp964
a(F2.1686292356413355
S'Cell[1].dend[15] syn_ = new AmpaNmda(0.166666666667)'
p965
I1
(dp966
S'seg'
p967
F0.21428571428571427
sS'hostfrom'
p968
F26.0
sS'gid'
p969
I26
sS'coords'
p970
g7
(g8
(I0
tp971
g10
tp972
Rp973
(I1
(I3
tp974
g14
(S'f8'
p975
I0
I1
tp976
Rp977
(I3
S'<'
p978
NNNI-1
I-1
I0
tp979
bI00
S'\x1cd?\xd1\xa6\xe05\xc0\x91Y\xfe\x94upF\xc0|\xe8\xf6\xc2\xe4NV\xc0'
p980
tp981
bsS'secnames'
p982
S'Cell[0].axon[58]'
p983
sI26
I69
tp984
a(F1.8582217606763458
S'Cell[2].dend[48] syn_ = new FastInhib(0.5)'
p985
I2
(dp986
g967
F0.1
sg968
F26.0
sg969
I170
sg970
g7
(g8
(I0
tp987
g10
tp988
Rp989
(I1
(I3
tp990
g977
I00
S'\x90\x7f\xd6y\x88\x8c=\xc0\x17\xe7|\xf8\x95\x80G@\x00\x00\x00\x80=J;\xc0'
p991
tp992
bsg982
S'Cell[3].axon[507]'
p993
sI170
I117
tp994
a(F1.363290133153815
S'Cell[2].dend[39] syn_ = new FastInhib(0.166666666667)'
p995
I2
(dp996
S'seg'
p997
F0.8333333333333333
sS'hostfrom'
p998
F27.0
sS'gid'
p999
I171
sS'coords'
p1000
g7
(g8
(I0
tp1001
g10
tp1002
Rp1003
(I1
(I3
tp1004
g14
(S'f8'
p1005
I0
I1
tp1006
Rp1007
(I3
S'<'
p1008
NNNI-1
I-1
I0
tp1009
bI00
S'0I\xba6\x130$\xc0\xf5\xad\xdbV\xbfT4@C&\xe2\x06(\xd5\x0b\xc0'
p1010
tp1011
bsS'secnames'
p1012
S'Cell[3].axon[27]'
p1013
sI171
I117
tp1014
a(F1.7143511965339715
S'Cell[3].dend[30] syn_ = new FastInhib(0.166666666667)'
p1015
I3
(dp1016
g997
F0.5
sg998
F27.0
sg999
I171
sg1000
g7
(g8
(I0
tp1017
g10
tp1018
Rp1019
(I1
(I3
tp1020
g1007
I00
S'\x92\xf8\x98.\x02\xc52@P\xbe\x07\xb6\x03d?@\x1e\xbb\xd3\x94\xd7\x01\x13\xc0'
p1021
tp1022
bsg1012
S'Cell[3].axon[29]'
p1023
sI171
I165
tp1024
a(F2.2867272662756517
S'Cell[2].dend[46] syn_ = new FastInhib(0.1)'
p1025
I2
(dp1026
g997
F0.5
sg998
F27.0
sg999
I171
sg1000
g7
(g8
(I0
tp1027
g10
tp1028
Rp1029
(I1
(I3
tp1030
g1007
I00
S'\xcbuh\xbf\x16m\x0f@\x02ZV\xba\x1acC@\xb3\xc0\xacZ\xc7U@\xc0'
p1031
tp1032
bsg1012
S'Cell[3].axon[41]'
p1033
sI171
I117
tp1034
a(F2.4235408224126016
S'Cell[2].dend[48] syn_ = new FastInhib(0.166666666667)'
p1035
I2
(dp1036
g997
F0.16666666666666666
sg998
F27.0
sg999
I171
sg1000
g7
(g8
(I0
tp1037
g10
tp1038
Rp1039
(I1
(I3
tp1040
g1007
I00
S'&\xa8\xf4^#"(\xc0M0\xb6\xc1\xbbKA@\x00\x00\x00\xa0p\xbd:\xc0'
p1041
tp1042
bsg1012
S'Cell[3].axon[45]'
p1043
sI171
I117
tp1044
a(F1.9688832509188392
S'Cell[3].dend[39] syn_ = new FastInhib(0.5)'
p1045
I3
(dp1046
S'seg'
p1047
F0.7
sS'hostfrom'
p1048
F29.0
sS'gid'
p1049
I173
sS'coords'
p1050
g7
(g8
(I0
tp1051
g10
tp1052
Rp1053
(I1
(I3
tp1054
g14
(S'f8'
p1055
I0
I1
tp1056
Rp1057
(I3
S'<'
p1058
NNNI-1
I-1
I0
tp1059
bI00
S'\xa2\xb7\x7f\xf8\xc7\xfb5@o\xe4p\xcd\x7f\xf6<@\xd9\x00j#\xc9\xe96\xc0'
p1060
tp1061
bsS'secnames'
p1062
S'Cell[3].axon[41]'
p1063
sI173
I165
tp1064
a(F2.4100280782999977
S'Cell[3].dend[51] syn_ = new FastInhib(0.5)'
p1065
I3
(dp1066
S'seg'
p1067
F0.8333333333333333
sS'hostfrom'
p1068
F30.0
sS'gid'
p1069
I30
sS'coords'
p1070
g7
(g8
(I0
tp1071
g10
tp1072
Rp1073
(I1
(I3
tp1074
g14
(S'f8'
p1075
I0
I1
tp1076
Rp1077
(I3
S'<'
p1078
NNNI-1
I-1
I0
tp1079
bI00
S'F\x7f/!\xfc\xc9F\xc0oW\x08\x03!\xdcr\xc0\x00\x00\x00\x00)\\\x1b@'
p1080
tp1081
bsS'secnames'
p1082
S'Cell[0].axon[19]'
p1083
sI30
I165
tp1084
a(F1.403757752045616
S'Cell[3].dend[0] syn_ = new FastInhib(0.357142857143)'
p1085
I3
(dp1086
g1067
F0.5
sg1068
F30.0
sg1069
I174
sg1070
g7
(g8
(I0
tp1087
g10
tp1088
Rp1089
(I1
(I3
tp1090
g1077
I00
S'\x06\x92\xb6\xcf\xbbXJ@-L\xda\xb7\x8a%@@J\x1b\xb8\x9cZ\xefH\xc0'
p1091
tp1092
bsg1082
S'Cell[3].axon[290]'
p1093
sI174
I165
tp1094
a(F1.403757752045616
S'Cell[3].dend[29] syn_ = new FastInhib(0.357142857143)'
p1095
I3
g1086
I174
I165
tp1096
a(F2.391493797623861
S'Cell[1].dend[44] syn_ = new ExpSid(0.5)'
p1097
I1
(dp1098
S'seg'
p1099
F0.07142857142857142
sS'hostfrom'
p1100
F31.0
sS'gid'
p1101
I127
sS'coords'
p1102
g7
(g8
(I0
tp1103
g10
tp1104
Rp1105
(I1
(I3
tp1106
g14
(S'f8'
p1107
I0
I1
tp1108
Rp1109
(I3
S'<'
p1110
NNNI-1
I-1
I0
tp1111
bI00
S'^\xe7\xa8\x86\x8b\xce3@\xc6O\xfaG3r=\xc0\x14\xf1\x12\xb9m\x11>\xc0'
p1112
tp1113
bsS'secnames'
p1114
S'Cell[2].axon[16]'
p1115
sI127
I69
tp1116
a(F1.3183330667921873
S'Cell[3].dend[46] syn_ = new FastInhib(0.833333333333)'
p1117
I3
(dp1118
g1099
F0.5
sg1100
F31.0
sg1101
I175
sg1102
g7
(g8
(I0
tp1119
g10
tp1120
Rp1121
(I1
(I3
tp1122
g1109
I00
S'\xe8\xd2\xc3\x03w\x874\xc0+\xf6\xea\xbfV\x1bi\xc0\x99\xda"h\xc0?3\xc0'
p1123
tp1124
bsg1114
S'Cell[3].axon[79]'
p1125
sI175
I165
tp1126
a(F0.9340263814879015
S'Cell[3].dend[10] syn_ = new FastInhib(0.5)'
p1127
I3
(dp1128
g1099
F0.9285714285714284
sg1100
F31.0
sg1101
I175
sg1102
g7
(g8
(I0
tp1129
g10
tp1130
Rp1131
(I1
(I3
tp1132
g1109
I00
S'N\xf6=\xfb\xf0$\r@V4\x19\xe7\x89pH@\xc2\xaaql\xd3\t0\xc0'
p1133
tp1134
bsg1114
S'Cell[3].axon[329]'
p1135
sI175
I165
tp1136
a(F1.4021331030765563
S'Cell[0].apic[14] syn_ = new ExpSid(0.166666666667)'
p1137
I0
(dp1138
S'seg'
p1139
F0.07142857142857142
sS'hostfrom'
p1140
F33.0
sS'gid'
p1141
I177
sS'coords'
p1142
g7
(g8
(I0
tp1143
g10
tp1144
Rp1145
(I1
(I3
tp1146
g14
(S'f8'
p1147
I0
I1
tp1148
Rp1149
(I3
S'<'
p1150
NNNI-1
I-1
I0
tp1151
bI00
S'R\x12\xc5\xa2?\x8dR@\xe4\xf1\xec\xbf\xd4\xf6@@\xb4\xeb\xc3\x88\x94|\x03\xc0'
p1152
tp1153
bsS'secnames'
p1154
S'Cell[3].axon[23]'
p1155
sI177
I21
tp1156
a(F1.651128560696534
S'Cell[0].apic[1] syn_ = new ExpSid(0.5)'
p1157
I0
(dp1158
g1139
F0.30000000000000004
sg1140
F33.0
sg1141
I177
sg1142
g7
(g8
(I0
tp1159
g10
tp1160
Rp1161
(I1
(I3
tp1162
g1149
I00
S'\xce\x00\xe2BL,K@\xc0\xb9\xceL\xdb,7@\xca%~\xf5|o\xf9\xbf'
p1163
tp1164
bsg1154
S'Cell[3].axon[38]'
p1165
sI177
I21
tp1166
a(F2.1663988870813093
S'Cell[2].dend[19] syn_ = new FastInhib(0.5)'
p1167
I2
(dp1168
g1139
F0.8333333333333333
sg1140
F33.0
sg1141
I177
sg1142
g7
(g8
(I0
tp1169
g10
tp1170
Rp1171
(I1
(I3
tp1172
g1149
I00
S'\xe4\xe4\xe7\x97$cG@\xb8\xa8\xc8zV\x8aM@\r2I\xb4qz\x02\xc0'
p1173
tp1174
bsg1154
S'Cell[3].axon[138]'
p1175
sI177
I117
tp1176
a(F1.825320112578887
S'Cell[3].dend[52] syn_ = new FastInhib(0.5)'
p1177
I3
(dp1178
g1139
F0.7727272727272728
sg1140
F33.0
sg1141
I81
sg1142
g7
(g8
(I0
tp1179
g10
tp1180
Rp1181
(I1
(I3
tp1182
g1149
I00
S"\x05\x18\x1ch%\xfa6\xc0\xe5\x00UR';q\xc06L\xc9\xac\x9ah\x1a\xc0"
p1183
tp1184
bsg1154
S'Cell[1].axon[94]'
p1185
sI81
I165
tp1186
a(F2.4577913248046834
S'Cell[2].dend[34] syn_ = new FastInhib(0.166666666667)'
p1187
I2
(dp1188
S'seg'
p1189
F0.8333333333333333
sS'hostfrom'
p1190
F34.0
sS'gid'
p1191
I82
sS'coords'
p1192
g7
(g8
(I0
tp1193
g10
tp1194
Rp1195
(I1
(I3
tp1196
g14
(S'f8'
p1197
I0
I1
tp1198
Rp1199
(I3
S'<'
p1200
NNNI-1
I-1
I0
tp1201
bI00
S'\xd2\xf9\xc0\xd7Ip2\xc0\xa0\xe9\x8d\xcc\x8cbO@\xa6\t\xe2WO\xa2\x0b@'
p1202
tp1203
bsS'secnames'
p1204
S'Cell[1].axon[0]'
p1205
sI82
I117
tp1206
a(F1.3999456212939672
S'Cell[2].dend[5] syn_ = new FastInhib(0.5)'
p1207
I2
(dp1208
g1189
F0.30000000000000004
sg1190
F34.0
sg1191
I82
sg1192
g7
(g8
(I0
tp1209
g10
tp1210
Rp1211
(I1
(I3
tp1212
g1199
I00
S'\xf6N\xfb\x17\xe3-\x03@\x1c\xb7\x92\xc8\xb4\xa2X@\x8aC>\xa5\x07\xb2/\xc0'
p1213
tp1214
bsg1204
S'Cell[1].axon[78]'
p1215
sI82
I117
tp1216
a(F1.4115617719027285
S'Cell[3].dend[56] syn_ = new FastInhib(0.166666666667)'
p1217
I3
(dp1218
g1189
F0.21428571428571427
sg1190
F34.0
sg1191
I82
sg1192
g7
(g8
(I0
tp1219
g10
tp1220
Rp1221
(I1
(I3
tp1222
g1199
I00
S"~\x1e\xbd\xacT\xf6,\xc0\xd0}'0\xc0\xd7k\xc0\x00\x00\x00\x00\xd7c8\xc0"
p1223
tp1224
bsg1204
S'Cell[1].axon[276]'
p1225
sI82
I165
tp1226
a(F2.2030516322809497
S'Cell[2].dend[51] syn_ = new FastInhib(0.833333333333)'
p1227
I2
(dp1228
g1189
F0.5
sg1190
F34.0
sg1191
I178
sg1192
g7
(g8
(I0
tp1229
g10
tp1230
Rp1231
(I1
(I3
tp1232
g1199
I00
S'\xadeQ\xc8\xcc\xef>\xc0\xb4\x00\xf3n\xcf\x0eX@\xc0\x97\x85I{\xcaF\xc0'
p1233
tp1234
bsg1204
S'Cell[3].axon[236]'
p1235
sI178
I117
tp1236
a(F2.4188091300340364
S'Cell[0].dend[20] syn_ = new ExpSid(0.5)'
p1237
I0
(dp1238
S'seg'
p1239
F0.5
sS'hostfrom'
p1240
F35.0
sS'gid'
p1241
I83
sS'coords'
p1242
g7
(g8
(I0
tp1243
g10
tp1244
Rp1245
(I1
(I3
tp1246
g14
(S'f8'
p1247
I0
I1
tp1248
Rp1249
(I3
S'<'
p1250
NNNI-1
I-1
I0
tp1251
bI00
S'a\xb4\xeb:\xa9\x7fG@\xef\xc8_\xef\xbf7Z\xc0\x00\x00\x00\x00)\x9c2@'
p1252
tp1253
bsS'secnames'
p1254
S'Cell[1].axon[66]'
p1255
sI83
I21
tp1256
a(F2.2536008316586353
S'Cell[0].apic[11] syn_ = new ExpSid(0.166666666667)'
p1257
I0
(dp1258
g1239
F0.8333333333333333
sg1240
F35.0
sg1241
I179
sg1242
g7
(g8
(I0
tp1259
g10
tp1260
Rp1261
(I1
(I3
tp1262
g1249
I00
S'6%\xfc\xd6\x9f\x1bD@h\xd1"\xda"\xc3K@\x00 \x10\xbb$B\x04\xc0'
p1263
tp1264
bsg1254
S'Cell[3].axon[13]'
p1265
sI179
I21
tp1266
a(F2.0223342060020095
S'Cell[2].dend[2] syn_ = new FastInhib(0.833333333333)'
p1267
I2
(dp1268
g1239
F0.5
sg1240
F35.0
sg1241
I179
sg1242
g7
(g8
(I0
tp1269
g10
tp1270
Rp1271
(I1
(I3
tp1272
g1249
I00
S'\xc4\xce\x1f\x86r\xe11@\xaa\x82\n]\x10\xc1M@\x81\xd3\xb3\xd1a\xd0>\xc0'
p1273
tp1274
bsg1254
S'Cell[3].axon[153]'
p1275
sI179
I117
tp1276
a(F2.496292019283741
S'Cell[2].dend[23] syn_ = new FastInhib(0.5)'
p1277
I2
(dp1278
S'seg'
p1279
F0.05555555555555555
sS'hostfrom'
p1280
F36.0
sS'gid'
p1281
I84
sS'coords'
p1282
g7
(g8
(I0
tp1283
g10
tp1284
Rp1285
(I1
(I3
tp1286
g14
(S'f8'
p1287
I0
I1
tp1288
Rp1289
(I3
S'<'
p1290
NNNI-1
I-1
I0
tp1291
bI00
S'\n\x89\x1aV#5@\xc0\xeeJ\xb4\x8e\x00\xb61@k\x1c\xc2"!\xe80\xc0'
p1292
tp1293
bsS'secnames'
p1294
S'Cell[1].axon[434]'
p1295
sI84
I117
tp1296
a(F2.2487013682224624
S'Cell[2].dend[23] syn_ = new FastInhib(0.833333333333)'
p1297
I2
(dp1298
g1279
F0.5
sg1280
F36.0
sg1281
I84
sg1282
g7
(g8
(I0
tp1299
g10
tp1300
Rp1301
(I1
(I3
tp1302
g1289
I00
S' )\xafL\xcb\xa7E\xc0\x1c\xd1\x17\x90\xb5\x9a0@0k\x02\xd1\xe4\xbc6\xc0'
p1303
tp1304
bsg1294
S'Cell[1].axon[481]'
p1305
sI84
I117
tp1306
a(F1.7990582626049392
S'Cell[2].dend[38] syn_ = new FastInhib(0.5)'
p1307
I2
(dp1308
g1279
F0.3571428571428571
sg1280
F36.0
sg1281
I132
sg1282
g7
(g8
(I0
tp1309
g10
tp1310
Rp1311
(I1
(I3
tp1312
g1289
I00
S'\xf0\xa8\x8c\x9a\xc3\x90\xf2\xbf\x10C\xec\xa1;-5@\x00\x00\x00@\xe1\xfa!\xc0'
p1313
tp1314
bsg1294
S'Cell[2].axon[28]'
p1315
sI132
I117
tp1316
a(F2.0376379119331958
S'Cell[1].apic[2] syn_ = new AmpaNmda(0.5)'
p1317
I1
(dp1318
g1279
F0.1
sg1280
F36.0
sg1281
I132
sg1282
g7
(g8
(I0
tp1319
g10
tp1320
Rp1321
(I1
(I3
tp1322
g1289
I00
S'\xd7CV^]\x87-@\x84\x95\xa5-\x91e4@\x00\x00\x00\x00\x00\x00\x1a@'
p1323
tp1324
bsg1294
S'Cell[2].axon[54]'
p1325
sI132
I69
tp1326
a(F0.2584508092141452
S'Cell[0].dend[18] syn_ = new AmpaNmda(0.166666666667)'
p1327
I0
(dp1328
g1279
F0.8333333333333333
sg1280
F36.0
sg1281
I180
sg1282
g7
(g8
(I0
tp1329
g10
tp1330
Rp1331
(I1
(I3
tp1332
g1289
I00
S',\xa2[\x8c]yH@\x80g\x90\xebf\xf3;\xc02\x8b\x9e}\xf7|\x1a@'
p1333
tp1334
bsg1294
S'Cell[3].axon[127]'
p1335
sI180
I21
tp1336
a(F2.1502512793199853
S'Cell[0].apic[17] syn_ = new AmpaNmda(0.833333333333)'
p1337
I0
(dp1338
g1279
F0.5
sg1280
F36.0
sg1281
I180
sg1282
g7
(g8
(I0
tp1339
g10
tp1340
Rp1341
(I1
(I3
tp1342
g1289
I00
S'^\xe0\x89\x81\x03\xf8>@\xc6\xc2\xa9Pm\xdb;@\xff\xff\xff\x7f\xebQ/@'
p1343
tp1344
bsg1294
S'Cell[3].axon[195]'
p1345
sI180
I21
tp1346
a(F2.1714554609994883
S'Cell[2].dend[6] syn_ = new FastInhib(0.5)'
p1347
I2
(dp1348
S'seg'
p1349
F0.8333333333333333
sS'hostfrom'
p1350
F37.0
sS'gid'
p1351
I133
sS'coords'
p1352
g7
(g8
(I0
tp1353
g10
tp1354
Rp1355
(I1
(I3
tp1356
g14
(S'f8'
p1357
I0
I1
tp1358
Rp1359
(I3
S'<'
p1360
NNNI-1
I-1
I0
tp1361
bI00
S'B\x07\xf8\t\x90[B@\x10\xbb\xd8r\x98\x12>@nt\x08\x985\x8b\xe2\xbf'
p1362
tp1363
bsS'secnames'
p1364
S'Cell[2].axon[93]'
p1365
sI133
I117
tp1366
a(F2.4679590008226704
S'Cell[2].dend[20] syn_ = new FastInhib(0.5)'
p1367
I2
(dp1368
g1349
F0.05555555555555555
sg1350
F37.0
sg1351
I181
sg1352
g7
(g8
(I0
tp1369
g10
tp1370
Rp1371
(I1
(I3
tp1372
g1359
I00
S'D8b[oP\x1e@%\xb1Z\xcc\xbeA\xfc?\x00\x00\x00`\xb8\x1e\xd5?'
p1373
tp1374
bsg1364
S'Cell[3].axon[163]'
p1375
sI181
I117
tp1376
a(F1.6741548521675078
S'Cell[0].dend[17] syn_ = new ExpSid(0.3)'
p1377
I0
(dp1378
g1349
F0.16666666666666666
sg1350
F37.0
sg1351
I181
sg1352
g7
(g8
(I0
tp1379
g10
tp1380
Rp1381
(I1
(I3
tp1382
g1359
I00
S'6\x10\xb3\xce\x02Z\x02@\xc1+\x10,r\x11;\xc0\x1f\xfa\xf6\x17c\xb1\x11\xc0'
p1383
tp1384
bsg1364
S'Cell[3].axon[269]'
p1385
sI181
I21
tp1386
a(F1.6741548521675078
S'Cell[0].dend[17] syn_ = new ExpSid(0.3)'
p1387
I0
(dp1388
g1349
F0.16666666666666666
sg1350
F37.0
sg1351
I181
sg1352
g7
(g8
(I0
tp1389
g10
tp1390
Rp1391
(I1
(I3
tp1392
g1359
I00
S'6\x10\xb3\xce\x02Z\x02@\xc1+\x10,r\x11;\xc0\x1f\xfa\xf6\x17c\xb1\x11\xc0'
p1393
tp1394
bsg1364
S'Cell[3].axon[286]'
p1395
sI181
I21
tp1396
a(F2.3386670933692044
S'Cell[1].apic[2] syn_ = new AmpaNmda(0.5)'
p1397
I1
(dp1398
S'seg'
p1399
F0.5
sS'hostfrom'
p1400
F38.0
sS'gid'
p1401
I182
sS'coords'
p1402
g7
(g8
(I0
tp1403
g10
tp1404
Rp1405
(I1
(I3
tp1406
g14
(S'f8'
p1407
I0
I1
tp1408
Rp1409
(I3
S'<'
p1410
NNNI-1
I-1
I0
tp1411
bI00
S'\x00\x00\x00\xb0\x1e\x85%@\x00\x00\x00\xc0\xf5\xe84@\x00\x00\x00\xa0p=\x1a@'
p1412
tp1413
bsS'secnames'
p1414
S'Cell[3].soma[0]'
p1415
sI182
I69
tp1416
a(F1.9308365988222205
S'Cell[1].dend[24] syn_ = new AmpaNmda(0.166666666667)'
p1417
I1
(dp1418
g1399
F0.5
sg1400
F38.0
sg1401
I182
sg1402
g7
(g8
(I0
tp1419
g10
tp1420
Rp1421
(I1
(I3
tp1422
g1409
I00
S'-R\x08\x81\xc74\x1e@b\xd5\xa1\xde{y@\xc0\x00\x00\x00`ff/@'
p1423
tp1424
bsg1414
S'Cell[3].axon[365]'
p1425
sI182
I69
tp1426
a(F1.441072229835711
S'Cell[1].dend[36] syn_ = new AmpaNmda(0.166666666667)'
p1427
I1
(dp1428
g1399
F0.5
sg1400
F38.0
sg1401
I86
sg1402
g7
(g8
(I0
tp1429
g10
tp1430
Rp1431
(I1
(I3
tp1432
g1409
I00
S'\x01\xf0\xf2S/\xae^@3\x17~4+jE\xc0\xac\x1eD\x0c\x04\xb8T\xc0'
p1433
tp1434
bsg1414
S'Cell[1].axon[50]'
p1435
sI86
I69
tp1436
a(F2.089574659317954
S'Cell[1].dend[38] syn_ = new AmpaNmda(0.5)'
p1437
I1
(dp1438
g1399
F0.5
sg1400
F38.0
sg1401
I86
sg1402
g7
(g8
(I0
tp1439
g10
tp1440
Rp1441
(I1
(I3
tp1442
g1409
I00
S"'\x87\x97\x0fu\x1cU@\xbaf\xba(y\xf38\xc0{M?\xde\xb2\xefQ\xc0"
p1443
tp1444
bsg1414
S'Cell[1].axon[129]'
p1445
sI86
I69
tp1446
a(F1.5440989227868895
S'Cell[1].dend[35] syn_ = new AmpaNmda(0.833333333333)'
p1447
I1
(dp1448
g1399
F0.5
sg1400
F38.0
sg1401
I86
sg1402
g7
(g8
(I0
tp1449
g10
tp1450
Rp1451
(I1
(I3
tp1452
g1409
I00
S'\xb9\xe9U\xb6\xa5?[@\x94(\x98r\xc5\xcbC\xc0u\xac\xe6\x96\xb1\xc0P\xc0'
p1453
tp1454
bsg1414
S'Cell[1].axon[153]'
p1455
sI86
I69
tp1456
a(F2.2935628982519876
S'Cell[2].dend[28] syn_ = new FastInhib(0.5)'
p1457
I2
(dp1458
S'seg'
p1459
F0.5
sS'hostfrom'
p1460
F39.0
sS'gid'
p1461
I87
sS'coords'
p1462
g7
(g8
(I0
tp1463
g10
tp1464
Rp1465
(I1
(I3
tp1466
g14
(S'f8'
p1467
I0
I1
tp1468
Rp1469
(I3
S'<'
p1470
NNNI-1
I-1
I0
tp1471
bI00
S'\xf8F\x873U\x80%@-\rtG\x1bn1@\xb8\xc4\x06a\xc7\xe5\x0b@'
p1472
tp1473
bsS'secnames'
p1474
S'Cell[1].axon[80]'
p1475
sI87
I117
tp1476
a(F1.8238393330455176
S'Cell[2].dend[10] syn_ = new FastInhib(0.5)'
p1477
I2
(dp1478
g1459
F0.5
sg1460
F39.0
sg1461
I87
sg1462
g7
(g8
(I0
tp1479
g10
tp1480
Rp1481
(I1
(I3
tp1482
g1469
I00
S'@\xc7\xc2R{jE@\xe0.\x96\xac,I6@\x82\xb0\xe1\xbb\xfa\xb8\x16@'
p1483
tp1484
bsg1474
S'Cell[1].axon[82]'
p1485
sI87
I117
tp1486
a(F2.2114213537988077
S'Cell[2].dend[8] syn_ = new FastInhib(0.5)'
p1487
I2
(dp1488
g1459
F0.5
sg1460
F39.0
sg1461
I87
sg1462
g7
(g8
(I0
tp1489
g10
tp1490
Rp1491
(I1
(I3
tp1492
g1469
I00
S'\xac\x8bE\xea\xab\x00E@\x0b\xf5\xa5\xf4tCF@\xe4\xa6\x8d\xd6F\xdb$@'
p1493
tp1494
bsg1474
S'Cell[1].axon[83]'
p1495
sI87
I117
tp1496
a(F1.7618915098174002
S'Cell[2].dend[31] syn_ = new FastInhib(0.5)'
p1497
I2
(dp1498
S'seg'
p1499
F0.5
sS'hostfrom'
p1500
F40.0
sS'gid'
p1501
I88
sS'coords'
p1502
g7
(g8
(I0
tp1503
g10
tp1504
Rp1505
(I1
(I3
tp1506
g14
(S'f8'
p1507
I0
I1
tp1508
Rp1509
(I3
S'<'
p1510
NNNI-1
I-1
I0
tp1511
bI00
S'\xfb\xdaG\x05\xdb\x83\x14\xc0\xd6++\xd9\x02\xa2I@\x00\x00\x00\xe0\xa3\xf0 @'
p1512
tp1513
bsS'secnames'
p1514
S'Cell[1].axon[276]'
p1515
sI88
I117
tp1516
a(F1.4571427196307096
S'Cell[0].apic[0] syn_ = new AmpaNmda(0.5)'
p1517
I0
(dp1518
g1499
F0.5
sg1500
F40.0
sg1501
I136
sg1502
g7
(g8
(I0
tp1519
g10
tp1520
Rp1521
(I1
(I3
tp1522
g1509
I00
S'\x89\xd3\xf2u\x02WK@\xe2z\xd0~\x8c\x0b)@\xdf\xee\x14\x9aH\xcf\x05\xc0'
p1523
tp1524
bsg1514
S'Cell[2].axon[96]'
p1525
sI136
I21
tp1526
a(F1.68894895709515
S'Cell[1].apic[31] syn_ = new ExpSid(0.166666666667)'
p1527
I1
(dp1528
S'seg'
p1529
F0.16666666666666666
sS'hostfrom'
p1530
F41.0
sS'gid'
p1531
I185
sS'coords'
p1532
g7
(g8
(I0
tp1533
g10
tp1534
Rp1535
(I1
(I3
tp1536
g14
(S'f8'
p1537
I0
I1
tp1538
Rp1539
(I3
S'<'
p1540
NNNI-1
I-1
I0
tp1541
bI00
S'\xbf\x90\xc82\xc0U7\xc0\x8dR\x84\xd4\xe2h @\x8eZ\x93\xb6Y\x8b&\xc0'
p1542
tp1543
bsS'secnames'
p1544
S'Cell[3].axon[85]'
p1545
sI185
I69
tp1546
a(F2.3597768659426253
S'Cell[3].dend[58] syn_ = new FastInhib(0.1)'
p1547
I3
(dp1548
g1529
F0.7
sg1530
F41.0
sg1531
I185
sg1532
g7
(g8
(I0
tp1549
g10
tp1550
Rp1551
(I1
(I3
tp1552
g1539
I00
S'k?.t\x04\xec.\xc0\xe0\xc6!\xbd`n\xe4?\x00\x00\x00@\xe1z%\xc0'
p1553
tp1554
bsg1544
S'Cell[3].axon[216]'
p1555
sI185
I165
tp1556
a(F1.2094986775785292
S'Cell[0].apic[11] syn_ = new ExpSid(0.166666666667)'
p1557
I0
(dp1558
g1529
F0.8333333333333333
sg1530
F41.0
sg1531
I89
sg1532
g7
(g8
(I0
tp1559
g10
tp1560
Rp1561
(I1
(I3
tp1562
g1539
I00
S'\x90\xa0L\x90\xe2\xafB@\x81\x0eT\x8d\xfa\xb3K@\x0b\xdf\x18\xf4\x06\x83\x06\xc0'
p1563
tp1564
bsg1544
S'Cell[1].axon[143]'
p1565
sI89
I21
tp1566
a(F2.4645670868521603
S'Cell[0].apic[12] syn_ = new ExpSid(0.5)'
p1567
I0
(dp1568
g1529
F0.16666666666666666
sg1530
F41.0
sg1531
I89
sg1532
g7
(g8
(I0
tp1569
g10
tp1570
Rp1571
(I1
(I3
tp1572
g1539
I00
S'\xa4|\xaf\rQ\xeeN@\x01/\x96a\xcf\xcbB@t\x15D\xachF$\xc0'
p1573
tp1574
bsg1544
S'Cell[1].axon[162]'
p1575
sI89
I21
tp1576
a(F1.937182490946698
S'Cell[0].dend[2] syn_ = new AmpaNmda(0.166666666667)'
p1577
I0
(dp1578
S'seg'
p1579
F0.5
sS'hostfrom'
p1580
F42.0
sS'gid'
p1581
I42
sS'coords'
p1582
g7
(g8
(I0
tp1583
g10
tp1584
Rp1585
(I1
(I3
tp1586
g14
(S'f8'
p1587
I0
I1
tp1588
Rp1589
(I3
S'<'
p1590
NNNI-1
I-1
I0
tp1591
bI00
S'\x00\x00\x00\x08\x00 @@\x00\x00\x00\xe0\xa3p\r\xc0\x00\x00\x00\xa0\x99\x19!\xc0'
p1592
tp1593
bsS'secnames'
p1594
S'Cell[0].soma[0]'
p1595
sI42
I21
tp1596
a(F1.9786828222972148
S'Cell[3].dend[26] syn_ = new FastInhib(0.5)'
p1597
I3
(dp1598
g1579
F0.8333333333333333
sg1580
F42.0
sg1581
I138
sg1582
g7
(g8
(I0
tp1599
g10
tp1600
Rp1601
(I1
(I3
tp1602
g1589
I00
S't\xca\xd1\x97\x16\xca;@y\xee\x92g/xQ@\x12\x1c|\xef\xae\x16(@'
p1603
tp1604
bsg1594
S'Cell[2].axon[19]'
p1605
sI138
I165
tp1606
a(F2.1663460501087726
S'Cell[1].dend[48] syn_ = new AmpaNmda(0.166666666667)'
p1607
I1
(dp1608
g1579
F0.16666666666666666
sg1580
F42.0
sg1581
I138
sg1582
g7
(g8
(I0
tp1609
g10
tp1610
Rp1611
(I1
(I3
tp1612
g1589
I00
S'>\n\xf0t\xc2\xa13@O\xb7x\x10\xdf\xd38\xc0\x05u\xd4U\x1bkG\xc0'
p1613
tp1614
bsg1594
S'Cell[2].axon[75]'
p1615
sI138
I69
tp1616
a(F1.6132358950488666
S'Cell[2].dend[34] syn_ = new FastInhib(0.5)'
p1617
I2
(dp1618
g1579
F0.5
sg1580
F42.0
sg1581
I138
sg1582
g7
(g8
(I0
tp1619
g10
tp1620
Rp1621
(I1
(I3
tp1622
g1589
I00
S"\x00\x00\x00\x10\xae'8\xc0\x00\x00\x00P\xb8&T@\x00\x00\x00@\n\xd7\x05\xc0"
p1623
tp1624
bsg1594
S'Cell[2].axon[103]'
p1625
sI138
I117
tp1626
a(F2.311614192668771
S'Cell[0].apic[17] syn_ = new AmpaNmda(0.166666666667)'
p1627
I0
(dp1628
g1579
F0.16666666666666666
sg1580
F42.0
sg1581
I138
sg1582
g7
(g8
(I0
tp1629
g10
tp1630
Rp1631
(I1
(I3
tp1632
g1589
I00
S's\x99p`>\x16G@\xcc\xc5\x97^x<7@\x93\x00\x83v-s\xfd?'
p1633
tp1634
bsg1594
S'Cell[2].axon[131]'
p1635
sI138
I21
tp1636
a(F2.3635600013694384
S'Cell[2].dend[48] syn_ = new FastInhib(0.833333333333)'
p1637
I2
(dp1638
S'seg'
p1639
F0.5
sS'hostfrom'
p1640
F43.0
sS'gid'
p1641
I91
sS'coords'
p1642
g7
(g8
(I0
tp1643
g10
tp1644
Rp1645
(I1
(I3
tp1646
g14
(S'f8'
p1647
I0
I1
tp1648
Rp1649
(I3
S'<'
p1650
NNNI-1
I-1
I0
tp1651
bI00
S'\x0c\xa9j@\xab\xfcI\xc0\x9a>L\x9e;IN@\x03\x05m\x199.;\xc0'
p1652
tp1653
bsS'secnames'
p1654
S'Cell[1].axon[64]'
p1655
sI91
I117
tp1656
a(F1.7437362666728604
S'Cell[1].apic[24] syn_ = new ExpSid(0.3)'
p1657
I1
(dp1658
g1639
F0.8333333333333333
sg1640
F43.0
sg1641
I91
sg1642
g7
(g8
(I0
tp1659
g10
tp1660
Rp1661
(I1
(I3
tp1662
g1649
I00
S'\xca\xcf\x15\xe8\x18[D@\x9a=\xa9G)|3@`!\x1c\xf2G\xd6\xc7?'
p1663
tp1664
bsg1654
S'Cell[1].axon[121]'
p1665
sI91
I69
tp1666
a(F1.8109100983979045
S'Cell[3].dend[0] syn_ = new FastInhib(0.642857142857)'
p1667
I3
(dp1668
g1639
F0.8333333333333333
sg1640
F43.0
sg1641
I91
sg1642
g7
(g8
(I0
tp1669
g10
tp1670
Rp1671
(I1
(I3
tp1672
g1649
I00
S'\xdf\x15\xdb\t\xb7\xb9U@O\xc6\x92\xbeP\xc09@\x00\x00\x00\x00\x00\xb0W\xc0'
p1673
tp1674
bsg1654
S'Cell[1].axon[224]'
p1675
sI91
I165
tp1676
a(F1.8109100983979045
S'Cell[3].dend[29] syn_ = new FastInhib(0.642857142857)'
p1677
I3
g1668
I91
I165
tp1678
a(F2.1887309550964873
S'Cell[0].apic[14] syn_ = new ExpSid(0.166666666667)'
p1679
I0
(dp1680
g1639
F0.5
sg1640
F43.0
sg1641
I91
sg1642
g7
(g8
(I0
tp1681
g10
tp1682
Rp1683
(I1
(I3
tp1684
g1649
I00
S'\xeb$c\xa4#\x92R@J\x0bpr\xcfxA@\xe4N\xfe\xdc\xa2\xee\xe6?'
p1685
tp1686
bsg1654
S'Cell[1].axon[255]'
p1687
sI91
I21
tp1688
a(F1.4573790299585252
S'Cell[3].dend[0] syn_ = new FastInhib(0.214285714286)'
p1689
I3
(dp1690
g1639
F0.5
sg1640
F43.0
sg1641
I91
sg1642
g7
(g8
(I0
tp1691
g10
tp1692
Rp1693
(I1
(I3
tp1694
g1649
I00
S'\x9c\r\x10d\x16\x9bA@&\xd6E\xa5\x87@>@\xb8ls[\xc7\x02A\xc0'
p1695
tp1696
bsg1654
S'Cell[1].axon[403]'
p1697
sI91
I165
tp1698
a(F1.4573790299585252
S'Cell[3].dend[29] syn_ = new FastInhib(0.214285714286)'
p1699
I3
g1690
I91
I165
tp1700
a(F1.9196839597800268
S'Cell[3].dend[43] syn_ = new FastInhib(0.1)'
p1701
I3
g1690
I91
I165
tp1702
a(F2.4375294401594583
S'Cell[1].dend[48] syn_ = new ExpSid(0.5)'
p1703
I1
(dp1704
g1639
F0.7
sg1640
F43.0
sg1641
I91
sg1642
g7
(g8
(I0
tp1705
g10
tp1706
Rp1707
(I1
(I3
tp1708
g1649
I00
S'U\xc9\x0f~\xba}0@\x1f\x8fN\xb7\ta:\xc0CNX\xa1)\x84Q\xc0'
p1709
tp1710
bsg1654
S'Cell[1].axon[406]'
p1711
sI91
I69
tp1712
a(F1.1722455984126854
S'Cell[3].dend[27] syn_ = new FastInhib(0.5)'
p1713
I3
(dp1714
g1639
F0.5
sg1640
F43.0
sg1641
I91
sg1642
g7
(g8
(I0
tp1715
g10
tp1716
Rp1717
(I1
(I3
tp1718
g1649
I00
S'&\xcd\xcf F.!@RE\x7ft\x0e\x8dH@\x00\x00\x00`\x8f\xc2"\xc0'
p1719
tp1720
bsg1654
S'Cell[1].axon[427]'
p1721
sI91
I165
tp1722
a(F1.8515959047656374
S'Cell[3].dend[30] syn_ = new FastInhib(0.5)'
p1723
I3
(dp1724
g1639
F0.5
sg1640
F43.0
sg1641
I91
sg1642
g7
(g8
(I0
tp1725
g10
tp1726
Rp1727
(I1
(I3
tp1728
g1649
I00
S'\xbf\xf3}a\xb9\xbe=@[\n\x86\xb2\xcd\x92D@*\\\x90\xea\x9b\xa7\x11\xc0'
p1729
tp1730
bsg1654
S'Cell[1].axon[436]'
p1731
sI91
I165
tp1732
a(F2.396715524807261
S'Cell[3].dend[27] syn_ = new FastInhib(0.5)'
p1733
I3
(dp1734
g1639
F0.8999999999999999
sg1640
F43.0
sg1641
I91
sg1642
g7
(g8
(I0
tp1735
g10
tp1736
Rp1737
(I1
(I3
tp1738
g1649
I00
S'V\x95\x93\x90\x01\x00\x1e@+\x80\xce\x12\x9c\xfeF@\xbc\nw\xdf+\x89 \xc0'
p1739
tp1740
bsg1654
S'Cell[1].axon[482]'
p1741
sI91
I165
tp1742
a(F1.2349922359004168
S'Cell[0].dend[24] syn_ = new ExpSid(0.1)'
p1743
I0
(dp1744
g1639
F0.8333333333333333
sg1640
F43.0
sg1641
I139
sg1642
g7
(g8
(I0
tp1745
g10
tp1746
Rp1747
(I1
(I3
tp1748
g1649
I00
S'\xa6B(\x03\x01\xdfP@\x03h\x80WYO \xc0}\xb1\xf6\xa7\xb8\xfd\xfd\xbf'
p1749
tp1750
bsg1654
S'Cell[2].axon[267]'
p1751
sI139
I21
tp1752
a(F1.720823997466851
S'Cell[0].dend[0] syn_ = new ExpSid(0.5)'
p1753
I0
(dp1754
g1639
F0.16666666666666666
sg1640
F43.0
sg1641
I139
sg1642
g7
(g8
(I0
tp1755
g10
tp1756
Rp1757
(I1
(I3
tp1758
g1649
I00
S"(\x177\xd2\xe9\xf6D@ru\xd9\x88'\xa1\x14\xc0pb\xbf\x07jK\x18\xc0"
p1759
tp1760
bsg1654
S'Cell[2].axon[325]'
p1761
sI139
I21
tp1762
a(F2.4947119813710725
S'Cell[1].dend[39] syn_ = new ExpSid(0.166666666667)'
p1763
I1
(dp1764
g1639
F0.16666666666666666
sg1640
F43.0
sg1641
I139
sg1642
g7
(g8
(I0
tp1765
g10
tp1766
Rp1767
(I1
(I3
tp1768
g1649
I00
S'l\xde\t,\x983E@\x80J#\xbf\x93\xdb9\xc0\xc0=\x1c1\x12\xf2L\xc0'
p1769
tp1770
bsg1654
S'Cell[2].axon[367]'
p1771
sI139
I69
tp1772
a(F2.1774172209106704
S'Cell[2].dend[23] syn_ = new FastInhib(0.5)'
p1773
I2
(dp1774
g1639
F0.16666666666666666
sg1640
F43.0
sg1641
I187
sg1642
g7
(g8
(I0
tp1775
g10
tp1776
Rp1777
(I1
(I3
tp1778
g1649
I00
S'\x96\x9b/j\x17\x16=\xc0ke\xe0\xbd`\xfb/@j\xfc\x98=\xe3M3\xc0'
p1779
tp1780
bsg1654
S'Cell[3].axon[212]'
p1781
sI187
I117
tp1782
a(F2.3142783237611275
S'Cell[3].dend[9] syn_ = new FastInhib(0.5)'
p1783
I3
(dp1784
S'seg'
p1785
F0.30000000000000004
sS'hostfrom'
p1786
F44.0
sS'gid'
p1787
I140
sS'coords'
p1788
g7
(g8
(I0
tp1789
g10
tp1790
Rp1791
(I1
(I3
tp1792
g14
(S'f8'
p1793
I0
I1
tp1794
Rp1795
(I3
S'<'
p1796
NNNI-1
I-1
I0
tp1797
bI00
S'\xbaI\x9eT\x85X\x15@\x07\x9c,D\x18QF@\xafs\xd1b\x02\x86,\xc0'
p1798
tp1799
bsS'secnames'
p1800
S'Cell[2].axon[25]'
p1801
sI140
I165
tp1802
a(F1.3867163317460875
S'Cell[2].dend[20] syn_ = new FastInhib(0.5)'
p1803
I2
(dp1804
g1785
F0.5
sg1786
F44.0
sg1787
I188
sg1788
g7
(g8
(I0
tp1805
g10
tp1806
Rp1807
(I1
(I3
tp1808
g1795
I00
S'\x00\x00\x00@\nW\x1c@\x00\x00\x00\x05\xaeG\xe9\xbf\x00\x00\x00\xd2\xa3p\xed\xbf'
p1809
tp1810
bsg1800
S'Cell[3].axon[0]'
p1811
sI188
I117
tp1812
a(F1.8005408583475417
S'Cell[2].dend[30] syn_ = new FastInhib(0.5)'
p1813
I2
(dp1814
g1785
F0.5
sg1786
F44.0
sg1787
I188
sg1788
g7
(g8
(I0
tp1815
g10
tp1816
Rp1817
(I1
(I3
tp1818
g1795
I00
S'\xc0\xb8&\xbb\x1d\xca\xf9\xbf\x85\xf4\xb0\xa1:B@@>y\xa8\xc0\xc5Y\x15@'
p1819
tp1820
bsg1800
S'Cell[3].axon[183]'
p1821
sI188
I117
tp1822
a(F2.456785856446372
S'Cell[3].dend[36] syn_ = new FastInhib(0.5)'
p1823
I3
(dp1824
g1785
F0.1
sg1786
F44.0
sg1787
I188
sg1788
g7
(g8
(I0
tp1825
g10
tp1826
Rp1827
(I1
(I3
tp1828
g1795
I00
S'w\x04\xdf\xe6\x1a\x1cQ@)\x0f\x06\xfc\xf5gJ@\xb7}W\xcb\x98w1@'
p1829
tp1830
bsg1800
S'Cell[3].axon[207]'
p1831
sI188
I165
tp1832
a(F1.455816041346506
S'Cell[0].apic[12] syn_ = new AmpaNmda(0.5)'
p1833
I0
(dp1834
g1785
F0.30000000000000004
sg1786
F44.0
sg1787
I188
sg1788
g7
(g8
(I0
tp1835
g10
tp1836
Rp1837
(I1
(I3
tp1838
g1795
I00
S'|\xd4\xc3\xca<\xe4O@\x14_\xff2\xbfJB@\xe2hu\xdc>\xf0\x1e\xc0'
p1839
tp1840
bsg1800
S'Cell[3].axon[232]'
p1841
sI188
I21
tp1842
a(F0.565031584696968
S'Cell[1].dend[33] syn_ = new ExpSid(0.5)'
p1843
I1
(dp1844
S'seg'
p1845
F0.5
sS'hostfrom'
p1846
F45.0
sS'gid'
p1847
I141
sS'coords'
p1848
g7
(g8
(I0
tp1849
g10
tp1850
Rp1851
(I1
(I3
tp1852
g14
(S'f8'
p1853
I0
I1
tp1854
Rp1855
(I3
S'<'
p1856
NNNI-1
I-1
I0
tp1857
bI00
S'\x00\x00\x00\xb0\x1eE;@\x00\x00\x00\x80\xeb\x918\xc0\x00\x00\x00\xc0\x1e\xa5C\xc0'
p1858
tp1859
bsS'secnames'
p1860
S'Cell[2].axon[43]'
p1861
sI141
I69
tp1862
a(F1.749426849311441
S'Cell[0].dend[2] syn_ = new ExpSid(0.166666666667)'
p1863
I0
(dp1864
g1845
F0.16666666666666666
sg1846
F45.0
sg1847
I141
sg1848
g7
(g8
(I0
tp1865
g10
tp1866
Rp1867
(I1
(I3
tp1868
g1855
I00
S'\x94\x912\xb8\x1a\x1d@@\x9a\xd2d\xa5V%\n\xc0T^\x0f\xa9\xf5(\x19\xc0'
p1869
tp1870
bsg1860
S'Cell[2].axon[61]'
p1871
sI141
I21
tp1872
a(F2.2534949943460676
S'Cell[2].dend[11] syn_ = new FastInhib(0.5)'
p1873
I2
(dp1874
g1845
F0.8333333333333333
sg1846
F45.0
sg1847
I189
sg1848
g7
(g8
(I0
tp1875
g10
tp1876
Rp1877
(I1
(I3
tp1878
g1855
I00
S'u\xaa~\xe4\xb9dK@\xe4\xfcp\x8c\xac\x8f8@n\x89\xb072P @'
p1879
tp1880
bsg1860
S'Cell[3].axon[49]'
p1881
sI189
I117
tp1882
a(F1.8648398075216266
S'Cell[2].dend[5] syn_ = new FastInhib(0.9)'
p1883
I2
(dp1884
g1845
F0.03333333333333333
sg1846
F45.0
sg1847
I189
sg1848
g7
(g8
(I0
tp1885
g10
tp1886
Rp1887
(I1
(I3
tp1888
g1855
I00
S'1\xa3\x0f\xbbs\x18\xf8?\xa0\x16\\\xfd\xdbR`@\x00\x00\x00`\x8f\xc2B\xc0'
p1889
tp1890
bsg1860
S'Cell[3].axon[182]'
p1891
sI189
I117
tp1892
a(F1.0582215010724292
S'Cell[2].dend[5] syn_ = new FastInhib(0.3)'
p1893
I2
(dp1894
g1845
F0.16666666666666666
sg1846
F45.0
sg1847
I189
sg1848
g7
(g8
(I0
tp1895
g10
tp1896
Rp1897
(I1
(I3
tp1898
g1855
I00
S'\xeet\xef4\x9a\x89\x0b@\xc9gy\xe8)\xf3S@\x97\xdcd\xe1\xa5\xaa0\xc0'
p1899
tp1900
bsg1860
S'Cell[3].axon[200]'
p1901
sI189
I117
tp1902
a(F1.8457510446810892
S'Cell[2].dend[5] syn_ = new FastInhib(0.3)'
p1903
I2
(dp1904
g1845
F0.16666666666666666
sg1846
F45.0
sg1847
I93
sg1848
g7
(g8
(I0
tp1905
g10
tp1906
Rp1907
(I1
(I3
tp1908
g1855
I00
S'\xa2\x94m\xb3b\x19\x0c@WO\xbf5\x97\xfdS@\\\tf\xc5D\x022\xc0'
p1909
tp1910
bsg1860
S'Cell[1].axon[47]'
p1911
sI93
I117
tp1912
a(F2.1299099085710265
S'Cell[2].dend[23] syn_ = new FastInhib(0.166666666667)'
p1913
I2
(dp1914
g1845
F0.3888888888888889
sg1846
F45.0
sg1847
I93
sg1848
g7
(g8
(I0
tp1915
g10
tp1916
Rp1917
(I1
(I3
tp1918
g1855
I00
S'\xeag\xc6!\xe1\xf54\xc0\x14e\x87:\x05\x99*@\x00\x00\x00@\xe1z"\xc0'
p1919
tp1920
bsg1860
S'Cell[1].axon[166]'
p1921
sI93
I117
tp1922
a(F2.0141924624553997
S'Cell[3].dend[12] syn_ = new FastInhib(0.833333333333)'
p1923
I3
(dp1924
S'seg'
p1925
F0.8333333333333333
sS'hostfrom'
p1926
F46.0
sS'gid'
p1927
I94
sS'coords'
p1928
g7
(g8
(I0
tp1929
g10
tp1930
Rp1931
(I1
(I3
tp1932
g14
(S'f8'
p1933
I0
I1
tp1934
Rp1935
(I3
S'<'
p1936
NNNI-1
I-1
I0
tp1937
bI00
S'\x032\x00j\x8d\xc3\n\xc0\x9a,E\xb3\xd2\xfaY@\xb0q\xba@Y*B\xc0'
p1938
tp1939
bsS'secnames'
p1940
S'Cell[1].axon[234]'
p1941
sI94
I165
tp1942
a(F2.236743030779275
S'Cell[3].dend[0] syn_ = new FastInhib(0.5)'
p1943
I3
(dp1944
g1925
F0.30000000000000004
sg1926
F46.0
sg1927
I94
sg1928
g7
(g8
(I0
tp1945
g10
tp1946
Rp1947
(I1
(I3
tp1948
g1935
I00
S'\xbf:\xd4iS\xc1R@\xf0\x9c\xab\xac\xe8\xc1<@$J\xe0\x7f\xae\xcaQ\xc0'
p1949
tp1950
bsg1940
S'Cell[1].axon[275]'
p1951
sI94
I165
tp1952
a(F2.236743030779275
S'Cell[3].dend[29] syn_ = new FastInhib(0.5)'
p1953
I3
g1944
I94
I165
tp1954
a(F0.9357403593690616
S'Cell[2].dend[29] syn_ = new FastInhib(0.5)'
p1955
I2
(dp1956
g1925
F0.5
sg1926
F46.0
sg1927
I94
sg1928
g7
(g8
(I0
tp1957
g10
tp1958
Rp1959
(I1
(I3
tp1960
g1935
I00
S'\xa0![\x16Y\x8f/\xc0\t\x89%>\xce23@F\x8a \xa0\xe3,\x13@'
p1961
tp1962
bsg1940
S'Cell[1].axon[311]'
p1963
sI94
I117
tp1964
a(F2.14201250606604
S'Cell[2].dend[39] syn_ = new FastInhib(0.5)'
p1965
I2
g1956
I94
I117
tp1966
a(F2.2452911413391226
S'Cell[2].dend[40] syn_ = new FastInhib(0.5)'
p1967
I2
(dp1968
g1925
F0.5
sg1926
F46.0
sg1927
I94
sg1928
g7
(g8
(I0
tp1969
g10
tp1970
Rp1971
(I1
(I3
tp1972
g1935
I00
S'\x00\x00\x00\xf0(\x1cC\xc0\x00\x00\x00\xd0\xf5xC@\x00\x00\x00\x10\xae\xc7\x13\xc0'
p1973
tp1974
bsg1940
S'Cell[1].axon[345]'
p1975
sI94
I117
tp1976
a(F2.2638591043156744
S'Cell[0].dend[9] syn_ = new ExpSid(0.5)'
p1977
I0
(dp1978
S'seg'
p1979
F0.5
sS'hostfrom'
p1980
F47.0
sS'gid'
p1981
I95
sS'coords'
p1982
g7
(g8
(I0
tp1983
g10
tp1984
Rp1985
(I1
(I3
tp1986
g14
(S'f8'
p1987
I0
I1
tp1988
Rp1989
(I3
S'<'
p1990
NNNI-1
I-1
I0
tp1991
bI00
S'\x00\x00\x00\xa0p\rD@\x00\x00\x00\xe8Q81\xc0\x00\x00\x00\x10\xaeG\xf1?'
p1992
tp1993
bsS'secnames'
p1994
S'Cell[1].axon[142]'
p1995
sI95
I21
tp1996
a(F1.3045404972774215
S'Cell[3].dend[9] syn_ = new FastInhib(0.5)'
p1997
I3
(dp1998
g1979
F0.16666666666666666
sg1980
F47.0
sg1981
I143
sg1982
g7
(g8
(I0
tp1999
g10
tp2000
Rp2001
(I1
(I3
tp2002
g1989
I00
S'w\xe9tr\xbb\xb2\x05@\x99\x94\xc2%C\xd9F@\xff\xff\xff\xbf\xf5\xa8*\xc0'
p2003
tp2004
bsg1994
S'Cell[2].axon[199]'
p2005
sI143
I165
tp2006
a(F1.557293783820493
S'Cell[1].dend[45] syn_ = new ExpSid(0.5)'
p2007
I1
(dp2008
g1979
F0.8999999999999999
sg1980
F47.0
sg1981
I143
sg1982
g7
(g8
(I0
tp2009
g10
tp2010
Rp2011
(I1
(I3
tp2012
g1989
I00
S'\xda"\xb7?\xca\x892@^\xa5\xc2>!\xe5@\xc0^\x1d\x8df\xe8\x07G\xc0'
p2013
tp2014
bsg1994
S'Cell[2].axon[233]'
p2015
sI143
I69
tp2016
a.