(lp0
(F2.2533237758167837
S'Cell[1].dend[14] syn_ = new FastInhib(0.5)'
p1
I1
(dp2
S'seg'
p3
F0.30000000000000004
sS'hostfrom'
p4
F1.0
sS'gid'
p5
I145
sS'coords'
p6
cnumpy.core.multiarray
_reconstruct
p7
(cnumpy
ndarray
p8
(I0
tp9
S'b'
p10
tp11
Rp12
(I1
(I3
tp13
cnumpy
dtype
p14
(S'f8'
p15
I0
I1
tp16
Rp17
(I3
S'<'
p18
NNNI-1
I-1
I0
tp19
bI00
S'\xf8A\xde\xea\x1f\xe8V\xc0:\xeea\x0e\xbbnH@\xa7\x98\xad\xe1A\xb44\xc0'
p20
tp21
bsS'secnames'
p22
S'Cell[3].axon[63]'
p23
sI145
I90
tp24
a(F2.256168796158519
S'Cell[1].dend[29] syn_ = new FastInhib(0.3)'
p25
I1
(dp26
g3
F0.5
sg4
F1.0
sg5
I97
sg6
g7
(g8
(I0
tp27
g10
tp28
Rp29
(I1
(I3
tp30
g17
I00
S'\x00\x00\x00\x80\x14\xae>@\x00\x00\x00\xe0zT8@\x00\x00\x00\xa0G\xe1\xfc\xbf'
p31
tp32
bsg22
S'Cell[2].axon[103]'
p33
sI97
I90
tp34
a(F1.3759350557623422
S'Cell[2].dend[11] syn_ = new FastInhib(0.5)'
p35
I2
(dp36
g3
F0.8333333333333333
sg4
F1.0
sg5
I97
sg6
g7
(g8
(I0
tp37
g10
tp38
Rp39
(I1
(I3
tp40
g17
I00
S"'\r,Y\x1d\x1f&@\xc0\xfe\xdd\x92\x8b\x0bC\xc0\x9c\xcf\x1c\xc1\xb6\x14)@"
p41
tp42
bsg22
S'Cell[2].axon[164]'
p43
sI97
I138
tp44
a(F2.392011527626732
S'Cell[3].dend[23] syn_ = new FastInhib(0.166666666667)'
p45
I3
(dp46
g3
F0.5
sg4
F1.0
sg5
I97
sg6
g7
(g8
(I0
tp47
g10
tp48
Rp49
(I1
(I3
tp50
g17
I00
S'N\xee\xda\x0fc\xd2,\xc0\xe8\n\x07L2^=@\xe1.jQ\xe6\xc0\x10\xc0'
p51
tp52
bsg22
S'Cell[2].axon[191]'
p53
sI97
I186
tp54
a(F2.1464642426402465
S'Cell[1].dend[0] syn_ = new FastInhib(0.5)'
p55
I1
(dp56
g3
F0.3571428571428571
sg4
F1.0
sg5
I97
sg6
g7
(g8
(I0
tp57
g10
tp58
Rp59
(I1
(I3
tp60
g17
I00
S'\xe1PG\x9bt\x94=\xc0\x18\x80\x12\xf1\xf1\xe4\x13\xc0\x0c\x18\x18\x08\xfb\xac\x1a@'
p61
tp62
bsg22
S'Cell[2].axon[193]'
p63
sI97
I90
tp64
a(F1.697066954739913
S'Cell[1].dend[30] syn_ = new FastInhib(0.5)'
p65
I1
(dp66
S'seg'
p67
F0.6428571428571428
sS'hostfrom'
p68
F3.0
sS'gid'
p69
I147
sS'coords'
p70
g7
(g8
(I0
tp71
g10
tp72
Rp73
(I1
(I3
tp74
g14
(S'f8'
p75
I0
I1
tp76
Rp77
(I3
S'<'
p78
NNNI-1
I-1
I0
tp79
bI00
S'\xe7{\xac\x80\xd2\x84F@\xd9\xa8\x83Q\xf0\xf1\xf0\xbfT\x9f\xee\x1cQ\xc5,@'
p80
tp81
bsS'secnames'
p82
S'Cell[3].axon[136]'
p83
sI147
I90
tp84
a(F2.479596128840339
S'Cell[1].dend[44] syn_ = new FastInhib(0.833333333333)'
p85
I1
(dp86
S'seg'
p87
F0.5
sS'hostfrom'
p88
F4.0
sS'gid'
p89
I148
sS'coords'
p90
g7
(g8
(I0
tp91
g10
tp92
Rp93
(I1
(I3
tp94
g14
(S'f8'
p95
I0
I1
tp96
Rp97
(I3
S'<'
p98
NNNI-1
I-1
I0
tp99
bI00
S'\xf8\xdc\xd6D\x14\xbc\x1f\xc0\x94\x1a\xbfP\x1a\x0fY\xc0\x88/\xdf\t\xbe\xd2L\xc0'
p100
tp101
bsS'secnames'
p102
S'Cell[3].axon[386]'
p103
sI148
I90
tp104
a(F1.207448553769276
S'Cell[0].dend[10] syn_ = new AmpaNmda(0.5)'
p105
I0
(dp106
g87
F0.8333333333333335
sg88
F4.0
sg89
I100
sg90
g7
(g8
(I0
tp107
g10
tp108
Rp109
(I1
(I3
tp110
g97
I00
S'\xa3\x92\x12j\xfdxL@\xcfzJ\xf4\x82CN\xc0\xb40\x19\x07\xde\xc3\r\xc0'
p111
tp112
bsg102
S'Cell[2].axon[10]'
p113
sI100
I42
tp114
a(F1.6171568105802512
S'Cell[3].dend[6] syn_ = new FastInhib(0.5)'
p115
I3
(dp116
S'seg'
p117
F0.1
sS'hostfrom'
p118
F6.0
sS'gid'
p119
I150
sS'coords'
p120
g7
(g8
(I0
tp121
g10
tp122
Rp123
(I1
(I3
tp124
g14
(S'f8'
p125
I0
I1
tp126
Rp127
(I3
S'<'
p128
NNNI-1
I-1
I0
tp129
bI00
S'L\x02\x1e3\xef\x9eP\xc0\x80[\xca\xe2E\x8d#\xc0\xd6\n\xdc\x01\x97\xf7B\xc0'
p130
tp131
bsS'secnames'
p132
S'Cell[3].axon[5]'
p133
sI150
I186
tp134
a(F1.5381388683358712
S'Cell[3].dend[31] syn_ = new FastInhib(0.5)'
p135
I3
(dp136
g117
F0.5
sg118
F6.0
sg119
I150
sg120
g7
(g8
(I0
tp137
g10
tp138
Rp139
(I1
(I3
tp140
g127
I00
S'|~\xd2w"\x98M\xc0?!9/b\xb6\x1b@\x00\x00\x00\x80\x14\xee>\xc0'
p141
tp142
bsg132
S'Cell[3].axon[68]'
p143
sI150
I186
tp144
a(F2.2075933793871436
S'Cell[3].dend[34] syn_ = new FastInhib(0.5)'
p145
I3
(dp146
S'seg'
p147
F0.8999999999999999
sS'hostfrom'
p148
F7.0
sS'gid'
p149
I103
sS'coords'
p150
g7
(g8
(I0
tp151
g10
tp152
Rp153
(I1
(I3
tp154
g14
(S'f8'
p155
I0
I1
tp156
Rp157
(I3
S'<'
p158
NNNI-1
I-1
I0
tp159
bI00
S'\x04\x15\xd7\t~HQ\xc0\x9f\xbd|+a\x11\x14@\xf0\xda\x85\x8bd!C\xc0'
p160
tp161
bsS'secnames'
p162
S'Cell[2].axon[59]'
p163
sI103
I186
tp164
a(F2.2958241860767092
S'Cell[0].dend[6] syn_ = new ExpSid(0.5)'
p165
I0
(dp166
g147
F0.5
sg148
F7.0
sg149
I103
sg150
g7
(g8
(I0
tp167
g10
tp168
Rp169
(I1
(I3
tp170
g157
I00
S'\x15rU\xf8I\xe0X@\x99\x9962\xe0\xac1\xc0 \xbcs\xbfvl$\xc0'
p171
tp172
bsg162
S'Cell[2].axon[353]'
p173
sI103
I42
tp174
a(F1.9466218050945863
S'Cell[1].dend[7] syn_ = new FastInhib(0.5)'
p175
I1
(dp176
g147
F0.16666666666666666
sg148
F7.0
sg149
I103
sg150
g7
(g8
(I0
tp177
g10
tp178
Rp179
(I1
(I3
tp180
g157
I00
S'J\x1c\xb26]\xc66\xc0E\x16\xc2\xaak\xf9\xed\xbfH\xc4\xc4o\x1a\xa1\t\xc0'
p181
tp182
bsg162
S'Cell[2].axon[445]'
p183
sI103
I90
tp184
a(F2.3393384190508257
S'Cell[3].dend[43] syn_ = new FastInhib(0.5)'
p185
I3
(dp186
g147
F0.5
sg148
F7.0
sg149
I151
sg150
g7
(g8
(I0
tp187
g10
tp188
Rp189
(I1
(I3
tp190
g157
I00
S'\x00\x00\x00`fFG\xc0\x00\x00\x00\xb0\x1e\xc56@\x00\x00\x00\xc0\x1e\x85.@'
p191
tp192
bsg162
S'Cell[3].axon[41]'
p193
sI151
I186
tp194
a(F1.6117938334314827
S'Cell[3].dend[28] syn_ = new FastInhib(0.3)'
p195
I3
(dp196
S'seg'
p197
F0.13636363636363635
sS'hostfrom'
p198
F8.0
sS'gid'
p199
I104
sS'coords'
p200
g7
(g8
(I0
tp201
g10
tp202
Rp203
(I1
(I3
tp204
g14
(S'f8'
p205
I0
I1
tp206
Rp207
(I3
S'<'
p208
NNNI-1
I-1
I0
tp209
bI00
S'J\xe2@\xcb~\xfdS\xc0\xb60y(wvE@u\xd0\xef\x0c\x11\xee<\xc0'
p210
tp211
bsS'secnames'
p212
S'Cell[2].axon[383]'
p213
sI104
I186
tp214
a(F1.4984511713103534
S'Cell[1].dend[22] syn_ = new FastInhib(0.166666666667)'
p215
I1
(dp216
g197
F0.16666666666666666
sg198
F8.0
sg199
I104
sg200
g7
(g8
(I0
tp217
g10
tp218
Rp219
(I1
(I3
tp220
g207
I00
S'h\x1d\xc2\r\x82\x9f9\xc0\xbf5Jm[\xd5M@\x06r\x8c,\xb7\x93\xdc\xbf'
p221
tp222
bsg212
S'Cell[2].axon[436]'
p223
sI104
I90
tp224
a(F1.2439191589240541
S'Cell[3].dend[14] syn_ = new FastInhib(0.5)'
p225
I3
(dp226
S'seg'
p227
F0.5
sS'hostfrom'
p228
F9.0
sS'gid'
p229
I153
sS'coords'
p230
g7
(g8
(I0
tp231
g10
tp232
Rp233
(I1
(I3
tp234
g14
(S'f8'
p235
I0
I1
tp236
Rp237
(I3
S'<'
p238
NNNI-1
I-1
I0
tp239
bI00
S'\t)\xd0$\x9e\xcc-@\x05\x83\x9a$|ON\xc0\x00\x00\x00`ff\x1d\xc0'
p240
tp241
bsS'secnames'
p242
S'Cell[3].axon[17]'
p243
sI153
I186
tp244
a(F2.1461232318597063
S'Cell[3].dend[15] syn_ = new FastInhib(0.833333333333)'
p245
I3
(dp246
g227
F0.5
sg228
F9.0
sg229
I153
sg230
g7
(g8
(I0
tp247
g10
tp248
Rp249
(I1
(I3
tp250
g237
I00
S'\xce\x90\x9coI\x7f*@\xb1\x00M\x13f\xdaS\xc0\\\xc9\xe4\xc1\x7f\x0b\xf2?'
p251
tp252
bsg242
S'Cell[3].axon[19]'
p253
sI153
I186
tp254
a(F2.235827691059681
S'Cell[0].dend[0] syn_ = new AmpaNmda(0.642857142857)'
p255
I0
(dp256
S'seg'
p257
F0.8333333333333333
sS'hostfrom'
p258
F10.0
sS'gid'
p259
I106
sS'coords'
p260
g7
(g8
(I0
tp261
g10
tp262
Rp263
(I1
(I3
tp264
g14
(S'f8'
p265
I0
I1
tp266
Rp267
(I3
S'<'
p268
NNNI-1
I-1
I0
tp269
bI00
S'\xb5\xf6\xd4z\xcc\xe0>@\x91`\x16\x16\xeb\x0e\\@n=4t\xe1\xfc-\xc0'
p270
tp271
bsS'secnames'
p272
S'Cell[2].axon[50]'
p273
sI106
I42
tp274
a(F2.3615220674487065
S'Cell[2].dend[19] syn_ = new FastInhib(0.5)'
p275
I2
(dp276
g257
F0.16666666666666666
sg258
F10.0
sg259
I154
sg260
g7
(g8
(I0
tp277
g10
tp278
Rp279
(I1
(I3
tp280
g267
I00
S'\x82P\xf7\xfeg@6@\xd3\xaen\xe8\x08\xccA@\xc0=\xad\x86\xab7M@'
p281
tp282
bsg272
S'Cell[3].axon[68]'
p283
sI154
I138
tp284
a(F0.6449387112230909
S'Cell[3].dend[48] syn_ = new FastInhib(0.214285714286)'
p285
I3
(dp286
S'seg'
p287
F0.5
sS'hostfrom'
p288
F11.0
sS'gid'
p289
I155
sS'coords'
p290
g7
(g8
(I0
tp291
g10
tp292
Rp293
(I1
(I3
tp294
g14
(S'f8'
p295
I0
I1
tp296
Rp297
(I3
S'<'
p298
NNNI-1
I-1
I0
tp299
bI00
S'\xfd0Y\x03\x92+S\xc0\xfe\xef\xe8\x1c\xc3O)\xc02\x94\xe7S\xda,\xf0\xbf'
p300
tp301
bsS'secnames'
p302
S'Cell[3].axon[163]'
p303
sI155
I186
tp304
a(F1.3021632341804317
S'Cell[3].dend[7] syn_ = new FastInhib(0.5)'
p305
I3
(dp306
g287
F0.045454545454545456
sg288
F11.0
sg289
I155
sg290
g7
(g8
(I0
tp307
g10
tp308
Rp309
(I1
(I3
tp310
g297
I00
S'f\xe7\x05,\xe4\xc0T\xc0\xdd\xfc\xcc\x8d\x9b\x89O\xc0\x82\xf5\xc3\xe4#\xf9Q\xc0'
p311
tp312
bsg302
S'Cell[3].axon[216]'
p313
sI155
I186
tp314
a(F1.719671829289603
S'Cell[1].dend[50] syn_ = new FastInhib(0.5)'
p315
I1
(dp316
g287
F0.16666666666666666
sg288
F11.0
sg289
I155
sg290
g7
(g8
(I0
tp317
g10
tp318
Rp319
(I1
(I3
tp320
g297
I00
S'f(K\x9a\x98&\xfe\xbf?\xda[\xe9\xc6h`\xc0\x00\x00\x00\x80\xc2u#@'
p321
tp322
bsg302
S'Cell[3].axon[226]'
p323
sI155
I90
tp324
a(F1.0975018081124839
S'Cell[1].dend[13] syn_ = new FastInhib(0.5)'
p325
I1
(dp326
g287
F0.16666666666666666
sg288
F11.0
sg289
I155
sg290
g7
(g8
(I0
tp327
g10
tp328
Rp329
(I1
(I3
tp330
g297
I00
S'\x02\xe6>\xc2\xdaWH\xc0\x95\xb9\xf2\x9dF\xfdD@\xda@N\x8a\xf4[3\xc0'
p331
tp332
bsg302
S'Cell[3].axon[283]'
p333
sI155
I90
tp334
a(F2.2296348566888446
S'Cell[1].dend[59] syn_ = new FastInhib(0.0714285714286)'
p335
I1
(dp336
S'seg'
p337
F0.5
sS'hostfrom'
p338
F12.0
sS'gid'
p339
I156
sS'coords'
p340
g7
(g8
(I0
tp341
g10
tp342
Rp343
(I1
(I3
tp344
g14
(S'f8'
p345
I0
I1
tp346
Rp347
(I3
S'<'
p348
NNNI-1
I-1
I0
tp349
bI00
S'\x00\x00\x00\x90\xc25&\xc0\x00\x00\x00\xf0Q\xb0U\xc0\x00\x00\x00 \x85\xeb\x12@'
p350
tp351
bsS'secnames'
p352
S'Cell[3].axon[600]'
p353
sI156
I90
tp354
a(F2.4726553544972423
S'Cell[3].dend[2] syn_ = new FastInhib(0.214285714286)'
p355
I3
(dp356
g337
F0.8333333333333333
sg338
F12.0
sg339
I108
sg340
g7
(g8
(I0
tp357
g10
tp358
Rp359
(I1
(I3
tp360
g347
I00
S'K\xb2\xe7n\xeadY\xc0\x82\x16\x98f>4*\xc0\x00\x00\x00\x80=\n#\xc0'
p361
tp362
bsg352
S'Cell[2].axon[349]'
p363
sI108
I186
tp364
a(F1.6777366440615722
S'Cell[3].apic[6] syn_ = new FastInhib(0.5)'
p365
I3
(dp366
S'seg'
p367
F0.5
sS'hostfrom'
p368
F13.0
sS'gid'
p369
I109
sS'coords'
p370
g7
(g8
(I0
tp371
g10
tp372
Rp373
(I1
(I3
tp374
g14
(S'f8'
p375
I0
I1
tp376
Rp377
(I3
S'<'
p378
NNNI-1
I-1
I0
tp379
bI00
S'\x1e\xb1\xfb:\x93\xbe"@\x9e\x8d\xe5J\'\xe8c@\xca"=2\xb3\xb42@'
p380
tp381
bsS'secnames'
p382
S'Cell[2].axon[221]'
p383
sI109
I186
tp384
a(F1.310472554543307
S'Cell[3].apic[3] syn_ = new FastInhib(0.5)'
p385
I3
(dp386
g367
F0.5
sg368
F13.0
sg369
I109
sg370
g7
(g8
(I0
tp387
g10
tp388
Rp389
(I1
(I3
tp390
g377
I00
S'#\xe0\x945#70@\xcc\xca\xd9\x99eFe@\xf0vd\xe9\x96\xef.@'
p391
tp392
bsg382
S'Cell[2].axon[223]'
p393
sI109
I186
tp394
a(F1.1871374978232727
S'Cell[3].dend[46] syn_ = new FastInhib(0.5)'
p395
I3
(dp396
g367
F0.5
sg368
F13.0
sg369
I109
sg370
g7
(g8
(I0
tp397
g10
tp398
Rp399
(I1
(I3
tp400
g377
I00
S'\x00\x00\x00\xc0\xf5\xc8@\xc0\x00\x00\x00\xc0\xf5\xc84@\x00\x00\x00\x90\xc2\xf5*@'
p401
tp402
bsg382
S'Cell[2].axon[257]'
p403
sI109
I186
tp404
a(F2.0381560173137876
S'Cell[2].dend[0] syn_ = new FastInhib(0.5)'
p405
I2
(dp406
S'seg'
p407
F0.5
sS'hostfrom'
p408
F14.0
sS'gid'
p409
I110
sS'coords'
p410
g7
(g8
(I0
tp411
g10
tp412
Rp413
(I1
(I3
tp414
g14
(S'f8'
p415
I0
I1
tp416
Rp417
(I3
S'<'
p418
NNNI-1
I-1
I0
tp419
bI00
S'\x00\x00\x00\xe0\xa3\xf0H@N\xf7_?\xc1-D@\x00\x00\x00\xc0\xcc\x8cB@'
p420
tp421
bsS'secnames'
p422
S'Cell[2].axon[75]'
p423
sI110
I138
tp424
a(F2.460894694438494
S'Cell[2].dend[14] syn_ = new FastInhib(0.5)'
p425
I2
(dp426
S'seg'
p427
F0.5
sS'hostfrom'
p428
F15.0
sS'gid'
p429
I15
sS'coords'
p430
g7
(g8
(I0
tp431
g10
tp432
Rp433
(I1
(I3
tp434
g14
(S'f8'
p435
I0
I1
tp436
Rp437
(I3
S'<'
p438
NNNI-1
I-1
I0
tp439
bI00
S'\x97Q\x1e\xfe=\xf36@\xa7m\x00\x9a\xb8k^\xc0x\xae\xbc\xec\xcc\xdd3@'
p440
tp441
bsS'secnames'
p442
S'Cell[0].axon[6]'
p443
sI15
I138
tp444
a(F2.3764463182503563
S'Cell[1].dend[53] syn_ = new FastInhib(0.166666666667)'
p445
I1
(dp446
S'seg'
p447
F0.5
sS'hostfrom'
p448
F16.0
sS'gid'
p449
I16
sS'coords'
p450
g7
(g8
(I0
tp451
g10
tp452
Rp453
(I1
(I3
tp454
g14
(S'f8'
p455
I0
I1
tp456
Rp457
(I3
S'<'
p458
NNNI-1
I-1
I0
tp459
bI00
S'\xe6\xb0d\xcf\xfdZ\xf1?\xc8\x97\xf6"!\xe3h\xc0\x98\x84\x1dn\x16\xf5?@'
p460
tp461
bsS'secnames'
p462
S'Cell[0].axon[5]'
p463
sI16
I90
tp464
a(F1.7907915486641548
S'Cell[3].dend[21] syn_ = new FastInhib(0.5)'
p465
I3
(dp466
g447
F0.1
sg448
F16.0
sg449
I112
sg450
g7
(g8
(I0
tp467
g10
tp468
Rp469
(I1
(I3
tp470
g457
I00
S'\xf9\xf0\xffK\x980/@\xe5\xc6\x19\x94\xb3\x01;\xc0n\xb5\x0e\xa2\xe7\xa7&@'
p471
tp472
bsg462
S'Cell[2].axon[9]'
p473
sI112
I186
tp474
a(F1.7967814336982935
S'Cell[2].dend[13] syn_ = new FastInhib(0.5)'
p475
I2
(dp476
g447
F0.30000000000000004
sg448
F16.0
sg449
I112
sg450
g7
(g8
(I0
tp477
g10
tp478
Rp479
(I1
(I3
tp480
g457
I00
S"\xa0G\xfe\xbeX\xf12@,\xdcm\xa4\x87\x1dH\xc0\x14\xa3d\x1e!\x97'@"
p481
tp482
bsg462
S'Cell[2].axon[9]'
p483
sI112
I138
tp484
a(F1.9193570779966527
S'Cell[3].dend[6] syn_ = new FastInhib(0.166666666667)'
p485
I3
(dp486
g447
F0.5
sg448
F16.0
sg449
I112
sg450
g7
(g8
(I0
tp487
g10
tp488
Rp489
(I1
(I3
tp490
g457
I00
S'\x02\xa3\xdcBy\x82M\xc0\xe4\xe44r\xd9>\x03\xc0F\xcd7\xb6G58\xc0'
p491
tp492
bsg462
S'Cell[2].axon[28]'
p493
sI112
I186
tp494
a(F1.1176392099147179
S'Cell[3].dend[15] syn_ = new FastInhib(0.833333333333)'
p495
I3
(dp496
S'seg'
p497
F0.5
sS'hostfrom'
p498
F17.0
sS'gid'
p499
I113
sS'coords'
p500
g7
(g8
(I0
tp501
g10
tp502
Rp503
(I1
(I3
tp504
g14
(S'f8'
p505
I0
I1
tp506
Rp507
(I3
S'<'
p508
NNNI-1
I-1
I0
tp509
bI00
S'Hs\x84t\x813)@\xc2u\xeep\xac>T\xc0\x9c\x08\x18V9\x8d\xe9?'
p510
tp511
bsS'secnames'
p512
S'Cell[2].axon[2]'
p513
sI113
I186
tp514
a(F0.5934696162721308
S'Cell[1].dend[34] syn_ = new FastInhib(0.5)'
p515
I1
(dp516
g497
F0.5
sg498
F17.0
sg499
I113
sg500
g7
(g8
(I0
tp517
g10
tp518
Rp519
(I1
(I3
tp520
g507
I00
S'\xc2w\xeb\xb3\xd4\x96\n\xc0\xeb\xa1&1\xf9\x12Q\xc0\x1fV\xa1{j\x85(\xc0'
p521
tp522
bsg512
S'Cell[2].axon[13]'
p523
sI113
I90
tp524
a(F1.6078999410081725
S'Cell[1].dend[50] syn_ = new FastInhib(0.166666666667)'
p525
I1
(dp526
g497
F0.5
sg498
F17.0
sg499
I113
sg500
g7
(g8
(I0
tp527
g10
tp528
Rp529
(I1
(I3
tp530
g507
I00
S'\xbc\xdf\x8e\xfd\xc6\xa9\x15\xc0\x06\x06\xccM\xacr\\\xc0\xc1\xbe\xa7\xad\xe7\xe3\x10\xc0'
p531
tp532
bsg512
S'Cell[2].axon[79]'
p533
sI113
I90
tp534
a(F2.480399881998501
S'Cell[2].dend[5] syn_ = new FastInhib(0.5)'
p535
I2
(dp536
g497
F0.5
sg498
F17.0
sg499
I113
sg500
g7
(g8
(I0
tp537
g10
tp538
Rp539
(I1
(I3
tp540
g507
I00
S'\xb3X"\xaf\xf6\xc4X@\x1c\xd3\xe6\xc38\xdfT\xc01+\xf1\x99\xbaM\x13@'
p541
tp542
bsg512
S'Cell[2].axon[105]'
p543
sI113
I138
tp544
a(F2.075237600266867
S'Cell[3].dend[0] syn_ = new FastInhib(0.5)'
p545
I3
(dp546
S'seg'
p547
F0.7857142857142856
sS'hostfrom'
p548
F18.0
sS'gid'
p549
I162
sS'coords'
p550
g7
(g8
(I0
tp551
g10
tp552
Rp553
(I1
(I3
tp554
g14
(S'f8'
p555
I0
I1
tp556
Rp557
(I3
S'<'
p558
NNNI-1
I-1
I0
tp559
bI00
S'\x00\x00\x00@\n\x97G\xc0?\xf0\x9f\xfa-\xb9\x14@L\x10*\x0f\xa2\n$\xc0'
p560
tp561
bsS'secnames'
p562
S'Cell[3].axon[73]'
p563
sI162
I186
tp564
a(F2.2252822002224257
S'Cell[1].dend[46] syn_ = new FastInhib(0.5)'
p565
I1
(dp566
S'seg'
p567
F0.5
sS'hostfrom'
p568
F19.0
sS'gid'
p569
I163
sS'coords'
p570
g7
(g8
(I0
tp571
g10
tp572
Rp573
(I1
(I3
tp574
g14
(S'f8'
p575
I0
I1
tp576
Rp577
(I3
S'<'
p578
NNNI-1
I-1
I0
tp579
bI00
S'\x00\x00\x00033$\xc0\x00\x00\x00\xa0\x99\xe9X\xc0\x00\x00\x00\x04\xd7c @'
p580
tp581
bsS'secnames'
p582
S'Cell[3].axon[1]'
p583
sI163
I90
tp584
a(F2.159613852449998
S'Cell[3].dend[35] syn_ = new FastInhib(0.5)'
p585
I3
(dp586
S'seg'
p587
F0.038461538461538464
sS'hostfrom'
p588
F20.0
sS'gid'
p589
I68
sS'coords'
p590
g7
(g8
(I0
tp591
g10
tp592
Rp593
(I1
(I3
tp594
g14
(S'f8'
p595
I0
I1
tp596
Rp597
(I3
S'<'
p598
NNNI-1
I-1
I0
tp599
bI00
S'\xbe\xb0\xfb\xec-\x97Q\xc0l\xcc\xaf\x8c\xee%\x1e@:\xe1$\xdb\xe2VD\xc0'
p600
tp601
bsS'secnames'
p602
S'Cell[1].axon[32]'
p603
sI68
I186
tp604
a(F1.1684644256938022
S'Cell[0].dend[4] syn_ = new ExpSid(0.166666666667)'
p605
I0
(dp606
S'seg'
p607
F0.5
sS'hostfrom'
p608
F21.0
sS'gid'
p609
I165
sS'coords'
p610
g7
(g8
(I0
tp611
g10
tp612
Rp613
(I1
(I3
tp614
g14
(S'f8'
p615
I0
I1
tp616
Rp617
(I3
S'<'
p618
NNNI-1
I-1
I0
tp619
bI00
S'&\x91\x99\xceW\xd9P@\xf9\x10\xa1\xe9\x88\xc8<\xc0\x00\x00\x00`\x8f\xc2\x1c\xc0'
p620
tp621
bsS'secnames'
p622
S'Cell[3].axon[11]'
p623
sI165
I42
tp624
a(F1.5752703543008106
S'Cell[3].dend[13] syn_ = new FastInhib(0.5)'
p625
I3
(dp626
g607
F0.1
sg608
F21.0
sg609
I165
sg610
g7
(g8
(I0
tp627
g10
tp628
Rp629
(I1
(I3
tp630
g617
I00
S'0\t\x91\xb9\x08\xd68@\x88\x9bs\x8e`&Q\xc0\x00\x00\x00\xa0p=\x17\xc0'
p631
tp632
bsg622
S'Cell[3].axon[33]'
p633
sI165
I186
tp634
a(F2.354037186160902
S'Cell[3].dend[28] syn_ = new FastInhib(0.3)'
p635
I3
(dp636
g607
F0.49999999999999994
sg608
F21.0
sg609
I165
sg610
g7
(g8
(I0
tp637
g10
tp638
Rp639
(I1
(I3
tp640
g617
I00
S'\xe3\x8e&:\xb0\xc1S\xc0\xeedV\xe9L:F@\x10\xe6\x83U"R<\xc0'
p641
tp642
bsg622
S'Cell[3].axon[71]'
p643
sI165
I186
tp644
a(F1.4795195252564075
S'Cell[0].dend[1] syn_ = new ExpSid(0.5)'
p645
I0
(dp646
g607
F0.5
sg608
F21.0
sg609
I165
sg610
g7
(g8
(I0
tp647
g10
tp648
Rp649
(I1
(I3
tp650
g617
I00
S'\xbfo\xd8\xe5\x87\xbb9@\x8b~\xf4\xad\x8eXF\xc0\xf4\x94\xb5\x8cd#\x1c\xc0'
p651
tp652
bsg622
S'Cell[3].axon[229]'
p653
sI165
I42
tp654
a(F1.8819454253966663
S'Cell[0].dend[4] syn_ = new ExpSid(0.5)'
p655
I0
(dp656
g607
F0.5
sg608
F21.0
sg609
I117
sg610
g7
(g8
(I0
tp657
g10
tp658
Rp659
(I1
(I3
tp660
g617
I00
S'\xc4;KR\x8f(V@\xda\xe2\xad\xa6\x80\xe4@\xc0\x10\xb9\xa5\x07\xa6+\x1b\xc0'
p661
tp662
bsg622
S'Cell[2].axon[26]'
p663
sI117
I42
tp664
a(F1.3068932057151275
S'Cell[3].apic[7] syn_ = new FastInhib(0.833333333333)'
p665
I3
(dp666
g607
F0.5
sg608
F21.0
sg609
I117
sg610
g7
(g8
(I0
tp667
g10
tp668
Rp669
(I1
(I3
tp670
g617
I00
S'D\xbc\xcf\x1c\xb9:K\xc0\xa3\xf4\x1a_M\xab]@\x00\x00\x00\x80\xc2u9\xc0'
p671
tp672
bsg622
S'Cell[2].axon[133]'
p673
sI117
I186
tp674
a(F2.415124894879408
S'Cell[2].dend[12] syn_ = new FastInhib(0.833333333333)'
p675
I2
(dp676
g607
F0.5
sg608
F21.0
sg609
I69
sg610
g7
(g8
(I0
tp677
g10
tp678
Rp679
(I1
(I3
tp680
g617
I00
S'OWvbp}\x11@\x12G\xce7\xb1\x8dT\xc0\xdb\x1d \x0e\xd8\xa2#@'
p681
tp682
bsg622
S'Cell[1].axon[1]'
p683
sI69
I138
tp684
a(F0.6317445207016611
S'Cell[1].dend[21] syn_ = new FastInhib(0.166666666667)'
p685
I1
(dp686
S'seg'
p687
F0.5
sS'hostfrom'
p688
F22.0
sS'gid'
p689
I70
sS'coords'
p690
g7
(g8
(I0
tp691
g10
tp692
Rp693
(I1
(I3
tp694
g14
(S'f8'
p695
I0
I1
tp696
Rp697
(I3
S'<'
p698
NNNI-1
I-1
I0
tp699
bI00
S'3b\xfe\x8b&\xaa0\xc0\xc5Z\xecX\x81##@\xc9f\x97\x1d$\xfa\x01\xc0'
p700
tp701
bsS'secnames'
p702
S'Cell[1].axon[0]'
p703
sI70
I90
tp704
a(F1.8856013774324392
S'Cell[1].dend[0] syn_ = new FastInhib(0.5)'
p705
I1
(dp706
S'seg'
p707
F0.5
sS'hostfrom'
p708
F24.0
sS'gid'
p709
I72
sS'coords'
p710
g7
(g8
(I0
tp711
g10
tp712
Rp713
(I1
(I3
tp714
g14
(S'f8'
p715
I0
I1
tp716
Rp717
(I3
S'<'
p718
NNNI-1
I-1
I0
tp719
bI00
S'\xadE\xe2/\xb6\xed:\xc0q\xb6\xcc9k\x8f\x18\xc0]\xb8\x06\xe1X\xee\x14@'
p720
tp721
bsS'secnames'
p722
S'Cell[1].axon[65]'
p723
sI72
I90
tp724
a(F1.9417991622819486
S'Cell[3].dend[7] syn_ = new FastInhib(0.5)'
p725
I3
(dp726
g707
F0.5
sg708
F24.0
sg709
I168
sg710
g7
(g8
(I0
tp727
g10
tp728
Rp729
(I1
(I3
tp730
g717
I00
S'\x00\x00\x00\xc0\xcc\xc4T\xc0\x00\x00\x00@\n\xc7N\xc0\x00\x00\x00\xc0\xcc\xdcQ\xc0'
p731
tp732
bsg722
S'Cell[3].axon[4]'
p733
sI168
I186
tp734
a(F1.812808595294167
S'Cell[3].dend[7] syn_ = new FastInhib(0.5)'
p735
I3
(dp736
g707
F0.5
sg708
F24.0
sg709
I168
sg710
g7
(g8
(I0
tp737
g10
tp738
Rp739
(I1
(I3
tp740
g717
I00
S'g\x15\x92\xcb\xa3\xa7T\xc0\xf6\x8d:\x17+\x90O\xc0\x00\x00\x00\xc0\xcc\xdcQ\xc0'
p741
tp742
bsg722
S'Cell[3].axon[153]'
p743
sI168
I186
tp744
a(F1.7821771372194113
S'Cell[1].dend[40] syn_ = new FastInhib(0.833333333333)'
p745
I1
(dp746
g707
F0.16666666666666666
sg708
F24.0
sg709
I120
sg710
g7
(g8
(I0
tp747
g10
tp748
Rp749
(I1
(I3
tp750
g717
I00
S'z\x7f\xed\xe5iGE@\xfb\x81\xd9\\Y\xcc^\xc0)uJ\xf570\x1b\xc0'
p751
tp752
bsg722
S'Cell[2].axon[104]'
p753
sI120
I90
tp754
a(F1.3696754060285603
S'Cell[1].dend[43] syn_ = new FastInhib(0.5)'
p755
I1
(dp756
g707
F0.30000000000000004
sg708
F24.0
sg709
I120
sg710
g7
(g8
(I0
tp757
g10
tp758
Rp759
(I1
(I3
tp760
g717
I00
S'T\xdb\x0c\x11A\x944\xc0\x0b2r+c\xa0Y\xc0x\xe5L\xfap\x1dC\xc0'
p761
tp762
bsg722
S'Cell[2].axon[146]'
p763
sI120
I90
tp764
a(F1.717262800505824
S'Cell[0].dend[0] syn_ = new ExpSid(0.214285714286)'
p765
I0
(dp766
S'seg'
p767
F0.7
sS'hostfrom'
p768
F25.0
sS'gid'
p769
I121
sS'coords'
p770
g7
(g8
(I0
tp771
g10
tp772
Rp773
(I1
(I3
tp774
g14
(S'f8'
p775
I0
I1
tp776
Rp777
(I3
S'<'
p778
NNNI-1
I-1
I0
tp779
bI00
S'\\\x05|\xaf^\xce?@\x15\x84/^\x9cHE@\x00\x00\x00`ff,\xc0'
p780
tp781
bsS'secnames'
p782
S'Cell[2].axon[189]'
p783
sI121
I42
tp784
a(F1.5802402587994397
S'Cell[3].dend[45] syn_ = new FastInhib(0.5)'
p785
I3
(dp786
g767
F0.5
sg768
F25.0
sg769
I121
sg770
g7
(g8
(I0
tp787
g10
tp788
Rp789
(I1
(I3
tp790
g777
I00
S"wT>E\xc8\xe0C\xc0lHS\xa6'[:@\xc3\xc8\xd1\x02\x03B+@"
p791
tp792
bsg782
S'Cell[2].axon[193]'
p793
sI121
I186
tp794
a(F1.6944563933399004
S'Cell[3].dend[2] syn_ = new FastInhib(0.5)'
p795
I3
(dp796
g767
F0.16666666666666666
sg768
F25.0
sg769
I121
sg770
g7
(g8
(I0
tp797
g10
tp798
Rp799
(I1
(I3
tp800
g777
I00
S'\x00\n\x8b\xfb\xff c\xc0\x04n\xe8\x15$$0\xc0.r\xa2M\xbdX3\xc0'
p801
tp802
bsg782
S'Cell[2].axon[336]'
p803
sI121
I186
tp804
a(F1.1776828517454039
S'Cell[1].dend[40] syn_ = new FastInhib(0.166666666667)'
p805
I1
(dp806
g767
F0.5
sg768
F25.0
sg769
I169
sg770
g7
(g8
(I0
tp807
g10
tp808
Rp809
(I1
(I3
tp810
g777
I00
S'\n\x0b\x88U\x07d/@Z\xe10\xfdw(W\xc0\xdd\xd9w\x94\xf8>(\xc0'
p811
tp812
bsg782
S'Cell[3].axon[210]'
p813
sI169
I90
tp814
a(F2.1791874582604804
S'Cell[2].dend[24] syn_ = new FastInhib(0.166666666667)'
p815
I2
(dp816
g767
F0.5
sg768
F25.0
sg769
I73
sg770
g7
(g8
(I0
tp817
g10
tp818
Rp819
(I1
(I3
tp820
g777
I00
S'\x96"\x1d\xe2l\x1b$@\x05\x8f.F\x87\xa6H\xc0\x00\x00\x00\xc0\xcc\x8c=@'
p821
tp822
bsg782
S'Cell[1].axon[8]'
p823
sI73
I138
tp824
a(F2.036547081172955
S'Cell[2].dend[22] syn_ = new FastInhib(0.166666666667)'
p825
I2
(dp826
S'seg'
p827
F0.5
sS'hostfrom'
p828
F26.0
sS'gid'
p829
I74
sS'coords'
p830
g7
(g8
(I0
tp831
g10
tp832
Rp833
(I1
(I3
tp834
g14
(S'f8'
p835
I0
I1
tp836
Rp837
(I3
S'<'
p838
NNNI-1
I-1
I0
tp839
bI00
S'\x11\xa7\xb7\xc2c\xc2?\xc0\xa7lR\xdfA\x9aI\xc0\xe5\x06\xef\xa0\xf2\x18 @'
p840
tp841
bsS'secnames'
p842
S'Cell[1].axon[2]'
p843
sI74
I138
tp844
a(F2.091720118433505
S'Cell[1].dend[21] syn_ = new FastInhib(0.166666666667)'
p845
I1
(dp846
S'seg'
p847
F0.5
sS'hostfrom'
p848
F27.0
sS'gid'
p849
I27
sS'coords'
p850
g7
(g8
(I0
tp851
g10
tp852
Rp853
(I1
(I3
tp854
g14
(S'f8'
p855
I0
I1
tp856
Rp857
(I3
S'<'
p858
NNNI-1
I-1
I0
tp859
bI00
S'\xfb\x17\x19M\xc4\x08.\xc0\xb1\xa6\xbe\xbd\xba\x89#@\xfd\xcb\xa6\x83\x19\x87\x0e\xc0'
p860
tp861
bsS'secnames'
p862
S'Cell[0].axon[0]'
p863
sI27
I90
tp864
a(F2.103719755922217
S'Cell[0].dend[2] syn_ = new ExpSid(0.5)'
p865
I0
(dp866
S'seg'
p867
F0.30000000000000004
sS'hostfrom'
p868
F29.0
sS'gid'
p869
I125
sS'coords'
p870
g7
(g8
(I0
tp871
g10
tp872
Rp873
(I1
(I3
tp874
g14
(S'f8'
p875
I0
I1
tp876
Rp877
(I3
S'<'
p878
NNNI-1
I-1
I0
tp879
bI00
S'\xea;6\xe2v\xa3F@\xa8_\xaa\xcf\xbf\x8b)\xc0\x00\x00\x00\xe0Q\xb8 \xc0'
p880
tp881
bsS'secnames'
p882
S'Cell[2].axon[173]'
p883
sI125
I42
tp884
a(F2.397077039575324
S'Cell[2].dend[22] syn_ = new FastInhib(0.166666666667)'
p885
I2
(dp886
S'seg'
p887
F0.8333333333333333
sS'hostfrom'
p888
F30.0
sS'gid'
p889
I126
sS'coords'
p890
g7
(g8
(I0
tp891
g10
tp892
Rp893
(I1
(I3
tp894
g14
(S'f8'
p895
I0
I1
tp896
Rp897
(I3
S'<'
p898
NNNI-1
I-1
I0
tp899
bI00
S'\xac\xdc\x05.t\xfe@\xc0\xee&z")\x12H\xc0\x120\x1b\xd2\xad\xec\x1d@'
p900
tp901
bsS'secnames'
p902
S'Cell[2].axon[36]'
p903
sI126
I138
tp904
a(F1.768482262297426
S'Cell[3].dend[4] syn_ = new FastInhib(0.5)'
p905
I3
(dp906
g887
F0.1
sg888
F30.0
sg889
I174
sg890
g7
(g8
(I0
tp907
g10
tp908
Rp909
(I1
(I3
tp910
g897
I00
S'\xf1\xc5\xd1G\x01\x8aH\xc0\x10\xcd\xaa\xe7f\xbe\xd2\xbf\xda\x17\xc0%\xab:/\xc0'
p911
tp912
bsg902
S'Cell[3].axon[148]'
p913
sI174
I186
tp914
a(F1.1972886563328273
S'Cell[3].dend[32] syn_ = new FastInhib(0.7)'
p915
I3
(dp916
g887
F0.5
sg888
F30.0
sg889
I174
sg890
g7
(g8
(I0
tp917
g10
tp918
Rp919
(I1
(I3
tp920
g897
I00
S'N\x14\xfag_+X\xc0D\x1d5X\xa8\xf5H\xc0\xfd\x0e\x01\x8c\xf7\xceL\xc0'
p921
tp922
bsg902
S'Cell[3].axon[311]'
p923
sI174
I186
tp924
a(F2.2353179867593105
S'Cell[1].dend[8] syn_ = new FastInhib(0.1)'
p925
I1
(dp926
g887
F0.5
sg888
F30.0
sg889
I174
sg890
g7
(g8
(I0
tp927
g10
tp928
Rp929
(I1
(I3
tp930
g897
I00
S'\x00\x00\x00\x10\xae\xe7=\xc0\x00\x00\x00\x00)\x9c%@\x00\x00\x00D\n\xd7\x1e\xc0'
p931
tp932
bsg902
S'Cell[3].axon[372]'
p933
sI174
I90
tp934
a(F1.3988737483664395
S'Cell[3].dend[3] syn_ = new FastInhib(0.5)'
p935
I3
(dp936
S'seg'
p937
F0.3571428571428571
sS'hostfrom'
p938
F31.0
sS'gid'
p939
I175
sS'coords'
p940
g7
(g8
(I0
tp941
g10
tp942
Rp943
(I1
(I3
tp944
g14
(S'f8'
p945
I0
I1
tp946
Rp947
(I3
S'<'
p948
NNNI-1
I-1
I0
tp949
bI00
S'\x15\xa4\xb42\xe4]N\xc0\x1c\x042\xe7\x9c\xeb\xe1\xbf\xd1\'\xe6sqR"\xc0'
p950
tp951
bsS'secnames'
p952
S'Cell[3].axon[1]'
p953
sI175
I186
tp954
a(F2.0111517131897236
S'Cell[1].dend[38] syn_ = new FastInhib(0.5)'
p955
I1
(dp956
S'seg'
p957
F0.5
sS'hostfrom'
p958
F32.0
sS'gid'
p959
I176
sS'coords'
p960
g7
(g8
(I0
tp961
g10
tp962
Rp963
(I1
(I3
tp964
g14
(S'f8'
p965
I0
I1
tp966
Rp967
(I3
S'<'
p968
NNNI-1
I-1
I0
tp969
bI00
S'l\xc0Eyi\x07\x1c@\xcf\x8c\xc0}4\x1b_\xc0\x00\x00\x00`\x8f\x826\xc0'
p970
tp971
bsS'secnames'
p972
S'Cell[3].axon[84]'
p973
sI176
I90
tp974
a(F2.017797704062521
S'Cell[0].dend[1] syn_ = new AmpaNmda(0.833333333333)'
p975
I0
(dp976
g957
F0.16666666666666666
sg958
F32.0
sg959
I176
sg960
g7
(g8
(I0
tp977
g10
tp978
Rp979
(I1
(I3
tp980
g967
I00
S'\xf7\xfb2\xd1_\xdf9@1\x01\x15\x02<0O\xc0\x00\x00\x00 \x85k,\xc0'
p981
tp982
bsg972
S'Cell[3].axon[130]'
p983
sI176
I42
tp984
a(F0.8880109233881885
S'Cell[0].dend[0] syn_ = new ExpSid(0.357142857143)'
p985
I0
(dp986
S'seg'
p987
F0.5
sS'hostfrom'
p988
F33.0
sS'gid'
p989
I129
sS'coords'
p990
g7
(g8
(I0
tp991
g10
tp992
Rp993
(I1
(I3
tp994
g14
(S'f8'
p995
I0
I1
tp996
Rp997
(I3
S'<'
p998
NNNI-1
I-1
I0
tp999
bI00
S'\x10\xe7\x9f735?@.\x00j\xa2p\x9eO@\x18\xb4\xd2\xd3\xbb\x18$\xc0'
p1000
tp1001
bsS'secnames'
p1002
S'Cell[2].axon[33]'
p1003
sI129
I42
tp1004
a(F2.4584762627771894
S'Cell[3].dend[19] syn_ = new FastInhib(0.166666666667)'
p1005
I3
(dp1006
g987
F0.8333333333333333
sg988
F33.0
sg989
I177
sg990
g7
(g8
(I0
tp1007
g10
tp1008
Rp1009
(I1
(I3
tp1010
g997
I00
S'\xa0<AX\xee\xc18\xc0e\xc8\xb1\xeb\x14^\xf9?Y\x8a\xd7(\xcfA\xf1\xbf'
p1011
tp1012
bsg1002
S'Cell[3].axon[46]'
p1013
sI177
I186
tp1014
a(F1.4894704405366714
S'Cell[1].dend[57] syn_ = new FastInhib(0.5)'
p1015
I1
(dp1016
g987
F0.5
sg988
F33.0
sg989
I81
sg990
g7
(g8
(I0
tp1017
g10
tp1018
Rp1019
(I1
(I3
tp1020
g997
I00
S'\xba\x16J\x0bFk#\xc0\xfclo\xcb\x82c^\xc0b;\xe9E\x84\x8f!\xc0'
p1021
tp1022
bsg1002
S'Cell[1].axon[7]'
p1023
sI81
I90
tp1024
a(F1.670975007399646
S'Cell[1].dend[23] syn_ = new FastInhib(0.1)'
p1025
I1
(dp1026
S'seg'
p1027
F0.1
sS'hostfrom'
p1028
F34.0
sS'gid'
p1029
I82
sS'coords'
p1030
g7
(g8
(I0
tp1031
g10
tp1032
Rp1033
(I1
(I3
tp1034
g14
(S'f8'
p1035
I0
I1
tp1036
Rp1037
(I3
S'<'
p1038
NNNI-1
I-1
I0
tp1039
bI00
S'\xa2\x931L\xec\xe3:\xc0\xf9m|\xcch0R@t\xea]\xff\xda\x8b\xf2?'
p1040
tp1041
bsS'secnames'
p1042
S'Cell[1].axon[198]'
p1043
sI82
I90
tp1044
a(F2.458448406423373
S'Cell[2].dend[15] syn_ = new FastInhib(0.833333333333)'
p1045
I2
(dp1046
S'seg'
p1047
F0.16666666666666666
sS'hostfrom'
p1048
F35.0
sS'gid'
p1049
I83
sS'coords'
p1050
g7
(g8
(I0
tp1051
g10
tp1052
Rp1053
(I1
(I3
tp1054
g14
(S'f8'
p1055
I0
I1
tp1056
Rp1057
(I3
S'<'
p1058
NNNI-1
I-1
I0
tp1059
bI00
S'\xe4\x04\xe1\xceI\xdbI@c\x1e\xf3#\x98\x88U\xc0\x02\xddE\xc6\xb5\x87+@'
p1060
tp1061
bsS'secnames'
p1062
S'Cell[1].axon[148]'
p1063
sI83
I138
tp1064
a(F2.3857760040497746
S'Cell[0].dend[0] syn_ = new ExpSid(0.357142857143)'
p1065
I0
(dp1066
g1047
F0.5
sg1048
F35.0
sg1049
I179
sg1050
g7
(g8
(I0
tp1067
g10
tp1068
Rp1069
(I1
(I3
tp1070
g1057
I00
S'\x8d`\x95\xd9\xa3Y?@|\\gI%\xe7O@\xbc$i|\x17\xbf\x1c\xc0'
p1071
tp1072
bsg1062
S'Cell[3].axon[13]'
p1073
sI179
I42
tp1074
a(F1.9240032884590723
S'Cell[1].dend[18] syn_ = new FastInhib(0.1)'
p1075
I1
(dp1076
S'seg'
p1077
F0.16666666666666666
sS'hostfrom'
p1078
F36.0
sS'gid'
p1079
I132
sS'coords'
p1080
g7
(g8
(I0
tp1081
g10
tp1082
Rp1083
(I1
(I3
tp1084
g14
(S'f8'
p1085
I0
I1
tp1086
Rp1087
(I3
S'<'
p1088
NNNI-1
I-1
I0
tp1089
bI00
S'\xd1\xbcMJ\x9c\xf7E\xc0\xd3^\xd5\xdf\xfe;\\@v\xa3\x0b\x95PM)@'
p1090
tp1091
bsS'secnames'
p1092
S'Cell[2].axon[72]'
p1093
sI132
I90
tp1094
a(F1.8406907422525356
S'Cell[1].dend[52] syn_ = new FastInhib(0.5)'
p1095
I1
(dp1096
g1077
F0.5
sg1078
F36.0
sg1079
I180
sg1080
g7
(g8
(I0
tp1097
g10
tp1098
Rp1099
(I1
(I3
tp1100
g1087
I00
S'\xd2\x9e\xf3\xd4Y\xbe\x11@S\x1f\x178\x97\xe1f\xc0\x00\x00\x00`\xb8\xde<@'
p1101
tp1102
bsg1092
S'Cell[3].axon[3]'
p1103
sI180
I90
tp1104
a(F1.7496828238115583
S'Cell[2].dend[17] syn_ = new FastInhib(0.833333333333)'
p1105
I2
(dp1106
g1077
F0.1
sg1078
F36.0
sg1079
I180
sg1080
g7
(g8
(I0
tp1107
g10
tp1108
Rp1109
(I1
(I3
tp1110
g1087
I00
S'\xb8\x96\x96\xee\xd7\x99C@d\xdc\xd7\xc4\xdfVH@\x00\x00\x00\xa0\x99\x19)@'
p1111
tp1112
bsg1092
S'Cell[3].axon[213]'
p1113
sI180
I138
tp1114
a(F2.434023545372897
S'Cell[3].apic[2] syn_ = new FastInhib(0.166666666667)'
p1115
I3
(dp1116
S'seg'
p1117
F0.5
sS'hostfrom'
p1118
F37.0
sS'gid'
p1119
I133
sS'coords'
p1120
g7
(g8
(I0
tp1121
g10
tp1122
Rp1123
(I1
(I3
tp1124
g14
(S'f8'
p1125
I0
I1
tp1126
Rp1127
(I3
S'<'
p1128
NNNI-1
I-1
I0
tp1129
bI00
S'\x08\xe5\xb2\x0e\xe5\x021\xc0\x1f\xcf[\x9d\xc3\xd4P@\xe7\x88\xa8h\x80z\x04@'
p1130
tp1131
bsS'secnames'
p1132
S'Cell[2].axon[73]'
p1133
sI133
I186
tp1134
a(F2.372402425272382
S'Cell[3].dend[14] syn_ = new FastInhib(0.5)'
p1135
I3
(dp1136
g1117
F0.5
sg1118
F37.0
sg1119
I133
sg1120
g7
(g8
(I0
tp1137
g10
tp1138
Rp1139
(I1
(I3
tp1140
g1127
I00
S'AyA\xd2\x84P0@t\x97_V\xa0\xcbM\xc0\xe8\x19\xd2\xe4U\xda\x11\xc0'
p1141
tp1142
bsg1132
S'Cell[2].axon[87]'
p1143
sI133
I186
tp1144
a(F2.4761217789983974
S'Cell[1].dend[40] syn_ = new FastInhib(0.833333333333)'
p1145
I1
(dp1146
S'seg'
p1147
F0.5
sS'hostfrom'
p1148
F38.0
sS'gid'
p1149
I86
sS'coords'
p1150
g7
(g8
(I0
tp1151
g10
tp1152
Rp1153
(I1
(I3
tp1154
g14
(S'f8'
p1155
I0
I1
tp1156
Rp1157
(I3
S'<'
p1158
NNNI-1
I-1
I0
tp1159
bI00
S"\xd4\xe5E\xbe\x11\x83E@\xacp#\xa8'\xce^\xc0\x93~\x0e4\xe8U\x10\xc0"
p1160
tp1161
bsS'secnames'
p1162
S'Cell[1].axon[99]'
p1163
sI86
I90
tp1164
a(F2.3113992012410542
S'Cell[2].dend[15] syn_ = new FastInhib(0.833333333333)'
p1165
I2
(dp1166
g1147
F0.5
sg1148
F38.0
sg1149
I38
sg1150
g7
(g8
(I0
tp1167
g10
tp1168
Rp1169
(I1
(I3
tp1170
g1157
I00
S'\xb8z\x02\xcc\xe9\\J@\x84\xc5hiG`U\xc0\xa4\xb6N\xd2\\\x13#@'
p1171
tp1172
bsg1162
S'Cell[0].axon[2]'
p1173
sI38
I138
tp1174
a(F1.723154008598956
S'Cell[1].dend[41] syn_ = new FastInhib(0.5)'
p1175
I1
(dp1176
g1147
F0.5
sg1148
F38.0
sg1149
I38
sg1150
g7
(g8
(I0
tp1177
g10
tp1178
Rp1179
(I1
(I3
tp1180
g1157
I00
S"\xd9\xf7c\xd4/\xb9,\xc0\xd4\x95\x9b!\xa0\x17L\xc0T\x10\x07h\xe9/'\xc0"
p1181
tp1182
bsg1162
S'Cell[0].axon[36]'
p1183
sI38
I90
tp1184
a(F2.1379399985122824
S'Cell[1].dend[30] syn_ = new FastInhib(0.3)'
p1185
I1
(dp1186
S'seg'
p1187
F0.5
sS'hostfrom'
p1188
F39.0
sS'gid'
p1189
I183
sS'coords'
p1190
g7
(g8
(I0
tp1191
g10
tp1192
Rp1193
(I1
(I3
tp1194
g14
(S'f8'
p1195
I0
I1
tp1196
Rp1197
(I3
S'<'
p1198
NNNI-1
I-1
I0
tp1199
bI00
S'$\xb20vmq>@\xac\xb2\xec&\x19^\xc8\xbf6\xb3\x0e\xc1\xb8\x161@'
p1200
tp1201
bsS'secnames'
p1202
S'Cell[3].axon[58]'
p1203
sI183
I90
tp1204
a(F1.0385967535139604
S'Cell[1].dend[8] syn_ = new FastInhib(0.5)'
p1205
I1
(dp1206
S'seg'
p1207
F0.16666666666666666
sS'hostfrom'
p1208
F40.0
sS'gid'
p1209
I88
sS'coords'
p1210
g7
(g8
(I0
tp1211
g10
tp1212
Rp1213
(I1
(I3
tp1214
g14
(S'f8'
p1215
I0
I1
tp1216
Rp1217
(I3
S'<'
p1218
NNNI-1
I-1
I0
tp1219
bI00
S'\xd0O"\x86\x90#H\xc0zO\x88\xc1\xa2\x9aI@\x82\x19\x04v\x19Z\x03\xc0'
p1220
tp1221
bsS'secnames'
p1222
S'Cell[1].axon[263]'
p1223
sI88
I90
tp1224
a(F1.7886872815845325
S'Cell[3].apic[7] syn_ = new FastInhib(0.166666666667)'
p1225
I3
(dp1226
g1207
F0.16666666666666666
sg1208
F40.0
sg1209
I88
sg1210
g7
(g8
(I0
tp1227
g10
tp1228
Rp1229
(I1
(I3
tp1230
g1217
I00
S'\x8a\x18\x13\x95\x14\x14A\xc0)~\x8e\x9a\x04aM@\x02e\x9b\xc3\xb9"\x00\xc0'
p1231
tp1232
bsg1222
S'Cell[1].axon[289]'
p1233
sI88
I186
tp1234
a(F2.3922145328980604
S'Cell[1].dend[21] syn_ = new FastInhib(0.5)'
p1235
I1
(dp1236
g1207
F0.16666666666666666
sg1208
F40.0
sg1209
I88
sg1210
g7
(g8
(I0
tp1237
g10
tp1238
Rp1239
(I1
(I3
tp1240
g1217
I00
S'\xe2\xa5\x92mD>0\xc0\xe6s\xab\xf4\x7f\xda=@\x00\x00\x00\x00)\\\xe7\xbf'
p1241
tp1242
bsg1222
S'Cell[1].axon[301]'
p1243
sI88
I90
tp1244
a(F1.875963272088215
S'Cell[3].dend[23] syn_ = new FastInhib(0.166666666667)'
p1245
I3
g1236
I88
I186
tp1246
a(F2.303165312869649
S'Cell[3].apic[8] syn_ = new FastInhib(0.833333333333)'
p1247
I3
(dp1248
g1207
F0.8999999999999999
sg1208
F40.0
sg1209
I88
sg1210
g7
(g8
(I0
tp1249
g10
tp1250
Rp1251
(I1
(I3
tp1252
g1217
I00
S'\x9d\x91\t\x81mi\xf5\xbf\xe7\xc2\x16q\x87\x1dH@f\xa49I:\x7f.@'
p1253
tp1254
bsg1222
S'Cell[1].axon[325]'
p1255
sI88
I186
tp1256
a(F1.5364338538639983
S'Cell[1].dend[9] syn_ = new FastInhib(0.5)'
p1257
I1
(dp1258
S'seg'
p1259
F0.16666666666666666
sS'hostfrom'
p1260
F41.0
sS'gid'
p1261
I185
sS'coords'
p1262
g7
(g8
(I0
tp1263
g10
tp1264
Rp1265
(I1
(I3
tp1266
g14
(S'f8'
p1267
I0
I1
tp1268
Rp1269
(I3
S'<'
p1270
NNNI-1
I-1
I0
tp1271
bI00
S'\xbf\x90\xc82\xc0U7\xc0\x8dR\x84\xd4\xe2h @\x8eZ\x93\xb6Y\x8b&\xc0'
p1272
tp1273
bsS'secnames'
p1274
S'Cell[3].axon[85]'
p1275
sI185
I90
tp1276
a(F0.6369185994603974
S'Cell[0].dend[12] syn_ = new ExpSid(0.5)'
p1277
I0
(dp1278
g1259
F0.8999999999999999
sg1260
F41.0
sg1261
I185
sg1262
g7
(g8
(I0
tp1279
g10
tp1280
Rp1281
(I1
(I3
tp1282
g1269
I00
S'.\xb7\xc3\xa3\xe2\x08L@\x19\xfc\xc0\xca\xbe\xadA\xc0X\xe6\x89J\xa3\xc5\xf6?'
p1283
tp1284
bsg1274
S'Cell[3].axon[283]'
p1285
sI185
I42
tp1286
a(F1.8529929587038232
S'Cell[2].dend[14] syn_ = new FastInhib(0.5)'
p1287
I2
(dp1288
g1259
F0.8999999999999999
sg1260
F41.0
sg1261
I89
sg1262
g7
(g8
(I0
tp1289
g10
tp1290
Rp1291
(I1
(I3
tp1292
g1269
I00
S'\xe9\x9c\xfd\x9b\xe4\xcd7@\xd8\x1b\xebv@\xf2^\xc0\xd6\xb5\x17\tK\x835@'
p1293
tp1294
bsg1274
S'Cell[1].axon[176]'
p1295
sI89
I138
tp1296
a(F2.0121589848433064
S'Cell[3].dend[47] syn_ = new FastInhib(0.5)'
p1297
I3
(dp1298
S'seg'
p1299
F0.1
sS'hostfrom'
p1300
F42.0
sS'gid'
p1301
I138
sS'coords'
p1302
g7
(g8
(I0
tp1303
g10
tp1304
Rp1305
(I1
(I3
tp1306
g14
(S'f8'
p1307
I0
I1
tp1308
Rp1309
(I3
S'<'
p1310
NNNI-1
I-1
I0
tp1311
bI00
S'\xb5\x97\x181\x0b\xdcF\xc0\x88\xac\xb8-\xe2\xc0,@\x1fH8LI\x891@'
p1312
tp1313
bsS'secnames'
p1314
S'Cell[2].axon[80]'
p1315
sI138
I186
tp1316
a(F2.105087484636429
S'Cell[0].dend[0] syn_ = new ExpSid(0.214285714286)'
p1317
I0
(dp1318
S'seg'
p1319
F0.8333333333333333
sS'hostfrom'
p1320
F43.0
sS'gid'
p1321
I91
sS'coords'
p1322
g7
(g8
(I0
tp1323
g10
tp1324
Rp1325
(I1
(I3
tp1326
g14
(S'f8'
p1327
I0
I1
tp1328
Rp1329
(I3
S'<'
p1330
NNNI-1
I-1
I0
tp1331
bI00
S'\xc2\xa4\r\xe9\x89P@@\xe3\xd0\xcb\xc0\xfc\x13D@E$\n\xaf\xb4x0\xc0'
p1332
tp1333
bsS'secnames'
p1334
S'Cell[1].axon[436]'
p1335
sI91
I42
tp1336
a(F1.3594122803606383
S'Cell[1].dend[59] syn_ = new FastInhib(0.214285714286)'
p1337
I1
(dp1338
S'seg'
p1339
F0.9285714285714284
sS'hostfrom'
p1340
F44.0
sS'gid'
p1341
I188
sS'coords'
p1342
g7
(g8
(I0
tp1343
g10
tp1344
Rp1345
(I1
(I3
tp1346
g14
(S'f8'
p1347
I0
I1
tp1348
Rp1349
(I3
S'<'
p1350
NNNI-1
I-1
I0
tp1351
bI00
S'\x91\xbb\xc8\xd0\xc6M1\xc0o\xd7{\x88\x8cxV\xc0m\x1e\xab^\xfa\x1e:@'
p1352
tp1353
bsS'secnames'
p1354
S'Cell[3].axon[21]'
p1355
sI188
I90
tp1356
a(F2.4972741669765766
S'Cell[1].dend[30] syn_ = new FastInhib(0.1)'
p1357
I1
(dp1358
g1339
F0.5
sg1340
F44.0
sg1341
I188
sg1342
g7
(g8
(I0
tp1359
g10
tp1360
Rp1361
(I1
(I3
tp1362
g1349
I00
S'`\xa1\xf2-8\xd8%@da\xa0\xdd\xbf\x8d\x07@\xdb\xca\xb9"\\\x06\x1b@'
p1363
tp1364
bsg1354
S'Cell[3].axon[57]'
p1365
sI188
I90
tp1366
a(F2.1071844105056656
S'Cell[1].dend[30] syn_ = new FastInhib(0.1)'
p1367
I1
(dp1368
g1339
F0.1
sg1340
F44.0
sg1341
I188
sg1342
g7
(g8
(I0
tp1369
g10
tp1370
Rp1371
(I1
(I3
tp1372
g1349
I00
S'>c\xcc\xf3\xb0J.@\x8a\x91\xdaPU\xf9\x0c@wL\xd0D%f\x1d@'
p1373
tp1374
bsg1354
S'Cell[3].axon[60]'
p1375
sI188
I90
tp1376
a(F2.4629592318181164
S'Cell[2].dend[16] syn_ = new FastInhib(0.5)'
p1377
I2
(dp1378
g1339
F0.1
sg1340
F44.0
sg1341
I188
sg1342
g7
(g8
(I0
tp1379
g10
tp1380
Rp1381
(I1
(I3
tp1382
g1349
I00
S'\xd6\xca\x7fp\xf0m(@ \x9e?l\xa8R @\xd8\x87\xba\x8c<\xcc\x05@'
p1383
tp1384
bsg1354
S'Cell[3].axon[66]'
p1385
sI188
I138
tp1386
a(F1.9578399320154283
S'Cell[3].dend[39] syn_ = new FastInhib(0.5)'
p1387
I3
(dp1388
g1339
F0.21428571428571427
sg1340
F44.0
sg1341
I188
sg1342
g7
(g8
(I0
tp1389
g10
tp1390
Rp1391
(I1
(I3
tp1392
g1349
I00
S'\xc6\x10q\xc9\xf3AH\xc0$\x1d=\x9a\xed\x85D@\xc1\x9fq\xf9\x96C\x19\xc0'
p1393
tp1394
bsg1354
S'Cell[3].axon[151]'
p1395
sI188
I186
tp1396
a(F1.8942120592936311
S'Cell[2].dend[22] syn_ = new FastInhib(0.833333333333)'
p1397
I2
(dp1398
S'seg'
p1399
F0.5
sS'hostfrom'
p1400
F45.0
sS'gid'
p1401
I141
sS'coords'
p1402
g7
(g8
(I0
tp1403
g10
tp1404
Rp1405
(I1
(I3
tp1406
g14
(S'f8'
p1407
I0
I1
tp1408
Rp1409
(I3
S'<'
p1410
NNNI-1
I-1
I0
tp1411
bI00
S'\xf2^\xcd%0\xc6L\xc0#\xc9\xce:\xa9FA\xc0\xb4\xaf\xed\x1f\xec\x07\xe4\xbf'
p1412
tp1413
bsS'secnames'
p1414
S'Cell[2].axon[26]'
p1415
sI141
I138
tp1416
a(F1.4197536769803143
S'Cell[3].dend[17] syn_ = new FastInhib(0.5)'
p1417
I3
(dp1418
g1399
F0.5
sg1400
F45.0
sg1401
I141
sg1402
g7
(g8
(I0
tp1419
g10
tp1420
Rp1421
(I1
(I3
tp1422
g1409
I00
S'y\x9f\xbdzVQ1@1\xa5\xf6B\x8a\x04V\xc0\x87\xaf\xe8\x04\xcf\x08\xf7\xbf'
p1423
tp1424
bsg1414
S'Cell[2].axon[209]'
p1425
sI141
I186
tp1426
a(F1.909199960799185
S'Cell[1].dend[32] syn_ = new FastInhib(0.3)'
p1427
I1
(dp1428
g1399
F0.5
sg1400
F45.0
sg1401
I189
sg1402
g7
(g8
(I0
tp1429
g10
tp1430
Rp1431
(I1
(I3
tp1432
g1409
I00
S'\x00\x00\x00\x80\xc2\xf5\x04@\x00\x00\x00\xa0\x99\xb9C\xc0\x00\x00\x00\xe0\xa3p&@'
p1433
tp1434
bsg1414
S'Cell[3].soma[0]'
p1435
sI189
I90
tp1436
a(F2.4586228444455105
S'Cell[3].dend[23] syn_ = new FastInhib(0.166666666667)'
p1437
I3
(dp1438
g1399
F0.2777777777777778
sg1400
F45.0
sg1401
I93
sg1402
g7
(g8
(I0
tp1439
g10
tp1440
Rp1441
(I1
(I3
tp1442
g1409
I00
S'\x8a\xaf\xb3\xbb\x05\xc0,\xc0q+T\xaa\t\xdc;@`\xee~\x00\x10\xda\t\xc0'
p1443
tp1444
bsg1414
S'Cell[1].axon[166]'
p1445
sI93
I186
tp1446
a(F1.792194068965668
S'Cell[1].dend[17] syn_ = new FastInhib(0.166666666667)'
p1447
I1
(dp1448
g1399
F0.16666666666666666
sg1400
F45.0
sg1401
I93
sg1402
g7
(g8
(I0
tp1449
g10
tp1450
Rp1451
(I1
(I3
tp1452
g1409
I00
S'\x80\xbf\x98.\x94\x1e?\xc0\xa2\x96\x99\xe7u\xd7B@\x00\x00\x00 \x85\xeb\x01\xc0'
p1453
tp1454
bsg1414
S'Cell[1].axon[178]'
p1455
sI93
I90
tp1456
a(F1.6492897973930833
S'Cell[3].dend[6] syn_ = new FastInhib(0.5)'
p1457
I3
(dp1458
g1399
F0.8333333333333333
sg1400
F45.0
sg1401
I93
sg1402
g7
(g8
(I0
tp1459
g10
tp1460
Rp1461
(I1
(I3
tp1462
g1409
I00
S'\x1cB\x08\x90\x0b\xbbP\xc0\x7f\xbf\xb4D\x1c\x10$\xc0\x8b\xfd\x19<\x18\xd4B\xc0'
p1463
tp1464
bsg1414
S'Cell[1].axon[208]'
p1465
sI93
I186
tp1466
a(F1.0296682046017362
S'Cell[3].dend[31] syn_ = new FastInhib(0.5)'
p1467
I3
(dp1468
S'seg'
p1469
F0.5
sS'hostfrom'
p1470
F46.0
sS'gid'
p1471
I94
sS'coords'
p1472
g7
(g8
(I0
tp1473
g10
tp1474
Rp1475
(I1
(I3
tp1476
g14
(S'f8'
p1477
I0
I1
tp1478
Rp1479
(I3
S'<'
p1480
NNNI-1
I-1
I0
tp1481
bI00
S'\x00\x00\x00\x80\xebQM\xc0\x00\x00\x00p=\n\x13@\x00\x00\x00P\xe1\xda=\xc0'
p1482
tp1483
bsS'secnames'
p1484
S'Cell[1].axon[337]'
p1485
sI94
I186
tp1486
a(F2.195891049700639
S'Cell[3].apic[7] syn_ = new FastInhib(0.166666666667)'
p1487
I3
(dp1488
g1469
F0.16666666666666666
sg1470
F46.0
sg1471
I94
sg1472
g7
(g8
(I0
tp1489
g10
tp1490
Rp1491
(I1
(I3
tp1492
g1479
I00
S'\xe2\xcea\xc8\x08\xce@\xc0c\xab\xd0e\xf8\xb7N@\xb9\xd9S\x08|n\x12\xc0'
p1493
tp1494
bsg1484
S'Cell[1].axon[358]'
p1495
sI94
I186
tp1496
a(F1.0983824801681137
S'Cell[3].dend[26] syn_ = new FastInhib(0.5)'
p1497
I3
(dp1498
S'seg'
p1499
F0.5
sS'hostfrom'
p1500
F47.0
sS'gid'
p1501
I143
sS'coords'
p1502
g7
(g8
(I0
tp1503
g10
tp1504
Rp1505
(I1
(I3
tp1506
g14
(S'f8'
p1507
I0
I1
tp1508
Rp1509
(I3
S'<'
p1510
NNNI-1
I-1
I0
tp1511
bI00
S'1\xb8\xde\x82\x9d\xa4F\xc0{\xb1\x15\x05\x9cD<@)$\xbb\x9bW\x03-\xc0'
p1512
tp1513
bsS'secnames'
p1514
S'Cell[2].axon[141]'
p1515
sI143
I186
tp1516
a.