(lp0
(F2.463160215380267
S'Cell[2].dend[11] syn_ = new FastInhib(0.0714285714286)'
p1
I2
(dp2
S'seg'
p3
F0.5
sS'hostfrom'
p4
F2.0
sS'gid'
p5
I98
sS'coords'
p6
cnumpy.core.multiarray
_reconstruct
p7
(cnumpy
ndarray
p8
(I0
tp9
S'b'
p10
tp11
Rp12
(I1
(I3
tp13
cnumpy
dtype
p14
(S'f8'
p15
I0
I1
tp16
Rp17
(I3
S'<'
p18
NNNI-1
I-1
I0
tp19
bI00
S'\xdd\xdcw\xebA\x04P\xc0X\x96\xedzt\xfb\\@\xc4z\x91\xb8\xa4\x037\xc0'
p20
tp21
bsS'secnames'
p22
S'Cell[2].axon[40]'
p23
sI98
I143
tp24
a(F1.151532587325595
S'Cell[0].dend[4] syn_ = new AmpaNmda(0.833333333333)'
p25
I0
(dp26
g3
F0.16666666666666666
sg4
F2.0
sg5
I146
sg6
g7
(g8
(I0
tp27
g10
tp28
Rp29
(I1
(I3
tp30
g17
I00
S'\x06\xddg\xff~[S\xc0\xe8g&\xd5,\x99\x07\xc0\x92b\xfe\xb1\xbb!.\xc0'
p31
tp32
bsg22
S'Cell[3].axon[275]'
p33
sI146
I47
tp34
a(F2.463160215380267
S'Cell[2].dend[11] syn_ = new FastInhib(0.0714285714286)'
p35
I2
(dp36
S'seg'
p37
F0.5
sS'hostfrom'
p38
F3.0
sS'gid'
p39
I99
sS'coords'
p40
g7
(g8
(I0
tp41
g10
tp42
Rp43
(I1
(I3
tp44
g14
(S'f8'
p45
I0
I1
tp46
Rp47
(I3
S'<'
p48
NNNI-1
I-1
I0
tp49
bI00
S'\xdd\xdcw\xebA\x04P\xc0X\x96\xedzt\xfb\\@\xc4z\x91\xb8\xa4\x037\xc0'
p50
tp51
bsS'secnames'
p52
S'Cell[2].axon[40]'
p53
sI99
I143
tp54
a(F1.6022261453246105
S'Cell[2].dend[26] syn_ = new FastInhib(0.3)'
p55
I2
(dp56
g37
F0.5
sg38
F3.0
sg39
I147
sg40
g7
(g8
(I0
tp57
g10
tp58
Rp59
(I1
(I3
tp60
g47
I00
S'\xde\xf3@LK\xe5\x1a@\x85\xacP\x8dn\xe5D@?\x1c\xbdU\x08\xf7\xf5?'
p61
tp62
bsg52
S'Cell[3].axon[1]'
p63
sI147
I143
tp64
a(F1.8566830279778366
S'Cell[1].dend[27] syn_ = new FastInhib(0.7)'
p65
I1
(dp66
g37
F0.8999999999999999
sg38
F3.0
sg39
I147
sg40
g7
(g8
(I0
tp67
g10
tp68
Rp69
(I1
(I3
tp70
g47
I00
S'\xad\xbf\xbe_\x8f=8\xc0\x98\xd2\x04\n&\xd3\xd9?\xaa}\xc2\x99\x9br+@'
p71
tp72
bsg52
S'Cell[3].axon[6]'
p73
sI147
I95
tp74
a(F2.4652944422961136
S'Cell[1].dend[26] syn_ = new FastInhib(0.5)'
p75
I1
(dp76
S'seg'
p77
F0.21428571428571427
sS'hostfrom'
p78
F4.0
sS'gid'
p79
I4
sS'coords'
p80
g7
(g8
(I0
tp81
g10
tp82
Rp83
(I1
(I3
tp84
g14
(S'f8'
p85
I0
I1
tp86
Rp87
(I3
S'<'
p88
NNNI-1
I-1
I0
tp89
bI00
S'\xb6\x9a\xd3\x15\xf4\x1bA@\x1c\xd8\x07l\x02@\x12\xc0BL\xc9\xa2\xe9\xdb\x14\xc0'
p90
tp91
bsS'secnames'
p92
S'Cell[0].axon[25]'
p93
sI4
I95
tp94
a(F1.621625766712508
S'Cell[0].dend[2] syn_ = new AmpaNmda(0.166666666667)'
p95
I0
(dp96
g77
F0.5
sg78
F4.0
sg79
I100
sg80
g7
(g8
(I0
tp97
g10
tp98
Rp99
(I1
(I3
tp100
g87
I00
S'7\xc2n\xda\xab\x0cM\xc0l\xbc\xa0\xf2\xd7\xe5D\xc0\x82G\xa1\xcc\x0el\xf6\xbf'
p101
tp102
bsg92
S'Cell[2].axon[69]'
p103
sI100
I47
tp104
a(F2.3906316318719045
S'Cell[2].dend[8] syn_ = new FastInhib(0.1)'
p105
I2
(dp106
S'seg'
p107
F0.5
sS'hostfrom'
p108
F5.0
sS'gid'
p109
I5
sS'coords'
p110
g7
(g8
(I0
tp111
g10
tp112
Rp113
(I1
(I3
tp114
g14
(S'f8'
p115
I0
I1
tp116
Rp117
(I3
S'<'
p118
NNNI-1
I-1
I0
tp119
bI00
S'\x00\x00\x00\xe0\xf5\x18E\xc0\x00\x00\x00\x00\x00x`@\x00\x00\x00@\xe1z#\xc0'
p120
tp121
bsS'secnames'
p122
S'Cell[0].axon[23]'
p123
sI5
I143
tp124
a(F1.4931493755887557
S'Cell[0].dend[27] syn_ = new AmpaNmda(0.5)'
p125
I0
(dp126
S'seg'
p127
F0.5
sS'hostfrom'
p128
F6.0
sS'gid'
p129
I102
sS'coords'
p130
g7
(g8
(I0
tp131
g10
tp132
Rp133
(I1
(I3
tp134
g14
(S'f8'
p135
I0
I1
tp136
Rp137
(I3
S'<'
p138
NNNI-1
I-1
I0
tp139
bI00
S'\xbe\xda\xd5\xe5\xfb\x1eA\xc0\xd8\xbd\xdfv\xea\x1aS\xc0\x00\x00\x00\x00)\\-\xc0'
p140
tp141
bsS'secnames'
p142
S'Cell[2].axon[38]'
p143
sI102
I47
tp144
a(F1.9559559482108881
S'Cell[2].dend[31] syn_ = new FastInhib(0.833333333333)'
p145
I2
(dp146
g127
F0.5
sg128
F6.0
sg129
I150
sg130
g7
(g8
(I0
tp147
g10
tp148
Rp149
(I1
(I3
tp150
g137
I00
S'\xdd\xde\xe6\xe0\xff\xe0S\xc0\xe9\xbe\x00\xb70/\xf4?\x00\x00\x00\x80\x14\xee>\xc0'
p151
tp152
bsg142
S'Cell[3].axon[79]'
p153
sI150
I143
tp154
a(F2.1517128048326666
S'Cell[2].dend[27] syn_ = new FastInhib(0.833333333333)'
p155
I2
(dp156
g127
F0.8333333333333333
sg128
F6.0
sg129
I150
sg130
g7
(g8
(I0
tp157
g10
tp158
Rp159
(I1
(I3
tp160
g137
I00
S'\xed~^d\xee5?@=\xe1\x1d\xb6\xde\xfe:@\x00\x00\x00\x80\x14\xee>\xc0'
p161
tp162
bsg142
S'Cell[3].axon[93]'
p163
sI150
I143
tp164
a(F1.594766606838951
S'Cell[1].dend[13] syn_ = new FastInhib(0.833333333333)'
p165
I1
(dp166
g127
F0.16666666666666666
sg128
F6.0
sg129
I150
sg130
g7
(g8
(I0
tp167
g10
tp168
Rp169
(I1
(I3
tp170
g137
I00
S'\x89\xa7\xbfj|(N@\\c\x13\xed\xf6[;@\x00\x00\x00\x80\x14\xee>\xc0'
p171
tp172
bsg142
S'Cell[3].axon[153]'
p173
sI150
I95
tp174
a(F2.0882219050114066
S'Cell[1].dend[14] syn_ = new FastInhib(0.166666666667)'
p175
I1
g166
I150
I95
tp176
a(F2.3120857086348856
S'Cell[2].dend[28] syn_ = new FastInhib(0.5)'
p177
I2
(dp178
S'seg'
p179
F0.5
sS'hostfrom'
p180
F7.0
sS'gid'
p181
I103
sS'coords'
p182
g7
(g8
(I0
tp183
g10
tp184
Rp185
(I1
(I3
tp186
g14
(S'f8'
p187
I0
I1
tp188
Rp189
(I3
S'<'
p190
NNNI-1
I-1
I0
tp191
bI00
S'\xad\xfd\xead\xde\xd1J\xc01\x86\x9a\x19\x13fT@\x00\x00\x00`\x8f\xc2*\xc0'
p192
tp193
bsS'secnames'
p194
S'Cell[2].axon[180]'
p195
sI103
I143
tp196
a(F1.578040491587165
S'Cell[2].dend[2] syn_ = new FastInhib(0.5)'
p197
I2
(dp198
g179
F0.21428571428571427
sg180
F7.0
sg181
I103
sg182
g7
(g8
(I0
tp199
g10
tp200
Rp201
(I1
(I3
tp202
g189
I00
S"r\x99\xa1\x1c'\x95+\xc0o\r\xcc\x90I\x8cT@\x00\x00\x00 \\\x8f$\xc0"
p203
tp204
bsg194
S'Cell[2].axon[439]'
p205
sI103
I143
tp206
a(F1.8897809644436836
S'Cell[1].dend[38] syn_ = new FastInhib(0.166666666667)'
p207
I1
(dp208
g179
F0.16666666666666666
sg180
F7.0
sg181
I151
sg182
g7
(g8
(I0
tp209
g10
tp210
Rp211
(I1
(I3
tp212
g189
I00
S"zEt(\x85\x0f4@'\x99\xd0\xeb\x16\xf81\xc0+P\x97zw29\xc0"
p213
tp214
bsg194
S'Cell[3].axon[61]'
p215
sI151
I95
tp216
a(F2.1040914642276656
S'Cell[2].dend[32] syn_ = new FastInhib(0.5)'
p217
I2
(dp218
g179
F0.5
sg180
F7.0
sg181
I151
sg182
g7
(g8
(I0
tp219
g10
tp220
Rp221
(I1
(I3
tp222
g189
I00
S'\x89\xd838\x9dsQ\xc0C\x00\xfd@M\xadK@d\xbf!\xb8\xdd\x11+\xc0'
p223
tp224
bsg194
S'Cell[3].axon[142]'
p225
sI151
I143
tp226
a(F0.8171450582702382
S'Cell[1].dend[44] syn_ = new FastInhib(0.166666666667)'
p227
I1
(dp228
g179
F0.16666666666666666
sg180
F7.0
sg181
I151
sg182
g7
(g8
(I0
tp229
g10
tp230
Rp231
(I1
(I3
tp232
g189
I00
S'ZP\xfd\xea<\xab<@\xd7\x07d\x9cQ\x01T\xc0JC\x80.\xb2J4\xc0'
p233
tp234
bsg194
S'Cell[3].axon[183]'
p235
sI151
I95
tp236
a(F2.432161828714464
S'Cell[0].apic[23] syn_ = new AmpaNmda(0.166666666667)'
p237
I0
(dp238
S'seg'
p239
F0.5
sS'hostfrom'
p240
F8.0
sS'gid'
p241
I152
sS'coords'
p242
g7
(g8
(I0
tp243
g10
tp244
Rp245
(I1
(I3
tp246
g14
(S'f8'
p247
I0
I1
tp248
Rp249
(I3
S'<'
p250
NNNI-1
I-1
I0
tp251
bI00
S"]\x0e.\x04E\xdd'\xc0!\xd3$9\x15\x02b@\x00\x00\x00\xa0Ga;@"
p252
tp253
bsS'secnames'
p254
S'Cell[3].axon[481]'
p255
sI152
I47
tp256
a(F2.409462486967817
S'Cell[0].dend[24] syn_ = new AmpaNmda(0.166666666667)'
p257
I0
(dp258
g239
F0.5
sg240
F8.0
sg241
I104
sg242
g7
(g8
(I0
tp259
g10
tp260
Rp261
(I1
(I3
tp262
g249
I00
S'\xfa4\x80\x8frS/\xc0\xecls5\x90?8\xc0\x00\x00\x00`ff\xf2?'
p263
tp264
bsg254
S'Cell[2].axon[336]'
p265
sI104
I47
tp266
a(F0.6295750425895786
S'Cell[0].dend[34] syn_ = new AmpaNmda(0.166666666667)'
p267
I0
(dp268
g239
F0.5
sg240
F8.0
sg241
I104
sg242
g7
(g8
(I0
tp269
g10
tp270
Rp271
(I1
(I3
tp272
g249
I00
S'\xa0\xf6\xb7\xd2b\x814\xc0\xbb\x89\xe5#_\xc2\x15@uJ<\xa1\xc0\x89\t\xc0'
p273
tp274
bsg254
S'Cell[2].axon[338]'
p275
sI104
I47
tp276
a(F1.8041361331213581
S'Cell[1].dend[58] syn_ = new FastInhib(0.166666666667)'
p277
I1
(dp278
S'seg'
p279
F0.5
sS'hostfrom'
p280
F9.0
sS'gid'
p281
I105
sS'coords'
p282
g7
(g8
(I0
tp283
g10
tp284
Rp285
(I1
(I3
tp286
g14
(S'f8'
p287
I0
I1
tp288
Rp289
(I3
S'<'
p290
NNNI-1
I-1
I0
tp291
bI00
S'!\xa3\\\x11\x18\xb2J@\xec\x9f\xb9/Z\xc4\\\xc0\x1e\x98f\xc8\x07\xe1N\xc0'
p292
tp293
bsS'secnames'
p294
S'Cell[2].axon[111]'
p295
sI105
I95
tp296
a(F1.0387302936735212
S'Cell[0].apic[18] syn_ = new AmpaNmda(0.5)'
p297
I0
(dp298
S'seg'
p299
F0.8333333333333333
sS'hostfrom'
p300
F10.0
sS'gid'
p301
I10
sS'coords'
p302
g7
(g8
(I0
tp303
g10
tp304
Rp305
(I1
(I3
tp306
g14
(S'f8'
p307
I0
I1
tp308
Rp309
(I3
S'<'
p310
NNNI-1
I-1
I0
tp311
bI00
S'\x92\xeebWq\xe47@\x19w5\xf6\xcaln@\x00\x00\x00\x80\x14.4@'
p312
tp313
bsS'secnames'
p314
S'Cell[0].axon[27]'
p315
sI10
I47
tp316
a(F2.413080284519504
S'Cell[1].dend[9] syn_ = new FastInhib(0.5)'
p317
I1
(dp318
g299
F0.8999999999999999
sg300
F10.0
sg301
I106
sg302
g7
(g8
(I0
tp319
g10
tp320
Rp321
(I1
(I3
tp322
g309
I00
S'#\xd3\xa3D\xe5\xccP@\x01\xfe\xe8\xa4[\x88$@\x94\xd0\x06\x15O\x1aE\xc0'
p323
tp324
bsg314
S'Cell[2].axon[27]'
p325
sI106
I95
tp326
a(F2.3321038975380213
S'Cell[0].dend[12] syn_ = new AmpaNmda(0.5)'
p327
I0
(dp328
g299
F0.8333333333333333
sg300
F10.0
sg301
I106
sg302
g7
(g8
(I0
tp329
g10
tp330
Rp331
(I1
(I3
tp332
g309
I00
S'R\xe9{\xa3\xfa!K\xc0\x90\x17is\x8e:4\xc0\xdb\xf3\\T=A.@'
p333
tp334
bsg314
S'Cell[2].axon[174]'
p335
sI106
I47
tp336
a(F2.312557134519319
S'Cell[0].dend[4] syn_ = new AmpaNmda(0.166666666667)'
p337
I0
(dp338
g299
F0.8333333333333333
sg300
F10.0
sg301
I106
sg302
g7
(g8
(I0
tp339
g10
tp340
Rp341
(I1
(I3
tp342
g309
I00
S'\xee\xc1\xbb\xe9\x7f\xf9I\xc0L\x15u\x93tO\x15\xc0\xc2\xbed\x8eI\xb4\x12\xc0'
p343
tp344
bsg314
S'Cell[2].axon[177]'
p345
sI106
I47
tp346
a(F2.1306958904620696
S'Cell[1].dend[16] syn_ = new FastInhib(0.833333333333)'
p347
I1
(dp348
g299
F0.5
sg300
F10.0
sg301
I106
sg302
g7
(g8
(I0
tp349
g10
tp350
Rp351
(I1
(I3
tp352
g309
I00
S'\xf5\xc9\x1fv\xf935@ \\o\x00\x0fjR@\x00\x00\x00\x00)\\+\xc0'
p353
tp354
bsg314
S'Cell[2].axon[237]'
p355
sI106
I95
tp356
a(F2.266153833479197
S'Cell[1].dend[38] syn_ = new FastInhib(0.5)'
p357
I1
(dp358
g299
F0.5
sg300
F10.0
sg301
I106
sg302
g7
(g8
(I0
tp359
g10
tp360
Rp361
(I1
(I3
tp362
g309
I00
S'r\xb5\xfb\x98\x9c\x83\x17@\xec\x0f\nX\xafA2\xc0\x00\x00\x00\xc0\x1e\xc5=\xc0'
p363
tp364
bsg314
S'Cell[2].axon[279]'
p365
sI106
I95
tp366
a(F2.361341406221082
S'Cell[2].dend[6] syn_ = new FastInhib(0.5)'
p367
I2
(dp368
S'seg'
p369
F0.8333333333333333
sS'hostfrom'
p370
F11.0
sS'gid'
p371
I155
sS'coords'
p372
g7
(g8
(I0
tp373
g10
tp374
Rp375
(I1
(I3
tp376
g14
(S'f8'
p377
I0
I1
tp378
Rp379
(I3
S'<'
p380
NNNI-1
I-1
I0
tp381
bI00
S'\xff\xff\xff_\x8f\xc2C\xc0\xd3k6&\x94\xa0\\@g_\xf8\xc0\x81\xe2\x0e\xc0'
p382
tp383
bsS'secnames'
p384
S'Cell[3].axon[65]'
p385
sI155
I143
tp386
a(F2.485563598176056
S'Cell[0].dend[20] syn_ = new AmpaNmda(0.5)'
p387
I0
(dp388
S'seg'
p389
F0.8333333333333333
sS'hostfrom'
p390
F12.0
sS'gid'
p391
I60
sS'coords'
p392
g7
(g8
(I0
tp393
g10
tp394
Rp395
(I1
(I3
tp396
g14
(S'f8'
p397
I0
I1
tp398
Rp399
(I3
S'<'
p400
NNNI-1
I-1
I0
tp401
bI00
S'\xd6\xde\xbb\xffU6=@\xa2\\\xd5\x16\x05(R\xc0\xd8\x8c\xdehJ\x99\x1d@'
p402
tp403
bsS'secnames'
p404
S'Cell[1].axon[1]'
p405
sI60
I47
tp406
a(F1.3425660627437541
S'Cell[2].dend[33] syn_ = new FastInhib(0.5)'
p407
I2
(dp408
g389
F0.5
sg390
F12.0
sg391
I108
sg392
g7
(g8
(I0
tp409
g10
tp410
Rp411
(I1
(I3
tp412
g399
I00
S'\xc7\xb5\x8d\xde|\x0eT\xc0\xb5H\xbb\x19\xe4+;@\x00\x00\x00 \xaeG\x10@'
p413
tp414
bsg404
S'Cell[2].axon[317]'
p415
sI108
I143
tp416
a(F2.1896580945522435
S'Cell[1].dend[1] syn_ = new FastInhib(0.7)'
p417
I1
(dp418
S'seg'
p419
F0.8999999999999999
sS'hostfrom'
p420
F15.0
sS'gid'
p421
I111
sS'coords'
p422
g7
(g8
(I0
tp423
g10
tp424
Rp425
(I1
(I3
tp426
g14
(S'f8'
p427
I0
I1
tp428
Rp429
(I3
S'<'
p430
NNNI-1
I-1
I0
tp431
bI00
S"g) \xeb{=A@\x00\x00\x00@3sA@\xc2IY'epV\xc0"
p432
tp433
bsS'secnames'
p434
S'Cell[2].axon[284]'
p435
sI111
I95
tp436
a(F1.9403762546334715
S'Cell[1].dend[52] syn_ = new FastInhib(0.1)'
p437
I1
(dp438
g419
F0.8333333333333333
sg420
F15.0
sg421
I111
sg422
g7
(g8
(I0
tp439
g10
tp440
Rp441
(I1
(I3
tp442
g429
I00
S';^\xcc\xb7\xdb\xb6D@\x85\x94\n1\xdd\x142\xc0Y\xf4(\xf2x\x0b>\xc0'
p443
tp444
bsg434
S'Cell[2].axon[378]'
p445
sI111
I95
tp446
a(F2.3527802140302185
S'Cell[1].dend[27] syn_ = new FastInhib(0.9)'
p447
I1
(dp448
g419
F0.16666666666666666
sg420
F15.0
sg421
I159
sg422
g7
(g8
(I0
tp449
g10
tp450
Rp451
(I1
(I3
tp452
g429
I00
S".\xf8\x1f\r\x9f\x9a?\xc0\x9b\xeec\x13\xd1\x8b0\xc0\xf0J\x1f\xe8'\x010@"
p453
tp454
bsg434
S'Cell[3].axon[334]'
p455
sI159
I95
tp456
a(F2.4122099139219135
S'Cell[2].dend[8] syn_ = new FastInhib(0.5)'
p457
I2
(dp458
g419
F0.5
sg420
F15.0
sg421
I159
sg422
g7
(g8
(I0
tp459
g10
tp460
Rp461
(I1
(I3
tp462
g429
I00
S'S2\xc3K\xfb\xfeD\xc0M\xcc;\x00\x12\x88f@\x00\x00\x00\x80=\xca4\xc0'
p463
tp464
bsg434
S'Cell[3].axon[361]'
p465
sI159
I143
tp466
a(F1.778212598906883
S'Cell[1].dend[49] syn_ = new FastInhib(0.5)'
p467
I1
(dp468
S'seg'
p469
F0.16666666666666666
sS'hostfrom'
p470
F17.0
sS'gid'
p471
I113
sS'coords'
p472
g7
(g8
(I0
tp473
g10
tp474
Rp475
(I1
(I3
tp476
g14
(S'f8'
p477
I0
I1
tp478
Rp479
(I3
S'<'
p480
NNNI-1
I-1
I0
tp481
bI00
S'\x04y\xfezEyD@\xf8[t\xc2<\xf3T\xc0\x08\xf4X\x0e\x92G\xa0\xbf'
p482
tp483
bsS'secnames'
p484
S'Cell[2].axon[123]'
p485
sI113
I95
tp486
a(F1.288525198042652
S'Cell[1].dend[47] syn_ = new FastInhib(0.9)'
p487
I1
(dp488
g469
F0.5
sg470
F17.0
sg471
I113
sg472
g7
(g8
(I0
tp489
g10
tp490
Rp491
(I1
(I3
tp492
g479
I00
S'\x00\x00\x00\x00\x00`C@\x00\x00\x00\xc0\xf5\xbcd\xc0\x00\x00\x00\xa0\x99Y$@'
p493
tp494
bsg484
S'Cell[2].axon[406]'
p495
sI113
I95
tp496
a(F2.020756223056226
S'Cell[1].dend[47] syn_ = new FastInhib(0.9)'
p497
I1
(dp498
g469
F0.5
sg470
F17.0
sg471
I113
sg472
g7
(g8
(I0
tp499
g10
tp500
Rp501
(I1
(I3
tp502
g479
I00
S"\x00\x00\x00\xf0QHC@\x00\x00\x00`\x8fzd\xc0\x00\x00\x00\xb0Ga'@"
p503
tp504
bsg484
S'Cell[2].axon[408]'
p505
sI113
I95
tp506
a(F2.4344466587130853
S'Cell[0].apic[23] syn_ = new ExpSid(0.166666666667)'
p507
I0
(dp508
g469
F0.16666666666666666
sg470
F17.0
sg471
I161
sg472
g7
(g8
(I0
tp509
g10
tp510
Rp511
(I1
(I3
tp512
g479
I00
S'\x83+K\x01\x17\x13.\xc0n\x1f5.\xd47b@\xbcU\x9e_\xd3\x928@'
p513
tp514
bsg484
S'Cell[3].axon[201]'
p515
sI161
I47
tp516
a(F1.0535103396008392
S'Cell[1].dend[15] syn_ = new FastInhib(0.166666666667)'
p517
I1
(dp518
g469
F0.16666666666666666
sg470
F17.0
sg471
I161
sg472
g7
(g8
(I0
tp519
g10
tp520
Rp521
(I1
(I3
tp522
g479
I00
S'e\xac\xfa\xc6\xb9oN@o\xdf-\xc7L\xe2B@\n\xa3L\x92\x81XC\xc0'
p523
tp524
bsg484
S'Cell[3].axon[298]'
p525
sI161
I95
tp526
a(F2.2653735866443623
S'Cell[1].dend[29] syn_ = new FastInhib(0.5)'
p527
I1
(dp528
S'seg'
p529
F0.5
sS'hostfrom'
p530
F18.0
sS'gid'
p531
I114
sS'coords'
p532
g7
(g8
(I0
tp533
g10
tp534
Rp535
(I1
(I3
tp536
g14
(S'f8'
p537
I0
I1
tp538
Rp539
(I3
S'<'
p540
NNNI-1
I-1
I0
tp541
bI00
S'.\x1c\xc0\xf3p\xaf2\xc0:\xd6\xf0\xf5\xf0\\D\xc0\x00\x00\x00\xa0p=\xfe\xbf'
p542
tp543
bsS'secnames'
p544
S'Cell[2].axon[77]'
p545
sI114
I95
tp546
a(F2.4132091130034956
S'Cell[0].dend[20] syn_ = new AmpaNmda(0.1)'
p547
I0
(dp548
g529
F0.5
sg530
F18.0
sg531
I114
sg532
g7
(g8
(I0
tp549
g10
tp550
Rp551
(I1
(I3
tp552
g539
I00
S'\xc7k\xb9\xf7\xc6v\n\xc0e\xa7\x1e\x95\x81?E\xc0\xfa\xb05\xd3\xf8\x0b\x18@'
p553
tp554
bsg544
S'Cell[2].axon[82]'
p555
sI114
I47
tp556
a(F1.8413514756829723
S'Cell[0].dend[29] syn_ = new AmpaNmda(0.5)'
p557
I0
(dp558
g529
F0.16666666666666666
sg530
F18.0
sg531
I114
sg532
g7
(g8
(I0
tp559
g10
tp560
Rp561
(I1
(I3
tp562
g539
I00
S'\xa1\xcd\xb0]f\xc3I@)[ \x10\x08\x14D\xc0\x00\x00\x00\x00\x00\x80!\xc0'
p563
tp564
bsg544
S'Cell[2].axon[176]'
p565
sI114
I47
tp566
a(F2.3619609702984454
S'Cell[1].dend[27] syn_ = new FastInhib(0.1)'
p567
I1
(dp568
g529
F0.1
sg530
F18.0
sg531
I162
sg532
g7
(g8
(I0
tp569
g10
tp570
Rp571
(I1
(I3
tp572
g539
I00
S'&\xcb\xd4\x9e\x8f35@\xad\x90]\xa1\x90\xa6\x03\xc0\xbe\x89\xe4\x9bzK\x17\xc0'
p573
tp574
bsg544
S'Cell[3].axon[92]'
p575
sI162
I95
tp576
a(F1.9157871322138882
S'Cell[2].dend[29] syn_ = new FastInhib(0.5)'
p577
I2
(dp578
g529
F0.1
sg530
F18.0
sg531
I162
sg532
g7
(g8
(I0
tp579
g10
tp580
Rp581
(I1
(I3
tp582
g539
I00
S'\xdb\xfd~\x8blOX\xc0\x98\xcf\xf5w\x91\x91@@ks|\xd1\xc0*@\xc0'
p583
tp584
bsg544
S'Cell[3].axon[101]'
p585
sI162
I143
tp586
a(F1.4120300524184095
S'Cell[2].dend[8] syn_ = new FastInhib(0.1)'
p587
I2
(dp588
S'seg'
p589
F0.5
sS'hostfrom'
p590
F19.0
sS'gid'
p591
I115
sS'coords'
p592
g7
(g8
(I0
tp593
g10
tp594
Rp595
(I1
(I3
tp596
g14
(S'f8'
p597
I0
I1
tp598
Rp599
(I3
S'<'
p600
NNNI-1
I-1
I0
tp601
bI00
S'\xd1\x1b\xa3P\x91\x8dD\xc0[5\xde\xc1G\xb8`@\xb5\x1fk\xc79$!\xc0'
p602
tp603
bsS'secnames'
p604
S'Cell[2].axon[227]'
p605
sI115
I143
tp606
a(F1.8918451639271734
S'Cell[0].apic[1] syn_ = new ExpSid(0.833333333333)'
p607
I0
(dp608
g589
F0.8636363636363638
sg590
F19.0
sg591
I67
sg592
g7
(g8
(I0
tp609
g10
tp610
Rp611
(I1
(I3
tp612
g599
I00
S'\x12m)\x9an\xff6\xc0!\x8dc\x84AJ_@\xbe\xc0\xe6\xf9DA0@'
p613
tp614
bsg604
S'Cell[1].axon[8]'
p615
sI67
I47
tp616
a(F2.477285666888496
S'Cell[0].apic[1] syn_ = new ExpSid(0.166666666667)'
p617
I0
(dp618
S'seg'
p619
F0.07142857142857142
sS'hostfrom'
p620
F21.0
sS'gid'
p621
I165
sS'coords'
p622
g7
(g8
(I0
tp623
g10
tp624
Rp625
(I1
(I3
tp626
g14
(S'f8'
p627
I0
I1
tp628
Rp629
(I3
S'<'
p630
NNNI-1
I-1
I0
tp631
bI00
S'\x1f\x15\xd7"\x95\x949\xc0j^\xadd\xc7\x10G@ \x91J3v[\xee\xbf'
p632
tp633
bsS'secnames'
p634
S'Cell[3].axon[71]'
p635
sI165
I47
tp636
a(F2.3452213470654217
S'Cell[1].dend[35] syn_ = new FastInhib(0.5)'
p637
I1
(dp638
g619
F0.8333333333333333
sg620
F21.0
sg621
I165
sg622
g7
(g8
(I0
tp639
g10
tp640
Rp641
(I1
(I3
tp642
g629
I00
S'\xe0\x0c\xfd;\xe3\n3\xc0\xc1\xe9S\x99\x96XJ\xc0\x0e\xc4t\xd3\x0f\xa8=\xc0'
p643
tp644
bsg634
S'Cell[3].axon[177]'
p645
sI165
I95
tp646
a(F0.9263510986679596
S'Cell[1].dend[42] syn_ = new FastInhib(0.5)'
p647
I1
(dp648
g619
F0.7
sg620
F21.0
sg621
I117
sg622
g7
(g8
(I0
tp649
g10
tp650
Rp651
(I1
(I3
tp652
g629
I00
S'\x92{(\xad\x84cB@Ss\x97+\x01X;\xc0\x00\x00\x00\x80\xc2u9\xc0'
p653
tp654
bsg634
S'Cell[2].axon[419]'
p655
sI117
I95
tp656
a(F1.6788516031205496
S'Cell[0].dend[19] syn_ = new ExpSid(0.5)'
p657
I0
(dp658
g619
F0.2777777777777778
sg620
F21.0
sg621
I69
sg622
g7
(g8
(I0
tp659
g10
tp660
Rp661
(I1
(I3
tp662
g629
I00
S'\x98\xe8\nE\xf1\xc9 \xc0\xe5c\xae\x19\x052@\xc0\x00\x00\x00\x80\x14\xae @'
p663
tp664
bsg634
S'Cell[1].axon[4]'
p665
sI69
I47
tp666
a(F2.1829374235918393
S'Cell[0].dend[16] syn_ = new AmpaNmda(0.5)'
p667
I0
(dp668
S'seg'
p669
F0.8333333333333333
sS'hostfrom'
p670
F22.0
sS'gid'
p671
I70
sS'coords'
p672
g7
(g8
(I0
tp673
g10
tp674
Rp675
(I1
(I3
tp676
g14
(S'f8'
p677
I0
I1
tp678
Rp679
(I3
S'<'
p680
NNNI-1
I-1
I0
tp681
bI00
S's\xae\x06\x92i\xe23\xc0=\x9c\x8e3\xca\xa1.\xc0A\xd0F\xf6\xc8\x05\xef\xbf'
p682
tp683
bsS'secnames'
p684
S'Cell[1].axon[0]'
p685
sI70
I47
tp686
a(F2.176413318087088
S'Cell[0].dend[7] syn_ = new AmpaNmda(0.5)'
p687
I0
(dp688
g669
F0.07142857142857142
sg670
F22.0
sg671
I70
sg672
g7
(g8
(I0
tp689
g10
tp690
Rp691
(I1
(I3
tp692
g679
I00
S'eZ\xb4\x06a\x8aD\xc0=a%[3j8\xc0~w\x9d\xbb+d/@'
p693
tp694
bsg684
S'Cell[1].axon[4]'
p695
sI70
I47
tp696
a(F1.412597595994868
S'Cell[0].dend[24] syn_ = new AmpaNmda(0.5)'
p697
I0
(dp698
g669
F0.5
sg670
F22.0
sg671
I70
sg672
g7
(g8
(I0
tp699
g10
tp700
Rp701
(I1
(I3
tp702
g679
I00
S'v\xb4v\xf2\xba~6\xc0\xce\x19\x96\x8e\xbc\xb2F\xc0\x84\xc9\xf1\xc1\xb3}\xe7\xbf'
p703
tp704
bsg684
S'Cell[1].axon[8]'
p705
sI70
I47
tp706
a(F1.5177389139854245
S'Cell[0].apic[1] syn_ = new AmpaNmda(0.5)'
p707
I0
(dp708
g669
F0.5
sg670
F22.0
sg671
I166
sg672
g7
(g8
(I0
tp709
g10
tp710
Rp711
(I1
(I3
tp712
g679
I00
S'\xd8"\xc9\xbd\x08\x817\xc0\x1a\x07\xff\xc7~\x06V@\x8c\xf2\x04\x05W\x03#@'
p713
tp714
bsg684
S'Cell[3].axon[3]'
p715
sI166
I47
tp716
a(F1.872746625622344
S'Cell[0].apic[24] syn_ = new ExpSid(0.166666666667)'
p717
I0
(dp718
S'seg'
p719
F0.5
sS'hostfrom'
p720
F23.0
sS'gid'
p721
I167
sS'coords'
p722
g7
(g8
(I0
tp723
g10
tp724
Rp725
(I1
(I3
tp726
g14
(S'f8'
p727
I0
I1
tp728
Rp729
(I3
S'<'
p730
NNNI-1
I-1
I0
tp731
bI00
S'^\x1a\xf5\xca\xab\xe9A\xc0\xb0\x97\xaa\x19jA<@\xb9+\x83L\x8eb\r\xc0'
p732
tp733
bsS'secnames'
p734
S'Cell[3].axon[157]'
p735
sI167
I47
tp736
a(F0.5392809760073294
S'Cell[1].dend[29] syn_ = new FastInhib(0.833333333333)'
p737
I1
(dp738
g719
F0.5
sg720
F23.0
sg721
I167
sg722
g7
(g8
(I0
tp739
g10
tp740
Rp741
(I1
(I3
tp742
g729
I00
S'\xdc\xb7\xc3k\x96\xbdC\xc0\x15\xde\xbd\xf8\xc0\xd6H\xc0\xae\x91\xb0G\xa0h\x19\xc0'
p743
tp744
bsg734
S'Cell[3].axon[183]'
p745
sI167
I95
tp746
a(F2.4825319528937793
S'Cell[1].dend[47] syn_ = new FastInhib(0.9)'
p747
I1
(dp748
S'seg'
p749
F0.5
sS'hostfrom'
p750
F24.0
sS'gid'
p751
I72
sS'coords'
p752
g7
(g8
(I0
tp753
g10
tp754
Rp755
(I1
(I3
tp756
g14
(S'f8'
p757
I0
I1
tp758
Rp759
(I3
S'<'
p760
NNNI-1
I-1
I0
tp761
bI00
S"\xcc{Uz\xeb!D@\x96sdA\xb6\xa8d\xc0\x8e\x96\x17\x8cq#'@"
p762
tp763
bsS'secnames'
p764
S'Cell[1].axon[49]'
p765
sI72
I95
tp766
a(F1.3088458143131407
S'Cell[1].dend[37] syn_ = new FastInhib(0.5)'
p767
I1
(dp768
g749
F0.5
sg750
F24.0
sg751
I168
sg752
g7
(g8
(I0
tp769
g10
tp770
Rp771
(I1
(I3
tp772
g759
I00
S'\xba\x18I_\xac\xe6#\xc0\x0bR\xfc\xc3\xf9\x9eB\xc0\x00\x00\x00\xc0\xcc\xdcQ\xc0'
p773
tp774
bsg764
S'Cell[3].axon[524]'
p775
sI168
I95
tp776
a(F1.3251352232298146
S'Cell[1].dend[1] syn_ = new FastInhib(0.1)'
p777
I1
(dp778
g749
F0.5
sg750
F24.0
sg751
I120
sg752
g7
(g8
(I0
tp779
g10
tp780
Rp781
(I1
(I3
tp782
g759
I00
S'$\xde \x10t\x97@@\xbf\r\x90:\xe06\x16\xc0\xa79\xdd9 \x93B\xc0'
p783
tp784
bsg764
S'Cell[2].axon[52]'
p785
sI120
I95
tp786
a(F2.18010714695505
S'Cell[0].dend[29] syn_ = new AmpaNmda(0.0714285714286)'
p787
I0
(dp788
g749
F0.5
sg750
F24.0
sg751
I120
sg752
g7
(g8
(I0
tp789
g10
tp790
Rp791
(I1
(I3
tp792
g759
I00
S"\xe8\xdfJ\xd4Z\xf1'\xc0\xb6\xbd\xee\xfaC\xe2.\xc0\x00\x00\x00\xc0\xf5(\xf8\xbf"
p793
tp794
bsg764
S'Cell[2].axon[130]'
p795
sI120
I47
tp796
a(F2.079291945141438
S'Cell[0].dend[31] syn_ = new AmpaNmda(0.5)'
p797
I0
(dp798
g749
F0.16666666666666666
sg750
F24.0
sg751
I120
sg752
g7
(g8
(I0
tp799
g10
tp800
Rp801
(I1
(I3
tp802
g759
I00
S'@qQr\x01q\x1c\xc0\xad\xb7\xfd4\xf6\x8b%\xc0\xfb\x14\xf9>,2\x0f\xc0'
p803
tp804
bsg764
S'Cell[2].axon[131]'
p805
sI120
I47
tp806
a(F0.8717808370498338
S'Cell[2].dend[25] syn_ = new FastInhib(0.5)'
p807
I2
(dp808
S'seg'
p809
F0.5
sS'hostfrom'
p810
F25.0
sS'gid'
p811
I121
sS'coords'
p812
g7
(g8
(I0
tp813
g10
tp814
Rp815
(I1
(I3
tp816
g14
(S'f8'
p817
I0
I1
tp818
Rp819
(I3
S'<'
p820
NNNI-1
I-1
I0
tp821
bI00
S'\x1f\x0b\xe4\x0f\xf7\xfeB\xc0\x8c\xd5+Q;CR@^\xa5U-K\x9e0\xc0'
p822
tp823
bsS'secnames'
p824
S'Cell[2].axon[115]'
p825
sI121
I143
tp826
a(F2.097616940662592
S'Cell[0].dend[9] syn_ = new ExpSid(0.1)'
p827
I0
(dp828
g809
F0.5
sg810
F25.0
sg811
I121
sg812
g7
(g8
(I0
tp829
g10
tp830
Rp831
(I1
(I3
tp832
g819
I00
S'\xcd\x11\x18l:\x14A\xc0\xddtR%\x8f\x8b=\xc0\xfc\xcf\xc9\x15\xe3\x89?@'
p833
tp834
bsg824
S'Cell[2].axon[243]'
p835
sI121
I47
tp836
a(F1.4159731853743944
S'Cell[2].dend[19] syn_ = new FastInhib(0.5)'
p837
I2
(dp838
S'seg'
p839
F0.5
sS'hostfrom'
p840
F26.0
sS'gid'
p841
I170
sS'coords'
p842
g7
(g8
(I0
tp843
g10
tp844
Rp845
(I1
(I3
tp846
g14
(S'f8'
p847
I0
I1
tp848
Rp849
(I3
S'<'
p850
NNNI-1
I-1
I0
tp851
bI00
S'\x0e\x9b,6\\7N\xc03\x9d\xa8\xa8\x90G^@\x95\x98%\xc9\xd8\xdd\x0e@'
p852
tp853
bsS'secnames'
p854
S'Cell[3].axon[232]'
p855
sI170
I143
tp856
a(F1.2962700782761418
S'Cell[1].dend[16] syn_ = new FastInhib(0.166666666667)'
p857
I1
(dp858
g839
F0.16666666666666666
sg840
F26.0
sg841
I170
sg842
g7
(g8
(I0
tp859
g10
tp860
Rp861
(I1
(I3
tp862
g849
I00
S'\x1ata\x8f8~C@`l\x8c\x9f\x1b\xb9@@/\x92\xaf\xf2[@ \xc0'
p863
tp864
bsg854
S'Cell[3].axon[456]'
p865
sI170
I95
tp866
a(F1.627953112374031
S'Cell[2].dend[26] syn_ = new FastInhib(0.3)'
p867
I2
(dp868
S'seg'
p869
F0.16666666666666666
sS'hostfrom'
p870
F27.0
sS'gid'
p871
I171
sS'coords'
p872
g7
(g8
(I0
tp873
g10
tp874
Rp875
(I1
(I3
tp876
g14
(S'f8'
p877
I0
I1
tp878
Rp879
(I3
S'<'
p880
NNNI-1
I-1
I0
tp881
bI00
S'@o[\xbc?\xa9\x14@\xdbak\x1f\xe2)E@\x00\x00\x00\xe0z\x14\xf2?'
p882
tp883
bsS'secnames'
p884
S'Cell[3].axon[0]'
p885
sI171
I143
tp886
a(F0.9503923423470777
S'Cell[0].dend[24] syn_ = new ExpSid(0.166666666667)'
p887
I0
(dp888
g869
F0.16666666666666666
sg870
F27.0
sg871
I171
sg872
g7
(g8
(I0
tp889
g10
tp890
Rp891
(I1
(I3
tp892
g879
I00
S'\x1e\x1d\xc1|\xba\xb11\xc0\x87*\x14)\xb6\x869\xc0u\x07b\xce\xaaF\xc1?'
p893
tp894
bsg884
S'Cell[3].axon[27]'
p895
sI171
I47
tp896
a(F2.1445025232998693
S'Cell[1].dend[27] syn_ = new FastInhib(0.1)'
p897
I1
(dp898
g869
F0.30000000000000004
sg870
F27.0
sg871
I171
sg872
g7
(g8
(I0
tp899
g10
tp900
Rp901
(I1
(I3
tp902
g879
I00
S'F=\xca\x97\x0e\x1b5@\x95~\xae\x0f)\xf1\x07\xc0\xf0\xc4\xd0b\xfe\xb5\x17\xc0'
p903
tp904
bsg884
S'Cell[3].axon[30]'
p905
sI171
I95
tp906
a(F2.2159469088290806
S'Cell[1].dend[27] syn_ = new FastInhib(0.9)'
p907
I1
(dp908
S'seg'
p909
F0.5
sS'hostfrom'
p910
F28.0
sS'gid'
p911
I172
sS'coords'
p912
g7
(g8
(I0
tp913
g10
tp914
Rp915
(I1
(I3
tp916
g14
(S'f8'
p917
I0
I1
tp918
Rp919
(I3
S'<'
p920
NNNI-1
I-1
I0
tp921
bI00
S'\x00\x00\x00@\n\x97?\xc0\x00\x00\x00\x90\xc2U4\xc0\x00\x00\x00@\n\x971@'
p922
tp923
bsS'secnames'
p924
S'Cell[3].axon[49]'
p925
sI172
I95
tp926
a(F2.2658709334409597
S'Cell[0].dend[24] syn_ = new AmpaNmda(0.166666666667)'
p927
I0
(dp928
g909
F0.8333333333333333
sg910
F28.0
sg911
I172
sg912
g7
(g8
(I0
tp929
g10
tp930
Rp931
(I1
(I3
tp932
g919
I00
S'{\xef\xe3\xe0\xdf\xf12\xc0^\xcad\xd7\x0e;:\xc0\xd4\xd4\xb0\x93\xfds\xf3\xbf'
p933
tp934
bsg924
S'Cell[3].axon[50]'
p935
sI172
I47
tp936
a(F1.5982194332274375
S'Cell[2].dend[2] syn_ = new FastInhib(0.5)'
p937
I2
(dp938
S'seg'
p939
F0.8333333333333333
sS'hostfrom'
p940
F29.0
sS'gid'
p941
I173
sS'coords'
p942
g7
(g8
(I0
tp943
g10
tp944
Rp945
(I1
(I3
tp946
g14
(S'f8'
p947
I0
I1
tp948
Rp949
(I3
S'<'
p950
NNNI-1
I-1
I0
tp951
bI00
S'\xe9\xb2\xbcL\xa3\n*\xc0)\x9eA\xf2\xb8\xfbT@\xc42\xb7\x8f\xfe\x0f(\xc0'
p952
tp953
bsS'secnames'
p954
S'Cell[3].axon[37]'
p955
sI173
I143
tp956
a(F2.094813627309348
S'Cell[2].dend[8] syn_ = new FastInhib(0.9)'
p957
I2
(dp958
g939
F0.5
sg940
F29.0
sg941
I173
sg942
g7
(g8
(I0
tp959
g10
tp960
Rp961
(I1
(I3
tp962
g949
I00
S'\xf2\xc2\x0f\xbdL\xe0<\xc0v00\x9b\xce\xedk@My\x00]o\x1cJ\xc0'
p963
tp964
bsg954
S'Cell[3].axon[57]'
p965
sI173
I143
tp966
a(F2.4987724883577656
S'Cell[0].dend[20] syn_ = new AmpaNmda(0.5)'
p967
I0
(dp968
S'seg'
p969
F0.5
sS'hostfrom'
p970
F30.0
sS'gid'
p971
I78
sS'coords'
p972
g7
(g8
(I0
tp973
g10
tp974
Rp975
(I1
(I3
tp976
g14
(S'f8'
p977
I0
I1
tp978
Rp979
(I3
S'<'
p980
NNNI-1
I-1
I0
tp981
bI00
S'\x04\xd4+\xeb \x85?@\x10QT\xd0\x0f\xf7Q\xc0"\xfa\xa6\x98\xd4\xd3\x17@'
p982
tp983
bsS'secnames'
p984
S'Cell[1].axon[0]'
p985
sI78
I47
tp986
a(F2.116815111594716
S'Cell[0].dend[24] syn_ = new AmpaNmda(0.833333333333)'
p987
I0
(dp988
g969
F0.5
sg970
F30.0
sg971
I174
sg972
g7
(g8
(I0
tp989
g10
tp990
Rp991
(I1
(I3
tp992
g979
I00
S'Lcd\xf2K\xd8A\xc0\xff8\xda\xf5\x1cjP\xc0s\x85d\xf6D\xef!\xc0'
p993
tp994
bsg984
S'Cell[3].axon[277]'
p995
sI174
I47
tp996
a(F1.006820149817178
S'Cell[1].dend[28] syn_ = new FastInhib(0.5)'
p997
I1
(dp998
g969
F0.8999999999999999
sg970
F30.0
sg971
I174
sg972
g7
(g8
(I0
tp999
g10
tp1000
Rp1001
(I1
(I3
tp1002
g979
I00
S'ge:\n\xb6\x9c8@\xd9J\x05\xc5\xd0\x916\xc0\x9c\xa9\xbd^\x8dW\x12\xc0'
p1003
tp1004
bsg984
S'Cell[3].axon[278]'
p1005
sI174
I95
tp1006
a(F2.097314226404268
S'Cell[0].dend[4] syn_ = new AmpaNmda(0.5)'
p1007
I0
(dp1008
g969
F0.8333333333333333
sg970
F30.0
sg971
I174
sg972
g7
(g8
(I0
tp1009
g10
tp1010
Rp1011
(I1
(I3
tp1012
g979
I00
S'\xd7\xfb*\x99@AP\xc0\x9f\x1d\xfc\xfe%\x96#\xc0\xc2\x04\xe8\x8a\x9a\x83%\xc0'
p1013
tp1014
bsg984
S'Cell[3].axon[376]'
p1015
sI174
I47
tp1016
a(F1.065776214249956
S'Cell[1].dend[8] syn_ = new FastInhib(0.5)'
p1017
I1
(dp1018
S'seg'
p1019
F0.16666666666666666
sS'hostfrom'
p1020
F31.0
sS'gid'
p1021
I127
sS'coords'
p1022
g7
(g8
(I0
tp1023
g10
tp1024
Rp1025
(I1
(I3
tp1026
g14
(S'f8'
p1027
I0
I1
tp1028
Rp1029
(I3
S'<'
p1030
NNNI-1
I-1
I0
tp1031
bI00
S'\xef \xd2\xe5\x94:I@\x84\x99>\xfe0\xf0\xe4?\xff\xff\xff_f&D\xc0'
p1032
tp1033
bsS'secnames'
p1034
S'Cell[2].axon[5]'
p1035
sI127
I95
tp1036
a(F1.3998685124426604
S'Cell[2].dend[2] syn_ = new FastInhib(0.833333333333)'
p1037
I2
(dp1038
g1019
F0.3461538461538462
sg1020
F31.0
sg1021
I175
sg1022
g7
(g8
(I0
tp1039
g10
tp1040
Rp1041
(I1
(I3
tp1042
g1029
I00
S' \x1cY=\xe7}\x19\xc0\x03\xdd\xc5\x82\x035S@\x00\x00\x00@33(\xc0'
p1043
tp1044
bsg1034
S'Cell[3].axon[201]'
p1045
sI175
I143
tp1046
a(F0.6689009211883713
S'Cell[0].dend[18] syn_ = new AmpaNmda(0.5)'
p1047
I0
(dp1048
S'seg'
p1049
F0.5
sS'hostfrom'
p1050
F32.0
sS'gid'
p1051
I176
sS'coords'
p1052
g7
(g8
(I0
tp1053
g10
tp1054
Rp1055
(I1
(I3
tp1056
g14
(S'f8'
p1057
I0
I1
tp1058
Rp1059
(I3
S'<'
p1060
NNNI-1
I-1
I0
tp1061
bI00
S'8\xc7\x10c\xe5K \xc0"aX\xa8\xe5\xe78\xc0\xcd\x91\xee0\xd3]\x15@'
p1062
tp1063
bsS'secnames'
p1064
S'Cell[3].axon[12]'
p1065
sI176
I47
tp1066
a(F2.084879777444516
S'Cell[2].dend[4] syn_ = new FastInhib(0.5)'
p1067
I2
(dp1068
S'seg'
p1069
F0.16666666666666666
sS'hostfrom'
p1070
F33.0
sS'gid'
p1071
I129
sS'coords'
p1072
g7
(g8
(I0
tp1073
g10
tp1074
Rp1075
(I1
(I3
tp1076
g14
(S'f8'
p1077
I0
I1
tp1078
Rp1079
(I3
S'<'
p1080
NNNI-1
I-1
I0
tp1081
bI00
S'\x0f\xd2\xf6\xb0L\x187@\x91\xfc\xa6\x01lhM@\xb8\xc9/\xb9\xf9\xbd\x06@'
p1082
tp1083
bsS'secnames'
p1084
S'Cell[2].axon[94]'
p1085
sI129
I143
tp1086
a(F1.0053472590013766
S'Cell[0].dend[20] syn_ = new ExpSid(0.5)'
p1087
I0
(dp1088
g1069
F0.5
sg1070
F33.0
sg1071
I33
sg1072
g7
(g8
(I0
tp1089
g10
tp1090
Rp1091
(I1
(I3
tp1092
g1079
I00
S'\xcc7\xa4\xe7\xb5\x06?@t\x87\x991\xb3\x07R\xc0\xa8T\xb6\x0f\x1e\x98\x1e@'
p1093
tp1094
bsg1084
S'Cell[0].axon[36]'
p1095
sI33
I47
tp1096
a(F2.482878910222869
S'Cell[0].dend[28] syn_ = new ExpSid(0.5)'
p1097
I0
(dp1098
g1069
F0.5
sg1070
F33.0
sg1071
I81
sg1072
g7
(g8
(I0
tp1099
g10
tp1100
Rp1101
(I1
(I3
tp1102
g1079
I00
S'\xff\x8c\x1aY\xdf\xf1;\xc0\xc7S\xee\xc3\xa3\xabS\xc0\x00\x00\x00@3\xb3!\xc0'
p1103
tp1104
bsg1084
S'Cell[1].axon[20]'
p1105
sI81
I47
tp1106
a(F1.4520192188896361
S'Cell[1].dend[47] syn_ = new FastInhib(0.9)'
p1107
I1
(dp1108
S'seg'
p1109
F0.8333333333333333
sS'hostfrom'
p1110
F35.0
sS'gid'
p1111
I83
sS'coords'
p1112
g7
(g8
(I0
tp1113
g10
tp1114
Rp1115
(I1
(I3
tp1116
g14
(S'f8'
p1117
I0
I1
tp1118
Rp1119
(I3
S'<'
p1120
NNNI-1
I-1
I0
tp1121
bI00
S"\x92\x89\xe7 \xf5\xb4B@\x92\xb2\x9a\x98\xfb\x8dd\xc0-6N\xf1\x00\x90'@"
p1122
tp1123
bsS'secnames'
p1124
S'Cell[1].axon[133]'
p1125
sI83
I95
tp1126
a(F1.5662813012788879
S'Cell[1].dend[20] syn_ = new FastInhib(0.833333333333)'
p1127
I1
(dp1128
g1109
F0.5
sg1110
F35.0
sg1111
I179
sg1112
g7
(g8
(I0
tp1129
g10
tp1130
Rp1131
(I1
(I3
tp1132
g1119
I00
S'\xee\xcf|\x86Z\x94T@.\x18\x8f\xe6\x89P<@L\xae\x03\xbd\xaa:8\xc0'
p1133
tp1134
bsg1124
S'Cell[3].axon[27]'
p1135
sI179
I95
tp1136
a(F1.6990270996434103
S'Cell[2].dend[2] syn_ = new FastInhib(0.166666666667)'
p1137
I2
(dp1138
S'seg'
p1139
F0.5
sS'hostfrom'
p1140
F36.0
sS'gid'
p1141
I84
sS'coords'
p1142
g7
(g8
(I0
tp1143
g10
tp1144
Rp1145
(I1
(I3
tp1146
g14
(S'f8'
p1147
I0
I1
tp1148
Rp1149
(I3
S'<'
p1150
NNNI-1
I-1
I0
tp1151
bI00
S'\x8c \x98H\x00\x125\xc0\xbf^{\xe8y+W@v\xf01\xd97\xc41\xc0'
p1152
tp1153
bsS'secnames'
p1154
S'Cell[1].axon[76]'
p1155
sI84
I143
tp1156
a(F2.0209907758743566
S'Cell[1].dend[47] syn_ = new FastInhib(0.3)'
p1157
I1
(dp1158
g1139
F0.5
sg1140
F36.0
sg1141
I180
sg1142
g7
(g8
(I0
tp1159
g10
tp1160
Rp1161
(I1
(I3
tp1162
g1149
I00
S'\xc4\xb9$\xd7\xf7\x0fA@\x18\xb5\xd72s\xcfY\xc0XU\xb9\t\xd7\xd5"\xc0'
p1163
tp1164
bsg1154
S'Cell[3].axon[263]'
p1165
sI180
I95
tp1166
a(F1.8946887775885692
S'Cell[0].dend[20] syn_ = new AmpaNmda(0.7)'
p1167
I0
(dp1168
g1139
F0.49999999999999994
sg1140
F36.0
sg1141
I36
sg1142
g7
(g8
(I0
tp1169
g10
tp1170
Rp1171
(I1
(I3
tp1172
g1149
I00
S'\x80\xd8x\xdcVlH@V\xe9\x9f\xe4\r\xfaT\xc0\xbe#Fl=K\x1d@'
p1173
tp1174
bsg1154
S'Cell[0].axon[3]'
p1175
sI36
I47
tp1176
a(F2.3911549405747015
S'Cell[1].dend[18] syn_ = new FastInhib(0.3)'
p1177
I1
(dp1178
S'seg'
p1179
F0.5
sS'hostfrom'
p1180
F38.0
sS'gid'
p1181
I182
sS'coords'
p1182
g7
(g8
(I0
tp1183
g10
tp1184
Rp1185
(I1
(I3
tp1186
g14
(S'f8'
p1187
I0
I1
tp1188
Rp1189
(I3
S'<'
p1190
NNNI-1
I-1
I0
tp1191
bI00
S'\xfb\x9b/!\xe0\xcfJ@\x8a\xb7=\x7f\xeb\xc5C\xc0\x00\x00\x00@\n\x17:\xc0'
p1192
tp1193
bsS'secnames'
p1194
S'Cell[3].axon[218]'
p1195
sI182
I95
tp1196
a(F2.344126753624491
S'Cell[1].dend[42] syn_ = new FastInhib(0.5)'
p1197
I1
(dp1198
g1179
F0.16666666666666666
sg1180
F38.0
sg1181
I182
sg1182
g7
(g8
(I0
tp1199
g10
tp1200
Rp1201
(I1
(I3
tp1202
g1189
I00
S"Mj'\x0e\x12\x85B@R\x13\x12\xe2\x1c/=\xc06d\xda,\x9d\x948\xc0"
p1203
tp1204
bsg1194
S'Cell[3].axon[402]'
p1205
sI182
I95
tp1206
a(F1.4392891163513422
S'Cell[1].dend[44] syn_ = new FastInhib(0.166666666667)'
p1207
I1
(dp1208
S'seg'
p1209
F0.16666666666666666
sS'hostfrom'
p1210
F39.0
sS'gid'
p1211
I87
sS'coords'
p1212
g7
(g8
(I0
tp1213
g10
tp1214
Rp1215
(I1
(I3
tp1216
g14
(S'f8'
p1217
I0
I1
tp1218
Rp1219
(I3
S'<'
p1220
NNNI-1
I-1
I0
tp1221
bI00
S'\xf3!\x7f2\xc3\x07=@e3\xc7\xe0$cT\xc0\xdbq\x00\x91/\xb23\xc0'
p1222
tp1223
bsS'secnames'
p1224
S'Cell[1].axon[160]'
p1225
sI87
I95
tp1226
a(F1.9757751147196705
S'Cell[2].dend[0] syn_ = new FastInhib(0.5)'
p1227
I2
(dp1228
S'seg'
p1229
F0.8999999999999999
sS'hostfrom'
p1230
F40.0
sS'gid'
p1231
I88
sS'coords'
p1232
g7
(g8
(I0
tp1233
g10
tp1234
Rp1235
(I1
(I3
tp1236
g14
(S'f8'
p1237
I0
I1
tp1238
Rp1239
(I3
S'<'
p1240
NNNI-1
I-1
I0
tp1241
bI00
S"\xb5c\xf9\xeb\x02wB\xc0\xa9\xab\x8f\xd8\x9enX@\xbeo\xca\xee\x03\x88'\xc0"
p1242
tp1243
bsS'secnames'
p1244
S'Cell[1].axon[252]'
p1245
sI88
I143
tp1246
a(F2.468783545166963
S'Cell[1].dend[17] syn_ = new FastInhib(0.5)'
p1247
I1
(dp1248
g1229
F0.16666666666666666
sg1230
F40.0
sg1231
I88
sg1232
g7
(g8
(I0
tp1249
g10
tp1250
Rp1251
(I1
(I3
tp1252
g1239
I00
S'\x0c\xe5\xcb<7l9@\r\x9e\xf0\xb8|\x94H@\x04\xf0\xd4\xe8\xd1\x00#\xc0'
p1253
tp1254
bsg1244
S'Cell[1].axon[278]'
p1255
sI88
I95
tp1256
a(F1.5552660351478478
S'Cell[1].dend[16] syn_ = new FastInhib(0.166666666667)'
p1257
I1
(dp1258
g1229
F0.1
sg1230
F40.0
sg1231
I88
sg1232
g7
(g8
(I0
tp1259
g10
tp1260
Rp1261
(I1
(I3
tp1262
g1239
I00
S'`\xe1$}\xc9\x8dB@\xde\x9fT\x00\x80\xbf@@\xeat\xe9\xfeS\xc6!\xc0'
p1263
tp1264
bsg1244
S'Cell[1].axon[281]'
p1265
sI88
I95
tp1266
a(F1.9117472112731047
S'Cell[0].apic[1] syn_ = new AmpaNmda(0.166666666667)'
p1267
I0
(dp1268
g1229
F0.5
sg1230
F40.0
sg1231
I88
sg1232
g7
(g8
(I0
tp1269
g10
tp1270
Rp1271
(I1
(I3
tp1272
g1239
I00
S'mS\xef\x98$\x16<\xc0\x96\x02\xff)\xc1\xb6H@\x04sI\xa6\xf1\x99\xf2\xbf'
p1273
tp1274
bsg1244
S'Cell[1].axon[289]'
p1275
sI88
I47
tp1276
a(F2.1849856175353377
S'Cell[1].dend[37] syn_ = new FastInhib(0.3)'
p1277
I1
(dp1278
g1229
F0.7857142857142856
sg1230
F40.0
sg1231
I136
sg1232
g7
(g8
(I0
tp1279
g10
tp1280
Rp1281
(I1
(I3
tp1282
g1239
I00
S'\x03\x13W\xf8D,"@s\x9e\x00=\xe9\xd9?\xc0\x88\x15\x1dj@\'K\xc0'
p1283
tp1284
bsg1244
S'Cell[2].axon[6]'
p1285
sI136
I95
tp1286
a(F2.2692394646398677
S'Cell[1].dend[1] syn_ = new FastInhib(0.7)'
p1287
I1
(dp1288
g1229
F0.5
sg1230
F40.0
sg1231
I136
sg1232
g7
(g8
(I0
tp1289
g10
tp1290
Rp1291
(I1
(I3
tp1292
g1239
I00
S'\xd4\xe6b\x90\x15\x7fA@\x86\xd6\xb4\x9aXdB@\xd0e\xa0\xd8\xd4\xacV\xc0'
p1293
tp1294
bsg1244
S'Cell[2].axon[174]'
p1295
sI136
I95
tp1296
a(F2.0398154076381463
S'Cell[2].dend[26] syn_ = new FastInhib(0.5)'
p1297
I2
(dp1298
g1229
F0.07142857142857142
sg1230
F40.0
sg1231
I184
sg1232
g7
(g8
(I0
tp1299
g10
tp1300
Rp1301
(I1
(I3
tp1302
g1239
I00
S'\xe9\n\x0b\xefc\xe78@\xfby\x8e\xe4\x9c\x05?@5<\xb3B\xc2\xe0\x06@'
p1303
tp1304
bsg1244
S'Cell[3].axon[88]'
p1305
sI184
I143
tp1306
a(F1.8991544617925404
S'Cell[1].dend[49] syn_ = new FastInhib(0.5)'
p1307
I1
(dp1308
S'seg'
p1309
F0.5
sS'hostfrom'
p1310
F41.0
sS'gid'
p1311
I41
sS'coords'
p1312
g7
(g8
(I0
tp1313
g10
tp1314
Rp1315
(I1
(I3
tp1316
g14
(S'f8'
p1317
I0
I1
tp1318
Rp1319
(I3
S'<'
p1320
NNNI-1
I-1
I0
tp1321
bI00
S'wn$3\x85~D@\xe0\xac/(\x9f;T\xc0)^\xdc\xbf\xbe\x08\xeb\xbf'
p1322
tp1323
bsS'secnames'
p1324
S'Cell[0].axon[0]'
p1325
sI41
I95
tp1326
a(F1.7758127951481797
S'Cell[0].apic[1] syn_ = new ExpSid(0.166666666667)'
p1327
I0
(dp1328
g1309
F0.5
sg1310
F41.0
sg1311
I185
sg1312
g7
(g8
(I0
tp1329
g10
tp1330
Rp1331
(I1
(I3
tp1332
g1319
I00
S'\xa2\x9bT\xdd3k:\xc09C\t\x8a\xcbcH@\xa2\x01jud\xc5\xdb\xbf'
p1333
tp1334
bsg1324
S'Cell[3].axon[0]'
p1335
sI185
I47
tp1336
a(F1.559348542561184
S'Cell[1].dend[38] syn_ = new FastInhib(0.5)'
p1337
I1
(dp1338
g1309
F0.30000000000000004
sg1310
F41.0
sg1311
I185
sg1312
g7
(g8
(I0
tp1339
g10
tp1340
Rp1341
(I1
(I3
tp1342
g1319
I00
S'\xa6\xb6s~8\x99\x02@i/\xf8Hlv2\xc0\xaa\xa7V\xdd[y=\xc0'
p1343
tp1344
bsg1324
S'Cell[3].axon[17]'
p1345
sI185
I95
tp1346
a(F2.0183451234637984
S'Cell[1].dend[33] syn_ = new FastInhib(0.5)'
p1347
I1
(dp1348
g1309
F0.5
sg1310
F41.0
sg1311
I185
sg1312
g7
(g8
(I0
tp1349
g10
tp1350
Rp1351
(I1
(I3
tp1352
g1319
I00
S'q\x95\xf8\xcbR\xc7<@\x89\xf4\xd4\xeb\xc5o7\xc0cI`\x8a\xf1\x0f=\xc0'
p1353
tp1354
bsg1324
S'Cell[3].axon[254]'
p1355
sI185
I95
tp1356
a(F2.252190081924372
S'Cell[0].dend[22] syn_ = new AmpaNmda(0.5)'
p1357
I0
(dp1358
S'seg'
p1359
F0.5
sS'hostfrom'
p1360
F42.0
sS'gid'
p1361
I90
sS'coords'
p1362
g7
(g8
(I0
tp1363
g10
tp1364
Rp1365
(I1
(I3
tp1366
g14
(S'f8'
p1367
I0
I1
tp1368
Rp1369
(I3
S'<'
p1370
NNNI-1
I-1
I0
tp1371
bI00
S'"{>7M\x8e\n\xc0.\xec\xb3\xff7/<\xc0a?\x18\xe2\xd9c$@'
p1372
tp1373
bsS'secnames'
p1374
S'Cell[1].axon[126]'
p1375
sI90
I47
tp1376
a(F2.366286041265906
S'Cell[1].dend[44] syn_ = new FastInhib(0.166666666667)'
p1377
I1
(dp1378
g1359
F0.1
sg1360
F42.0
sg1361
I90
sg1362
g7
(g8
(I0
tp1379
g10
tp1380
Rp1381
(I1
(I3
tp1382
g1369
I00
S'(\xfcj\x84\xd7e>@\xa7\xd4\xca\xd4H\xfcS\xc0\xc2\x1e\x9be\xec\xde1\xc0'
p1383
tp1384
bsg1374
S'Cell[1].axon[240]'
p1385
sI90
I95
tp1386
a(F1.945638316525456
S'Cell[2].dend[24] syn_ = new FastInhib(0.5)'
p1387
I2
(dp1388
g1359
F0.5
sg1360
F42.0
sg1361
I138
sg1362
g7
(g8
(I0
tp1389
g10
tp1390
Rp1391
(I1
(I3
tp1392
g1369
I00
S"\x00\x00\x000\\oG\xc0\x00\x00\x00P\xe1\xeaU@\x00\x00\x00\x10\xd7#'\xc0"
p1393
tp1394
bsg1374
S'Cell[2].axon[105]'
p1395
sI138
I143
tp1396
a(F0.7398933215754522
S'Cell[0].dend[5] syn_ = new AmpaNmda(0.5)'
p1397
I0
(dp1398
g1359
F0.16666666666666666
sg1360
F42.0
sg1361
I186
sg1362
g7
(g8
(I0
tp1399
g10
tp1400
Rp1401
(I1
(I3
tp1402
g1369
I00
S'\xc5\xe3\xc8G\x91JB\xc0\x04\x0b\xd4\xc6\xa1\xcf/\xc0\xd2\x8a\xa4:\xb1\x87#@'
p1403
tp1404
bsg1374
S'Cell[3].axon[68]'
p1405
sI186
I47
tp1406
a(F1.382944811887264
S'Cell[1].dend[14] syn_ = new FastInhib(0.5)'
p1407
I1
(dp1408
S'seg'
p1409
F0.16666666666666666
sS'hostfrom'
p1410
F43.0
sS'gid'
p1411
I91
sS'coords'
p1412
g7
(g8
(I0
tp1413
g10
tp1414
Rp1415
(I1
(I3
tp1416
g14
(S'f8'
p1417
I0
I1
tp1418
Rp1419
(I3
S'<'
p1420
NNNI-1
I-1
I0
tp1421
bI00
S'\xaafG&\x81yO@`X3\r#1;@\xbc^H\xb7\x8c=\x1c\xc0'
p1422
tp1423
bsS'secnames'
p1424
S'Cell[1].axon[253]'
p1425
sI91
I95
tp1426
a(F1.4728186558916863
S'Cell[1].dend[5] syn_ = new FastInhib(0.1)'
p1427
I1
(dp1428
g1409
F0.49999999999999994
sg1410
F43.0
sg1411
I91
sg1412
g7
(g8
(I0
tp1429
g10
tp1430
Rp1431
(I1
(I3
tp1432
g1419
I00
S'r\x9bA\xad\xb7OR@\x92\x82l\x983+;\xc0\xc0\xb7\xf9\x8a\xa5VJ\xc0'
p1433
tp1434
bsg1424
S'Cell[1].axon[361]'
p1435
sI91
I95
tp1436
a(F1.6938942858476402
S'Cell[2].dend[3] syn_ = new FastInhib(0.5)'
p1437
I2
(dp1438
g1409
F0.16666666666666666
sg1410
F43.0
sg1411
I91
sg1412
g7
(g8
(I0
tp1439
g10
tp1440
Rp1441
(I1
(I3
tp1442
g1419
I00
S'\n\xc0gKh\x8b7@8\xf5\x9b\xba\xcd;E@\x00\x00\x00\xc0\xf5(\x11@'
p1443
tp1444
bsg1424
S'Cell[1].axon[436]'
p1445
sI91
I143
tp1446
a(F2.030511144692011
S'Cell[1].dend[18] syn_ = new FastInhib(0.9)'
p1447
I1
(dp1448
g1409
F0.5
sg1410
F43.0
sg1411
I139
sg1412
g7
(g8
(I0
tp1449
g10
tp1450
Rp1451
(I1
(I3
tp1452
g1419
I00
S'\xdd\x9d\xea\xad\xa8\x14T@Z&1\x8b\x91\xa1[\xc0\x0f\xf9T\x83\xc92K\xc0'
p1453
tp1454
bsg1424
S'Cell[2].axon[240]'
p1455
sI139
I95
tp1456
a(F1.8887969549383412
S'Cell[1].dend[25] syn_ = new FastInhib(0.5)'
p1457
I1
(dp1458
g1409
F0.16666666666666666
sg1410
F43.0
sg1411
I187
sg1412
g7
(g8
(I0
tp1459
g10
tp1460
Rp1461
(I1
(I3
tp1462
g1419
I00
S"$\xe8\xd8dM\xbfU@\xbct\xa4/\xfd\x90(\xc0\x8e%\xd5'\xad*<\xc0"
p1463
tp1464
bsg1424
S'Cell[3].axon[175]'
p1465
sI187
I95
tp1466
a(F2.4234272234882153
S'Cell[1].dend[11] syn_ = new FastInhib(0.5)'
p1467
I1
(dp1468
S'seg'
p1469
F0.5
sS'hostfrom'
p1470
F44.0
sS'gid'
p1471
I92
sS'coords'
p1472
g7
(g8
(I0
tp1473
g10
tp1474
Rp1475
(I1
(I3
tp1476
g14
(S'f8'
p1477
I0
I1
tp1478
Rp1479
(I3
S'<'
p1480
NNNI-1
I-1
I0
tp1481
bI00
S'\x00\x00\x00\xd8\xa3\x90A@\x00\x00\x00\xe0Q\xb8#@\x00\x00\x00 \xaeG*\xc0'
p1482
tp1483
bsS'secnames'
p1484
S'Cell[1].soma[0]'
p1485
sI92
I95
tp1486
a(F0.8965602938428382
S'Cell[2].dend[26] syn_ = new FastInhib(0.3)'
p1487
I2
(dp1488
g1469
F0.8333333333333333
sg1470
F44.0
sg1471
I188
sg1472
g7
(g8
(I0
tp1489
g10
tp1490
Rp1491
(I1
(I3
tp1492
g1479
I00
S'\x0f\xbep\xbf>E\x18@\xb4\x8556y\xcfE@\xef\x9d(\xc8\xcd\xc2\xf2?'
p1493
tp1494
bsg1484
S'Cell[3].axon[46]'
p1495
sI188
I143
tp1496
a(F2.2828434011571765
S'Cell[0].dend[20] syn_ = new AmpaNmda(0.5)'
p1497
I0
(dp1498
g1469
F0.16666666666666666
sg1470
F44.0
sg1471
I188
sg1472
g7
(g8
(I0
tp1499
g10
tp1500
Rp1501
(I1
(I3
tp1502
g1479
I00
S'\x9a\x10\x17\x16\xec\x03@@\xe7\x0f\xf7\x86\x0f%R\xc0\x00\x00\x00`ff\x1a@'
p1503
tp1504
bsg1484
S'Cell[3].axon[62]'
p1505
sI188
I47
tp1506
a(F1.1322817867387935
S'Cell[0].dend[1] syn_ = new AmpaNmda(0.5)'
p1507
I0
(dp1508
g1469
F0.5
sg1470
F44.0
sg1471
I44
sg1472
g7
(g8
(I0
tp1509
g10
tp1510
Rp1511
(I1
(I3
tp1512
g1479
I00
S'\\j\xa0\xdd\xcb\xc6I\xc0\xa7\xa9\xc0\x03\xd9o0\xc0\x1ao-\xbd0\x0c\x07\xc0'
p1513
tp1514
bsg1484
S'Cell[0].axon[2]'
p1515
sI44
I47
tp1516
a(F2.477269018563537
S'Cell[1].dend[36] syn_ = new FastInhib(0.833333333333)'
p1517
I1
(dp1518
S'seg'
p1519
F0.5
sS'hostfrom'
p1520
F45.0
sS'gid'
p1521
I141
sS'coords'
p1522
g7
(g8
(I0
tp1523
g10
tp1524
Rp1525
(I1
(I3
tp1526
g14
(S'f8'
p1527
I0
I1
tp1528
Rp1529
(I3
S'<'
p1530
NNNI-1
I-1
I0
tp1531
bI00
S'Y\x1d\x1a\x1e\xa9\n6\xc0\xbc=\xee\xc0\xe5\xdfU\xc01y \xbf\xd7\xc86\xc0'
p1532
tp1533
bsS'secnames'
p1534
S'Cell[2].axon[41]'
p1535
sI141
I95
tp1536
a(F2.218796081485682
S'Cell[1].dend[10] syn_ = new FastInhib(0.833333333333)'
p1537
I1
(dp1538
g1519
F0.8333333333333333
sg1520
F45.0
sg1521
I141
sg1522
g7
(g8
(I0
tp1539
g10
tp1540
Rp1541
(I1
(I3
tp1542
g1529
I00
S'\xf7Z\x82Y\xc1FJ@P\xa5\x1f\xdb\xe0\xb0A@\xcb\x17\xc0\xeb\xb60J\xc0'
p1543
tp1544
bsg1534
S'Cell[2].axon[95]'
p1545
sI141
I95
tp1546
a(F2.289383334483843
S'Cell[1].dend[10] syn_ = new FastInhib(0.5)'
p1547
I1
(dp1548
g1519
F0.1
sg1520
F45.0
sg1521
I141
sg1522
g7
(g8
(I0
tp1549
g10
tp1550
Rp1551
(I1
(I3
tp1552
g1529
I00
S' e\xd1\xe2\xee\xc6H@\x0e\x15\xb4\xb4\x8c\t8@\x1f\xc2S\x1d\t\xffF\xc0'
p1553
tp1554
bsg1534
S'Cell[2].axon[536]'
p1555
sI141
I95
tp1556
a(F2.324947217030123
S'Cell[1].dend[17] syn_ = new FastInhib(0.166666666667)'
p1557
I1
(dp1558
g1519
F0.5
sg1520
F45.0
sg1521
I189
sg1522
g7
(g8
(I0
tp1559
g10
tp1560
Rp1561
(I1
(I3
tp1562
g1529
I00
S"\x10},O\xbcL>@\xc3'\x010\x99K9@\x00\x00\x00`ff*\xc0"
p1563
tp1564
bsg1534
S'Cell[3].axon[82]'
p1565
sI189
I95
tp1566
a(F1.9941122592079588
S'Cell[2].dend[26] syn_ = new FastInhib(0.5)'
p1567
I2
(dp1568
g1519
F0.5
sg1520
F45.0
sg1521
I93
sg1522
g7
(g8
(I0
tp1569
g10
tp1570
Rp1571
(I1
(I3
tp1572
g1529
I00
S'\x12\x8f\x18\x1a\x19\xf88@\x88d8\xffA\x05@@\xf8\xf3\xa0\x06\xf1\xb0\x17@'
p1573
tp1574
bsg1534
S'Cell[1].axon[234]'
p1575
sI93
I143
tp1576
a(F2.486790367379576
S'Cell[0].apic[24] syn_ = new ExpSid(0.166666666667)'
p1577
I0
(dp1578
S'seg'
p1579
F0.16666666666666666
sS'hostfrom'
p1580
F47.0
sS'gid'
p1581
I143
sS'coords'
p1582
g7
(g8
(I0
tp1583
g10
tp1584
Rp1585
(I1
(I3
tp1586
g14
(S'f8'
p1587
I0
I1
tp1588
Rp1589
(I3
S'<'
p1590
NNNI-1
I-1
I0
tp1591
bI00
S'd\xac\xe9d\xe0\xc1A\xc0k\xeb{\xf3\xb2\xec;@r\x9c\xd6X\x05\xe5\x07\xc0'
p1592
tp1593
bsS'secnames'
p1594
S'Cell[2].axon[93]'
p1595
sI143
I47
tp1596
a.