(lp0
(F1.7611002008461873
S'Cell[3].dend[29] syn_ = new FastInhib(0.5)'
p1
I3
(dp2
S'seg'
p3
F0.5
sS'hostfrom'
p4
F1.0
sS'gid'
p5
I145
sS'coords'
p6
cnumpy.core.multiarray
_reconstruct
p7
(cnumpy
ndarray
p8
(I0
tp9
S'b'
p10
tp11
Rp12
(I1
(I3
tp13
cnumpy
dtype
p14
(S'f8'
p15
I0
I1
tp16
Rp17
(I3
S'<'
p18
NNNI-1
I-1
I0
tp19
bI00
S'K\xa2\xfe\xd0\\\xec\x17@\xd3\xc5\x92\xc0\x0cE7\xc0\xb4\x9d\xc5\x0f\xa0\x19\xe1\xbf'
p20
tp21
bsS'secnames'
p22
S'Cell[3].axon[133]'
p23
sI145
I171
tp24
a(F2.388848907846981
S'Cell[0].dend[14] syn_ = new ExpSid(0.5)'
p25
I0
(dp26
g3
F0.1
sg4
F1.0
sg5
I145
sg6
g7
(g8
(I0
tp27
g10
tp28
Rp29
(I1
(I3
tp30
g17
I00
S'H\xbd\xf3gA F\xc0\xe2\xfbD*\xd8\xff.@\xc0\xe1K\x99e\x19!\xc0'
p31
tp32
bsg22
S'Cell[3].axon[135]'
p33
sI145
I27
tp34
a(F0.563984429894309
S'Cell[2].dend[8] syn_ = new FastInhib(0.357142857143)'
p35
I2
(dp36
g3
F0.8333333333333333
sg4
F1.0
sg5
I1
sg6
g7
(g8
(I0
tp37
g10
tp38
Rp39
(I1
(I3
tp40
g17
I00
S'\xd3\xa9u\x0f\xad\xe0O@\xf2<\xd4\xcf\xd8\xcbB\xc0\x00\x00\x00\x00\x00\x00\x10@'
p41
tp42
bsg22
S'Cell[0].axon[0]'
p43
sI1
I123
tp44
a(F2.2004433091744593
S'Cell[3].dend[32] syn_ = new FastInhib(0.1)'
p45
I3
(dp46
g3
F0.5
sg4
F1.0
sg5
I97
sg6
g7
(g8
(I0
tp47
g10
tp48
Rp49
(I1
(I3
tp50
g17
I00
S'\x8acZ\xd1B\xd4\x1d@\xbed\x80\x8c\xf4\xbeZ\xc0\x00\x00\x00\x00\x00\x00\x02@'
p51
tp52
bsg22
S'Cell[2].axon[57]'
p53
sI97
I171
tp54
a(F2.2347371727737633
S'Cell[3].dend[9] syn_ = new FastInhib(0.833333333333)'
p55
I3
(dp56
g3
F0.8333333333333333
sg4
F1.0
sg5
I97
sg6
g7
(g8
(I0
tp57
g10
tp58
Rp59
(I1
(I3
tp60
g17
I00
S'a\x19\x02\x1ar\xa2Q\xc0\x85\x18\xf2\x8d\xf4\xbe*@\xbc\t\x85\xfc\xbaQ\x10@'
p61
tp62
bsg22
S'Cell[2].axon[186]'
p63
sI97
I171
tp64
a(F1.9195973494745395
S'Cell[1].dend[5] syn_ = new ExpSid(0.5)'
p65
I1
(dp66
g3
F0.1
sg4
F1.0
sg5
I97
sg6
g7
(g8
(I0
tp67
g10
tp68
Rp69
(I1
(I3
tp70
g17
I00
S'%\xac\x9e\x14\xf3_&@\xe2\x07\xb3a>\x18P@8\xd5\x7f\x8d\xd4\x0c\t@'
p71
tp72
bsg22
S'Cell[2].axon[223]'
p73
sI97
I75
tp74
a(F2.3090384096553245
S'Cell[0].dend[2] syn_ = new AmpaNmda(0.5)'
p75
I0
(dp76
S'seg'
p77
F0.5
sS'hostfrom'
p78
F2.0
sS'gid'
p79
I98
sS'coords'
p80
g7
(g8
(I0
tp81
g10
tp82
Rp83
(I1
(I3
tp84
g14
(S'f8'
p85
I0
I1
tp86
Rp87
(I3
S'<'
p88
NNNI-1
I-1
I0
tp89
bI00
S'R\xe82\n"ZA\xc01@\x0fL\x0b\xf92@\x00\x00\x00\x80\xebQ\x06@'
p90
tp91
bsS'secnames'
p92
S'Cell[2].axon[19]'
p93
sI98
I27
tp94
a(F1.2500629629090991
S'Cell[3].dend[2] syn_ = new FastInhib(0.5)'
p95
I3
(dp96
g77
F0.5
sg78
F2.0
sg79
I98
sg80
g7
(g8
(I0
tp97
g10
tp98
Rp99
(I1
(I3
tp100
g87
I00
S'\x9b,\xf7\xeb\x84aB\xc0\xf2k\xa3\x97\xb7\x01H@t,\xce\xc9\xcb\xd0\x15@'
p101
tp102
bsg92
S'Cell[2].axon[381]'
p103
sI98
I171
tp104
a(F2.1641040033766945
S'Cell[3].dend[8] syn_ = new FastInhib(0.5)'
p105
I3
g96
I98
I171
tp106
a(F1.7127555822446368
S'Cell[3].dend[14] syn_ = new FastInhib(0.5)'
p107
I3
(dp108
g77
F0.8999999999999999
sg78
F2.0
sg79
I146
sg80
g7
(g8
(I0
tp109
g10
tp110
Rp111
(I1
(I3
tp112
g87
I00
S'\xeao\xdb\x145\xc4R@\xec$\xd9\xfaV\xe7\xff?M{"\x16;\xd4K\xc0'
p113
tp114
bsg92
S'Cell[3].axon[183]'
p115
sI146
I171
tp116
a(F2.3090384096553245
S'Cell[0].dend[2] syn_ = new ExpSid(0.5)'
p117
I0
(dp118
S'seg'
p119
F0.5
sS'hostfrom'
p120
F3.0
sS'gid'
p121
I99
sS'coords'
p122
g7
(g8
(I0
tp123
g10
tp124
Rp125
(I1
(I3
tp126
g14
(S'f8'
p127
I0
I1
tp128
Rp129
(I3
S'<'
p130
NNNI-1
I-1
I0
tp131
bI00
S'R\xe82\n"ZA\xc01@\x0fL\x0b\xf92@\x00\x00\x00\x80\xebQ\x06@'
p132
tp133
bsS'secnames'
p134
S'Cell[2].axon[19]'
p135
sI99
I27
tp136
a(F1.2500629629090991
S'Cell[3].dend[2] syn_ = new FastInhib(0.5)'
p137
I3
(dp138
g119
F0.5
sg120
F3.0
sg121
I99
sg122
g7
(g8
(I0
tp139
g10
tp140
Rp141
(I1
(I3
tp142
g129
I00
S'\x9b,\xf7\xeb\x84aB\xc0\xf2k\xa3\x97\xb7\x01H@t,\xce\xc9\xcb\xd0\x15@'
p143
tp144
bsg134
S'Cell[2].axon[381]'
p145
sI99
I171
tp146
a(F2.1641040033766945
S'Cell[3].dend[8] syn_ = new FastInhib(0.5)'
p147
I3
g138
I99
I171
tp148
a(F2.0885950705421528
S'Cell[3].dend[38] syn_ = new FastInhib(0.0714285714286)'
p149
I3
(dp150
g119
F0.05555555555555555
sg120
F3.0
sg121
I51
sg122
g7
(g8
(I0
tp151
g10
tp152
Rp153
(I1
(I3
tp154
g129
I00
S'\xa7\xa6\xf6\x91\xfc\x14\x14@\x85u\x9dB\x11\x8f3\xc0\x00\x00\x00\xe0Q\xb82\xc0'
p155
tp156
bsg134
S'Cell[1].axon[25]'
p157
sI51
I171
tp158
a(F2.018646430726039
S'Cell[0].apic[1] syn_ = new ExpSid(0.5)'
p159
I0
(dp160
g119
F0.8333333333333333
sg120
F3.0
sg121
I147
sg122
g7
(g8
(I0
tp161
g10
tp162
Rp163
(I1
(I3
tp164
g129
I00
S'fjf\xffl6!\xc0\x08L-\xf8\xad\xb3D@\x00\x00\x00@\xe1z\xe4?'
p165
tp166
bsg134
S'Cell[3].axon[0]'
p167
sI147
I27
tp168
a(F2.4814788567153476
S'Cell[0].apic[5] syn_ = new ExpSid(0.5)'
p169
I0
(dp170
g119
F0.5
sg120
F3.0
sg121
I147
sg122
g7
(g8
(I0
tp171
g10
tp172
Rp173
(I1
(I3
tp174
g129
I00
S'R\x80\xfe\xc2\x8f\x8d\x13\xc0\x02\xa9_\xfa\xf9oJ@\x00\x00\x00\xe0\xa3p\x10@'
p175
tp176
bsg134
S'Cell[3].axon[4]'
p177
sI147
I27
tp178
a(F2.328640986755633
S'Cell[2].dend[18] syn_ = new FastInhib(0.5)'
p179
I2
(dp180
S'seg'
p181
F0.16666666666666666
sS'hostfrom'
p182
F4.0
sS'gid'
p183
I148
sS'coords'
p184
g7
(g8
(I0
tp185
g10
tp186
Rp187
(I1
(I3
tp188
g14
(S'f8'
p189
I0
I1
tp190
Rp191
(I3
S'<'
p192
NNNI-1
I-1
I0
tp193
bI00
S'\x11\xf7\\.5oK@\xa2\xa1\x81\xf2\x99{(\xc0\x00\x00\x00 \xaeG\x14\xc0'
p194
tp195
bsS'secnames'
p196
S'Cell[3].axon[193]'
p197
sI148
I123
tp198
a(F2.4641806003831435
S'Cell[0].apic[13] syn_ = new AmpaNmda(0.1)'
p199
I0
(dp200
g181
F0.8333333333333335
sg182
F4.0
sg183
I100
sg184
g7
(g8
(I0
tp201
g10
tp202
Rp203
(I1
(I3
tp204
g191
I00
S'\xa0\x84\xf2\xfcB\xdb\xae?G/\x1a\xf0\xfaXV@8f\xa3\xb19\xea\xff\xbf'
p205
tp206
bsg196
S'Cell[2].axon[117]'
p207
sI100
I27
tp208
a(F2.313728379597284
S'Cell[2].dend[1] syn_ = new FastInhib(0.166666666667)'
p209
I2
(dp210
S'seg'
p211
F0.5
sS'hostfrom'
p212
F5.0
sS'gid'
p213
I149
sS'coords'
p214
g7
(g8
(I0
tp215
g10
tp216
Rp217
(I1
(I3
tp218
g14
(S'f8'
p219
I0
I1
tp220
Rp221
(I3
S'<'
p222
NNNI-1
I-1
I0
tp223
bI00
S'\xed\x07\xd5\xd8\xa2\xe0\x15\xc0@1\x8ek~\x9e3\xc0\x92\xc3\x89\xd9\xb4P\xee\xbf'
p224
tp225
bsS'secnames'
p226
S'Cell[3].axon[11]'
p227
sI149
I123
tp228
a(F2.4821100697973604
S'Cell[0].apic[20] syn_ = new ExpSid(0.5)'
p229
I0
(dp230
g211
F0.045454545454545456
sg212
F5.0
sg213
I5
sg214
g7
(g8
(I0
tp231
g10
tp232
Rp233
(I1
(I3
tp234
g221
I00
S'Z\x05T\xa5\xc0\x9b;\xc0j\x80\x99g\x16rN@X\x15\xb9G\x1a\xe0\x1b@'
p235
tp236
bsg226
S'Cell[0].axon[16]'
p237
sI5
I27
tp238
a(F2.2404365078208937
S'Cell[2].dend[3] syn_ = new FastInhib(0.166666666667)'
p239
I2
(dp240
S'seg'
p241
F0.1
sS'hostfrom'
p242
F6.0
sS'gid'
p243
I102
sS'coords'
p244
g7
(g8
(I0
tp245
g10
tp246
Rp247
(I1
(I3
tp248
g14
(S'f8'
p249
I0
I1
tp250
Rp251
(I3
S'<'
p252
NNNI-1
I-1
I0
tp253
bI00
S' \x81\x8d\xcd\xca\xfa(\xc0T\x0e\xd2\xc4\x1a\xc1\x02@\x96Nf\xf4\xf7\xf1\xff?'
p254
tp255
bsS'secnames'
p256
S'Cell[2].axon[77]'
p257
sI102
I123
tp258
a(F2.0556621254556853
S'Cell[0].apic[15] syn_ = new AmpaNmda(0.7)'
p259
I0
(dp260
g241
F0.1
sg242
F6.0
sg243
I150
sg244
g7
(g8
(I0
tp261
g10
tp262
Rp263
(I1
(I3
tp264
g251
I00
S'[\x81\xab\xb0\\lQ\xc0\x0b"\xd1L\xe9\tZ@cji\xabb=A\xc0'
p265
tp266
bsg256
S'Cell[3].axon[30]'
p267
sI150
I27
tp268
a(F1.3928520195989358
S'Cell[2].dend[9] syn_ = new FastInhib(0.5)'
p269
I2
(dp270
S'seg'
p271
F0.5
sS'hostfrom'
p272
F7.0
sS'gid'
p273
I103
sS'coords'
p274
g7
(g8
(I0
tp275
g10
tp276
Rp277
(I1
(I3
tp278
g14
(S'f8'
p279
I0
I1
tp280
Rp281
(I3
S'<'
p282
NNNI-1
I-1
I0
tp283
bI00
S'\xb6\xc7s\x0ea\xb33@7\xfaT\xfb\xa2\xc3)\xc0\x00\x00\x00\xa0p\xbd,\xc0'
p284
tp285
bsS'secnames'
p286
S'Cell[2].axon[39]'
p287
sI103
I123
tp288
a(F2.4490831514691247
S'Cell[1].dend[18] syn_ = new ExpSid(0.5)'
p289
I1
(dp290
g271
F0.49999999999999994
sg272
F7.0
sg273
I103
sg274
g7
(g8
(I0
tp291
g10
tp292
Rp293
(I1
(I3
tp294
g281
I00
S'\xbf5Q\xc7\xdftD@\xf1!\x95\x05\xe3jX@\xff\xff\xff\xdfz\x94/\xc0'
p295
tp296
bsg286
S'Cell[2].axon[226]'
p297
sI103
I75
tp298
a(F2.4640771111896194
S'Cell[2].apic[1] syn_ = new FastInhib(0.0714285714286)'
p299
I2
(dp300
g271
F0.1
sg272
F7.0
sg273
I103
sg274
g7
(g8
(I0
tp301
g10
tp302
Rp303
(I1
(I3
tp304
g281
I00
S'F!\xa5J\xea\x01\r@\xa8\n\x0eF*\x811@\x00\x00\x00\xc0\x1e\x85\x11@'
p305
tp306
bsg286
S'Cell[2].axon[264]'
p307
sI103
I123
tp308
a(F2.229240106307949
S'Cell[3].dend[41] syn_ = new FastInhib(0.5)'
p309
I3
(dp310
g271
F0.1
sg272
F7.0
sg273
I103
sg274
g7
(g8
(I0
tp311
g10
tp312
Rp313
(I1
(I3
tp314
g281
I00
S'&(\xc0\x87\xed\xab?@\xb8\xc5Q\xf6\x9fgN@X\xde\xd9\xa0\xcb\xf9/@'
p315
tp316
bsg286
S'Cell[2].axon[300]'
p317
sI103
I171
tp318
a(F1.0833313107829332
S'Cell[1].dend[33] syn_ = new ExpSid(0.166666666667)'
p319
I1
(dp320
g271
F0.5
sg272
F7.0
sg273
I151
sg274
g7
(g8
(I0
tp321
g10
tp322
Rp323
(I1
(I3
tp324
g281
I00
S'\xe4\xc5\x9d\x03\xd4\xabS@\xe4\xc5\x9d#0\xdbV@\x0e\xa7RvU\x81\n\xc0'
p325
tp326
bsg286
S'Cell[3].axon[29]'
p327
sI151
I75
tp328
a(F1.6084052822272763
S'Cell[0].apic[9] syn_ = new ExpSid(0.166666666667)'
p329
I0
(dp330
g271
F0.5
sg272
F7.0
sg273
I151
sg274
g7
(g8
(I0
tp331
g10
tp332
Rp333
(I1
(I3
tp334
g281
I00
S'\xf1\x11\x88l\x9c\xd6\xe7\xbf#\xd2\xf8\xcfo\x88Y@\x15\x94\x9b\xbd`"/@'
p335
tp336
bsg286
S'Cell[3].axon[225]'
p337
sI151
I27
tp338
a(F1.845483501847084
S'Cell[3].dend[39] syn_ = new FastInhib(0.9)'
p339
I3
(dp340
S'seg'
p341
F0.16666666666666666
sS'hostfrom'
p342
F8.0
sS'gid'
p343
I56
sS'coords'
p344
g7
(g8
(I0
tp345
g10
tp346
Rp347
(I1
(I3
tp348
g14
(S'f8'
p349
I0
I1
tp350
Rp351
(I3
S'<'
p352
NNNI-1
I-1
I0
tp353
bI00
S'\xb2z\x84\x900\x8fB\xc0\xe2\x12\x10\x81\xca\x8aX\xc0+<\xfb\x0c\x99#\n\xc0'
p354
tp355
bsS'secnames'
p356
S'Cell[1].axon[1]'
p357
sI56
I171
tp358
a(F1.4405645268934892
S'Cell[3].dend[9] syn_ = new FastInhib(0.5)'
p359
I3
(dp360
g341
F0.5
sg342
F8.0
sg343
I152
sg344
g7
(g8
(I0
tp361
g10
tp362
Rp363
(I1
(I3
tp364
g351
I00
S'\x85\x17\xd0\xa8h7O\xc0M\xde\xefT\xf0\x8a7@n`h\x0c\x89\x05 @'
p365
tp366
bsg356
S'Cell[3].axon[78]'
p367
sI152
I171
tp368
a(F1.9856481629375944
S'Cell[2].dend[22] syn_ = new FastInhib(0.7)'
p369
I2
(dp370
g341
F0.49999999999999994
sg342
F8.0
sg343
I152
sg344
g7
(g8
(I0
tp371
g10
tp372
Rp373
(I1
(I3
tp374
g351
I00
S'\xb6(k\xf2\x044[@ \xf7!\x82l\xe68\xc0\xa3\xe5c\x11m\xd0P\xc0'
p375
tp376
bsg356
S'Cell[3].axon[90]'
p377
sI152
I123
tp378
a(F0.5983091613157911
S'Cell[1].dend[16] syn_ = new AmpaNmda(0.5)'
p379
I1
(dp380
g341
F0.8333333333333333
sg342
F8.0
sg343
I152
sg344
g7
(g8
(I0
tp381
g10
tp382
Rp383
(I1
(I3
tp384
g351
I00
S'\x025(\xbd\xa3\xb22@b\x97\xbd\xb4X\x13:@\xd8\xf4y\xd8OX1@'
p385
tp386
bsg356
S'Cell[3].axon[144]'
p387
sI152
I75
tp388
a(F1.5122093040651279
S'Cell[0].apic[30] syn_ = new AmpaNmda(0.5)'
p389
I0
(dp390
g341
F0.8333333333333333
sg342
F8.0
sg343
I152
sg344
g7
(g8
(I0
tp391
g10
tp392
Rp393
(I1
(I3
tp394
g351
I00
S'\x1c\xc1"\x1a+\xec9@E\xf5\xda7\xd2W3@\x00\x00\x00\xc0\xf5(\x13\xc0'
p395
tp396
bsg356
S'Cell[3].axon[336]'
p397
sI152
I27
tp398
a(F2.2874783526371956
S'Cell[0].apic[34] syn_ = new AmpaNmda(0.5)'
p399
I0
(dp400
g341
F0.5
sg342
F8.0
sg343
I152
sg344
g7
(g8
(I0
tp401
g10
tp402
Rp403
(I1
(I3
tp404
g351
I00
S'\x15\xd0g\x1f#\xd2?@\xd8\t\xdd9\r\xf6\x1e@\x00\x00\x00\xa0\x99\x99\x03@'
p405
tp406
bsg356
S'Cell[3].axon[337]'
p407
sI152
I27
tp408
a(F2.0449860708240553
S'Cell[0].dend[2] syn_ = new AmpaNmda(0.5)'
p409
I0
(dp410
g341
F0.5
sg342
F8.0
sg343
I152
sg344
g7
(g8
(I0
tp411
g10
tp412
Rp413
(I1
(I3
tp414
g351
I00
S'\xfd4\xc8\xd8\x11\x8e@\xc0+1H\x02\xd1u1@\x00\x00\x00\xc0\xf5(\x13@'
p415
tp416
bsg356
S'Cell[3].axon[508]'
p417
sI152
I27
tp418
a(F2.390710438290571
S'Cell[0].dend[15] syn_ = new AmpaNmda(0.7)'
p419
I0
(dp420
g341
F0.5
sg342
F8.0
sg343
I104
sg344
g7
(g8
(I0
tp421
g10
tp422
Rp423
(I1
(I3
tp424
g351
I00
S'\x00#\x1b*\xa4\x94R\xc0\x92\\\x07\xe5\x9a\x8d@\xc0Wr\xec\x86\x0452\xc0'
p425
tp426
bsg356
S'Cell[2].axon[202]'
p427
sI104
I27
tp428
a(F1.9104734741761396
S'Cell[1].dend[31] syn_ = new AmpaNmda(0.833333333333)'
p429
I1
(dp430
g341
F0.1
sg342
F8.0
sg343
I104
sg344
g7
(g8
(I0
tp431
g10
tp432
Rp433
(I1
(I3
tp434
g351
I00
S'\xdd\x03Wx\xab\x98R@3\x93\xffzG\x03#\xc0\xd4\x9d\x88\xcf\x17\xc3!@'
p435
tp436
bsg356
S'Cell[2].axon[331]'
p437
sI104
I75
tp438
a(F1.3497843551721416
S'Cell[0].apic[18] syn_ = new AmpaNmda(0.166666666667)'
p439
I0
(dp440
g341
F0.16666666666666666
sg342
F8.0
sg343
I104
sg344
g7
(g8
(I0
tp441
g10
tp442
Rp443
(I1
(I3
tp444
g351
I00
S'v\xda\xee1\xe5\xc7D\xc00\x04\xd2\xd4\x991P@\x00\x00\x00\x00\xd7#E\xc0'
p445
tp446
bsg356
S'Cell[2].axon[380]'
p447
sI104
I27
tp448
a(F2.441602996488772
S'Cell[1].dend[6] syn_ = new AmpaNmda(0.166666666667)'
p449
I1
(dp450
S'seg'
p451
F0.5
sS'hostfrom'
p452
F10.0
sS'gid'
p453
I106
sS'coords'
p454
g7
(g8
(I0
tp455
g10
tp456
Rp457
(I1
(I3
tp458
g14
(S'f8'
p459
I0
I1
tp460
Rp461
(I3
S'<'
p462
NNNI-1
I-1
I0
tp463
bI00
S'\x14\x19Si\xfb\xb9\x11\xc0\xcf5\xd6\x91\xa6<G@\x83\xbf\xdc\xdd\x88\xa6\x16@'
p464
tp465
bsS'secnames'
p466
S'Cell[2].axon[78]'
p467
sI106
I75
tp468
a(F2.406572737097479
S'Cell[1].dend[6] syn_ = new AmpaNmda(0.5)'
p469
I1
(dp470
g451
F0.16666666666666666
sg452
F10.0
sg453
I106
sg454
g7
(g8
(I0
tp471
g10
tp472
Rp473
(I1
(I3
tp474
g461
I00
S'\xcb\xb7=b\xa970\xc0\xee9\xd3\x8d\x95\xc9D@8\xe8u\xc38u\x07\xc0'
p475
tp476
bsg466
S'Cell[2].axon[127]'
p477
sI106
I75
tp478
a(F0.8275540287399057
S'Cell[3].dend[12] syn_ = new FastInhib(0.833333333333)'
p479
I3
(dp480
g451
F0.1
sg452
F10.0
sg453
I106
sg454
g7
(g8
(I0
tp481
g10
tp482
Rp483
(I1
(I3
tp484
g461
I00
S'(%zHKoO@\xf6\x96\xbb\x12\xb9_7@nh\xb8\x9b\xf6\xe3@\xc0'
p485
tp486
bsg466
S'Cell[2].axon[187]'
p487
sI106
I171
tp488
a(F1.3752476323888905
S'Cell[1].dend[3] syn_ = new AmpaNmda(0.5)'
p489
I1
(dp490
g451
F0.5
sg452
F10.0
sg453
I106
sg454
g7
(g8
(I0
tp491
g10
tp492
Rp493
(I1
(I3
tp494
g461
I00
S'\xefvr\x1f\x12\x0c\xfc?\xa7]~\xc3\x9e|S@\xc2\xbc\x8c\x17\xa6[0@'
p495
tp496
bsg466
S'Cell[2].axon[227]'
p497
sI106
I75
tp498
a(F1.0327842805596463
S'Cell[1].apic[5] syn_ = new AmpaNmda(0.5)'
p499
I1
(dp500
g451
F0.8333333333333333
sg452
F10.0
sg453
I106
sg454
g7
(g8
(I0
tp501
g10
tp502
Rp503
(I1
(I3
tp504
g461
I00
S'\xa4\xfd\xc83I\x13\x02@\xba\xd7\xdaM\xe1\xbf]@&\x90\x13;r\x1e&\xc0'
p505
tp506
bsg466
S'Cell[2].axon[342]'
p507
sI106
I75
tp508
a(F1.5789225779496692
S'Cell[2].dend[0] syn_ = new FastInhib(0.5)'
p509
I2
(dp510
g451
F0.5
sg452
F10.0
sg453
I58
sg454
g7
(g8
(I0
tp511
g10
tp512
Rp513
(I1
(I3
tp514
g461
I00
S'#\xa7\xee-\xa1V\x17@\xd2\xf4J\xe5\x85!,\xc0H\x00\xf0\xc2@7\x0e\xc0'
p515
tp516
bsg466
S'Cell[1].axon[8]'
p517
sI58
I123
tp518
a(F1.8920364558826184
S'Cell[2].apic[3] syn_ = new FastInhib(0.9)'
p519
I2
(dp520
S'seg'
p521
F0.7
sS'hostfrom'
p522
F11.0
sS'gid'
p523
I155
sS'coords'
p524
g7
(g8
(I0
tp525
g10
tp526
Rp527
(I1
(I3
tp528
g14
(S'f8'
p529
I0
I1
tp530
Rp531
(I3
S'<'
p532
NNNI-1
I-1
I0
tp533
bI00
S'\xd5\xe8W%\x8a\xecU@lS:\xa7\x8e>Q@J\xe0\xbd\x19\xb6\x8d<@'
p534
tp535
bsS'secnames'
p536
S'Cell[3].axon[183]'
p537
sI155
I123
tp538
a(F1.163192563366827
S'Cell[2].dend[0] syn_ = new FastInhib(0.5)'
p539
I2
(dp540
S'seg'
p541
F0.8333333333333333
sS'hostfrom'
p542
F12.0
sS'gid'
p543
I108
sS'coords'
p544
g7
(g8
(I0
tp545
g10
tp546
Rp547
(I1
(I3
tp548
g14
(S'f8'
p549
I0
I1
tp550
Rp551
(I3
S'<'
p552
NNNI-1
I-1
I0
tp553
bI00
S'\x13\xa5\xa4\x1d\xca\x8f\x13@}\x91N\xafNp,\xc0C\x0e\x841xB\x04\xc0'
p554
tp555
bsS'secnames'
p556
S'Cell[2].axon[7]'
p557
sI108
I123
tp558
a(F1.6845219518671644
S'Cell[1].dend[27] syn_ = new ExpSid(0.833333333333)'
p559
I1
(dp560
S'seg'
p561
F0.5
sS'hostfrom'
p562
F13.0
sS'gid'
p563
I109
sS'coords'
p564
g7
(g8
(I0
tp565
g10
tp566
Rp567
(I1
(I3
tp568
g14
(S'f8'
p569
I0
I1
tp570
Rp571
(I3
S'<'
p572
NNNI-1
I-1
I0
tp573
bI00
S'(P\xc6\x1d\xc7NV@d\xbe(\xb0\x87\xf2<@\xce\x03a\x1d\x99\xb6O\xc0'
p574
tp575
bsS'secnames'
p576
S'Cell[2].axon[127]'
p577
sI109
I75
tp578
a(F1.5233101640823965
S'Cell[2].dend[10] syn_ = new FastInhib(0.833333333333)'
p579
I2
(dp580
g561
F0.5
sg562
F13.0
sg563
I109
sg564
g7
(g8
(I0
tp581
g10
tp582
Rp583
(I1
(I3
tp584
g571
I00
S'\x1a\xf5\xf5t\xe2DE@\x00\x00\x00\x80=\n\xc7\xbf\x98\xaf6\x94M\xb3K\xc0'
p585
tp586
bsg576
S'Cell[2].axon[255]'
p587
sI109
I123
tp588
a(F1.9321756503198666
S'Cell[0].apic[36] syn_ = new AmpaNmda(0.5)'
p589
I0
(dp590
S'seg'
p591
F0.7
sS'hostfrom'
p592
F14.0
sS'gid'
p593
I110
sS'coords'
p594
g7
(g8
(I0
tp595
g10
tp596
Rp597
(I1
(I3
tp598
g14
(S'f8'
p599
I0
I1
tp600
Rp601
(I3
S'<'
p602
NNNI-1
I-1
I0
tp603
bI00
S'\x8b-\xe9\xbc\x08\x9eQ@E\x86\xa7\xfd\x1a\x1eD\xc0\x14R\x99%uV=\xc0'
p604
tp605
bsS'secnames'
p606
S'Cell[2].axon[32]'
p607
sI110
I27
tp608
a(F1.908198676060923
S'Cell[1].dend[31] syn_ = new AmpaNmda(0.166666666667)'
p609
I1
(dp610
g591
F0.5
sg592
F14.0
sg593
I110
sg594
g7
(g8
(I0
tp611
g10
tp612
Rp613
(I1
(I3
tp614
g601
I00
S'\x95rX\x00\xd2\xa8L@\xad\xe9\xb8\x14\xea\xc3C@\xec\xe7\xa1wI\x13\x02\xc0'
p615
tp616
bsg606
S'Cell[2].axon[137]'
p617
sI110
I75
tp618
a(F2.0352194522956033
S'Cell[2].dend[22] syn_ = new FastInhib(0.1)'
p619
I2
(dp620
g591
F0.1
sg592
F14.0
sg593
I158
sg594
g7
(g8
(I0
tp621
g10
tp622
Rp623
(I1
(I3
tp624
g601
I00
S'b\x98\x9f\xd4\xf7\xe9M@\xacR\xdf<\x10\xae(\xc0;\xc6\xfaP\xfeG<\xc0'
p625
tp626
bsg606
S'Cell[3].axon[85]'
p627
sI158
I123
tp628
a(F1.7733251911393546
S'Cell[1].dend[20] syn_ = new ExpSid(0.166666666667)'
p629
I1
(dp630
S'seg'
p631
F0.16666666666666666
sS'hostfrom'
p632
F15.0
sS'gid'
p633
I111
sS'coords'
p634
g7
(g8
(I0
tp635
g10
tp636
Rp637
(I1
(I3
tp638
g14
(S'f8'
p639
I0
I1
tp640
Rp641
(I3
S'<'
p642
NNNI-1
I-1
I0
tp643
bI00
S'1\x1fF\t\xa0!H@\x96#]\x9b\xdf\xc0^@r,q0\x83\x8cB\xc0'
p644
tp645
bsS'secnames'
p646
S'Cell[2].axon[130]'
p647
sI111
I75
tp648
a(F1.287730447061817
S'Cell[0].apic[32] syn_ = new ExpSid(0.5)'
p649
I0
(dp650
g631
F0.5
sg632
F15.0
sg633
I159
sg634
g7
(g8
(I0
tp651
g10
tp652
Rp653
(I1
(I3
tp654
g641
I00
S'\x00\x00\x00@\xe1z;@\x00\x00\x00`\xb8\x9e/@\x00\x00\x00`ff\xfe\xbf'
p655
tp656
bsg646
S'Cell[3].soma[0]'
p657
sI159
I27
tp658
a(F2.411600063381885
S'Cell[3].dend[9] syn_ = new FastInhib(0.5)'
p659
I3
(dp660
g631
F0.8333333333333333
sg632
F15.0
sg633
I159
sg634
g7
(g8
(I0
tp661
g10
tp662
Rp663
(I1
(I3
tp664
g641
I00
S'\x0e\xe1?\x9c\xb5\nN\xc0\x13)\xd8+2\xcd7@\x00\x00\x00@\nW#@'
p665
tp666
bsg646
S'Cell[3].axon[293]'
p667
sI159
I171
tp668
a(F1.4168263576347735
S'Cell[0].apic[29] syn_ = new AmpaNmda(0.5)'
p669
I0
(dp670
S'seg'
p671
F0.5
sS'hostfrom'
p672
F16.0
sS'gid'
p673
I160
sS'coords'
p674
g7
(g8
(I0
tp675
g10
tp676
Rp677
(I1
(I3
tp678
g14
(S'f8'
p679
I0
I1
tp680
Rp681
(I3
S'<'
p682
NNNI-1
I-1
I0
tp683
bI00
S'\x00\x00\x00\xa0\x99\xf91@\x00\x00\x00P\xe1\xfa?@\x00\x00\x00\x90\x99\x19(\xc0'
p684
tp685
bsS'secnames'
p686
S'Cell[3].axon[116]'
p687
sI160
I27
tp688
a(F2.1744906439156777
S'Cell[2].dend[9] syn_ = new FastInhib(0.5)'
p689
I2
(dp690
g671
F0.5
sg672
F16.0
sg673
I112
sg674
g7
(g8
(I0
tp691
g10
tp692
Rp693
(I1
(I3
tp694
g681
I00
S'\xa8\x89\x05\x1eo\x8b5@\xee]?Z9\xfb(\xc0\xc4V\xbd\\e#-\xc0'
p695
tp696
bsg686
S'Cell[2].axon[98]'
p697
sI112
I123
tp698
a(F2.266715757495471
S'Cell[3].dend[33] syn_ = new FastInhib(0.833333333333)'
p699
I3
(dp700
S'seg'
p701
F0.5
sS'hostfrom'
p702
F17.0
sS'gid'
p703
I113
sS'coords'
p704
g7
(g8
(I0
tp705
g10
tp706
Rp707
(I1
(I3
tp708
g14
(S'f8'
p709
I0
I1
tp710
Rp711
(I3
S'<'
p712
NNNI-1
I-1
I0
tp713
bI00
S'H@\x80"&\xd2;@\x00(\xc66\xac\x19Z\xc0\x00\x00\x00 \xae\xc72@'
p714
tp715
bsS'secnames'
p716
S'Cell[2].axon[518]'
p717
sI113
I171
tp718
a(F2.234520334795435
S'Cell[3].dend[39] syn_ = new FastInhib(0.5)'
p719
I3
(dp720
g701
F0.8999999999999999
sg702
F17.0
sg703
I161
sg704
g7
(g8
(I0
tp721
g10
tp722
Rp723
(I1
(I3
tp724
g711
I00
S'\xe0<\xdb\xfa\x0bJ@\xc0\x04\x9e\x14r\nvL\xc0\xac\x9e\xa4\xc8\x92<\xe5\xbf'
p725
tp726
bsg716
S'Cell[3].axon[21]'
p727
sI161
I171
tp728
a(F1.7614360989884434
S'Cell[1].dend[13] syn_ = new ExpSid(0.5)'
p729
I1
(dp730
g701
F0.5
sg702
F17.0
sg703
I161
sg704
g7
(g8
(I0
tp731
g10
tp732
Rp733
(I1
(I3
tp734
g711
I00
S'\x00\x00\x00 \xae\xb7@@\x00\x00\x00p=\xeaP@\x00\x00\x00\x80\xebQ$@'
p735
tp736
bsg716
S'Cell[3].axon[38]'
p737
sI161
I75
tp738
a(F1.5719536860154177
S'Cell[0].apic[39] syn_ = new ExpSid(0.5)'
p739
I0
(dp740
g701
F0.8999999999999999
sg702
F17.0
sg703
I161
sg704
g7
(g8
(I0
tp741
g10
tp742
Rp743
(I1
(I3
tp744
g711
I00
S'\x1fv\xcf\xc1\xf6\xe0\xf7\xbf\x9ari"j#Q@L\xa7"\xd6\x9c\xe6F\xc0'
p745
tp746
bsg716
S'Cell[3].axon[233]'
p747
sI161
I27
tp748
a(F1.6220001469578522
S'Cell[1].apic[16] syn_ = new ExpSid(0.833333333333)'
p749
I1
(dp750
g701
F0.5
sg702
F17.0
sg703
I161
sg704
g7
(g8
(I0
tp751
g10
tp752
Rp753
(I1
(I3
tp754
g711
I00
S'\xd2\x82\xe5\x1f\xdc\x8fF@R\x99\x01ws]n@\n\xad\\\xeb\xcd\xde\x15@'
p755
tp756
bsg716
S'Cell[3].axon[276]'
p757
sI161
I75
tp758
a(F1.8549548821957202
S'Cell[0].apic[33] syn_ = new ExpSid(0.166666666667)'
p759
I0
(dp760
g701
F0.5
sg702
F17.0
sg703
I65
sg704
g7
(g8
(I0
tp761
g10
tp762
Rp763
(I1
(I3
tp764
g711
I00
S's?\xba\xf6G\x8bC@\xe3\xafk\xb4bn&@\x00\x00\x00\xe0Q\xb8\x17@'
p765
tp766
bsg716
S'Cell[1].axon[3]'
p767
sI65
I27
tp768
a(F1.0972229116589094
S'Cell[3].dend[39] syn_ = new FastInhib(0.3)'
p769
I3
(dp770
g701
F0.1
sg702
F17.0
sg703
I65
sg704
g7
(g8
(I0
tp771
g10
tp772
Rp773
(I1
(I3
tp774
g711
I00
S'\x03\x8c`\xd9\xc368\xc0\xef\xf6\xc1\xb90\x80A\xc0\x80N \x1a\xaa-\xa9\xbf'
p775
tp776
bsg716
S'Cell[1].axon[13]'
p777
sI65
I171
tp778
a(F1.8752808363308733
S'Cell[0].apic[40] syn_ = new AmpaNmda(0.1)'
p779
I0
(dp780
S'seg'
p781
F0.5
sS'hostfrom'
p782
F18.0
sS'gid'
p783
I162
sS'coords'
p784
g7
(g8
(I0
tp785
g10
tp786
Rp787
(I1
(I3
tp788
g14
(S'f8'
p789
I0
I1
tp790
Rp791
(I3
S'<'
p792
NNNI-1
I-1
I0
tp793
bI00
S'Q\x8e\xf3\xbe{\xf03@H\x04\x86\xd2\x0f-O@\x0f!j\xf8\x944,\xc0'
p794
tp795
bsS'secnames'
p796
S'Cell[3].axon[178]'
p797
sI162
I27
tp798
a(F1.0624429913470492
S'Cell[3].dend[30] syn_ = new FastInhib(0.833333333333)'
p799
I3
(dp800
g781
F0.6111111111111112
sg782
F18.0
sg783
I162
sg784
g7
(g8
(I0
tp801
g10
tp802
Rp803
(I1
(I3
tp804
g791
I00
S"\x86\x02\xfb\xa6\xd6l\x18@F\xde\xad4=vP\xc0M\x87\xa9'\xeb\x9a\xfa?"
p805
tp806
bsg796
S'Cell[3].axon[203]'
p807
sI162
I171
tp808
a(F2.3564726284496946
S'Cell[3].dend[35] syn_ = new FastInhib(0.833333333333)'
p809
I3
(dp810
S'seg'
p811
F0.5
sS'hostfrom'
p812
F19.0
sS'gid'
p813
I67
sS'coords'
p814
g7
(g8
(I0
tp815
g10
tp816
Rp817
(I1
(I3
tp818
g14
(S'f8'
p819
I0
I1
tp820
Rp821
(I3
S'<'
p822
NNNI-1
I-1
I0
tp823
bI00
S'\x1aE\x10\xbb\x84`\xd5?sL\xba\x1c\x97\xbdI\xc0n\xb9\xa4\x9e\x1e\xde(@'
p824
tp825
bsS'secnames'
p826
S'Cell[1].axon[7]'
p827
sI67
I171
tp828
a(F1.3230013646983096
S'Cell[3].dend[9] syn_ = new FastInhib(0.166666666667)'
p829
I3
(dp830
S'seg'
p831
F0.8333333333333333
sS'hostfrom'
p832
F20.0
sS'gid'
p833
I68
sS'coords'
p834
g7
(g8
(I0
tp835
g10
tp836
Rp837
(I1
(I3
tp838
g14
(S'f8'
p839
I0
I1
tp840
Rp841
(I3
S'<'
p842
NNNI-1
I-1
I0
tp843
bI00
S'j\x95\x19\xc6\xf4\xd9K\xc0uY\xfcw\xd8QA@c3\xde\x7f\x84h-@'
p844
tp845
bsS'secnames'
p846
S'Cell[1].axon[14]'
p847
sI68
I171
tp848
a(F1.8332191265548217
S'Cell[1].dend[7] syn_ = new AmpaNmda(0.166666666667)'
p849
I1
(dp850
g831
F0.16666666666666666
sg832
F20.0
sg833
I20
sg834
g7
(g8
(I0
tp851
g10
tp852
Rp853
(I1
(I3
tp854
g841
I00
S'\x92E\xfcP\x89\x04 \xc0\xeb\xf2\xad\x9awyE@\x0c\x81\xe2\x97G\xb8"@'
p855
tp856
bsg846
S'Cell[0].axon[0]'
p857
sI20
I75
tp858
a(F1.402316297089481
S'Cell[3].dend[37] syn_ = new FastInhib(0.928571428571)'
p859
I3
(dp860
g831
F0.8333333333333333
sg832
F20.0
sg833
I116
sg834
g7
(g8
(I0
tp861
g10
tp862
Rp863
(I1
(I3
tp864
g841
I00
S'D\x7f5)\xff\x8fW\xc0\xf7\x1bo\x85\x88\x15+@\x00\x00\x00@3#P\xc0'
p865
tp866
bsg846
S'Cell[2].axon[319]'
p867
sI116
I171
tp868
a(F2.3916852572568246
S'Cell[3].dend[25] syn_ = new FastInhib(0.833333333333)'
p869
I3
(dp870
S'seg'
p871
F0.5
sS'hostfrom'
p872
F21.0
sS'gid'
p873
I165
sS'coords'
p874
g7
(g8
(I0
tp875
g10
tp876
Rp877
(I1
(I3
tp878
g14
(S'f8'
p879
I0
I1
tp880
Rp881
(I3
S'<'
p882
NNNI-1
I-1
I0
tp883
bI00
S'&\x84\xa2\x92\xf9\xcdY@\xf2\xcf\xa1\xb1\x16\x9eH@$\xdf\xadU\xe9\x972@'
p884
tp885
bsS'secnames'
p886
S'Cell[3].axon[15]'
p887
sI165
I171
tp888
a(F1.1941436709359485
S'Cell[2].dend[22] syn_ = new FastInhib(0.1)'
p889
I2
(dp890
g871
F0.21428571428571427
sg872
F21.0
sg873
I165
sg874
g7
(g8
(I0
tp891
g10
tp892
Rp893
(I1
(I3
tp894
g881
I00
S'\xd0B\r\x8cg\xe2M@;\x94)\x190!*\xc08\xe1\xea\x861*=\xc0'
p895
tp896
bsg886
S'Cell[3].axon[26]'
p897
sI165
I123
tp898
a(F1.5919590806263662
S'Cell[2].dend[15] syn_ = new FastInhib(0.5)'
p899
I2
(dp900
g871
F0.5
sg872
F21.0
sg873
I117
sg874
g7
(g8
(I0
tp901
g10
tp902
Rp903
(I1
(I3
tp904
g881
I00
S'\xc6TT\xfb\xab\x1bA@\x11W\xf1t\x82\xc6J@\x00\x00\x00\x80\xc2u9\xc0'
p905
tp906
bsg886
S'Cell[2].axon[64]'
p907
sI117
I123
tp908
a(F2.120049349308447
S'Cell[0].apic[15] syn_ = new ExpSid(0.5)'
p909
I0
(dp910
g871
F0.8333333333333333
sg872
F21.0
sg873
I117
sg874
g7
(g8
(I0
tp911
g10
tp912
Rp913
(I1
(I3
tp914
g881
I00
S'>\x0e\xc6\x81\x194O\xc0\xec00\xe5\xf1\xfcW@\x00\x00\x00\x80\xc2u9\xc0'
p915
tp916
bsg886
S'Cell[2].axon[451]'
p917
sI117
I27
tp918
a(F1.734018092786739
S'Cell[1].dend[11] syn_ = new ExpSid(0.3)'
p919
I1
(dp920
g871
F0.5
sg872
F21.0
sg873
I117
sg874
g7
(g8
(I0
tp921
g10
tp922
Rp923
(I1
(I3
tp924
g881
I00
S'4\x12F\xe6[U\x1d\xc0\xcdIU\xbc\xeaFX@\x00\x00\x00\x80\xc2u9\xc0'
p925
tp926
bsg886
S'Cell[2].axon[534]'
p927
sI117
I75
tp928
a(F2.103293025529047
S'Cell[1].dend[31] syn_ = new AmpaNmda(0.166666666667)'
p929
I1
(dp930
S'seg'
p931
F0.07142857142857142
sS'hostfrom'
p932
F22.0
sS'gid'
p933
I166
sS'coords'
p934
g7
(g8
(I0
tp935
g10
tp936
Rp937
(I1
(I3
tp938
g14
(S'f8'
p939
I0
I1
tp940
Rp941
(I3
S'<'
p942
NNNI-1
I-1
I0
tp943
bI00
S'(\x08\x9b\xb1F\x81K@\xd8\x17\xfe\xb8\x05{B@\xbc6N\xcf\x86\x90\xe6\xbf'
p944
tp945
bsS'secnames'
p946
S'Cell[3].axon[297]'
p947
sI166
I75
tp948
a(F1.523831057521723
S'Cell[3].dend[40] syn_ = new FastInhib(0.166666666667)'
p949
I3
(dp950
S'seg'
p951
F0.5
sS'hostfrom'
p952
F23.0
sS'gid'
p953
I71
sS'coords'
p954
g7
(g8
(I0
tp955
g10
tp956
Rp957
(I1
(I3
tp958
g14
(S'f8'
p959
I0
I1
tp960
Rp961
(I3
S'<'
p962
NNNI-1
I-1
I0
tp963
bI00
S'P@\xc3*\xf5\xa6\x0c@J2\xb4\x85\x8f\xca\x11\xc0\x1e\xef\xe0C\xc8\xb4\x15@'
p964
tp965
bsS'secnames'
p966
S'Cell[1].axon[0]'
p967
sI71
I171
tp968
a(F2.3779902900653846
S'Cell[0].dend[16] syn_ = new ExpSid(0.9)'
p969
I0
(dp970
g951
F0.6818181818181819
sg952
F23.0
sg953
I167
sg954
g7
(g8
(I0
tp971
g10
tp972
Rp973
(I1
(I3
tp974
g961
I00
S'\x08\x9aA\xf9/\xd2`\xc0\x8ap\xf8\x05\xb3\x0e7@\xf0\xc4gx\x96&I\xc0'
p975
tp976
bsg966
S'Cell[3].axon[158]'
p977
sI167
I27
tp978
a(F2.4117052952452482
S'Cell[0].dend[17] syn_ = new ExpSid(0.166666666667)'
p979
I0
(dp980
g951
F0.8333333333333333
sg952
F23.0
sg953
I167
sg954
g7
(g8
(I0
tp981
g10
tp982
Rp983
(I1
(I3
tp984
g961
I00
S'e\xc8\x05\x94\xc2$D\xc0\xc10\xe1_\xea4(@\xf2\x824\xfa~\xb6 @'
p985
tp986
bsg966
S'Cell[3].axon[171]'
p987
sI167
I27
tp988
a(F1.666588336040648
S'Cell[1].apic[8] syn_ = new ExpSid(0.5)'
p989
I1
(dp990
g951
F0.40909090909090906
sg952
F23.0
sg953
I23
sg954
g7
(g8
(I0
tp991
g10
tp992
Rp993
(I1
(I3
tp994
g961
I00
S'\x95\xeb\xfft\xd1qB@\x03\xc6\x01B\xd2\xcf_@\xb9\xafV\xd9\xd9\xd5\x0f\xc0'
p995
tp996
bsg966
S'Cell[0].axon[8]'
p997
sI23
I75
tp998
a(F2.3264541602379585
S'Cell[0].dend[22] syn_ = new AmpaNmda(0.5)'
p999
I0
(dp1000
S'seg'
p1001
F0.5
sS'hostfrom'
p1002
F24.0
sS'gid'
p1003
I168
sS'coords'
p1004
g7
(g8
(I0
tp1005
g10
tp1006
Rp1007
(I1
(I3
tp1008
g14
(S'f8'
p1009
I0
I1
tp1010
Rp1011
(I3
S'<'
p1012
NNNI-1
I-1
I0
tp1013
bI00
S'\xa2F$\x8b\x1f\x8c9@\xbb\xd2.\xa1^\xd8$@\x17\x83\xf8q9\x8b%@'
p1014
tp1015
bsS'secnames'
p1016
S'Cell[3].axon[591]'
p1017
sI168
I27
tp1018
a(F1.34678201452027
S'Cell[0].apic[39] syn_ = new ExpSid(0.5)'
p1019
I0
(dp1020
S'seg'
p1021
F0.5
sS'hostfrom'
p1022
F25.0
sS'gid'
p1023
I121
sS'coords'
p1024
g7
(g8
(I0
tp1025
g10
tp1026
Rp1027
(I1
(I3
tp1028
g14
(S'f8'
p1029
I0
I1
tp1030
Rp1031
(I3
S'<'
p1032
NNNI-1
I-1
I0
tp1033
bI00
S'\x00\x00\x00\xa8\x99\x99\x02\xc0\x00\x00\x00@\n?Q@\x00\x00\x00\xc0\x1e\xe5F\xc0'
p1034
tp1035
bsS'secnames'
p1036
S'Cell[2].axon[11]'
p1037
sI121
I27
tp1038
a(F2.1631874110484777
S'Cell[1].dend[12] syn_ = new ExpSid(0.3)'
p1039
I1
(dp1040
g1021
F0.5
sg1022
F25.0
sg1023
I121
sg1024
g7
(g8
(I0
tp1041
g10
tp1042
Rp1043
(I1
(I3
tp1044
g1031
I00
S'>4H\xa7\x87N\xdc?\x86\xdf\xc14\x96|N@\xe4\xfd\xcbu\x93m5\xc0'
p1045
tp1046
bsg1036
S'Cell[2].axon[24]'
p1047
sI121
I75
tp1048
a(F1.620839395598197
S'Cell[1].apic[16] syn_ = new ExpSid(0.166666666667)'
p1049
I1
(dp1050
g1021
F0.6111111111111112
sg1022
F25.0
sg1023
I121
sg1024
g7
(g8
(I0
tp1051
g10
tp1052
Rp1053
(I1
(I3
tp1054
g1031
I00
S'x\xdb\xc5~\xe9\xaeE@t@!<\x97\xb6g@*\xb0\xbb\xc4#^\x10@'
p1055
tp1056
bsg1036
S'Cell[2].axon[30]'
p1057
sI121
I75
tp1058
a(F1.0261125025500668
S'Cell[2].dend[4] syn_ = new FastInhib(0.5)'
p1059
I2
(dp1060
g1021
F0.5
sg1022
F25.0
sg1023
I121
sg1024
g7
(g8
(I0
tp1061
g10
tp1062
Rp1063
(I1
(I3
tp1064
g1031
I00
S'\xf5\xaa\x91\x80\xbc\xa9@\xc02k\xac\xf6O\xa9>@\t\x96\x16\x91\x99\x1f\x1f\xc0'
p1065
tp1066
bsg1036
S'Cell[2].axon[102]'
p1067
sI121
I123
tp1068
a(F2.333367968933644
S'Cell[0].dend[17] syn_ = new ExpSid(0.5)'
p1069
I0
(dp1070
g1021
F0.5
sg1022
F25.0
sg1023
I121
sg1024
g7
(g8
(I0
tp1071
g10
tp1072
Rp1073
(I1
(I3
tp1074
g1031
I00
S'\x92\xc0\xa02a\x07O\xc0\xf9\xc3\x97\\ys\xec\xbf\xb8\xbf\x82\xb7\x1b\xe62@'
p1075
tp1076
bsg1036
S'Cell[2].axon[376]'
p1077
sI121
I27
tp1078
a(F2.312817420917026
S'Cell[3].dend[39] syn_ = new FastInhib(0.5)'
p1079
I3
(dp1080
g1021
F0.5
sg1022
F25.0
sg1023
I169
sg1024
g7
(g8
(I0
tp1081
g10
tp1082
Rp1083
(I1
(I3
tp1084
g1031
I00
S'JF~H\x1d A\xc0B$\xa5ve\xb2K\xc0\x15\x82\x9a+\xecw\xf4\xbf'
p1085
tp1086
bsg1036
S'Cell[3].axon[0]'
p1087
sI169
I171
tp1088
a(F2.3693775971305664
S'Cell[0].apic[20] syn_ = new AmpaNmda(0.5)'
p1089
I0
(dp1090
S'seg'
p1091
F0.8333333333333333
sS'hostfrom'
p1092
F26.0
sS'gid'
p1093
I170
sS'coords'
p1094
g7
(g8
(I0
tp1095
g10
tp1096
Rp1097
(I1
(I3
tp1098
g14
(S'f8'
p1099
I0
I1
tp1100
Rp1101
(I3
S'<'
p1102
NNNI-1
I-1
I0
tp1103
bI00
S'\xe7\x9aV\xceG\xd9=\xc0\xcdVdG\x92\xedL@\x00\x00\x00@33#@'
p1104
tp1105
bsS'secnames'
p1106
S'Cell[3].axon[459]'
p1107
sI170
I27
tp1108
a(F1.4800001397880254
S'Cell[0].apic[38] syn_ = new AmpaNmda(0.5)'
p1109
I0
(dp1110
g1091
F0.5
sg1092
F26.0
sg1093
I170
sg1094
g7
(g8
(I0
tp1111
g10
tp1112
Rp1113
(I1
(I3
tp1114
g1101
I00
S'\xce\xd0-<\xa5\xb40@\xc4\x90Aa6`D@\x00\x00\x00@33"\xc0'
p1115
tp1116
bsg1106
S'Cell[3].axon[471]'
p1117
sI170
I27
tp1118
a(F1.9304918296898494
S'Cell[1].dend[5] syn_ = new ExpSid(0.5)'
p1119
I1
(dp1120
S'seg'
p1121
F0.5
sS'hostfrom'
p1122
F27.0
sS'gid'
p1123
I171
sS'coords'
p1124
g7
(g8
(I0
tp1125
g10
tp1126
Rp1127
(I1
(I3
tp1128
g14
(S'f8'
p1129
I0
I1
tp1130
Rp1131
(I3
S'<'
p1132
NNNI-1
I-1
I0
tp1133
bI00
S'<\x9f\xf3\x13\xd8\xb2&@\xcf\xe7\xfc\x8c\xca\x1aO@\x00\x00\x00\x00)\\\x0f@'
p1134
tp1135
bsS'secnames'
p1136
S'Cell[3].axon[0]'
p1137
sI171
I75
tp1138
a(F1.7971162369262077
S'Cell[1].dend[31] syn_ = new ExpSid(0.166666666667)'
p1139
I1
(dp1140
g1121
F0.5
sg1122
F27.0
sg1123
I171
sg1124
g7
(g8
(I0
tp1141
g10
tp1142
Rp1143
(I1
(I3
tp1144
g1131
I00
S'm\xcb\x8bL\x01\x8aL@\xac\xe2Lm\x9c\xe7C@g\xcab#/`\xe5\xbf'
p1145
tp1146
bsg1136
S'Cell[3].axon[10]'
p1147
sI171
I75
tp1148
a(F1.381144408723559
S'Cell[2].apic[3] syn_ = new FastInhib(0.1)'
p1149
I2
(dp1150
S'seg'
p1151
F0.5
sS'hostfrom'
p1152
F30.0
sS'gid'
p1153
I126
sS'coords'
p1154
g7
(g8
(I0
tp1155
g10
tp1156
Rp1157
(I1
(I3
tp1158
g14
(S'f8'
p1159
I0
I1
tp1160
Rp1161
(I3
S'<'
p1162
NNNI-1
I-1
I0
tp1163
bI00
S'"=\xb4\xcf\x7f26@\xdb\xb7W\xcf\xbd\'>@\xd6\xb8\xdfF.Q\x1b@'
p1164
tp1165
bsS'secnames'
p1166
S'Cell[2].axon[30]'
p1167
sI126
I123
tp1168
a(F2.2408708125794945
S'Cell[1].apic[2] syn_ = new AmpaNmda(0.166666666667)'
p1169
I1
(dp1170
g1151
F0.8333333333333333
sg1152
F30.0
sg1153
I126
sg1154
g7
(g8
(I0
tp1171
g10
tp1172
Rp1173
(I1
(I3
tp1174
g1161
I00
S'\xc0\xc9\x1d\x81\r\x8b*@!\xbe\xe9\xa5,\x15[@&\x8f\x94\xe9\xbay&\xc0'
p1175
tp1176
bsg1166
S'Cell[2].axon[175]'
p1177
sI126
I75
tp1178
a(F1.6065428314749242
S'Cell[1].dend[25] syn_ = new AmpaNmda(0.5)'
p1179
I1
(dp1180
g1151
F0.7
sg1152
F30.0
sg1153
I126
sg1154
g7
(g8
(I0
tp1181
g10
tp1182
Rp1183
(I1
(I3
tp1184
g1161
I00
S'Y\xdeo\x03i\xf8H@\nT\x804\x8d\xdeP@}\x0f\xfau\x05d\x19\xc0'
p1185
tp1186
bsg1166
S'Cell[2].axon[176]'
p1187
sI126
I75
tp1188
a(F1.700728006769943
S'Cell[3].dend[7] syn_ = new FastInhib(0.5)'
p1189
I3
(dp1190
g1151
F0.5
sg1152
F30.0
sg1153
I174
sg1154
g7
(g8
(I0
tp1191
g10
tp1192
Rp1193
(I1
(I3
tp1194
g1161
I00
S'S$\x08]\xe3JD\xc0,h9\xfaLFN@\xdc \xeb\xf1\xc6\xab\x16\xc0'
p1195
tp1196
bsg1166
S'Cell[3].axon[50]'
p1197
sI174
I171
tp1198
a(F1.929545241861246
S'Cell[3].dend[13] syn_ = new FastInhib(0.214285714286)'
p1199
I3
(dp1200
S'seg'
p1201
F0.1
sS'hostfrom'
p1202
F31.0
sS'gid'
p1203
I175
sS'coords'
p1204
g7
(g8
(I0
tp1205
g10
tp1206
Rp1207
(I1
(I3
tp1208
g14
(S'f8'
p1209
I0
I1
tp1210
Rp1211
(I3
S'<'
p1212
NNNI-1
I-1
I0
tp1213
bI00
S'\xf8\xea\xe5s\xfc\xb3W@\xf7RX\x1f2<6@\x00\x00\x00 \x85\x0bP\xc0'
p1214
tp1215
bsS'secnames'
p1216
S'Cell[3].axon[232]'
p1217
sI175
I171
tp1218
a(F1.6985489110621335
S'Cell[1].apic[6] syn_ = new ExpSid(0.833333333333)'
p1219
I1
(dp1220
g1201
F0.6428571428571428
sg1202
F31.0
sg1203
I175
sg1204
g7
(g8
(I0
tp1221
g10
tp1222
Rp1223
(I1
(I3
tp1224
g1211
I00
S'\x81\xfc\x9a\xce\x89Q\x15@\x98Uv{\xf9\xf0c@\xb7g#\xd3\xec\x187\xc0'
p1225
tp1226
bsg1216
S'Cell[3].axon[352]'
p1227
sI175
I75
tp1228
a(F2.029632358602633
S'Cell[1].dend[29] syn_ = new AmpaNmda(0.5)'
p1229
I1
(dp1230
S'seg'
p1231
F0.7222222222222223
sS'hostfrom'
p1232
F32.0
sS'gid'
p1233
I32
sS'coords'
p1234
g7
(g8
(I0
tp1235
g10
tp1236
Rp1237
(I1
(I3
tp1238
g14
(S'f8'
p1239
I0
I1
tp1240
Rp1241
(I3
S'<'
p1242
NNNI-1
I-1
I0
tp1243
bI00
S'\x0e\xae\x140~\xa0J@`\x95\xed\x90%\xcbL@\x00\x00\x00`\x8f\xc2\x10\xc0'
p1244
tp1245
bsS'secnames'
p1246
S'Cell[0].axon[38]'
p1247
sI32
I75
tp1248
a(F1.306528089917411
S'Cell[0].dend[5] syn_ = new AmpaNmda(0.833333333333)'
p1249
I0
(dp1250
g1231
F0.6428571428571428
sg1232
F32.0
sg1233
I176
sg1234
g7
(g8
(I0
tp1251
g10
tp1252
Rp1253
(I1
(I3
tp1254
g1241
I00
S',\xc0f\x00\xea\xd4_\xc0M\x1e\x8e\xe2\xde\xa0\x16\xc0\x00\x00\x00\x00)\\\x14\xc0'
p1255
tp1256
bsg1246
S'Cell[3].axon[92]'
p1257
sI176
I27
tp1258
a(F1.5489539850124552
S'Cell[3].dend[11] syn_ = new FastInhib(0.5)'
p1259
I3
(dp1260
S'seg'
p1261
F0.16666666666666666
sS'hostfrom'
p1262
F33.0
sS'gid'
p1263
I129
sS'coords'
p1264
g7
(g8
(I0
tp1265
g10
tp1266
Rp1267
(I1
(I3
tp1268
g14
(S'f8'
p1269
I0
I1
tp1270
Rp1271
(I3
S'<'
p1272
NNNI-1
I-1
I0
tp1273
bI00
S',\x0e\xe20n\xce3@(\xb0\x9a\xe54\x0e9@R,B`P\x80"\xc0'
p1274
tp1275
bsS'secnames'
p1276
S'Cell[2].axon[43]'
p1277
sI129
I171
tp1278
a(F2.099697259277546
S'Cell[1].dend[39] syn_ = new ExpSid(0.5)'
p1279
I1
(dp1280
g1261
F0.5
sg1262
F33.0
sg1263
I129
sg1264
g7
(g8
(I0
tp1281
g10
tp1282
Rp1283
(I1
(I3
tp1284
g1271
I00
S'\x00\x00\x00\xa0\x99\xc9I@\x00\x00\x00\x10\xd73X@\x00\x00\x00\xd0\xcc\xcc*@'
p1285
tp1286
bsg1276
S'Cell[2].axon[55]'
p1287
sI129
I75
tp1288
a(F2.002658552491279
S'Cell[0].apic[24] syn_ = new ExpSid(0.5)'
p1289
I0
(dp1290
g1261
F0.5
sg1262
F33.0
sg1263
I177
sg1264
g7
(g8
(I0
tp1291
g10
tp1292
Rp1293
(I1
(I3
tp1294
g1271
I00
S'E,\x15r\x00-K\xc0\x86\x80\x84\xdd\x95\xb9U@\x00\x00\x00\xc0\xcc\xcc\x1d\xc0'
p1295
tp1296
bsg1276
S'Cell[3].axon[181]'
p1297
sI177
I27
tp1298
a(F2.1638450078208145
S'Cell[1].dend[27] syn_ = new AmpaNmda(0.5)'
p1299
I1
(dp1300
S'seg'
p1301
F0.7
sS'hostfrom'
p1302
F34.0
sS'gid'
p1303
I82
sS'coords'
p1304
g7
(g8
(I0
tp1305
g10
tp1306
Rp1307
(I1
(I3
tp1308
g14
(S'f8'
p1309
I0
I1
tp1310
Rp1311
(I3
S'<'
p1312
NNNI-1
I-1
I0
tp1313
bI00
S'\xda\xedcM\x89\xffR@r\x0b\xd5\x9fO7F@@\x15\x9b\xaf\x92|G\xc0'
p1314
tp1315
bsS'secnames'
p1316
S'Cell[1].axon[10]'
p1317
sI82
I75
tp1318
a(F1.2762515050012935
S'Cell[1].apic[31] syn_ = new AmpaNmda(0.166666666667)'
p1319
I1
(dp1320
g1301
F0.16666666666666666
sg1302
F34.0
sg1303
I178
sg1304
g7
(g8
(I0
tp1321
g10
tp1322
Rp1323
(I1
(I3
tp1324
g1311
I00
S'57\xb9,"pL@\x03\xd7t1\xacHq@\x13\xcb\xd5\xa8S\xd4\xe6\xbf'
p1325
tp1326
bsg1316
S'Cell[3].axon[364]'
p1327
sI178
I75
tp1328
a(F1.9430339049309056
S'Cell[2].dend[7] syn_ = new FastInhib(0.5)'
p1329
I2
(dp1330
S'seg'
p1331
F0.16666666666666666
sS'hostfrom'
p1332
F35.0
sS'gid'
p1333
I83
sS'coords'
p1334
g7
(g8
(I0
tp1335
g10
tp1336
Rp1337
(I1
(I3
tp1338
g14
(S'f8'
p1339
I0
I1
tp1340
Rp1341
(I3
S'<'
p1342
NNNI-1
I-1
I0
tp1343
bI00
S'\xe0@ 9J\xfc\x1e\xc0`\xa9\x90\xe0\xab\xdcT\xc0\xcc\x89\xdf\xea\x01\x9d"@'
p1344
tp1345
bsS'secnames'
p1346
S'Cell[1].axon[216]'
p1347
sI83
I123
tp1348
a(F1.6038783060163884
S'Cell[1].dend[9] syn_ = new ExpSid(0.5)'
p1349
I1
(dp1350
g1331
F0.8333333333333333
sg1332
F35.0
sg1333
I179
sg1334
g7
(g8
(I0
tp1351
g10
tp1352
Rp1353
(I1
(I3
tp1354
g1341
I00
S'\x85\x19eh"\x191@J\xa6owgDT@\x90\xf3y\xa2\xf3\x93+\xc0'
p1355
tp1356
bsg1346
S'Cell[3].axon[9]'
p1357
sI179
I75
tp1358
a(F1.7988948166789307
S'Cell[3].dend[25] syn_ = new FastInhib(0.5)'
p1359
I3
(dp1360
g1331
F0.5
sg1332
F35.0
sg1333
I179
sg1334
g7
(g8
(I0
tp1361
g10
tp1362
Rp1363
(I1
(I3
tp1364
g1341
I00
S'\xf2\x9a\xb1\xe5,\xebT@~)\xf0\xe7N\x7fH@Tw3\xad`4!@'
p1365
tp1366
bsg1346
S'Cell[3].axon[162]'
p1367
sI179
I171
tp1368
a(F2.1187580075078594
S'Cell[1].apic[7] syn_ = new AmpaNmda(0.833333333333)'
p1369
I1
(dp1370
S'seg'
p1371
F0.16666666666666666
sS'hostfrom'
p1372
F36.0
sS'gid'
p1373
I84
sS'coords'
p1374
g7
(g8
(I0
tp1375
g10
tp1376
Rp1377
(I1
(I3
tp1378
g14
(S'f8'
p1379
I0
I1
tp1380
Rp1381
(I3
S'<'
p1382
NNNI-1
I-1
I0
tp1383
bI00
S"\xa36:'\xe1X6\xc0\xfa\xb2\x95Vj\xe9c@\x00\x1br\x1d\\\x16B\xc0"
p1384
tp1385
bsS'secnames'
p1386
S'Cell[1].axon[66]'
p1387
sI84
I75
tp1388
a(F2.1938221452776543
S'Cell[0].apic[35] syn_ = new AmpaNmda(0.5)'
p1389
I0
(dp1390
g1371
F0.16666666666666666
sg1372
F36.0
sg1373
I84
sg1374
g7
(g8
(I0
tp1391
g10
tp1392
Rp1393
(I1
(I3
tp1394
g1381
I00
S'l\x0cqs\xb7!D@\x87B4Bz4/@%\x1e\x14(\xf4\x06+\xc0'
p1395
tp1396
bsg1386
S'Cell[1].axon[283]'
p1397
sI84
I27
tp1398
a(F0.8491256361098087
S'Cell[0].apic[20] syn_ = new AmpaNmda(0.5)'
p1399
I0
(dp1400
g1371
F0.8999999999999999
sg1372
F36.0
sg1373
I84
sg1374
g7
(g8
(I0
tp1401
g10
tp1402
Rp1403
(I1
(I3
tp1404
g1381
I00
S'\x8f\xf3\xc5\xd4\xdc\xa7=\xc0\x1dco\xa0\tKN@\xd8&[\x15\xdaR @'
p1405
tp1406
bsg1386
S'Cell[1].axon[480]'
p1407
sI84
I27
tp1408
a(F1.3885127138280915
S'Cell[1].dend[18] syn_ = new AmpaNmda(0.166666666667)'
p1409
I1
(dp1410
g1371
F0.5
sg1372
F36.0
sg1373
I84
sg1374
g7
(g8
(I0
tp1411
g10
tp1412
Rp1413
(I1
(I3
tp1414
g1381
I00
S'\xb9\xb1t\xdeI\xebA@\xa5\xd8\x10\x87\x1cvT@\x00\x00\x00@3\xb3&\xc0'
p1415
tp1416
bsg1386
S'Cell[1].axon[514]'
p1417
sI84
I75
tp1418
a(F2.070879839880762
S'Cell[1].dend[21] syn_ = new AmpaNmda(0.5)'
p1419
I1
(dp1420
g1371
F0.5
sg1372
F36.0
sg1373
I132
sg1374
g7
(g8
(I0
tp1421
g10
tp1422
Rp1423
(I1
(I3
tp1424
g1381
I00
S"\xa4'\xdf\xcb\x90OG@ \xaf\x87\xee\x027S@\xca\x95k\x83\xde\x9e\xd3\xbf"
p1425
tp1426
bsg1386
S'Cell[2].axon[62]'
p1427
sI132
I75
tp1428
a(F2.2428351688128196
S'Cell[1].dend[24] syn_ = new AmpaNmda(0.833333333333)'
p1429
I1
(dp1430
g1371
F0.16666666666666666
sg1372
F36.0
sg1373
I132
sg1374
g7
(g8
(I0
tp1431
g10
tp1432
Rp1433
(I1
(I3
tp1434
g1381
I00
S'h\x7fbg\xb2\xd5U@\x84\xbap\xa6\xc3t>@\xf5\x82YElW\x1d@'
p1435
tp1436
bsg1386
S'Cell[2].axon[120]'
p1437
sI132
I75
tp1438
a(F1.9455469821238929
S'Cell[0].apic[32] syn_ = new AmpaNmda(0.5)'
p1439
I0
(dp1440
g1371
F0.5
sg1372
F36.0
sg1373
I132
sg1374
g7
(g8
(I0
tp1441
g10
tp1442
Rp1443
(I1
(I3
tp1444
g1381
I00
S'\x83TW\x13<:<@\x87_\x883\x02\x05+@\xff\xacRT%L\xfc\xbf'
p1445
tp1446
bsg1386
S'Cell[2].axon[186]'
p1447
sI132
I27
tp1448
a(F2.2704318579764444
S'Cell[2].dend[23] syn_ = new FastInhib(0.1)'
p1449
I2
(dp1450
g1371
F0.5
sg1372
F36.0
sg1373
I132
sg1374
g7
(g8
(I0
tp1451
g10
tp1452
Rp1453
(I1
(I3
tp1454
g1381
I00
S'\xf2\x95\xa5\xba|\xc5O@\x8eo\xdd\x86\xe1G(\xc0\x9b\xad\x0e\x84\x85\xcc0\xc0'
p1455
tp1456
bsg1386
S'Cell[2].axon[192]'
p1457
sI132
I123
tp1458
a(F1.7477860334894335
S'Cell[3].dend[6] syn_ = new FastInhib(0.5)'
p1459
I3
(dp1460
g1371
F0.5
sg1372
F36.0
sg1373
I180
sg1374
g7
(g8
(I0
tp1461
g10
tp1462
Rp1463
(I1
(I3
tp1464
g1381
I00
S')\xf2\xf0\x01\xa1\xb2C\xc0\xcf\x0807\x97bQ@\x01Z\xbcK\x0f1\x12\xc0'
p1465
tp1466
bsg1386
S'Cell[3].axon[136]'
p1467
sI180
I171
tp1468
a(F1.7635912933704063
S'Cell[2].apic[0] syn_ = new FastInhib(0.5)'
p1469
I2
(dp1470
S'seg'
p1471
F0.16666666666666666
sS'hostfrom'
p1472
F37.0
sS'gid'
p1473
I133
sS'coords'
p1474
g7
(g8
(I0
tp1475
g10
tp1476
Rp1477
(I1
(I3
tp1478
g14
(S'f8'
p1479
I0
I1
tp1480
Rp1481
(I3
S'<'
p1482
NNNI-1
I-1
I0
tp1483
bI00
S'\xa0\xd5\x91=E\xe24@\xcd\x13\xa9\xf3\x92\x13\x08@.uS,u{\xe8?'
p1484
tp1485
bsS'secnames'
p1486
S'Cell[2].axon[9]'
p1487
sI133
I123
tp1488
a(F1.7772924766110725
S'Cell[2].dend[3] syn_ = new FastInhib(0.5)'
p1489
I2
(dp1490
g1471
F0.16666666666666666
sg1472
F37.0
sg1473
I133
sg1474
g7
(g8
(I0
tp1491
g10
tp1492
Rp1493
(I1
(I3
tp1494
g1481
I00
S'\xee\x97\xfe\xfd\xf6QB\xc0l\xea\xe3\xb9\xb0\x86\x10@}{j\x06\xe6F$@'
p1495
tp1496
bsg1486
S'Cell[2].axon[52]'
p1497
sI133
I123
tp1498
a(F1.8744850614011257
S'Cell[2].dend[3] syn_ = new FastInhib(0.833333333333)'
p1499
I2
(dp1500
g1471
F0.5
sg1472
F37.0
sg1473
I133
sg1474
g7
(g8
(I0
tp1501
g10
tp1502
Rp1503
(I1
(I3
tp1504
g1481
I00
S'|\xd2*\x05@\xfdN\xc0:\xb8i\xf2\xed\xd8\x18@\x18,)\x9b\xa0E4@'
p1505
tp1506
bsg1486
S'Cell[2].axon[62]'
p1507
sI133
I123
tp1508
a(F1.6074946442906197
S'Cell[2].dend[0] syn_ = new FastInhib(0.5)'
p1509
I2
(dp1510
g1471
F0.16666666666666666
sg1472
F37.0
sg1473
I133
sg1474
g7
(g8
(I0
tp1511
g10
tp1512
Rp1513
(I1
(I3
tp1514
g1481
I00
S'\xadGx\xe5v\xf1\x11@4\xccj\xb6\x9f\xf9,\xc0\x00\x00\x00`\x8f\xc2\x01\xc0'
p1515
tp1516
bsg1486
S'Cell[2].axon[102]'
p1517
sI133
I123
tp1518
a(F2.479611133281805
S'Cell[3].dend[29] syn_ = new FastInhib(0.5)'
p1519
I3
(dp1520
g1471
F0.5
sg1472
F37.0
sg1473
I181
sg1474
g7
(g8
(I0
tp1521
g10
tp1522
Rp1523
(I1
(I3
tp1524
g1481
I00
S'p\xc6\x95\xf7\xe0\x17$@[\xbfg\x86V\xcf6\xc0\x00\x00\x00`\xb8\x1e\xd5?'
p1525
tp1526
bsg1486
S'Cell[3].axon[158]'
p1527
sI181
I171
tp1528
a(F2.0287024423853914
S'Cell[3].dend[26] syn_ = new FastInhib(0.5)'
p1529
I3
(dp1530
g1471
F0.05555555555555555
sg1472
F37.0
sg1473
I181
sg1474
g7
(g8
(I0
tp1531
g10
tp1532
Rp1533
(I1
(I3
tp1534
g1481
I00
S'D8b[oP\x1e@%\xb1Z\xcc\xbeA\xfc?\x00\x00\x00`\xb8\x1e\xd5?'
p1535
tp1536
bsg1486
S'Cell[3].axon[163]'
p1537
sI181
I171
tp1538
a(F2.0589303697844157
S'Cell[2].dend[2] syn_ = new FastInhib(0.5)'
p1539
I2
(dp1540
g1471
F0.49999999999999994
sg1472
F37.0
sg1473
I85
sg1474
g7
(g8
(I0
tp1541
g10
tp1542
Rp1543
(I1
(I3
tp1544
g1481
I00
S'O\xb2q\xab^}\x12\xc0*a\x99\x8cH\x97#\xc0\x00\x00\x00 \x85\xeb\x0b\xc0'
p1545
tp1546
bsg1486
S'Cell[1].axon[247]'
p1547
sI85
I123
tp1548
a(F1.997490425747257
S'Cell[3].dend[21] syn_ = new FastInhib(0.166666666667)'
p1549
I3
(dp1550
S'seg'
p1551
F0.5
sS'hostfrom'
p1552
F38.0
sS'gid'
p1553
I182
sS'coords'
p1554
g7
(g8
(I0
tp1555
g10
tp1556
Rp1557
(I1
(I3
tp1558
g14
(S'f8'
p1559
I0
I1
tp1560
Rp1561
(I3
S'<'
p1562
NNNI-1
I-1
I0
tp1563
bI00
S'\x1e\x7f\xc4q|\x8c=@\xd0\xce~^ \xc7>@\x8bK\x11\x0c\x11i0\xc0'
p1564
tp1565
bsS'secnames'
p1566
S'Cell[3].axon[2]'
p1567
sI182
I171
tp1568
a(F0.9314553414156633
S'Cell[3].dend[30] syn_ = new FastInhib(0.166666666667)'
p1569
I3
(dp1570
g1551
F0.5
sg1552
F38.0
sg1553
I182
sg1554
g7
(g8
(I0
tp1571
g10
tp1572
Rp1573
(I1
(I3
tp1574
g1561
I00
S'\x00\x00\x00p=J)@\x00\x00\x00@\n\xc7A\xc0\x00\x00\x00\x80\x14.\x14\xc0'
p1575
tp1576
bsg1566
S'Cell[3].axon[366]'
p1577
sI182
I171
tp1578
a(F2.3765705877244434
S'Cell[3].dend[35] syn_ = new FastInhib(0.166666666667)'
p1579
I3
g1570
I182
I171
tp1580
a(F1.9910446377486308
S'Cell[0].apic[28] syn_ = new ExpSid(0.5)'
p1581
I0
(dp1582
S'seg'
p1583
F0.1
sS'hostfrom'
p1584
F39.0
sS'gid'
p1585
I183
sS'coords'
p1586
g7
(g8
(I0
tp1587
g10
tp1588
Rp1589
(I1
(I3
tp1590
g14
(S'f8'
p1591
I0
I1
tp1592
Rp1593
(I3
S'<'
p1594
NNNI-1
I-1
I0
tp1595
bI00
S'\xd7\x12\xb7:!&\xfa?\x10\xef[^\xbb\xa9A@\x89k\xa0\n\xc4K"\xc0'
p1596
tp1597
bsS'secnames'
p1598
S'Cell[3].axon[31]'
p1599
sI183
I27
tp1600
a(F1.6759527225711532
S'Cell[2].apic[1] syn_ = new FastInhib(0.928571428571)'
p1601
I2
(dp1602
S'seg'
p1603
F0.1
sS'hostfrom'
p1604
F40.0
sS'gid'
p1605
I88
sS'coords'
p1606
g7
(g8
(I0
tp1607
g10
tp1608
Rp1609
(I1
(I3
tp1610
g14
(S'f8'
p1611
I0
I1
tp1612
Rp1613
(I3
S'<'
p1614
NNNI-1
I-1
I0
tp1615
bI00
S'\x07[\\\xc9\xf3\xeb`\xc0\x8fd\xf43\xd2yT@*\xcb\xc5-\x9b\xe7E\xc0'
p1616
tp1617
bsS'secnames'
p1618
S'Cell[1].axon[15]'
p1619
sI88
I123
tp1620
a(F2.1577465581291193
S'Cell[1].dend[9] syn_ = new AmpaNmda(0.5)'
p1621
I1
(dp1622
g1603
F0.5
sg1604
F40.0
sg1605
I88
sg1606
g7
(g8
(I0
tp1623
g10
tp1624
Rp1625
(I1
(I3
tp1626
g1613
I00
S'X?\xe6m,\xae0@\x08\xc19Y$\xd0T@\x0cI\x8c\x1aT\\+\xc0'
p1627
tp1628
bsg1618
S'Cell[1].axon[144]'
p1629
sI88
I75
tp1630
a(F2.4139658484845326
S'Cell[2].dend[17] syn_ = new FastInhib(0.5)'
p1631
I2
(dp1632
g1603
F0.16666666666666666
sg1604
F40.0
sg1605
I88
sg1606
g7
(g8
(I0
tp1633
g10
tp1634
Rp1635
(I1
(I3
tp1636
g1613
I00
S'+\rn\xc5\xd9\x80;@\x0eZ:X\xfel"\xc0\x00\x00\x00@\xe1\xfa3\xc0'
p1637
tp1638
bsg1618
S'Cell[1].axon[156]'
p1639
sI88
I123
tp1640
a(F2.3148585154920287
S'Cell[0].apic[40] syn_ = new AmpaNmda(0.3)'
p1641
I0
(dp1642
g1603
F0.5
sg1604
F40.0
sg1605
I88
sg1606
g7
(g8
(I0
tp1643
g10
tp1644
Rp1645
(I1
(I3
tp1646
g1613
I00
S'\x98\xb5v\x9e\xf2\xa2B@&\xeeW\xef\xea\xc0S@\xb3\n{\xea\x00\xcb2\xc0'
p1647
tp1648
bsg1618
S'Cell[1].axon[182]'
p1649
sI88
I27
tp1650
a(F1.841329478551029
S'Cell[1].dend[7] syn_ = new AmpaNmda(0.166666666667)'
p1651
I1
(dp1652
g1603
F0.5
sg1604
F40.0
sg1605
I88
sg1606
g7
(g8
(I0
tp1653
g10
tp1654
Rp1655
(I1
(I3
tp1656
g1613
I00
S'\x00\x00\x00\xe0\xd3\xcc\x1e\xc0\x00\x00\x00\xb0p\x8dD@\x00\x00\x00\xe0\xa30!@'
p1657
tp1658
bsg1618
S'Cell[1].axon[283]'
p1659
sI88
I75
tp1660
a(F2.0564585416133077
S'Cell[0].dend[3] syn_ = new AmpaNmda(0.5)'
p1661
I0
(dp1662
g1603
F0.5
sg1604
F40.0
sg1605
I88
sg1606
g7
(g8
(I0
tp1663
g10
tp1664
Rp1665
(I1
(I3
tp1666
g1613
I00
S'\xe3\xb7\xa6g\xe8\xf6F\xc0)\x92M\xbc\x9eL>@\x81\xdbA\xaasW%@'
p1667
tp1668
bsg1618
S'Cell[1].axon[286]'
p1669
sI88
I27
tp1670
a(F0.835759429732537
S'Cell[0].dend[3] syn_ = new AmpaNmda(0.5)'
p1671
I0
(dp1672
g1603
F0.5
sg1604
F40.0
sg1605
I184
sg1606
g7
(g8
(I0
tp1673
g10
tp1674
Rp1675
(I1
(I3
tp1676
g1613
I00
S'\\\xda\x1c\x89\xc1\xd0F\xc0\r\xac\x1b2\xe8\xb9;@\x8e\x1e\xba\x10-|#@'
p1677
tp1678
bsg1618
S'Cell[3].axon[22]'
p1679
sI184
I27
tp1680
a(F2.2719474686112564
S'Cell[0].apic[13] syn_ = new AmpaNmda(0.1)'
p1681
I0
(dp1682
g1603
F0.5
sg1604
F40.0
sg1605
I184
sg1606
g7
(g8
(I0
tp1683
g10
tp1684
Rp1685
(I1
(I3
tp1686
g1613
I00
S'\x93\xbd\xd9\x89\x04W\xd7\xbf\x82\xb9\x0c\xd7\x1a*V@\x00\x00\x00\x80=\n\xd7?'
p1687
tp1688
bsg1618
S'Cell[3].axon[30]'
p1689
sI184
I27
tp1690
a(F1.9586294175484709
S'Cell[2].dend[20] syn_ = new FastInhib(0.5)'
p1691
I2
(dp1692
g1603
F0.5
sg1604
F40.0
sg1605
I184
sg1606
g7
(g8
(I0
tp1693
g10
tp1694
Rp1695
(I1
(I3
tp1696
g1613
I00
S'\xde\xe5>NR\xc3_@\x08\xbc^\x87\xc5^&\xc0\xc6\x9e\xee\xca]w2@'
p1697
tp1698
bsg1618
S'Cell[3].axon[99]'
p1699
sI184
I123
tp1700
a(F0.687005926948751
S'Cell[3].dend[4] syn_ = new FastInhib(0.1)'
p1701
I3
(dp1702
S'seg'
p1703
F0.5
sS'hostfrom'
p1704
F41.0
sS'gid'
p1705
I185
sS'coords'
p1706
g7
(g8
(I0
tp1707
g10
tp1708
Rp1709
(I1
(I3
tp1710
g14
(S'f8'
p1711
I0
I1
tp1712
Rp1713
(I3
S'<'
p1714
NNNI-1
I-1
I0
tp1715
bI00
S'P\x8f\xf6\x07Y\x02;\xc0\x02\xb8\x98\xfe\xb5\nN@\xbe\xabj\xd7\xb6\x921\xc0'
p1716
tp1717
bsS'secnames'
p1718
S'Cell[3].axon[105]'
p1719
sI185
I171
tp1720
a(F2.3800077111580387
S'Cell[2].dend[12] syn_ = new FastInhib(0.166666666667)'
p1721
I2
(dp1722
g1703
F0.6428571428571428
sg1704
F41.0
sg1705
I185
sg1706
g7
(g8
(I0
tp1723
g10
tp1724
Rp1725
(I1
(I3
tp1726
g1713
I00
S"\x1az\x80\x03C'M@\xee\xe1c\x07e]\x19@,wm\xe2iwR\xc0"
p1727
tp1728
bsg1718
S'Cell[3].axon[123]'
p1729
sI185
I123
tp1730
a(F2.340741469785034
S'Cell[1].dend[26] syn_ = new ExpSid(0.5)'
p1731
I1
(dp1732
g1703
F0.1
sg1704
F41.0
sg1705
I185
sg1706
g7
(g8
(I0
tp1733
g10
tp1734
Rp1735
(I1
(I3
tp1736
g1713
I00
S'\x05T\xcaL\xf7\x01I@>xC\xb3\xc8\xcaM@Br\xe09A\xc8$\xc0'
p1737
tp1738
bsg1718
S'Cell[3].axon[218]'
p1739
sI185
I75
tp1740
a(F2.125020464225257
S'Cell[1].dend[25] syn_ = new ExpSid(0.5)'
p1741
I1
(dp1742
g1703
F0.5
sg1704
F41.0
sg1705
I185
sg1706
g7
(g8
(I0
tp1743
g10
tp1744
Rp1745
(I1
(I3
tp1746
g1713
I00
S'4=R+\x10\x86I@\x039\xc6lq\x1dQ@\xee\xac\xc3\xb4\xc0] \xc0'
p1747
tp1748
bsg1718
S'Cell[3].axon[219]'
p1749
sI185
I75
tp1750
a(F1.722884433907849
S'Cell[1].dend[12] syn_ = new ExpSid(0.1)'
p1751
I1
(dp1752
g1703
F0.16666666666666666
sg1704
F41.0
sg1705
I185
sg1706
g7
(g8
(I0
tp1753
g10
tp1754
Rp1755
(I1
(I3
tp1756
g1713
I00
S"g\xa4P\x8ab\xcf'@\xdcjVL\x91\xf6R@XE\x15\x10\x97\x88)\xc0"
p1757
tp1758
bsg1718
S'Cell[3].axon[234]'
p1759
sI185
I75
tp1760
a(F2.100086059141683
S'Cell[0].apic[33] syn_ = new ExpSid(0.166666666667)'
p1761
I0
(dp1762
g1703
F0.30000000000000004
sg1704
F41.0
sg1705
I185
sg1706
g7
(g8
(I0
tp1763
g10
tp1764
Rp1765
(I1
(I3
tp1766
g1713
I00
S'\xe6\xee\x1e#\x13EC@\xc5**9\xeb %@\xac{4\xb6\x95\xa7\x00@'
p1767
tp1768
bsg1718
S'Cell[3].axon[286]'
p1769
sI185
I27
tp1770
a(F2.399025638467346
S'Cell[1].apic[7] syn_ = new ExpSid(0.833333333333)'
p1771
I1
(dp1772
g1703
F0.07142857142857142
sg1704
F41.0
sg1705
I89
sg1706
g7
(g8
(I0
tp1773
g10
tp1774
Rp1775
(I1
(I3
tp1776
g1713
I00
S'y\x0e\xdd;\x87\xc35\xc0z7\x81\x0ec\x03d@\x97 \xd02\xee\xb9B\xc0'
p1777
tp1778
bsg1718
S'Cell[1].axon[37]'
p1779
sI89
I75
tp1780
a(F2.497619711786192
S'Cell[0].apic[4] syn_ = new ExpSid(0.166666666667)'
p1781
I0
(dp1782
g1703
F0.16666666666666666
sg1704
F41.0
sg1705
I89
sg1706
g7
(g8
(I0
tp1783
g10
tp1784
Rp1785
(I1
(I3
tp1786
g1713
I00
S'\x92\x8e\x03S\x02\x92\x11\xc0\x80c\xb0A\xc1\x96J@\x8f \xc2\xaf\xaf\xd41@'
p1787
tp1788
bsg1718
S'Cell[1].axon[143]'
p1789
sI89
I27
tp1790
a(F1.9925640554042627
S'Cell[2].dend[9] syn_ = new FastInhib(0.5)'
p1791
I2
(dp1792
g1703
F0.16666666666666666
sg1704
F41.0
sg1705
I89
sg1706
g7
(g8
(I0
tp1793
g10
tp1794
Rp1795
(I1
(I3
tp1796
g1713
I00
S'\x18\xc9\xf5\xf2#\xf43@5|\xdfK7\xb6*\xc0\x00\x00\x00\xa0\x99\x191\xc0'
p1797
tp1798
bsg1718
S'Cell[1].axon[159]'
p1799
sI89
I123
tp1800
a(F1.8192036945214025
S'Cell[2].dend[1] syn_ = new FastInhib(0.5)'
p1801
I2
(dp1802
S'seg'
p1803
F0.029411764705882353
sS'hostfrom'
p1804
F42.0
sS'gid'
p1805
I90
sS'coords'
p1806
g7
(g8
(I0
tp1807
g10
tp1808
Rp1809
(I1
(I3
tp1810
g14
(S'f8'
p1811
I0
I1
tp1812
Rp1813
(I3
S'<'
p1814
NNNI-1
I-1
I0
tp1815
bI00
S'p\xde\x12\xca\xba\xef6\xc0\xf8T\xad\xbb\xd5\x0bE\xc0\xbd\xbf\xd8\xcdc<\xd2?'
p1816
tp1817
bsS'secnames'
p1818
S'Cell[1].axon[19]'
p1819
sI90
I123
tp1820
a(F2.000592682907455
S'Cell[3].dend[39] syn_ = new FastInhib(0.9)'
p1821
I3
(dp1822
g1803
F0.16666666666666666
sg1804
F42.0
sg1805
I90
sg1806
g7
(g8
(I0
tp1823
g10
tp1824
Rp1825
(I1
(I3
tp1826
g1813
I00
S'\x0f\x19B\xf2\xe3\x0eB\xc0\x1e\x01.\x7f]\xfcX\xc0\x18K\x9b\xfb]\x9f\x10\xc0'
p1827
tp1828
bsg1818
S'Cell[1].axon[106]'
p1829
sI90
I171
tp1830
a(F1.381486537006685
S'Cell[1].dend[8] syn_ = new AmpaNmda(0.5)'
p1831
I1
(dp1832
g1803
F0.5
sg1804
F42.0
sg1805
I138
sg1806
g7
(g8
(I0
tp1833
g10
tp1834
Rp1835
(I1
(I3
tp1836
g1813
I00
S'~\xbbhx\xc7\xe35@\xa2xj\xae\x94:S@\x00\x00\x00\x00\x00\x00\x11\xc0'
p1837
tp1838
bsg1818
S'Cell[2].axon[41]'
p1839
sI138
I75
tp1840
a(F2.456440669052002
S'Cell[3].dend[9] syn_ = new FastInhib(0.166666666667)'
p1841
I3
(dp1842
g1803
F0.5
sg1804
F42.0
sg1805
I138
sg1806
g7
(g8
(I0
tp1843
g10
tp1844
Rp1845
(I1
(I3
tp1846
g1813
I00
S'\xc6g\xfeo\xae5L\xc0\x82w-\n\xdb\xb1@@\xf4Ie\x8f\xd9_+@'
p1847
tp1848
bsg1818
S'Cell[2].axon[151]'
p1849
sI138
I171
tp1850
a(F1.8299091618922032
S'Cell[1].apic[22] syn_ = new AmpaNmda(0.5)'
p1851
I1
(dp1852
g1803
F0.1
sg1804
F42.0
sg1805
I138
sg1806
g7
(g8
(I0
tp1853
g10
tp1854
Rp1855
(I1
(I3
tp1856
g1813
I00
S'\xaa\xe7p\xf6u\xcc*@\xa5\xec\xb6MO\x81s@\xd4\x9b\x18\xa9&\xe3\x18@'
p1857
tp1858
bsg1818
S'Cell[2].axon[253]'
p1859
sI138
I75
tp1860
a(F1.59808755646664
S'Cell[0].apic[18] syn_ = new ExpSid(0.166666666667)'
p1861
I0
(dp1862
S'seg'
p1863
F0.30000000000000004
sS'hostfrom'
p1864
F43.0
sS'gid'
p1865
I91
sS'coords'
p1866
g7
(g8
(I0
tp1867
g10
tp1868
Rp1869
(I1
(I3
tp1870
g14
(S'f8'
p1871
I0
I1
tp1872
Rp1873
(I3
S'<'
p1874
NNNI-1
I-1
I0
tp1875
bI00
S'\xc8\xee=\xe8\xf1\xbfC\xc0\xe44\x14\x87\xc2\xa3P@24\xefR\x07KE\xc0'
p1876
tp1877
bsS'secnames'
p1878
S'Cell[1].axon[64]'
p1879
sI91
I27
tp1880
a(F2.467035834762544
S'Cell[1].apic[3] syn_ = new ExpSid(0.166666666667)'
p1881
I1
(dp1882
g1863
F0.8333333333333333
sg1864
F43.0
sg1865
I91
sg1866
g7
(g8
(I0
tp1883
g10
tp1884
Rp1885
(I1
(I3
tp1886
g1873
I00
S'6\xf1},\x91Y\xe5?\x0bd\xa1"\n\xe3H@\x8f`\x81A\x0e\xd5F\xc0'
p1887
tp1888
bsg1878
S'Cell[1].axon[450]'
p1889
sI91
I75
tp1890
a(F1.6255893815771232
S'Cell[1].dend[12] syn_ = new ExpSid(0.5)'
p1891
I1
(dp1892
g1863
F0.16666666666666666
sg1864
F43.0
sg1865
I91
sg1866
g7
(g8
(I0
tp1893
g10
tp1894
Rp1895
(I1
(I3
tp1896
g1873
I00
S'\x87Bj\x19\x8a\x030\xc0\xbc\xe6c6u$L@\x1c\x92\xfe\x81\x94F=\xc0'
p1897
tp1898
bsg1878
S'Cell[1].axon[530]'
p1899
sI91
I75
tp1900
a(F2.338549150977586
S'Cell[2].dend[18] syn_ = new FastInhib(0.166666666667)'
p1901
I2
(dp1902
g1863
F0.16666666666666666
sg1864
F43.0
sg1865
I187
sg1866
g7
(g8
(I0
tp1903
g10
tp1904
Rp1905
(I1
(I3
tp1906
g1873
I00
S'\xedo\x94\xab\x1cYD@\x812&#\xbc\xee \xc0t\xc2\x97\xa9\xe7\x1d6\xc0'
p1907
tp1908
bsg1878
S'Cell[3].axon[108]'
p1909
sI187
I123
tp1910
a(F2.048963388932079
S'Cell[2].dend[17] syn_ = new FastInhib(0.5)'
p1911
I2
(dp1912
g1863
F0.5
sg1864
F43.0
sg1865
I187
sg1866
g7
(g8
(I0
tp1913
g10
tp1914
Rp1915
(I1
(I3
tp1916
g1873
I00
S"d\x8c\x9c\xd0\x84\x99=@|\xac\xd7\x172\xeb!\xc0J6'\xc2!\xb54\xc0"
p1917
tp1918
bsg1878
S'Cell[3].axon[108]'
p1919
sI187
I123
tp1920
a(F2.4153586828657216
S'Cell[1].apic[12] syn_ = new ExpSid(0.5)'
p1921
I1
(dp1922
g1863
F0.8333333333333333
sg1864
F43.0
sg1865
I187
sg1866
g7
(g8
(I0
tp1923
g10
tp1924
Rp1925
(I1
(I3
tp1926
g1873
I00
S'\xc0\x16\xbb`\x80\xceU@\xe6HW\x91[\xddU@\x00\x00\x00@\n\xd7\xf7\xbf'
p1927
tp1928
bsg1878
S'Cell[3].axon[113]'
p1929
sI187
I75
tp1930
a(F1.1624339650775712
S'Cell[1].dend[24] syn_ = new ExpSid(0.5)'
p1931
I1
(dp1932
g1863
F0.5
sg1864
F43.0
sg1865
I187
sg1866
g7
(g8
(I0
tp1933
g10
tp1934
Rp1935
(I1
(I3
tp1936
g1873
I00
S'\xb6\x14\xcd\xaa\x04KS@P\x90\x1b\x1bm2G@b\xe4\xb6\xe8n\x00!@'
p1937
tp1938
bsg1878
S'Cell[3].axon[118]'
p1939
sI187
I75
tp1940
a(F1.2898390095080123
S'Cell[3].dend[4] syn_ = new FastInhib(0.1)'
p1941
I3
(dp1942
S'seg'
p1943
F0.1
sS'hostfrom'
p1944
F44.0
sS'gid'
p1945
I140
sS'coords'
p1946
g7
(g8
(I0
tp1947
g10
tp1948
Rp1949
(I1
(I3
tp1950
g14
(S'f8'
p1951
I0
I1
tp1952
Rp1953
(I3
S'<'
p1954
NNNI-1
I-1
I0
tp1955
bI00
S'O\x9b@\t\xeay;\xc0/\xca\x9c\xec\xf3AN@\xa5\xecc\xda\x1eV1\xc0'
p1956
tp1957
bsS'secnames'
p1958
S'Cell[2].axon[24]'
p1959
sI140
I171
tp1960
a(F1.8821926134779599
S'Cell[0].dend[1] syn_ = new AmpaNmda(0.5)'
p1961
I0
(dp1962
g1943
F0.5
sg1944
F44.0
sg1945
I188
sg1946
g7
(g8
(I0
tp1963
g10
tp1964
Rp1965
(I1
(I3
tp1966
g1953
I00
S'\x9c_\xdcQ?\\9\xc0\x91\xb2~O\x9b\t1@\xd7\xd8\xa6T\nH\x17@'
p1967
tp1968
bsg1958
S'Cell[3].axon[36]'
p1969
sI188
I27
tp1970
a(F2.1932292900669816
S'Cell[1].dend[27] syn_ = new AmpaNmda(0.5)'
p1971
I1
(dp1972
g1943
F0.5
sg1944
F44.0
sg1945
I188
sg1946
g7
(g8
(I0
tp1973
g10
tp1974
Rp1975
(I1
(I3
tp1976
g1953
I00
S"\xacE+\x99\xc6$S@\x84(\xfcr?\x13E@Wo\x8f\x08\xb1'F\xc0"
p1977
tp1978
bsg1958
S'Cell[3].axon[104]'
p1979
sI188
I75
tp1980
a(F2.0956182275427215
S'Cell[1].dend[23] syn_ = new AmpaNmda(0.5)'
p1981
I1
(dp1982
g1943
F0.1
sg1944
F44.0
sg1945
I188
sg1946
g7
(g8
(I0
tp1983
g10
tp1984
Rp1985
(I1
(I3
tp1986
g1953
I00
S'\x88\xe0C\xde\xae\x98P@/\xf6\xc3\xcc\xc2KO@B\x0e\xe3|\xd2\x00#@'
p1987
tp1988
bsg1958
S'Cell[3].axon[228]'
p1989
sI188
I75
tp1990
a(F1.5181477740543354
S'Cell[3].dend[37] syn_ = new FastInhib(0.0714285714286)'
p1991
I3
(dp1992
S'seg'
p1993
F0.5
sS'hostfrom'
p1994
F45.0
sS'gid'
p1995
I141
sS'coords'
p1996
g7
(g8
(I0
tp1997
g10
tp1998
Rp1999
(I1
(I3
tp2000
g14
(S'f8'
p2001
I0
I1
tp2002
Rp2003
(I3
S'<'
p2004
NNNI-1
I-1
I0
tp2005
bI00
S'?u\xa3\x9d\xe1j\x18\xc0b{}=9a7\xc0+0p\xcfx\x8a1\xc0'
p2006
tp2007
bsS'secnames'
p2008
S'Cell[2].axon[137]'
p2009
sI141
I171
tp2010
a(F1.7096197909600068
S'Cell[0].dend[17] syn_ = new ExpSid(0.166666666667)'
p2011
I0
(dp2012
g1993
F0.16666666666666666
sg1994
F45.0
sg1995
I141
sg1996
g7
(g8
(I0
tp2013
g10
tp2014
Rp2015
(I1
(I3
tp2016
g2003
I00
S'\xdb~\xac\x0e\x8d}D\xc0\xff\x1b@\xd7=\xf9(@\xda5\x16\xef\xb5\x96&@'
p2017
tp2018
bsg2008
S'Cell[2].axon[213]'
p2019
sI141
I27
tp2020
a(F2.1943853824120154
S'Cell[2].dend[8] syn_ = new FastInhib(0.642857142857)'
p2021
I2
(dp2022
g1993
F0.16666666666666666
sg1994
F45.0
sg1995
I141
sg1996
g7
(g8
(I0
tp2023
g10
tp2024
Rp2025
(I1
(I3
tp2026
g2003
I00
S'Q{P\xccb\xbc[@Tx\xca\x87\xa7\xbcG\xc0\x84\xab\xf1\xbd\xf8B*@'
p2027
tp2028
bsg2008
S'Cell[2].axon[285]'
p2029
sI141
I123
tp2030
a(F1.9636691936658006
S'Cell[1].dend[30] syn_ = new ExpSid(0.833333333333)'
p2031
I1
(dp2032
g1993
F0.5
sg1994
F45.0
sg1995
I141
sg1996
g7
(g8
(I0
tp2033
g10
tp2034
Rp2035
(I1
(I3
tp2036
g2003
I00
S":\x85\xa1\x87\xbb\xe7M@\xb6`\xa6\x17\xfe\xdf\x1b@\t\xc0\xb7b'05\xc0"
p2037
tp2038
bsg2008
S'Cell[2].axon[295]'
p2039
sI141
I75
tp2040
a(F1.1921315980634977
S'Cell[1].dend[27] syn_ = new ExpSid(0.833333333333)'
p2041
I1
(dp2042
g1993
F0.5
sg1994
F45.0
sg1995
I141
sg1996
g7
(g8
(I0
tp2043
g10
tp2044
Rp2045
(I1
(I3
tp2046
g2003
I00
S'\x00\x00\x00p\x14VV@\x00\x00\x00\xa0G!<@\x00\x00\x00P\xe1*P\xc0'
p2047
tp2048
bsg2008
S'Cell[2].axon[350]'
p2049
sI141
I75
tp2050
a(F1.5770948107549267
S'Cell[0].apic[36] syn_ = new ExpSid(0.3)'
p2051
I0
(dp2052
g1993
F0.8333333333333333
sg1994
F45.0
sg1995
I141
sg1996
g7
(g8
(I0
tp2053
g10
tp2054
Rp2055
(I1
(I3
tp2056
g2003
I00
S'!3\xdf\xd1v\xaaO@ \xf5\x97\xdf\\s9\xc0\xd3\xf5}\x83\xbbr0\xc0'
p2057
tp2058
bsg2008
S'Cell[2].axon[515]'
p2059
sI141
I27
tp2060
a(F2.2995173921475693
S'Cell[3].dend[36] syn_ = new FastInhib(0.5)'
p2061
I3
(dp2062
g1993
F0.16666666666666666
sg1994
F45.0
sg1995
I189
sg1996
g7
(g8
(I0
tp2063
g10
tp2064
Rp2065
(I1
(I3
tp2066
g2003
I00
S"\x009L\xb3E0\x80\xbf\xb3`\xef'\xad\x8a2\xc0\x7f\xc9F\xb2\x1f\xe9\x03\xc0"
p2067
tp2068
bsg2008
S'Cell[3].axon[0]'
p2069
sI189
I171
tp2070
a(F2.0319750061671025
S'Cell[0].apic[0] syn_ = new ExpSid(0.5)'
p2071
I0
(dp2072
g1993
F0.16666666666666666
sg1994
F45.0
sg1995
I189
sg1996
g7
(g8
(I0
tp2073
g10
tp2074
Rp2075
(I1
(I3
tp2076
g2003
I00
S'\x97\xafR$\xa7\xf1#\xc0\xa2U\x9dQ\xc14>@\x98\xb1\x8a;\xc7\xd9\x0f\xc0'
p2077
tp2078
bsg2008
S'Cell[3].axon[5]'
p2079
sI189
I27
tp2080
a(F1.7903150165146988
S'Cell[3].dend[35] syn_ = new FastInhib(0.833333333333)'
p2081
I3
(dp2082
g1993
F0.7
sg1994
F45.0
sg1995
I45
sg1996
g7
(g8
(I0
tp2083
g10
tp2084
Rp2085
(I1
(I3
tp2086
g2003
I00
S'$\xe4\xceW\x98\x98\xd7?\x82Ot\xbda\x9dJ\xc0\xb7\xfe,\xceeh+@'
p2087
tp2088
bsg2008
S'Cell[0].axon[0]'
p2089
sI45
I171
tp2090
a(F1.9263013618464933
S'Cell[1].dend[27] syn_ = new ExpSid(0.833333333333)'
p2091
I1
(dp2092
g1993
F0.8333333333333333
sg1994
F45.0
sg1995
I93
sg1996
g7
(g8
(I0
tp2093
g10
tp2094
Rp2095
(I1
(I3
tp2096
g2003
I00
S'\x8f\x117\x9d$kV@\xe5\xf4\x89H\xbfI=@\x86\x08\x07V%\x8aO\xc0'
p2097
tp2098
bsg2008
S'Cell[1].axon[26]'
p2099
sI93
I75
tp2100
a(F1.023535602556608
S'Cell[1].dend[9] syn_ = new ExpSid(0.5)'
p2101
I1
(dp2102
g1993
F0.5
sg1994
F45.0
sg1995
I93
sg1996
g7
(g8
(I0
tp2103
g10
tp2104
Rp2105
(I1
(I3
tp2106
g2003
I00
S'\x00\x00\x00\x00\xd7c1@\x00\x00\x00P\xb8VT@\x00\x00\x00p=J*\xc0'
p2107
tp2108
bsg2008
S'Cell[1].axon[44]'
p2109
sI93
I75
tp2110
a(F2.201755516043666
S'Cell[0].apic[28] syn_ = new ExpSid(0.5)'
p2111
I0
(dp2112
g1993
F0.5
sg1994
F45.0
sg1995
I93
sg1996
g7
(g8
(I0
tp2113
g10
tp2114
Rp2115
(I1
(I3
tp2116
g2003
I00
S'\x9e\x06\xfb\x80|T\xf0?k\x9d\x017\xb72B@s\xb5\x01\xf3\x80\xcc%\xc0'
p2117
tp2118
bsg2008
S'Cell[1].axon[159]'
p2119
sI93
I27
tp2120
a(F1.9762275060100787
S'Cell[0].apic[36] syn_ = new AmpaNmda(0.9)'
p2121
I0
(dp2122
S'seg'
p2123
F0.5
sS'hostfrom'
p2124
F46.0
sS'gid'
p2125
I94
sS'coords'
p2126
g7
(g8
(I0
tp2127
g10
tp2128
Rp2129
(I1
(I3
tp2130
g14
(S'f8'
p2131
I0
I1
tp2132
Rp2133
(I3
S'<'
p2134
NNNI-1
I-1
I0
tp2135
bI00
S'=i\xb2\xc1\xbfcW@\xd1\xbe\xc2o\xf0\x1dG\xc0C\xaf%\x03\xd1\xb4K\xc0'
p2136
tp2137
bsS'secnames'
p2138
S'Cell[1].axon[255]'
p2139
sI94
I27
tp2140
a(F2.280543486850485
S'Cell[0].apic[15] syn_ = new AmpaNmda(0.1)'
p2141
I0
(dp2142
g2123
F0.16666666666666666
sg2124
F46.0
sg2125
I94
sg2126
g7
(g8
(I0
tp2143
g10
tp2144
Rp2145
(I1
(I3
tp2146
g2133
I00
S'\x14\xb6\xfa\xe3\x04,=\xc0\xca\x0f\x0b\xda\x95\x0cS@Dc/\xc7\xb2k0\xc0'
p2147
tp2148
bsg2138
S'Cell[1].axon[318]'
p2149
sI94
I27
tp2150
a(F2.3198635117790096
S'Cell[2].dend[22] syn_ = new FastInhib(0.5)'
p2151
I2
(dp2152
S'seg'
p2153
F0.5
sS'hostfrom'
p2154
F47.0
sS'gid'
p2155
I95
sS'coords'
p2156
g7
(g8
(I0
tp2157
g10
tp2158
Rp2159
(I1
(I3
tp2160
g14
(S'f8'
p2161
I0
I1
tp2162
Rp2163
(I3
S'<'
p2164
NNNI-1
I-1
I0
tp2165
bI00
S'\xdcG\xc0j\xa4\xb5W@\xd6\x8d\x89\tP\r3\xc0V\xaav*\xdd\xdaI\xc0'
p2166
tp2167
bsS'secnames'
p2168
S'Cell[1].axon[108]'
p2169
sI95
I123
tp2170
a(F2.4791529148815865
S'Cell[3].dend[23] syn_ = new FastInhib(0.5)'
p2171
I3
(dp2172
g2153
F0.30000000000000004
sg2154
F47.0
sg2155
I95
sg2156
g7
(g8
(I0
tp2173
g10
tp2174
Rp2175
(I1
(I3
tp2176
g2163
I00
S'e\xd5\xe9\xa0\xf7\xdea@,@\x88\x85Nn-\xc0\x83x\x99s&\xb3#\xc0'
p2177
tp2178
bsg2168
S'Cell[1].axon[113]'
p2179
sI95
I171
tp2180
a(F1.7262333720825844
S'Cell[1].dend[36] syn_ = new ExpSid(0.5)'
p2181
I1
(dp2182
g2153
F0.5
sg2154
F47.0
sg2155
I95
sg2156
g7
(g8
(I0
tp2183
g10
tp2184
Rp2185
(I1
(I3
tp2186
g2163
I00
S'\x1c\xf2\xff\x18\x9c+H@\x02\x18\x144F\x80X@\x00\x00\x00\x80\xeb\xd1/@'
p2187
tp2188
bsg2168
S'Cell[1].axon[180]'
p2189
sI95
I75
tp2190
a(F0.9105662500438224
S'Cell[3].dend[9] syn_ = new FastInhib(0.5)'
p2191
I3
(dp2192
g2153
F0.16666666666666666
sg2154
F47.0
sg2155
I143
sg2156
g7
(g8
(I0
tp2193
g10
tp2194
Rp2195
(I1
(I3
tp2196
g2163
I00
S'$g\xa6\xe9%\x12O\xc0\x00\x00\x00 \x85\xab7@\x00\x00\x00\x80\xebQ!@'
p2197
tp2198
bsg2168
S'Cell[2].axon[23]'
p2199
sI143
I171
tp2200
a(F1.9904085584933566
S'Cell[2].apic[1] syn_ = new FastInhib(0.642857142857)'
p2201
I2
(dp2202
g2153
F0.5
sg2154
F47.0
sg2155
I143
sg2156
g7
(g8
(I0
tp2203
g10
tp2204
Rp2205
(I1
(I3
tp2206
g2163
I00
S'\xef\xc0+\x05G%V\xc0>\xdczO\x9d\xb8P@\x9b\xf4\xebm\x7f\xb3:\xc0'
p2207
tp2208
bsg2168
S'Cell[2].axon[152]'
p2209
sI143
I123
tp2210
a(F0.8402529911198113
S'Cell[1].dend[24] syn_ = new ExpSid(0.5)'
p2211
I1
(dp2212
g2153
F0.5
sg2154
F47.0
sg2155
I143
sg2156
g7
(g8
(I0
tp2213
g10
tp2214
Rp2215
(I1
(I3
tp2216
g2163
I00
S'\xcd\x03p+\xe9\xdfR@E\xcb\xa9\x8f\xfb\x98G@<g-,fk\x1f@'
p2217
tp2218
bsg2168
S'Cell[2].axon[170]'
p2219
sI143
I75
tp2220
a.