(lp0
(F1.980770149120726
S'Cell[3].dend[37] syn_ = new FastInhib(0.5)'
p1
I3
(dp2
S'seg'
p3
F0.16666666666666666
sS'hostfrom'
p4
F1.0
sS'gid'
p5
I145
sS'coords'
p6
cnumpy.core.multiarray
_reconstruct
p7
(cnumpy
ndarray
p8
(I0
tp9
S'b'
p10
tp11
Rp12
(I1
(I3
tp13
cnumpy
dtype
p14
(S'f8'
p15
I0
I1
tp16
Rp17
(I3
S'<'
p18
NNNI-1
I-1
I0
tp19
bI00
S'\xbc\xe0\xd6\xfd\x13\xa3P\xc0\x1a\xe0\x80\x85\xdcd#\xc0|\x18f\xf0\x15D\xb9?'
p20
tp21
bsS'secnames'
p22
S'Cell[3].axon[19]'
p23
sI145
I155
tp24
a(F1.8754716946199852
S'Cell[0].dend[26] syn_ = new ExpSid(0.5)'
p25
I0
(dp26
g3
F0.5
sg4
F1.0
sg5
I97
sg6
g7
(g8
(I0
tp27
g10
tp28
Rp29
(I1
(I3
tp30
g17
I00
S'\x1a\xb8\xf5\xcd\xcb\xa2\r\xc06\x98\xc5\rH\x00O\xc0\x9c\xea+\xa7x\x8a2\xc0'
p31
tp32
bsg22
S'Cell[2].axon[32]'
p33
sI97
I11
tp34
a(F1.7200729460633561
S'Cell[1].dend[44] syn_ = new ExpSid(0.5)'
p35
I1
(dp36
g3
F0.8333333333333333
sg4
F1.0
sg5
I97
sg6
g7
(g8
(I0
tp37
g10
tp38
Rp39
(I1
(I3
tp40
g17
I00
S'\x06\xd9\xc3\xc8\xd1-R@>Ba\xc8\xe7\xdeA@\xf07\x14\xa4\x06\x8bP\xc0'
p41
tp42
bsg22
S'Cell[2].axon[199]'
p43
sI97
I59
tp44
a(F2.375266804733736
S'Cell[1].dend[18] syn_ = new ExpSid(0.5)'
p45
I1
(dp46
g3
F0.8333333333333333
sg4
F1.0
sg5
I97
sg6
g7
(g8
(I0
tp47
g10
tp48
Rp49
(I1
(I3
tp50
g17
I00
S'\xeff\xc4\xb7\xde\x11,\xc0\xd7\xe4\xb5!*\x8e=@\xfd\x80\x15\xdd P.@'
p51
tp52
bsg22
S'Cell[2].axon[208]'
p53
sI97
I59
tp54
a(F1.0286418196216185
S'Cell[3].dend[14] syn_ = new FastInhib(0.5)'
p55
I3
(dp56
S'seg'
p57
F0.8333333333333333
sS'hostfrom'
p58
F2.0
sS'gid'
p59
I98
sS'coords'
p60
g7
(g8
(I0
tp61
g10
tp62
Rp63
(I1
(I3
tp64
g14
(S'f8'
p65
I0
I1
tp66
Rp67
(I3
S'<'
p68
NNNI-1
I-1
I0
tp69
bI00
S'\x839r\xceC\xba)@>Nx\xa0:SF@\x12\xa4\xde\xf7N\xe7\x03@'
p70
tp71
bsS'secnames'
p72
S'Cell[2].axon[3]'
p73
sI98
I155
tp74
a(F1.883021430652793
S'Cell[0].apic[35] syn_ = new AmpaNmda(0.5)'
p75
I0
(dp76
g57
F0.7
sg58
F2.0
sg59
I98
sg60
g7
(g8
(I0
tp77
g10
tp78
Rp79
(I1
(I3
tp80
g67
I00
S'6\x9fC\x93\xad{R\xc0X\xad#\xd1\x9a$=@\x05\xe6pV\n\n-\xc0'
p81
tp82
bsg72
S'Cell[2].axon[30]'
p83
sI98
I11
tp84
a(F2.379491024781963
S'Cell[0].apic[34] syn_ = new AmpaNmda(0.5)'
p85
I0
(dp86
g57
F0.8999999999999999
sg58
F2.0
sg59
I98
sg60
g7
(g8
(I0
tp87
g10
tp88
Rp89
(I1
(I3
tp90
g67
I00
S'Y\x1d\xb9\x9eO\xf9U\xc0B\x17P\xd0\x00\xc1<@\xee\xb7!U\x83\xa43\xc0'
p91
tp92
bsg72
S'Cell[2].axon[30]'
p93
sI98
I11
tp94
a(F2.3936937873435062
S'Cell[1].dend[31] syn_ = new AmpaNmda(0.5)'
p95
I1
(dp96
g57
F0.16666666666666666
sg58
F2.0
sg59
I98
sg60
g7
(g8
(I0
tp97
g10
tp98
Rp99
(I1
(I3
tp100
g67
I00
S'\xed.,\x19\xce-\x19@$M\xd4\xba\x12\x079@\xf2\xb2}\x88\x11\x0b@\xc0'
p101
tp102
bsg72
S'Cell[2].axon[271]'
p103
sI98
I59
tp104
a(F2.2104693726826623
S'Cell[3].dend[31] syn_ = new FastInhib(0.166666666667)'
p105
I3
(dp106
g57
F0.16666666666666666
sg58
F2.0
sg59
I98
sg60
g7
(g8
(I0
tp107
g10
tp108
Rp109
(I1
(I3
tp110
g67
I00
S't\xd7d\x17\x8f\x9dI\xc0*P]]\xc5qP@\xdcA1\xa3U$L\xc0'
p111
tp112
bsg72
S'Cell[2].axon[310]'
p113
sI98
I155
tp114
a(F2.095146358254783
S'Cell[3].dend[14] syn_ = new FastInhib(0.5)'
p115
I3
(dp116
g57
F0.5
sg58
F2.0
sg59
I98
sg60
g7
(g8
(I0
tp117
g10
tp118
Rp119
(I1
(I3
tp120
g67
I00
S'\x81\xa6O\xe8<\x8a*@;\x1bK\x12R8E@\x00\x00\x00@\xe1z\x02@'
p121
tp122
bsg72
S'Cell[2].axon[376]'
p123
sI98
I155
tp124
a(F1.6558596230161358
S'Cell[0].apic[32] syn_ = new AmpaNmda(0.166666666667)'
p125
I0
(dp126
g57
F0.8333333333333333
sg58
F2.0
sg59
I146
sg60
g7
(g8
(I0
tp127
g10
tp128
Rp129
(I1
(I3
tp130
g67
I00
S'\x18L\xa5\xc3\xdb\xc8P\xc0N\xad\x95`0IR@\x00\x00\x00\x80=J8\xc0'
p131
tp132
bsg72
S'Cell[3].axon[173]'
p133
sI146
I11
tp134
a(F2.326770992119378
S'Cell[3].dend[13] syn_ = new FastInhib(0.833333333333)'
p135
I3
(dp136
g57
F0.5
sg58
F2.0
sg59
I146
sg60
g7
(g8
(I0
tp137
g10
tp138
Rp139
(I1
(I3
tp140
g67
I00
S'\xd5\xc5\xbd\xac\x94\xfd/\xc0\x9a\x83\x12mC\xc5M@\x00\x00\x00\x00\xd7\xe35\xc0'
p141
tp142
bsg72
S'Cell[3].axon[191]'
p143
sI146
I155
tp144
a(F2.184927384331819
S'Cell[2].dend[54] syn_ = new FastInhib(0.9)'
p145
I2
(dp146
g57
F0.30000000000000004
sg58
F2.0
sg59
I146
sg60
g7
(g8
(I0
tp147
g10
tp148
Rp149
(I1
(I3
tp150
g67
I00
S'h\x13\x82\x13\xc6\x94P@\x14r0\x93m\xe8"\xc0\x95\xef;\xd4\x8d\xe9@@'
p151
tp152
bsg72
S'Cell[3].axon[231]'
p153
sI146
I107
tp154
a(F1.0286418196216185
S'Cell[3].dend[14] syn_ = new FastInhib(0.5)'
p155
I3
(dp156
S'seg'
p157
F0.8333333333333333
sS'hostfrom'
p158
F3.0
sS'gid'
p159
I99
sS'coords'
p160
g7
(g8
(I0
tp161
g10
tp162
Rp163
(I1
(I3
tp164
g14
(S'f8'
p165
I0
I1
tp166
Rp167
(I3
S'<'
p168
NNNI-1
I-1
I0
tp169
bI00
S'\x839r\xceC\xba)@>Nx\xa0:SF@\x12\xa4\xde\xf7N\xe7\x03@'
p170
tp171
bsS'secnames'
p172
S'Cell[2].axon[3]'
p173
sI99
I155
tp174
a(F1.883021430652793
S'Cell[0].apic[35] syn_ = new ExpSid(0.5)'
p175
I0
(dp176
g157
F0.7
sg158
F3.0
sg159
I99
sg160
g7
(g8
(I0
tp177
g10
tp178
Rp179
(I1
(I3
tp180
g167
I00
S'6\x9fC\x93\xad{R\xc0X\xad#\xd1\x9a$=@\x05\xe6pV\n\n-\xc0'
p181
tp182
bsg172
S'Cell[2].axon[30]'
p183
sI99
I11
tp184
a(F2.379491024781963
S'Cell[0].apic[34] syn_ = new ExpSid(0.5)'
p185
I0
(dp186
g157
F0.8999999999999999
sg158
F3.0
sg159
I99
sg160
g7
(g8
(I0
tp187
g10
tp188
Rp189
(I1
(I3
tp190
g167
I00
S'Y\x1d\xb9\x9eO\xf9U\xc0B\x17P\xd0\x00\xc1<@\xee\xb7!U\x83\xa43\xc0'
p191
tp192
bsg172
S'Cell[2].axon[30]'
p193
sI99
I11
tp194
a(F2.3936937873435062
S'Cell[1].dend[31] syn_ = new ExpSid(0.5)'
p195
I1
(dp196
g157
F0.16666666666666666
sg158
F3.0
sg159
I99
sg160
g7
(g8
(I0
tp197
g10
tp198
Rp199
(I1
(I3
tp200
g167
I00
S'\xed.,\x19\xce-\x19@$M\xd4\xba\x12\x079@\xf2\xb2}\x88\x11\x0b@\xc0'
p201
tp202
bsg172
S'Cell[2].axon[271]'
p203
sI99
I59
tp204
a(F2.2104693726826623
S'Cell[3].dend[31] syn_ = new FastInhib(0.166666666667)'
p205
I3
(dp206
g157
F0.16666666666666666
sg158
F3.0
sg159
I99
sg160
g7
(g8
(I0
tp207
g10
tp208
Rp209
(I1
(I3
tp210
g167
I00
S't\xd7d\x17\x8f\x9dI\xc0*P]]\xc5qP@\xdcA1\xa3U$L\xc0'
p211
tp212
bsg172
S'Cell[2].axon[310]'
p213
sI99
I155
tp214
a(F2.095146358254783
S'Cell[3].dend[14] syn_ = new FastInhib(0.5)'
p215
I3
(dp216
g157
F0.5
sg158
F3.0
sg159
I99
sg160
g7
(g8
(I0
tp217
g10
tp218
Rp219
(I1
(I3
tp220
g167
I00
S'\x81\xa6O\xe8<\x8a*@;\x1bK\x12R8E@\x00\x00\x00@\xe1z\x02@'
p221
tp222
bsg172
S'Cell[2].axon[376]'
p223
sI99
I155
tp224
a(F1.0489322573603168
S'Cell[0].dend[47] syn_ = new ExpSid(0.7)'
p225
I0
(dp226
g157
F0.6428571428571428
sg158
F3.0
sg159
I147
sg160
g7
(g8
(I0
tp227
g10
tp228
Rp229
(I1
(I3
tp230
g167
I00
S'\xe7{\xac\x80\xd2\x84F@\xd9\xa8\x83Q\xf0\xf1\xf0\xbfT\x9f\xee\x1cQ\xc5,@'
p231
tp232
bsg172
S'Cell[3].axon[136]'
p233
sI147
I11
tp234
a(F2.4605602330189646
S'Cell[3].dend[11] syn_ = new FastInhib(0.5)'
p235
I3
(dp236
S'seg'
p237
F0.5
sS'hostfrom'
p238
F4.0
sS'gid'
p239
I148
sS'coords'
p240
g7
(g8
(I0
tp241
g10
tp242
Rp243
(I1
(I3
tp244
g14
(S'f8'
p245
I0
I1
tp246
Rp247
(I3
S'<'
p248
NNNI-1
I-1
I0
tp249
bI00
S'\x0c\xd8\x97(\xf5;B\xc0n\xa1\xa0]\xb80\x05@@\xdb4\xa6\xf9\x973\xc0'
p250
tp251
bsS'secnames'
p252
S'Cell[3].axon[68]'
p253
sI148
I155
tp254
a(F2.1859577285361214
S'Cell[0].apic[71] syn_ = new AmpaNmda(0.5)'
p255
I0
(dp256
g237
F0.8333333333333333
sg238
F4.0
sg239
I100
sg240
g7
(g8
(I0
tp257
g10
tp258
Rp259
(I1
(I3
tp260
g247
I00
S'\xf8\xf8\xa7>lPB\xc0\xac\xef\x19r2Jq@\xc0\xcf\x1a\xf9\xf3LP\xc0'
p261
tp262
bsg252
S'Cell[2].axon[60]'
p263
sI100
I11
tp264
a(F1.4619403499634214
S'Cell[0].dend[25] syn_ = new ExpSid(0.833333333333)'
p265
I0
(dp266
S'seg'
p267
F0.5
sS'hostfrom'
p268
F5.0
sS'gid'
p269
I149
sS'coords'
p270
g7
(g8
(I0
tp271
g10
tp272
Rp273
(I1
(I3
tp274
g14
(S'f8'
p275
I0
I1
tp276
Rp277
(I3
S'<'
p278
NNNI-1
I-1
I0
tp279
bI00
S'\x9a\x07\xee=\x96%\x01\xc0d\xed\x02\x9b\x94\xb8[\xc0\x00\x00\x00\xa0G\x81@\xc0'
p280
tp281
bsS'secnames'
p282
S'Cell[3].axon[4]'
p283
sI149
I11
tp284
a(F1.9521990322270228
S'Cell[0].dend[23] syn_ = new AmpaNmda(0.833333333333)'
p285
I0
(dp286
S'seg'
p287
F0.8333333333333333
sS'hostfrom'
p288
F6.0
sS'gid'
p289
I102
sS'coords'
p290
g7
(g8
(I0
tp291
g10
tp292
Rp293
(I1
(I3
tp294
g14
(S'f8'
p295
I0
I1
tp296
Rp297
(I3
S'<'
p298
NNNI-1
I-1
I0
tp299
bI00
S'\x16\x95U\xc5f\xa5R\xc0\x04*\xaa\xa7d\xa9^\xc0\x00\x00\x00\x80\x14\xae%@'
p300
tp301
bsS'secnames'
p302
S'Cell[2].axon[79]'
p303
sI102
I11
tp304
a(F2.404957789439519
S'Cell[0].dend[33] syn_ = new AmpaNmda(0.5)'
p305
I0
(dp306
g287
F0.5
sg288
F6.0
sg289
I102
sg290
g7
(g8
(I0
tp307
g10
tp308
Rp309
(I1
(I3
tp310
g297
I00
S'\x00\x00\x00\xb0Ga\x1b@\x00\x00\x0003\xf3V\xc0\x00\x00\x00 \x85k\x13\xc0'
p311
tp312
bsg302
S'Cell[2].axon[102]'
p313
sI102
I11
tp314
a(F1.841497084733729
S'Cell[0].dend[33] syn_ = new AmpaNmda(0.5)'
p315
I0
(dp316
g287
F0.5
sg288
F6.0
sg289
I102
sg290
g7
(g8
(I0
tp317
g10
tp318
Rp319
(I1
(I3
tp320
g297
I00
S'\xde\xdd\xc0\xd8m?\x1e@\xf5\xad\x88\x9c\x90\xb5W\xc0\x00\x00\x00\x00\xd7\xa3\x17\xc0'
p321
tp322
bsg302
S'Cell[2].axon[103]'
p323
sI102
I11
tp324
a(F1.4065448978636765
S'Cell[0].dend[10] syn_ = new AmpaNmda(0.3)'
p325
I0
(dp326
g287
F0.8333333333333333
sg288
F6.0
sg289
I150
sg290
g7
(g8
(I0
tp327
g10
tp328
Rp329
(I1
(I3
tp330
g297
I00
S'Q@$\x1b}\xb7J\xc0\xd4qO\xfd\n\xb7Q\xc0\xbe\xe5"\xb9;\x8d?\xc0'
p331
tp332
bsg302
S'Cell[3].axon[105]'
p333
sI150
I11
tp334
a(F1.6349731633962645
S'Cell[1].apic[2] syn_ = new ExpSid(0.3)'
p335
I1
(dp336
S'seg'
p337
F0.7
sS'hostfrom'
p338
F7.0
sS'gid'
p339
I103
sS'coords'
p340
g7
(g8
(I0
tp341
g10
tp342
Rp343
(I1
(I3
tp344
g14
(S'f8'
p345
I0
I1
tp346
Rp347
(I3
S'<'
p348
NNNI-1
I-1
I0
tp349
bI00
S'\xa3\x00\xdf_\x9d7@@x\xea=\x08eCa@4$\x98+\xb0\x88\x03\xc0'
p350
tp351
bsS'secnames'
p352
S'Cell[2].axon[14]'
p353
sI103
I59
tp354
a(F1.334371304720175
S'Cell[1].dend[29] syn_ = new AmpaNmda(0.5)'
p355
I1
(dp356
S'seg'
p357
F0.16666666666666666
sS'hostfrom'
p358
F8.0
sS'gid'
p359
I152
sS'coords'
p360
g7
(g8
(I0
tp361
g10
tp362
Rp363
(I1
(I3
tp364
g14
(S'f8'
p365
I0
I1
tp366
Rp367
(I3
S'<'
p368
NNNI-1
I-1
I0
tp369
bI00
S'\xd5\xbe\x16\xd1\xd9\xf73@g>\xca\xf3\xd8\x1d.@\x9e\xear|\xf1`;\xc0'
p370
tp371
bsS'secnames'
p372
S'Cell[3].axon[135]'
p373
sI152
I59
tp374
a(F1.1394821347377786
S'Cell[1].apic[0] syn_ = new AmpaNmda(0.5)'
p375
I1
(dp376
g357
F0.5
sg358
F8.0
sg359
I104
sg360
g7
(g8
(I0
tp377
g10
tp378
Rp379
(I1
(I3
tp380
g367
I00
S'\xe6\xb6`\xc7\xf8\x979@\x8c\xc0\xd0]SOS@\x8c\x80\x0e\x887\xc8"\xc0'
p381
tp382
bsg372
S'Cell[2].axon[145]'
p383
sI104
I59
tp384
a(F2.1599205622071587
S'Cell[0].apic[32] syn_ = new AmpaNmda(0.833333333333)'
p385
I0
(dp386
g357
F0.16666666666666666
sg358
F8.0
sg359
I104
sg360
g7
(g8
(I0
tp387
g10
tp388
Rp389
(I1
(I3
tp390
g367
I00
S'\xeeM\x02@\xec\xcaW\xc0\x82\xfe`\x9dg\x0cZ@pz\x8d\xee\x8d\x88\x17\xc0'
p391
tp392
bsg372
S'Cell[2].axon[214]'
p393
sI104
I11
tp394
a(F2.1129987857992765
S'Cell[3].dend[15] syn_ = new FastInhib(0.166666666667)'
p395
I3
(dp396
g357
F0.5
sg358
F8.0
sg359
I104
sg360
g7
(g8
(I0
tp397
g10
tp398
Rp399
(I1
(I3
tp400
g367
I00
S'\xa0h\x81\xa0^+O@]\x99\xba?\xa7kP@\x9eNA9\xfc]\x14@'
p401
tp402
bsg372
S'Cell[2].axon[273]'
p403
sI104
I155
tp404
a(F1.8828501472519052
S'Cell[3].dend[2] syn_ = new FastInhib(0.5)'
p405
I3
(dp406
S'seg'
p407
F0.8333333333333333
sS'hostfrom'
p408
F9.0
sS'gid'
p409
I153
sS'coords'
p410
g7
(g8
(I0
tp411
g10
tp412
Rp413
(I1
(I3
tp414
g14
(S'f8'
p415
I0
I1
tp416
Rp417
(I3
S'<'
p418
NNNI-1
I-1
I0
tp419
bI00
S'`x\xdc\x0eZ\xb8N\xc0Tv\xae\xd3\xc4\xa0N\xc0)r\xa4\xff"\xaf(@'
p420
tp421
bsS'secnames'
p422
S'Cell[3].axon[26]'
p423
sI153
I155
tp424
a(F2.406145993996286
S'Cell[1].dend[37] syn_ = new ExpSid(0.5)'
p425
I1
(dp426
g407
F0.5
sg408
F9.0
sg409
I153
sg410
g7
(g8
(I0
tp427
g10
tp428
Rp429
(I1
(I3
tp430
g417
I00
S'\x00\x00\x00\xa0Ga?@\x00\x00\x00\x90\xeb1I@\x00\x00\x00\xe0z\xb45\xc0'
p431
tp432
bsg422
S'Cell[3].axon[83]'
p433
sI153
I59
tp434
a(F1.285693679739478
S'Cell[1].dend[20] syn_ = new ExpSid(0.5)'
p435
I1
(dp436
g407
F0.5
sg408
F9.0
sg409
I9
sg410
g7
(g8
(I0
tp437
g10
tp438
Rp439
(I1
(I3
tp440
g417
I00
S'\x0ceq!\xb5\xe2H\xc0\x91~\x8a%\xd0\xd0"@\x00\x00\x00 \xaeG\x03\xc0'
p441
tp442
bsg422
S'Cell[0].axon[8]'
p443
sI9
I59
tp444
a(F2.2223552836215084
S'Cell[0].apic[29] syn_ = new ExpSid(0.5)'
p445
I0
(dp446
g407
F0.16666666666666666
sg408
F9.0
sg409
I105
sg410
g7
(g8
(I0
tp447
g10
tp448
Rp449
(I1
(I3
tp450
g417
I00
S'V&\x85\xbd\x03\xb4=\xc0\xcf\xf9K\xcb\xfa\xbbQ@A\x0c\xee\x0bH\xdc;\xc0'
p451
tp452
bsg422
S'Cell[2].axon[25]'
p453
sI105
I11
tp454
a(F1.6741989634235466
S'Cell[0].dend[27] syn_ = new ExpSid(0.214285714286)'
p455
I0
(dp456
g407
F0.5
sg408
F9.0
sg409
I105
sg410
g7
(g8
(I0
tp457
g10
tp458
Rp459
(I1
(I3
tp460
g417
I00
S'\xbc\x90O\xfc4C4@\xb2\xd6L\xa0\x90\xceW\xc0\xee\xb4\x8e\xd5\xe3\x134\xc0'
p461
tp462
bsg422
S'Cell[2].axon[121]'
p463
sI105
I11
tp464
a(F1.2073594541001924
S'Cell[3].dend[3] syn_ = new FastInhib(0.5)'
p465
I3
(dp466
S'seg'
p467
F0.8333333333333333
sS'hostfrom'
p468
F10.0
sS'gid'
p469
I106
sS'coords'
p470
g7
(g8
(I0
tp471
g10
tp472
Rp473
(I1
(I3
tp474
g14
(S'f8'
p475
I0
I1
tp476
Rp477
(I3
S'<'
p478
NNNI-1
I-1
I0
tp479
bI00
S'\x8e=U\x8b\xa9]E\xc0OE4E UH\xc0\xb8\xc1T\xb3\xd85!@'
p480
tp481
bsS'secnames'
p482
S'Cell[2].axon[275]'
p483
sI106
I155
tp484
a(F2.4455087071018102
S'Cell[0].apic[1] syn_ = new ExpSid(0.5)'
p485
I0
(dp486
S'seg'
p487
F0.21428571428571427
sS'hostfrom'
p488
F11.0
sS'gid'
p489
I155
sS'coords'
p490
g7
(g8
(I0
tp491
g10
tp492
Rp493
(I1
(I3
tp494
g14
(S'f8'
p495
I0
I1
tp496
Rp497
(I3
S'<'
p498
NNNI-1
I-1
I0
tp499
bI00
S"%\x9f\x93H\xa5>\x1e\xc0T(\xfb'\xa1\x85=\xc0\xaa\xfd\xfa\xfd\x8e=L\xc0"
p500
tp501
bsS'secnames'
p502
S'Cell[3].axon[255]'
p503
sI155
I11
tp504
a(F2.1764876025014557
S'Cell[0].apic[33] syn_ = new ExpSid(0.5)'
p505
I0
(dp506
g487
F0.16666666666666666
sg488
F11.0
sg489
I155
sg490
g7
(g8
(I0
tp507
g10
tp508
Rp509
(I1
(I3
tp510
g497
I00
S'\x02\xe6>\xc2\xdaWH\xc0\x95\xb9\xf2\x9dF\xfdD@\xda@N\x8a\xf4[3\xc0'
p511
tp512
bsg502
S'Cell[3].axon[283]'
p513
sI155
I11
tp514
a(F2.199549023743878
S'Cell[0].apic[16] syn_ = new AmpaNmda(0.5)'
p515
I0
(dp516
S'seg'
p517
F0.8333333333333333
sS'hostfrom'
p518
F12.0
sS'gid'
p519
I108
sS'coords'
p520
g7
(g8
(I0
tp521
g10
tp522
Rp523
(I1
(I3
tp524
g14
(S'f8'
p525
I0
I1
tp526
Rp527
(I3
S'<'
p528
NNNI-1
I-1
I0
tp529
bI00
S'@\xd7JC\x9f\x82\xa8\xbf5\x06\xa0\x08\x05i3@\\O=\x7f\x1d\xb4H\xc0'
p530
tp531
bsS'secnames'
p532
S'Cell[2].axon[392]'
p533
sI108
I11
tp534
a(F1.3873759236255425
S'Cell[1].dend[32] syn_ = new AmpaNmda(0.833333333333)'
p535
I1
(dp536
g517
F0.5
sg518
F12.0
sg519
I108
sg520
g7
(g8
(I0
tp537
g10
tp538
Rp539
(I1
(I3
tp540
g527
I00
S'\x00\x00\x00\xc0\x1e\xa5F\xc0\x00\x00\x00\xe0QX3\xc0\x00\x00\x0003\xf3C\xc0'
p541
tp542
bsg532
S'Cell[2].axon[405]'
p543
sI108
I59
tp544
a(F2.3892788890212255
S'Cell[3].dend[41] syn_ = new FastInhib(0.5)'
p545
I3
(dp546
S'seg'
p547
F0.8333333333333333
sS'hostfrom'
p548
F13.0
sS'gid'
p549
I109
sS'coords'
p550
g7
(g8
(I0
tp551
g10
tp552
Rp553
(I1
(I3
tp554
g14
(S'f8'
p555
I0
I1
tp556
Rp557
(I3
S'<'
p558
NNNI-1
I-1
I0
tp559
bI00
S'\xdf\xff\x80\x81\xf7\xb8W\xc0\xbc\x1c.\xeb\x0b\xecB@\xc9\xd4\x8a\xb2\xb8\x12#@'
p560
tp561
bsS'secnames'
p562
S'Cell[2].axon[264]'
p563
sI109
I155
tp564
a(F1.7599011405446614
S'Cell[0].dend[25] syn_ = new ExpSid(0.166666666667)'
p565
I0
(dp566
g547
F0.49999999999999994
sg548
F13.0
sg549
I13
sg550
g7
(g8
(I0
tp567
g10
tp568
Rp569
(I1
(I3
tp570
g557
I00
S'\xe6U\xad\xd8j\t8\xc0F\x9a\x16%\x8a\x1dR\xc0\x00\x00\x00\x80=\x8a5\xc0'
p571
tp572
bsg562
S'Cell[0].axon[12]'
p573
sI13
I11
tp574
a(F1.4995326598151628
S'Cell[0].dend[47] syn_ = new AmpaNmda(0.5)'
p575
I0
(dp576
S'seg'
p577
F0.5
sS'hostfrom'
p578
F14.0
sS'gid'
p579
I110
sS'coords'
p580
g7
(g8
(I0
tp581
g10
tp582
Rp583
(I1
(I3
tp584
g14
(S'f8'
p585
I0
I1
tp586
Rp587
(I3
S'<'
p588
NNNI-1
I-1
I0
tp589
bI00
S"\x00\x00\x00\xc0\xcc\x0c?@\xaa\xf2@\x1d&\xbd'\xc0\xfe\x93Y\xe1\xd0\xcd\x10\xc0"
p590
tp591
bsS'secnames'
p592
S'Cell[2].axon[68]'
p593
sI110
I11
tp594
a(F1.625212107911925
S'Cell[0].apic[40] syn_ = new ExpSid(0.166666666667)'
p595
I0
(dp596
S'seg'
p597
F0.16666666666666666
sS'hostfrom'
p598
F15.0
sS'gid'
p599
I111
sS'coords'
p600
g7
(g8
(I0
tp601
g10
tp602
Rp603
(I1
(I3
tp604
g14
(S'f8'
p605
I0
I1
tp606
Rp607
(I3
S'<'
p608
NNNI-1
I-1
I0
tp609
bI00
S'9\xda\xad\x9b\x0cp:\xc0\x06\nf\xe0\xe8LV@\xc0\x8c\x9e\xc3\x0fNQ\xc0'
p610
tp611
bsS'secnames'
p612
S'Cell[2].axon[240]'
p613
sI111
I11
tp614
a(F2.0772217001332596
S'Cell[0].dend[48] syn_ = new ExpSid(0.833333333333)'
p615
I0
(dp616
g597
F0.5
sg598
F15.0
sg599
I111
sg600
g7
(g8
(I0
tp617
g10
tp618
Rp619
(I1
(I3
tp620
g607
I00
S'\x1f\xf3\xb0EW\x1b7@R5T\xdd\n\x9c4\xc0n\x8b~>\xc5CF\xc0'
p621
tp622
bsg612
S'Cell[2].axon[286]'
p623
sI111
I11
tp624
a(F2.4516995998166835
S'Cell[3].dend[9] syn_ = new FastInhib(0.357142857143)'
p625
I3
g616
I111
I155
tp626
a(F0.9947783923067214
S'Cell[3].dend[8] syn_ = new FastInhib(0.5)'
p627
I3
(dp628
g597
F0.2777777777777778
sg598
F15.0
sg599
I111
sg600
g7
(g8
(I0
tp629
g10
tp630
Rp631
(I1
(I3
tp632
g607
I00
S"\xc4K\xba\xf2.\x91>\xc0'\x16iF\xc0\xd2b\xc0\xd4\xdc\xcd\x89]\xe8T\xc0"
p633
tp634
bsg612
S'Cell[2].axon[351]'
p635
sI111
I155
tp636
a(F2.307848205157205
S'Cell[3].dend[35] syn_ = new FastInhib(0.5)'
p637
I3
(dp638
g597
F0.16666666666666666
sg598
F15.0
sg599
I63
sg600
g7
(g8
(I0
tp639
g10
tp640
Rp641
(I1
(I3
tp642
g607
I00
S'\xde\x8d\x8e\xdf5\x89L\xc0\xdae\x9b$\x1f\x12&\xc0l\xf8\x02\x84\t3\x03\xc0'
p643
tp644
bsg612
S'Cell[1].axon[0]'
p645
sI63
I155
tp646
a(F2.2547523154254954
S'Cell[1].dend[55] syn_ = new AmpaNmda(0.5)'
p647
I1
(dp648
S'seg'
p649
F0.5
sS'hostfrom'
p650
F16.0
sS'gid'
p651
I64
sS'coords'
p652
g7
(g8
(I0
tp653
g10
tp654
Rp655
(I1
(I3
tp656
g14
(S'f8'
p657
I0
I1
tp658
Rp659
(I3
S'<'
p660
NNNI-1
I-1
I0
tp661
bI00
S"\xa6'm:;!F@.q\xd6\xabM\xa7P@\x03\x18\x02s\\\x8d6@"
p662
tp663
bsS'secnames'
p664
S'Cell[1].axon[4]'
p665
sI64
I59
tp666
a(F2.360412575153715
S'Cell[3].dend[6] syn_ = new FastInhib(0.7)'
p667
I3
(dp668
g649
F0.5
sg650
F16.0
sg651
I160
sg652
g7
(g8
(I0
tp669
g10
tp670
Rp671
(I1
(I3
tp672
g659
I00
S"\xb7\x1cB\x93^\xbbA\xc0\xdf'\x94r$\xd0[\xc0\x00\x00\x00\xc0\x1e\x05Q\xc0"
p673
tp674
bsg664
S'Cell[3].axon[93]'
p675
sI160
I155
tp676
a(F1.8003301886958505
S'Cell[0].dend[40] syn_ = new AmpaNmda(0.5)'
p677
I0
(dp678
g649
F0.5
sg650
F16.0
sg651
I112
sg652
g7
(g8
(I0
tp679
g10
tp680
Rp681
(I1
(I3
tp682
g659
I00
S'\x9f\x06\x0b\x87\x1c(\x16@\x02\x80>\x06\xf7\\I\xc0)G\xfdy\x81+6\xc0'
p683
tp684
bsg664
S'Cell[2].axon[100]'
p685
sI112
I11
tp686
a(F1.2460559173625063
S'Cell[1].dend[32] syn_ = new AmpaNmda(0.5)'
p687
I1
(dp688
g649
F0.3571428571428571
sg650
F16.0
sg651
I112
sg652
g7
(g8
(I0
tp689
g10
tp690
Rp691
(I1
(I3
tp692
g659
I00
S'i\xbe\xd9\x86+\x9d6\xc0\x92\xec\xe6\xad\n\x96\xb7\xbf-\x10\x19\xe5\x8e\xcfA\xc0'
p693
tp694
bsg664
S'Cell[2].axon[201]'
p695
sI112
I59
tp696
a(F1.363731483753023
S'Cell[3].dend[23] syn_ = new FastInhib(0.3)'
p697
I3
(dp698
S'seg'
p699
F0.8999999999999999
sS'hostfrom'
p700
F17.0
sS'gid'
p701
I113
sS'coords'
p702
g7
(g8
(I0
tp703
g10
tp704
Rp705
(I1
(I3
tp706
g14
(S'f8'
p707
I0
I1
tp708
Rp709
(I3
S'<'
p710
NNNI-1
I-1
I0
tp711
bI00
S"\xf0\xe9\x08\xa0*D'\xc0\xe6yQ\xf9r$F@r\x8bh\xbd\xb6w7\xc0"
p712
tp713
bsS'secnames'
p714
S'Cell[2].axon[512]'
p715
sI113
I155
tp716
a(F1.4116388582722244
S'Cell[0].dend[42] syn_ = new ExpSid(0.166666666667)'
p717
I0
(dp718
g699
F0.5
sg700
F17.0
sg701
I113
sg702
g7
(g8
(I0
tp719
g10
tp720
Rp721
(I1
(I3
tp722
g709
I00
S',=a\xfc<#!@\x932\xe6\xbe\x00lO\xc0\xec\x06\xb8\x1d/\xc6\x02\xc0'
p723
tp724
bsg714
S'Cell[2].axon[614]'
p725
sI113
I11
tp726
a(F0.9833948874875429
S'Cell[0].dend[27] syn_ = new ExpSid(0.0714285714286)'
p727
I0
(dp728
g699
F0.6428571428571428
sg700
F17.0
sg701
I113
sg702
g7
(g8
(I0
tp729
g10
tp730
Rp731
(I1
(I3
tp732
g709
I00
S'\x93\x82\x0f\xf8\xea\xbc%@\xbf\xbb\x121\xd6\x93R\xc0}l\xac\xf2\xfe\x849\xc0'
p733
tp734
bsg714
S'Cell[2].axon[758]'
p735
sI113
I11
tp736
a(F2.200212636650295
S'Cell[1].dend[57] syn_ = new ExpSid(0.5)'
p737
I1
(dp738
g699
F0.16666666666666666
sg700
F17.0
sg701
I161
sg702
g7
(g8
(I0
tp739
g10
tp740
Rp741
(I1
(I3
tp742
g709
I00
S'\xc6\xb4E]~QD@q\x88\xb8\x98\xcb\xb0P@\x8f\x15wo\xb8P\xec\xbf'
p743
tp744
bsg714
S'Cell[3].axon[40]'
p745
sI161
I59
tp746
a(F1.5345040254649254
S'Cell[0].dend[10] syn_ = new AmpaNmda(0.9)'
p747
I0
(dp748
S'seg'
p749
F0.07142857142857142
sS'hostfrom'
p750
F18.0
sS'gid'
p751
I114
sS'coords'
p752
g7
(g8
(I0
tp753
g10
tp754
Rp755
(I1
(I3
tp756
g14
(S'f8'
p757
I0
I1
tp758
Rp759
(I3
S'<'
p760
NNNI-1
I-1
I0
tp761
bI00
S'\xaa\xc9\xba\xe3$z\\\xc0\xe6J\x9cJ\xd6~V\xc0\xd8\x80z?\xce\xc5@\xc0'
p762
tp763
bsS'secnames'
p764
S'Cell[2].axon[31]'
p765
sI114
I11
tp766
a(F1.5152143437700258
S'Cell[0].apic[29] syn_ = new AmpaNmda(0.5)'
p767
I0
(dp768
g749
F0.1
sg750
F18.0
sg751
I66
sg752
g7
(g8
(I0
tp769
g10
tp770
Rp771
(I1
(I3
tp772
g759
I00
S'\xf4[\x0cJ\xd2o=\xc0i\xc4\xa7\xbe\xd1\xa5Q@\x0c\x11t\x0f\x9e\x82:\xc0'
p773
tp774
bsg764
S'Cell[1].axon[30]'
p775
sI66
I11
tp776
a(F2.0569712207464885
S'Cell[3].dend[40] syn_ = new FastInhib(0.833333333333)'
p777
I3
(dp778
S'seg'
p779
F0.16666666666666666
sS'hostfrom'
p780
F19.0
sS'gid'
p781
I115
sS'coords'
p782
g7
(g8
(I0
tp783
g10
tp784
Rp785
(I1
(I3
tp786
g14
(S'f8'
p787
I0
I1
tp788
Rp789
(I3
S'<'
p790
NNNI-1
I-1
I0
tp791
bI00
S'\x94\x90\xfa\x02"t^\xc0R)mY\xb4KU@\x00\x00\x00`\xb8\x9e#@'
p792
tp793
bsS'secnames'
p794
S'Cell[2].axon[32]'
p795
sI115
I155
tp796
a(F2.343760048998472
S'Cell[0].apic[26] syn_ = new ExpSid(0.5)'
p797
I0
(dp798
g779
F0.07142857142857142
sg780
F19.0
sg781
I115
sg782
g7
(g8
(I0
tp799
g10
tp800
Rp801
(I1
(I3
tp802
g789
I00
S'\xd6i\xb1O\xcc?T\xc0\xf3ukF2{M@\x00\x00\x00\x80=\x8a/@'
p803
tp804
bsg794
S'Cell[2].axon[75]'
p805
sI115
I11
tp806
a(F1.5265089334979214
S'Cell[1].dend[58] syn_ = new ExpSid(0.3)'
p807
I1
(dp808
g779
F0.8333333333333333
sg780
F19.0
sg781
I115
sg782
g7
(g8
(I0
tp809
g10
tp810
Rp811
(I1
(I3
tp812
g789
I00
S'\x8e\xb1\x02$\x0f\x84S@\x96\xb4\xe2\xb7\x02[J@j\xd8uND5\x18@'
p813
tp814
bsg794
S'Cell[2].axon[169]'
p815
sI115
I59
tp816
a(F2.363929970324404
S'Cell[1].dend[51] syn_ = new AmpaNmda(0.5)'
p817
I1
(dp818
S'seg'
p819
F0.5
sS'hostfrom'
p820
F20.0
sS'gid'
p821
I68
sS'coords'
p822
g7
(g8
(I0
tp823
g10
tp824
Rp825
(I1
(I3
tp826
g14
(S'f8'
p827
I0
I1
tp828
Rp829
(I3
S'<'
p830
NNNI-1
I-1
I0
tp831
bI00
S'\x06\x83\x0c\x0c\x80`H@\x9e\x98\x8b\xaf\xc7\xf8L@\x90{\x08B\x01\xcf0@'
p832
tp833
bsS'secnames'
p834
S'Cell[1].axon[5]'
p835
sI68
I59
tp836
a(F1.8841933649544587
S'Cell[0].dend[27] syn_ = new ExpSid(0.785714285714)'
p837
I0
(dp838
S'seg'
p839
F0.8999999999999999
sS'hostfrom'
p840
F21.0
sS'gid'
p841
I165
sS'coords'
p842
g7
(g8
(I0
tp843
g10
tp844
Rp845
(I1
(I3
tp846
g14
(S'f8'
p847
I0
I1
tp848
Rp849
(I3
S'<'
p850
NNNI-1
I-1
I0
tp851
bI00
S'\x14<\xce\xa1\xfb\xcdP@\xd8\x80\x8b\xa5\xc8ve\xc0\xfb\xc7:\x84\xf0\n \xc0'
p852
tp853
bsS'secnames'
p854
S'Cell[3].axon[43]'
p855
sI165
I11
tp856
a(F0.5149440993671554
S'Cell[1].dend[18] syn_ = new ExpSid(0.166666666667)'
p857
I1
(dp858
g839
F0.5
sg840
F21.0
sg841
I165
sg842
g7
(g8
(I0
tp859
g10
tp860
Rp861
(I1
(I3
tp862
g849
I00
S'\x9e\n>`\xbcI\x06@\xcd\xecp\x1bL\xc2B@\x01\x83I\x1a\x7f\x9b2@'
p863
tp864
bsg854
S'Cell[3].axon[103]'
p865
sI165
I59
tp866
a(F1.8463708244422443
S'Cell[1].dend[34] syn_ = new ExpSid(0.5)'
p867
I1
(dp868
g839
F0.8333333333333333
sg840
F21.0
sg841
I165
sg842
g7
(g8
(I0
tp869
g10
tp870
Rp871
(I1
(I3
tp872
g849
I00
S" \x148\x9bI\x193\xc0u\x94\x1c\xcc\x10\xbd'@\xa8\x8e\xbb\xc2\xa1\xb2O\xc0"
p873
tp874
bsg854
S'Cell[3].axon[118]'
p875
sI165
I59
tp876
a(F1.938771605166096
S'Cell[0].apic[20] syn_ = new ExpSid(0.833333333333)'
p877
I0
(dp878
g839
F0.2777777777777778
sg840
F21.0
sg841
I165
sg842
g7
(g8
(I0
tp879
g10
tp880
Rp881
(I1
(I3
tp882
g849
I00
S"\xa4\xa8Q\x90\xb8\xb9K@\x0e\x9a\xed\xa3\x12\x03>@na'+6\xecP\xc0"
p883
tp884
bsg854
S'Cell[3].axon[153]'
p885
sI165
I11
tp886
a(F1.5866606999682726
S'Cell[1].dend[58] syn_ = new ExpSid(0.9)'
p887
I1
(dp888
g839
F0.8333333333333333
sg840
F21.0
sg841
I165
sg842
g7
(g8
(I0
tp889
g10
tp890
Rp891
(I1
(I3
tp892
g849
I00
S"dz\xb0\xe2\xc1\x8c_@\xb1\xac\xc0'M\xe1+@\x0c\x8da0bo\x1c@"
p893
tp894
bsg854
S'Cell[3].axon[164]'
p895
sI165
I59
tp896
a(F1.7975891926175132
S'Cell[0].dend[33] syn_ = new ExpSid(0.5)'
p897
I0
(dp898
S'seg'
p899
F0.5
sS'hostfrom'
p900
F23.0
sS'gid'
p901
I71
sS'coords'
p902
g7
(g8
(I0
tp903
g10
tp904
Rp905
(I1
(I3
tp906
g14
(S'f8'
p907
I0
I1
tp908
Rp909
(I3
S'<'
p910
NNNI-1
I-1
I0
tp911
bI00
S'\x00\x00\x00\xd0\xcc\xcc\x14@\x00\x00\x00@\n\xcfW\xc0\x00\x00\x00\xeeQ8\x10\xc0'
p912
tp913
bsS'secnames'
p914
S'Cell[1].axon[13]'
p915
sI71
I11
tp916
a(F2.2441699021176897
S'Cell[0].dend[22] syn_ = new ExpSid(0.833333333333)'
p917
I0
(dp918
g899
F0.16666666666666666
sg900
F23.0
sg901
I167
sg902
g7
(g8
(I0
tp919
g10
tp920
Rp921
(I1
(I3
tp922
g909
I00
S'\xcc>\x04\xe1\xe2\x98D\xc0\xe0V\x06\xb2\xcd0R\xc0\x18\xae\xfa\xd4q\xc9\x16\xc0'
p923
tp924
bsg914
S'Cell[3].axon[183]'
p925
sI167
I11
tp926
a(F1.8365404521009594
S'Cell[0].dend[44] syn_ = new AmpaNmda(0.166666666667)'
p927
I0
(dp928
S'seg'
p929
F0.8333333333333333
sS'hostfrom'
p930
F24.0
sS'gid'
p931
I72
sS'coords'
p932
g7
(g8
(I0
tp933
g10
tp934
Rp935
(I1
(I3
tp936
g14
(S'f8'
p937
I0
I1
tp938
Rp939
(I3
S'<'
p940
NNNI-1
I-1
I0
tp941
bI00
S'1\n\xed\x99\xff\xc2@@4\x19,\x12!\x95Q\xc0Ns\\\xb4\xc2\x7f\x12@'
p942
tp943
bsS'secnames'
p944
S'Cell[1].axon[0]'
p945
sI72
I11
tp946
a(F1.7941992035343657
S'Cell[0].apic[39] syn_ = new AmpaNmda(0.833333333333)'
p947
I0
(dp948
g929
F0.16666666666666666
sg930
F24.0
sg931
I168
sg932
g7
(g8
(I0
tp949
g10
tp950
Rp951
(I1
(I3
tp952
g939
I00
S'\xf4K\x93e\xebqH\xc0~\x11\x92\xb4\xa6\xcbW@\x00\x00\x00\xc0\xcc\xdcQ\xc0'
p953
tp954
bsg944
S'Cell[3].axon[288]'
p955
sI168
I11
tp956
a(F2.1566458644733117
S'Cell[0].apic[5] syn_ = new AmpaNmda(0.5)'
p957
I0
(dp958
g929
F0.8999999999999999
sg930
F24.0
sg931
I168
sg932
g7
(g8
(I0
tp959
g10
tp960
Rp961
(I1
(I3
tp962
g939
I00
S'\xa8\xcb\xcc\x83\x92\x84"@\xb2dR\x0c\x18\x9d2\xc0\x00\x00\x00\xc0\xcc\xdcQ\xc0'
p963
tp964
bsg944
S'Cell[3].axon[538]'
p965
sI168
I11
tp966
a(F1.4120271115348066
S'Cell[0].dend[7] syn_ = new AmpaNmda(0.833333333333)'
p967
I0
(dp968
g929
F0.8333333333333333
sg930
F24.0
sg931
I120
sg932
g7
(g8
(I0
tp969
g10
tp970
Rp971
(I1
(I3
tp972
g939
I00
S'\x8b\x8a\x81\x80-T1\xc0\xec\xb92a\x9chQ\xc0\x12O\xdb^\x1b\x06,@'
p973
tp974
bsg944
S'Cell[2].axon[123]'
p975
sI120
I11
tp976
a(F1.0742527169693934
S'Cell[1].dend[32] syn_ = new ExpSid(0.833333333333)'
p977
I1
(dp978
S'seg'
p979
F0.16666666666666666
sS'hostfrom'
p980
F25.0
sS'gid'
p981
I121
sS'coords'
p982
g7
(g8
(I0
tp983
g10
tp984
Rp985
(I1
(I3
tp986
g14
(S'f8'
p987
I0
I1
tp988
Rp989
(I3
S'<'
p990
NNNI-1
I-1
I0
tp991
bI00
S'qUa\x10M\tF\xc0}\x99\x8b"\x95\xa62\xc0\x81d\xcd2j\xd1C\xc0'
p992
tp993
bsS'secnames'
p994
S'Cell[2].axon[177]'
p995
sI121
I59
tp996
a(F2.446679742199246
S'Cell[0].dend[10] syn_ = new ExpSid(0.3)'
p997
I0
(dp998
g979
F0.21428571428571427
sg980
F25.0
sg981
I169
sg982
g7
(g8
(I0
tp999
g10
tp1000
Rp1001
(I1
(I3
tp1002
g989
I00
S'\xf2\xf8){v\xd7K\xc0^\xdb\xe77C\\R\xc0\xff\xff\xff\xff\xd6c?\xc0'
p1003
tp1004
bsg994
S'Cell[3].axon[171]'
p1005
sI169
I11
tp1006
a(F0.6884167189641288
S'Cell[0].dend[46] syn_ = new AmpaNmda(0.5)'
p1007
I0
(dp1008
S'seg'
p1009
F0.07142857142857142
sS'hostfrom'
p1010
F26.0
sS'gid'
p1011
I26
sS'coords'
p1012
g7
(g8
(I0
tp1013
g10
tp1014
Rp1015
(I1
(I3
tp1016
g14
(S'f8'
p1017
I0
I1
tp1018
Rp1019
(I3
S'<'
p1020
NNNI-1
I-1
I0
tp1021
bI00
S'\x17\xd0.$:\x8c<@\xf1\xef\xfa\xe43\xe6I\xc0s\x18\x9b\x08\x8bi0@'
p1022
tp1023
bsS'secnames'
p1024
S'Cell[0].axon[46]'
p1025
sI26
I11
tp1026
a(F2.4691855338843993
S'Cell[1].dend[13] syn_ = new AmpaNmda(0.3)'
p1027
I1
(dp1028
g1009
F0.16666666666666666
sg1010
F26.0
sg1011
I170
sg1012
g7
(g8
(I0
tp1029
g10
tp1030
Rp1031
(I1
(I3
tp1032
g1019
I00
S"p\x05'+w\x98=\xc0\x08\x07\xdb\xd1\xdeHT@\x96\xc4*\xeb\xae\x17 @"
p1033
tp1034
bsg1024
S'Cell[3].axon[450]'
p1035
sI170
I59
tp1036
a(F1.2538363680124744
S'Cell[3].dend[23] syn_ = new FastInhib(0.3)'
p1037
I3
(dp1038
g1009
F0.5
sg1010
F26.0
sg1011
I170
sg1012
g7
(g8
(I0
tp1039
g10
tp1040
Rp1041
(I1
(I3
tp1042
g1019
I00
S"\xf2\xb5\xef\xecEh'\xc0=\xe0\x17\xe3\\\x10F@\xbd\xfe'\xa4\xf2L5\xc0"
p1043
tp1044
bsg1024
S'Cell[3].axon[468]'
p1045
sI170
I155
tp1046
a(F2.264205128381504
S'Cell[0].apic[21] syn_ = new AmpaNmda(0.833333333333)'
p1047
I0
(dp1048
S'seg'
p1049
F0.7
sS'hostfrom'
p1050
F28.0
sS'gid'
p1051
I172
sS'coords'
p1052
g7
(g8
(I0
tp1053
g10
tp1054
Rp1055
(I1
(I3
tp1056
g14
(S'f8'
p1057
I0
I1
tp1058
Rp1059
(I3
S'<'
p1060
NNNI-1
I-1
I0
tp1061
bI00
S'\t\xf8\xf4\xff\x91\xc5(\xc0\xef\x9a\xa4\xfc\xf8\x1b:@\xb9\x05\xbe\xa9\xdb\x17O\xc0'
p1062
tp1063
bsS'secnames'
p1064
S'Cell[3].axon[29]'
p1065
sI172
I11
tp1066
a(F2.1236002201512036
S'Cell[0].dend[27] syn_ = new AmpaNmda(0.214285714286)'
p1067
I0
(dp1068
S'seg'
p1069
F0.5
sS'hostfrom'
p1070
F30.0
sS'gid'
p1071
I126
sS'coords'
p1072
g7
(g8
(I0
tp1073
g10
tp1074
Rp1075
(I1
(I3
tp1076
g14
(S'f8'
p1077
I0
I1
tp1078
Rp1079
(I3
S'<'
p1080
NNNI-1
I-1
I0
tp1081
bI00
S'F\t3YE\xa36@\xb4\x17\xcc\x90I\xcaW\xc0\x95*\x7f\xe5\x83\x8c1\xc0'
p1082
tp1083
bsS'secnames'
p1084
S'Cell[2].axon[7]'
p1085
sI126
I11
tp1086
a(F2.47899719977704
S'Cell[0].apic[61] syn_ = new AmpaNmda(0.5)'
p1087
I0
(dp1088
g1069
F0.5
sg1070
F30.0
sg1071
I126
sg1072
g7
(g8
(I0
tp1089
g10
tp1090
Rp1091
(I1
(I3
tp1092
g1079
I00
S'P*\x88\xdc5\xf3\xcc?`\xb6\xf3|\x90\np@P\xdb\xb6?\tOJ\xc0'
p1093
tp1094
bsg1084
S'Cell[2].axon[119]'
p1095
sI126
I11
tp1096
a(F1.9711130120249714
S'Cell[3].dend[9] syn_ = new FastInhib(0.0714285714286)'
p1097
I3
(dp1098
g1069
F0.16666666666666666
sg1070
F30.0
sg1071
I174
sg1072
g7
(g8
(I0
tp1099
g10
tp1100
Rp1101
(I1
(I3
tp1102
g1079
I00
S'N0T\xdf\xcem=\xc0\xeb\xd9b\xb0\xfc\xb7\x17\xc0t\x0e(iy\xc62\xc0'
p1103
tp1104
bsg1084
S'Cell[3].axon[84]'
p1105
sI174
I155
tp1106
a(F1.220406611608565
S'Cell[3].dend[23] syn_ = new FastInhib(0.1)'
p1107
I3
(dp1108
g1069
F0.5
sg1070
F30.0
sg1071
I174
sg1072
g7
(g8
(I0
tp1109
g10
tp1110
Rp1111
(I1
(I3
tp1112
g1079
I00
S'\xb0*_\x1d\xe3v=\xc0\xae\xfd!.BS>@\xe4l\xba\xbb}\xdd+\xc0'
p1113
tp1114
bsg1084
S'Cell[3].axon[102]'
p1115
sI174
I155
tp1116
a(F2.0653346390500285
S'Cell[0].dend[47] syn_ = new AmpaNmda(0.7)'
p1117
I0
(dp1118
g1069
F0.5
sg1070
F30.0
sg1071
I174
sg1072
g7
(g8
(I0
tp1119
g10
tp1120
Rp1121
(I1
(I3
tp1122
g1079
I00
S'\x00\x85\xe0\x0e\xf7\x86F@\x81\x14 \xed\x1d\xf5\xe5\xbf\x02}\x8e\xb8s70@'
p1123
tp1124
bsg1084
S'Cell[3].axon[267]'
p1125
sI174
I11
tp1126
a(F1.1482747195178873
S'Cell[3].dend[11] syn_ = new FastInhib(0.5)'
p1127
I3
(dp1128
g1069
F0.5
sg1070
F30.0
sg1071
I174
sg1072
g7
(g8
(I0
tp1129
g10
tp1130
Rp1131
(I1
(I3
tp1132
g1079
I00
S'\x00\x00\x00P\xe1\x9aB\xc0\x00\x00\x00p=\n\x0b@\x00\x00\x00 \xae\xc71\xc0'
p1133
tp1134
bsg1084
S'Cell[3].axon[308]'
p1135
sI174
I155
tp1136
a(F2.389401743116104
S'Cell[1].dend[6] syn_ = new AmpaNmda(0.5)'
p1137
I1
(dp1138
g1069
F0.30000000000000004
sg1070
F30.0
sg1071
I174
sg1072
g7
(g8
(I0
tp1139
g10
tp1140
Rp1141
(I1
(I3
tp1142
g1079
I00
S'\x83\x1f\xc3\x10`\xfe/\xc0\xf1\x8ai\xbb\xee\xfdF@\xdc\xe50M\x89K6\xc0'
p1143
tp1144
bsg1084
S'Cell[3].axon[371]'
p1145
sI174
I59
tp1146
a(F1.7385810805910185
S'Cell[0].dend[27] syn_ = new AmpaNmda(0.642857142857)'
p1147
I0
(dp1148
S'seg'
p1149
F0.5
sS'hostfrom'
p1150
F32.0
sS'gid'
p1151
I176
sS'coords'
p1152
g7
(g8
(I0
tp1153
g10
tp1154
Rp1155
(I1
(I3
tp1156
g14
(S'f8'
p1157
I0
I1
tp1158
Rp1159
(I3
S'<'
p1160
NNNI-1
I-1
I0
tp1161
bI00
S'\xfa\xb6\xcd\xd0+\xc1J@$?\x85>@\xdfc\xc0t\xd0\x17\xbc\xa5\xb5\x1a\xc0'
p1162
tp1163
bsS'secnames'
p1164
S'Cell[3].axon[19]'
p1165
sI176
I11
tp1166
a(F1.4424510327197009
S'Cell[1].dend[28] syn_ = new ExpSid(0.5)'
p1167
I1
(dp1168
S'seg'
p1169
F0.8333333333333333
sS'hostfrom'
p1170
F33.0
sS'gid'
p1171
I129
sS'coords'
p1172
g7
(g8
(I0
tp1173
g10
tp1174
Rp1175
(I1
(I3
tp1176
g14
(S'f8'
p1177
I0
I1
tp1178
Rp1179
(I3
S'<'
p1180
NNNI-1
I-1
I0
tp1181
bI00
S"\x8c\xc8@\x19\xcb\xbc3@'\xfdv8U\x95E@\x00\x00\x00\xa0\x99\x99*\xc0"
p1182
tp1183
bsS'secnames'
p1184
S'Cell[2].axon[0]'
p1185
sI129
I59
tp1186
a(F2.022620080166415
S'Cell[3].dend[15] syn_ = new FastInhib(0.833333333333)'
p1187
I3
(dp1188
g1169
F0.8333333333333333
sg1170
F33.0
sg1171
I129
sg1172
g7
(g8
(I0
tp1189
g10
tp1190
Rp1191
(I1
(I3
tp1192
g1179
I00
S'\xaa\xfa\xb1;&/Q@\x00<[\x14w;U@\x93j\xfb\xd2\xe5p\xde?'
p1193
tp1194
bsg1184
S'Cell[2].axon[69]'
p1195
sI129
I155
tp1196
a(F1.9797319818656862
S'Cell[3].dend[16] syn_ = new FastInhib(0.5)'
p1197
I3
(dp1198
g1169
F0.7
sg1170
F33.0
sg1171
I177
sg1172
g7
(g8
(I0
tp1199
g10
tp1200
Rp1201
(I1
(I3
tp1202
g1179
I00
S'\xc0\xe7{\xc0\x1d\x8aQ@i\x03\xc1\xf6\x9a\xa2L@6\n`7\x0b\xcc\x13@'
p1203
tp1204
bsg1184
S'Cell[3].axon[38]'
p1205
sI177
I155
tp1206
a(F1.8541325560393052
S'Cell[3].dend[18] syn_ = new FastInhib(0.5)'
p1207
I3
(dp1208
g1169
F0.5
sg1170
F33.0
sg1171
I177
sg1172
g7
(g8
(I0
tp1209
g10
tp1210
Rp1211
(I1
(I3
tp1212
g1179
I00
S'\xe6g\x94\xb5\x8b\xa4T@pqR\xf4\xdf\xc2M@\x00\x00\x00\x80\xeb\xd1 @'
p1213
tp1214
bsg1184
S'Cell[3].axon[135]'
p1215
sI177
I155
tp1216
a(F2.1650404100116387
S'Cell[1].dend[19] syn_ = new ExpSid(0.5)'
p1217
I1
(dp1218
g1169
F0.3888888888888889
sg1170
F33.0
sg1171
I81
sg1172
g7
(g8
(I0
tp1219
g10
tp1220
Rp1221
(I1
(I3
tp1222
g1179
I00
S'\xd8\xd1\x83\xfb\x18\x80I\xc0"b`_{\x15/@\xd2\xfc\xee\xbf\x85V)\xc0'
p1223
tp1224
bsg1184
S'Cell[1].axon[91]'
p1225
sI81
I59
tp1226
a(F1.7881154596304412
S'Cell[0].apic[48] syn_ = new AmpaNmda(0.5)'
p1227
I0
(dp1228
S'seg'
p1229
F0.5
sS'hostfrom'
p1230
F34.0
sS'gid'
p1231
I178
sS'coords'
p1232
g7
(g8
(I0
tp1233
g10
tp1234
Rp1235
(I1
(I3
tp1236
g14
(S'f8'
p1237
I0
I1
tp1238
Rp1239
(I3
S'<'
p1240
NNNI-1
I-1
I0
tp1241
bI00
S'g|\xdaAr\xc75\xc0\xe5;gw\x8b\xf7X@\x10\xdd\xe4H\xf4j?\xc0'
p1242
tp1243
bsS'secnames'
p1244
S'Cell[3].axon[289]'
p1245
sI178
I11
tp1246
a(F1.3885330940340728
S'Cell[0].apic[44] syn_ = new AmpaNmda(0.214285714286)'
p1247
I0
(dp1248
g1229
F0.8333333333333333
sg1230
F34.0
sg1231
I178
sg1232
g7
(g8
(I0
tp1249
g10
tp1250
Rp1251
(I1
(I3
tp1252
g1239
I00
S'|\xad\xe2\x90j\xf2?\xc0.\x0c~\xcaH\x03_@\xdeS\x93#\xd6\xb0L\xc0'
p1253
tp1254
bsg1244
S'Cell[3].axon[290]'
p1255
sI178
I11
tp1256
a(F2.266505444240992
S'Cell[0].dend[23] syn_ = new ExpSid(0.166666666667)'
p1257
I0
(dp1258
S'seg'
p1259
F0.16666666666666666
sS'hostfrom'
p1260
F35.0
sS'gid'
p1261
I83
sS'coords'
p1262
g7
(g8
(I0
tp1263
g10
tp1264
Rp1265
(I1
(I3
tp1266
g14
(S'f8'
p1267
I0
I1
tp1268
Rp1269
(I3
S'<'
p1270
NNNI-1
I-1
I0
tp1271
bI00
S'\xf2\x86|\x8f\xdf\xdfF\xc0\x1e*\x9fB\xf9*U\xc0\xc3\x0b[\xd0L\x8c2@'
p1272
tp1273
bsS'secnames'
p1274
S'Cell[1].axon[43]'
p1275
sI83
I11
tp1276
a(F2.374822392306089
S'Cell[3].dend[3] syn_ = new FastInhib(0.5)'
p1277
I3
(dp1278
g1259
F0.8333333333333333
sg1260
F35.0
sg1261
I35
sg1262
g7
(g8
(I0
tp1279
g10
tp1280
Rp1281
(I1
(I3
tp1282
g1269
I00
S'\x96](\x994@E\xc0\xd8\x7f\xb9V\xe0\xa1G\xc08R0Dh[%@'
p1283
tp1284
bsg1274
S'Cell[0].axon[6]'
p1285
sI35
I155
tp1286
a(F2.123560477297811
S'Cell[3].dend[18] syn_ = new FastInhib(0.5)'
p1287
I3
(dp1288
g1259
F0.16666666666666666
sg1260
F35.0
sg1261
I179
sg1262
g7
(g8
(I0
tp1289
g10
tp1290
Rp1291
(I1
(I3
tp1292
g1269
I00
S"@\x08\xa9S\xf4\x04U@\x9d'\xb8\x04v<L@\x98\x93\xe5\xfc\xdd\xd3#@"
p1293
tp1294
bsg1274
S'Cell[3].axon[161]'
p1295
sI179
I155
tp1296
a(F1.9528867447094238
S'Cell[0].apic[26] syn_ = new AmpaNmda(0.0714285714286)'
p1297
I0
(dp1298
S'seg'
p1299
F0.5
sS'hostfrom'
p1300
F36.0
sS'gid'
p1301
I84
sS'coords'
p1302
g7
(g8
(I0
tp1303
g10
tp1304
Rp1305
(I1
(I3
tp1306
g14
(S'f8'
p1307
I0
I1
tp1308
Rp1309
(I3
S'<'
p1310
NNNI-1
I-1
I0
tp1311
bI00
S'\x00\x00\x00\xb0\x1euG\xc0\x00\x00\x00\xd0\xcc,H@\x00\x00\x00\xd0\xcc\xcc<\xc0'
p1312
tp1313
bsS'secnames'
p1314
S'Cell[1].axon[285]'
p1315
sI84
I11
tp1316
a(F1.7372323463729358
S'Cell[1].dend[17] syn_ = new AmpaNmda(0.5)'
p1317
I1
(dp1318
g1299
F0.21428571428571427
sg1300
F36.0
sg1301
I132
sg1302
g7
(g8
(I0
tp1319
g10
tp1320
Rp1321
(I1
(I3
tp1322
g1309
I00
S'\\u^(\xad ,@\x19\x13\xb3\t/\xdcD@\xd8\x954g\xbd\xec4@'
p1323
tp1324
bsg1314
S'Cell[2].axon[3]'
p1325
sI132
I59
tp1326
a(F0.3432180061436029
S'Cell[1].dend[14] syn_ = new AmpaNmda(0.166666666667)'
p1327
I1
(dp1328
g1299
F0.16666666666666666
sg1300
F36.0
sg1301
I132
sg1302
g7
(g8
(I0
tp1329
g10
tp1330
Rp1331
(I1
(I3
tp1332
g1309
I00
S'5$`\xd1\xb3[$\xc0\xe4&\xecpw\xf0R@\x8d=\xb9\xb6\xcf\xe41@'
p1333
tp1334
bsg1314
S'Cell[2].axon[25]'
p1335
sI132
I59
tp1336
a(F2.115803738062497
S'Cell[1].dend[49] syn_ = new AmpaNmda(0.5)'
p1337
I1
(dp1338
g1299
F0.8333333333333333
sg1300
F36.0
sg1301
I132
sg1302
g7
(g8
(I0
tp1339
g10
tp1340
Rp1341
(I1
(I3
tp1342
g1309
I00
S"(\xc0\x1b\xee\x83\xddA@M d\xdfB'P@\x84\xa6\x90/\x0e\xd8\xc2\xbf"
p1343
tp1344
bsg1314
S'Cell[2].axon[58]'
p1345
sI132
I59
tp1346
a(F1.7660924597520942
S'Cell[0].dend[47] syn_ = new AmpaNmda(0.5)'
p1347
I0
(dp1348
g1299
F0.16666666666666666
sg1300
F36.0
sg1301
I132
sg1302
g7
(g8
(I0
tp1349
g10
tp1350
Rp1351
(I1
(I3
tp1352
g1309
I00
S'b\xc9\x1a\x9e\xe1\x1c@@n\xcb\xe57hl*\xc0\x18B1\x8bQ\xc9\x16\xc0'
p1353
tp1354
bsg1314
S'Cell[2].axon[188]'
p1355
sI132
I11
tp1356
a(F2.2573407072886367
S'Cell[0].dend[9] syn_ = new AmpaNmda(0.5)'
p1357
I0
(dp1358
g1299
F0.8333333333333333
sg1300
F36.0
sg1301
I180
sg1302
g7
(g8
(I0
tp1359
g10
tp1360
Rp1361
(I1
(I3
tp1362
g1309
I00
S'(\xc0\x04\xf45\x9b6\xc0B6\tD{%N\xc0{4t\xd4m\xe5C\xc0'
p1363
tp1364
bsg1314
S'Cell[3].axon[59]'
p1365
sI180
I11
tp1366
a(F1.9952902974633828
S'Cell[3].dend[32] syn_ = new FastInhib(0.5)'
p1367
I3
(dp1368
S'seg'
p1369
F0.8333333333333333
sS'hostfrom'
p1370
F37.0
sS'gid'
p1371
I133
sS'coords'
p1372
g7
(g8
(I0
tp1373
g10
tp1374
Rp1375
(I1
(I3
tp1376
g14
(S'f8'
p1377
I0
I1
tp1378
Rp1379
(I3
S'<'
p1380
NNNI-1
I-1
I0
tp1381
bI00
S'\xb7\x8cq9\x94\x98H\xc0\xf6\x90<\xde\x90g(@\x88\xefa\xc7l\x1a%@'
p1382
tp1383
bsS'secnames'
p1384
S'Cell[2].axon[52]'
p1385
sI133
I155
tp1386
a(F0.7661567790571013
S'Cell[1].dend[56] syn_ = new ExpSid(0.5)'
p1387
I1
(dp1388
g1369
F0.8333333333333333
sg1370
F37.0
sg1371
I181
sg1372
g7
(g8
(I0
tp1389
g10
tp1390
Rp1391
(I1
(I3
tp1392
g1379
I00
S'\x8381z\x89\x9dD@\x0c\x9c\x11`\xaf\x04R@\x00\x00\x00`\xb8\x1e\xd5?'
p1393
tp1394
bsg1384
S'Cell[3].axon[164]'
p1395
sI181
I59
tp1396
a(F1.7534633454308244
S'Cell[1].dend[39] syn_ = new AmpaNmda(0.5)'
p1397
I1
(dp1398
S'seg'
p1399
F0.5
sS'hostfrom'
p1400
F38.0
sS'gid'
p1401
I182
sS'coords'
p1402
g7
(g8
(I0
tp1403
g10
tp1404
Rp1405
(I1
(I3
tp1406
g14
(S'f8'
p1407
I0
I1
tp1408
Rp1409
(I3
S'<'
p1410
NNNI-1
I-1
I0
tp1411
bI00
S'\x0c\xeb\xdc6Y\x84E@\xb5\x1e\x11\x1c$`G@\xd6\x0e\x00\x91E\xfd9\xc0'
p1412
tp1413
bsS'secnames'
p1414
S'Cell[3].axon[22]'
p1415
sI182
I59
tp1416
a(F2.138097903311404
S'Cell[3].dend[15] syn_ = new FastInhib(0.5)'
p1417
I3
(dp1418
g1399
F0.7
sg1400
F38.0
sg1401
I182
sg1402
g7
(g8
(I0
tp1419
g10
tp1420
Rp1421
(I1
(I3
tp1422
g1409
I00
S"\xaf~HIB'Q@\x9b\x9c\x92_j\xc1R@\xf0\x10XK\xee\x94\xfe?"
p1423
tp1424
bsg1414
S'Cell[3].axon[278]'
p1425
sI182
I155
tp1426
a(F2.088203242886757
S'Cell[0].dend[43] syn_ = new AmpaNmda(0.5)'
p1427
I0
(dp1428
g1399
F0.5
sg1400
F38.0
sg1401
I182
sg1402
g7
(g8
(I0
tp1429
g10
tp1430
Rp1431
(I1
(I3
tp1432
g1409
I00
S'(\xb1\xc2oi\xc84@"\xd8\xe7\xa6z-P\xc0\x90\xcc\xb5z\xe2\xce\x18\xc0'
p1433
tp1434
bsg1414
S'Cell[3].axon[395]'
p1435
sI182
I11
tp1436
a(F2.2231645310892647
S'Cell[1].dend[4] syn_ = new ExpSid(0.166666666667)'
p1437
I1
(dp1438
S'seg'
p1439
F0.5
sS'hostfrom'
p1440
F39.0
sS'gid'
p1441
I135
sS'coords'
p1442
g7
(g8
(I0
tp1443
g10
tp1444
Rp1445
(I1
(I3
tp1446
g14
(S'f8'
p1447
I0
I1
tp1448
Rp1449
(I3
S'<'
p1450
NNNI-1
I-1
I0
tp1451
bI00
S'\xfaH\xfc\x0cIe/\xc0\xae\x93\xc2y]\xccR@\x9d\xaecE\x8b\x87T\xc0'
p1452
tp1453
bsS'secnames'
p1454
S'Cell[2].axon[72]'
p1455
sI135
I59
tp1456
a(F1.901260177463328
S'Cell[2].dend[54] syn_ = new FastInhib(0.9)'
p1457
I2
(dp1458
g1439
F0.5
sg1440
F39.0
sg1441
I183
sg1442
g7
(g8
(I0
tp1459
g10
tp1460
Rp1461
(I1
(I3
tp1462
g1449
I00
S"\x00\x00\x00\xe0z4Q@\x00\x00\x00pf&'\xc0\x00\x00\x00\xc0\x1e\x85?@"
p1463
tp1464
bsg1454
S'Cell[3].axon[13]'
p1465
sI183
I107
tp1466
a(F1.851163714104617
S'Cell[1].dend[38] syn_ = new ExpSid(0.166666666667)'
p1467
I1
(dp1468
g1439
F0.05555555555555555
sg1440
F39.0
sg1441
I183
sg1442
g7
(g8
(I0
tp1469
g10
tp1470
Rp1471
(I1
(I3
tp1472
g1449
I00
S'j\x14\xc2\xce\xb6#H@C_4Z\xc9KO@#M@\x03\xf8?@\xc0'
p1473
tp1474
bsg1454
S'Cell[3].axon[36]'
p1475
sI183
I59
tp1476
a(F1.6634138688005977
S'Cell[1].dend[36] syn_ = new ExpSid(0.166666666667)'
p1477
I1
(dp1478
g1439
F0.16666666666666666
sg1440
F39.0
sg1441
I183
sg1442
g7
(g8
(I0
tp1479
g10
tp1480
Rp1481
(I1
(I3
tp1482
g1449
I00
S'E\x15\x1b\xc1\xf4D\x18@\x0c>\xb4\xefJI3@\nW\xffD\xf4.<\xc0'
p1483
tp1484
bsg1454
S'Cell[3].axon[119]'
p1485
sI183
I59
tp1486
a(F1.711499925909323
S'Cell[0].dend[42] syn_ = new ExpSid(0.166666666667)'
p1487
I0
(dp1488
g1439
F0.5
sg1440
F39.0
sg1441
I39
sg1442
g7
(g8
(I0
tp1489
g10
tp1490
Rp1491
(I1
(I3
tp1492
g1449
I00
S'\xd1\x8d\xa3^N\xf8\x19@D\x91@\xaa\x8a\xafO\xc0D\xe5]\x12\x95+\xe9\xbf'
p1493
tp1494
bsg1454
S'Cell[0].axon[0]'
p1495
sI39
I11
tp1496
a(F2.3350825577388945
S'Cell[0].dend[25] syn_ = new ExpSid(0.833333333333)'
p1497
I0
(dp1498
g1439
F0.30000000000000004
sg1440
F39.0
sg1441
I39
sg1442
g7
(g8
(I0
tp1499
g10
tp1500
Rp1501
(I1
(I3
tp1502
g1449
I00
S'T\x07rG\xf4X\xe2\xbf\x80\xeb\xe3[S\\[\xc0\x93\xf7`\xb0\xc1\x9fA\xc0'
p1503
tp1504
bsg1454
S'Cell[0].axon[44]'
p1505
sI39
I11
tp1506
a(F2.116391766147645
S'Cell[0].dend[41] syn_ = new AmpaNmda(0.5)'
p1507
I0
(dp1508
S'seg'
p1509
F0.13636363636363635
sS'hostfrom'
p1510
F40.0
sS'gid'
p1511
I40
sS'coords'
p1512
g7
(g8
(I0
tp1513
g10
tp1514
Rp1515
(I1
(I3
tp1516
g14
(S'f8'
p1517
I0
I1
tp1518
Rp1519
(I3
S'<'
p1520
NNNI-1
I-1
I0
tp1521
bI00
S'\xfe\xd4`\xae~6\xf7?KO\xb5\x88\xfeFK\xc08\xd0\xceH8\x922\xc0'
p1522
tp1523
bsS'secnames'
p1524
S'Cell[0].axon[16]'
p1525
sI40
I11
tp1526
a(F1.6545795035013955
S'Cell[0].dend[22] syn_ = new AmpaNmda(0.5)'
p1527
I0
(dp1528
g1509
F0.5
sg1510
F40.0
sg1511
I88
sg1512
g7
(g8
(I0
tp1529
g10
tp1530
Rp1531
(I1
(I3
tp1532
g1519
I00
S'N3\x87\x82\x9d\x1aD\xc0\xb0p\xb5\xaeD0R\xc0\x00\x00\x00\x80\xeb\xd1$\xc0'
p1533
tp1534
bsg1524
S'Cell[1].axon[80]'
p1535
sI88
I11
tp1536
a(F2.1046543675114036
S'Cell[0].apic[34] syn_ = new AmpaNmda(0.5)'
p1537
I0
(dp1538
g1509
F0.1
sg1510
F40.0
sg1511
I88
sg1512
g7
(g8
(I0
tp1539
g10
tp1540
Rp1541
(I1
(I3
tp1542
g1519
I00
S'\x05_2\x89v\x91V\xc0(\xed\xf8\x95\xf6\xd29@\x01\x94\x17\xac\x11$4\xc0'
p1543
tp1544
bsg1524
S'Cell[1].axon[93]'
p1545
sI88
I11
tp1546
a(F1.2853841163324913
S'Cell[1].dend[12] syn_ = new AmpaNmda(0.5)'
p1547
I1
(dp1548
g1509
F0.8999999999999999
sg1510
F40.0
sg1511
I88
sg1512
g7
(g8
(I0
tp1549
g10
tp1550
Rp1551
(I1
(I3
tp1552
g1519
I00
S'\x03\xe9\xf8i9\xbc\xef\xbf\xc2\xa2?\x12\xea\xb8P@\x1a\xd1\xaa\xf1\xd6+4@'
p1553
tp1554
bsg1524
S'Cell[1].axon[99]'
p1555
sI88
I59
tp1556
a(F2.007947940784796
S'Cell[0].apic[20] syn_ = new AmpaNmda(0.5)'
p1557
I0
(dp1558
g1509
F0.16666666666666666
sg1510
F40.0
sg1511
I88
sg1512
g7
(g8
(I0
tp1559
g10
tp1560
Rp1561
(I1
(I3
tp1562
g1519
I00
S'\xdb\xebe\xcf&\x15C@\x7f8^V\x83\x8d>@}\xcc\xd1\xa8\x12#M\xc0'
p1563
tp1564
bsg1524
S'Cell[1].axon[109]'
p1565
sI88
I11
tp1566
a(F1.695151572506007
S'Cell[0].apic[33] syn_ = new AmpaNmda(0.166666666667)'
p1567
I0
(dp1568
g1509
F0.5
sg1510
F40.0
sg1511
I88
sg1512
g7
(g8
(I0
tp1569
g10
tp1570
Rp1571
(I1
(I3
tp1572
g1519
I00
S'\x15\xfb\x02\xbe\x8e\x01E\xc0\xfa\x1d\x86\x00"\x1bO@\x05R\xc0q\xf8\x1a8\xc0'
p1573
tp1574
bsg1524
S'Cell[1].axon[133]'
p1575
sI88
I11
tp1576
a(F2.3389803578472224
S'Cell[0].apic[30] syn_ = new AmpaNmda(0.5)'
p1577
I0
(dp1578
g1509
F0.07142857142857142
sg1510
F40.0
sg1511
I88
sg1512
g7
(g8
(I0
tp1579
g10
tp1580
Rp1581
(I1
(I3
tp1582
g1519
I00
S'\xea\x91V\x047gG\xc0U\xe5\xc1\x8e\xf7\xd1R@\xcc\xf7\x8a8\xa1\xb80\xc0'
p1583
tp1584
bsg1524
S'Cell[1].axon[147]'
p1585
sI88
I11
tp1586
a(F1.6339432264065936
S'Cell[3].dend[28] syn_ = new FastInhib(0.5)'
p1587
I3
(dp1588
g1509
F0.8333333333333333
sg1510
F40.0
sg1511
I88
sg1512
g7
(g8
(I0
tp1589
g10
tp1590
Rp1591
(I1
(I3
tp1592
g1519
I00
S'\xbc \x14\x07l\xdcJ\xc0\xfa\xf78\xd3\xc8\xfdA@H\xf7Zkl\x00)@'
p1593
tp1594
bsg1524
S'Cell[1].axon[286]'
p1595
sI88
I155
tp1596
a(F1.703938532145256
S'Cell[0].apic[46] syn_ = new AmpaNmda(0.5)'
p1597
I0
(dp1598
g1509
F0.6428571428571428
sg1510
F40.0
sg1511
I136
sg1512
g7
(g8
(I0
tp1599
g10
tp1600
Rp1601
(I1
(I3
tp1602
g1519
I00
S'\x91\x1eZ\x83\xf5)1\xc00\xd7f\x08v\xe7Y@\x8e`\xec\xbdF\xfcO\xc0'
p1603
tp1604
bsg1524
S'Cell[2].axon[38]'
p1605
sI136
I11
tp1606
a(F2.4965248464420147
S'Cell[0].dend[24] syn_ = new AmpaNmda(0.3)'
p1607
I0
(dp1608
g1509
F0.8333333333333333
sg1510
F40.0
sg1511
I136
sg1512
g7
(g8
(I0
tp1609
g10
tp1610
Rp1611
(I1
(I3
tp1612
g1519
I00
S'\x93~\xc3\x13.OO\xc0Kf\x01\x1b\xb4UX\xc0\xa6\xbex\x8b\ng7@'
p1613
tp1614
bsg1524
S'Cell[2].axon[115]'
p1615
sI136
I11
tp1616
a(F2.04918735744297
S'Cell[1].dend[32] syn_ = new ExpSid(0.166666666667)'
p1617
I1
(dp1618
S'seg'
p1619
F0.8333333333333333
sS'hostfrom'
p1620
F41.0
sS'gid'
p1621
I185
sS'coords'
p1622
g7
(g8
(I0
tp1623
g10
tp1624
Rp1625
(I1
(I3
tp1626
g14
(S'f8'
p1627
I0
I1
tp1628
Rp1629
(I3
S'<'
p1630
NNNI-1
I-1
I0
tp1631
bI00
S'\x87\t>\x1b\xb7\x06\x10\xc0\x85\xac\x87\xd3\xc8Z1@e[\xd5!\xa9\n7\xc0'
p1632
tp1633
bsS'secnames'
p1634
S'Cell[3].axon[237]'
p1635
sI185
I59
tp1636
a(F1.1946963273518865
S'Cell[0].apic[24] syn_ = new ExpSid(0.5)'
p1637
I0
(dp1638
g1619
F0.16666666666666666
sg1620
F41.0
sg1621
I185
sg1622
g7
(g8
(I0
tp1639
g10
tp1640
Rp1641
(I1
(I3
tp1642
g1629
I00
S'\xa2P7\xff\xf9\xee-\xc0\x18gx5\x8fn9@\x00\x00\x00\xc0\xf5(<\xc0'
p1643
tp1644
bsg1634
S'Cell[3].axon[240]'
p1645
sI185
I11
tp1646
a(F2.1951656796939956
S'Cell[3].dend[14] syn_ = new FastInhib(0.5)'
p1647
I3
(dp1648
g1619
F0.5
sg1620
F41.0
sg1621
I185
sg1622
g7
(g8
(I0
tp1649
g10
tp1650
Rp1651
(I1
(I3
tp1652
g1629
I00
S']\x05\xe1t\x132-@\xb5E\x19\xe6k{E@\xae\xa3\x89\xc6x\xf6\x02@'
p1653
tp1654
bsg1634
S'Cell[3].axon[275]'
p1655
sI185
I155
tp1656
a(F2.3005887210402847
S'Cell[1].apic[14] syn_ = new ExpSid(0.5)'
p1657
I1
(dp1658
g1619
F0.21428571428571427
sg1620
F41.0
sg1621
I89
sg1622
g7
(g8
(I0
tp1659
g10
tp1660
Rp1661
(I1
(I3
tp1662
g1629
I00
S'm}\xe2\x0fxIW@R\xa6lJ\x80\x16s@\x00\x00\x00\xa0\x99\x99/\xc0'
p1663
tp1664
bsg1634
S'Cell[1].axon[134]'
p1665
sI89
I59
tp1666
a(F2.065618200759565
S'Cell[3].dend[3] syn_ = new FastInhib(0.166666666667)'
p1667
I3
(dp1668
S'seg'
p1669
F0.30000000000000004
sS'hostfrom'
p1670
F42.0
sS'gid'
p1671
I90
sS'coords'
p1672
g7
(g8
(I0
tp1673
g10
tp1674
Rp1675
(I1
(I3
tp1676
g14
(S'f8'
p1677
I0
I1
tp1678
Rp1679
(I3
S'<'
p1680
NNNI-1
I-1
I0
tp1681
bI00
S'z\x88\xc5b&\x1eG\xc0rIE\x9a\x01\xda5\xc0ZZ\xad\xa0,\x8a\x08@'
p1682
tp1683
bsS'secnames'
p1684
S'Cell[1].axon[24]'
p1685
sI90
I155
tp1686
a(F0.5742760765387993
S'Cell[0].dend[43] syn_ = new AmpaNmda(0.833333333333)'
p1687
I0
(dp1688
g1669
F0.5
sg1670
F42.0
sg1671
I90
sg1672
g7
(g8
(I0
tp1689
g10
tp1690
Rp1691
(I1
(I3
tp1692
g1679
I00
S'\xf8<\xff\xa8[\xd3:@\xbbr\x9c\t}vO\xc0\xbc\xfc\xf9<L\xd1\x06\xc0'
p1693
tp1694
bsg1684
S'Cell[1].axon[236]'
p1695
sI90
I11
tp1696
a(F2.1871207002700572
S'Cell[0].apic[14] syn_ = new ExpSid(0.5)'
p1697
I0
(dp1698
S'seg'
p1699
F0.16666666666666666
sS'hostfrom'
p1700
F43.0
sS'gid'
p1701
I139
sS'coords'
p1702
g7
(g8
(I0
tp1703
g10
tp1704
Rp1705
(I1
(I3
tp1706
g14
(S'f8'
p1707
I0
I1
tp1708
Rp1709
(I3
S'<'
p1710
NNNI-1
I-1
I0
tp1711
bI00
S'\x95\xa0\x18\xa6\xec0+\xc0\x9b\xd4\xe9\x81\xf4\t\xe0\xbf=\x8f\xfdb5\\F\xc0'
p1712
tp1713
bsS'secnames'
p1714
S'Cell[2].axon[290]'
p1715
sI139
I11
tp1716
a(F2.3226800692750578
S'Cell[0].dend[34] syn_ = new ExpSid(0.833333333333)'
p1717
I0
(dp1718
g1699
F0.5
sg1700
F43.0
sg1701
I139
sg1702
g7
(g8
(I0
tp1719
g10
tp1720
Rp1721
(I1
(I3
tp1722
g1709
I00
S"\x00\x00\x00@\n\xf7A@\x00\x00\x00\x90\xc2\xddT\xc0\x00\x00\x00\xe8(\x1c'\xc0"
p1723
tp1724
bsg1714
S'Cell[2].axon[351]'
p1725
sI139
I11
tp1726
a(F2.1307151323203155
S'Cell[0].apic[14] syn_ = new ExpSid(0.5)'
p1727
I0
(dp1728
g1699
F0.5
sg1700
F43.0
sg1701
I139
sg1702
g7
(g8
(I0
tp1729
g10
tp1730
Rp1731
(I1
(I3
tp1732
g1709
I00
S'\xdd\xc8\t\x9b\xefq*\xc0\x83p\xed7B\n\x0b@\x9a\xe3\xfb\xa0\xe6\xa9F\xc0'
p1733
tp1734
bsg1714
S'Cell[2].axon[402]'
p1735
sI139
I11
tp1736
a(F2.1526857599112046
S'Cell[1].dend[41] syn_ = new ExpSid(0.5)'
p1737
I1
(dp1738
g1699
F0.30000000000000004
sg1700
F43.0
sg1701
I187
sg1702
g7
(g8
(I0
tp1739
g10
tp1740
Rp1741
(I1
(I3
tp1742
g1709
I00
S'.@\x1f\xd7L\\Q@\x80\xdc\xbfJ\xb1E9\xc0\xc80\x85\xd2\xe8\xb96\xc0'
p1743
tp1744
bsg1714
S'Cell[3].axon[154]'
p1745
sI187
I59
tp1746
a(F2.316410238572526
S'Cell[1].dend[36] syn_ = new AmpaNmda(0.833333333333)'
p1747
I1
(dp1748
S'seg'
p1749
F0.5
sS'hostfrom'
p1750
F44.0
sS'gid'
p1751
I92
sS'coords'
p1752
g7
(g8
(I0
tp1753
g10
tp1754
Rp1755
(I1
(I3
tp1756
g14
(S'f8'
p1757
I0
I1
tp1758
Rp1759
(I3
S'<'
p1760
NNNI-1
I-1
I0
tp1761
bI00
S'\x00\x00\x00\xb0Ga\x16\xc0\x00\x00\x00\xc0\xf5(\xdc?\x00\x00\x00\x80=\xca>\xc0'
p1762
tp1763
bsS'secnames'
p1764
S'Cell[1].axon[215]'
p1765
sI92
I59
tp1766
a(F1.6092651795018242
S'Cell[3].dend[3] syn_ = new FastInhib(0.166666666667)'
p1767
I3
(dp1768
g1749
F0.7857142857142856
sg1750
F44.0
sg1751
I92
sg1752
g7
(g8
(I0
tp1769
g10
tp1770
Rp1771
(I1
(I3
tp1772
g1759
I00
S'vW\xb8Bf\xcfF\xc0\xad\x97?+\x00O7\xc0\x88\xa2\x911\xbd2\xfe?'
p1773
tp1774
bsg1764
S'Cell[1].axon[252]'
p1775
sI92
I155
tp1776
a(F2.377420701244559
S'Cell[1].dend[41] syn_ = new ExpSid(0.3)'
p1777
I1
(dp1778
S'seg'
p1779
F0.3888888888888889
sS'hostfrom'
p1780
F45.0
sS'gid'
p1781
I141
sS'coords'
p1782
g7
(g8
(I0
tp1783
g10
tp1784
Rp1785
(I1
(I3
tp1786
g14
(S'f8'
p1787
I0
I1
tp1788
Rp1789
(I3
S'<'
p1790
NNNI-1
I-1
I0
tp1791
bI00
S'^-\xaa\xe8\xc0uM@k\x92\xd5\xa0\xfc\xe3\x10\xc07\x02\xbc\x04h\xaa8\xc0'
p1792
tp1793
bsS'secnames'
p1794
S'Cell[2].axon[82]'
p1795
sI141
I59
tp1796
a(F2.1230147103136465
S'Cell[0].dend[38] syn_ = new ExpSid(0.5)'
p1797
I0
(dp1798
g1779
F0.5
sg1780
F45.0
sg1781
I141
sg1782
g7
(g8
(I0
tp1799
g10
tp1800
Rp1801
(I1
(I3
tp1802
g1789
I00
S'4\x88V\xb9\x9f\x97\x03\xc0&\xd1\xd8\x8d\xd5rH\xc0/\x13\xab\xcf\xefe5\xc0'
p1803
tp1804
bsg1794
S'Cell[2].axon[184]'
p1805
sI141
I11
tp1806
a(F2.232273865569914
S'Cell[1].apic[0] syn_ = new ExpSid(0.5)'
p1807
I1
(dp1808
g1779
F0.16666666666666666
sg1780
F45.0
sg1781
I93
sg1782
g7
(g8
(I0
tp1809
g10
tp1810
Rp1811
(I1
(I3
tp1812
g1789
I00
S'\xbe\xb4+\x9be\x89:@\x875!\x01l,S@\x00\x00\x00@33\x1d\xc0'
p1813
tp1814
bsg1794
S'Cell[1].axon[71]'
p1815
sI93
I59
tp1816
a(F2.061372066586852
S'Cell[3].dend[1] syn_ = new FastInhib(0.166666666667)'
p1817
I3
(dp1818
g1779
F0.2777777777777778
sg1780
F45.0
sg1781
I93
sg1782
g7
(g8
(I0
tp1819
g10
tp1820
Rp1821
(I1
(I3
tp1822
g1789
I00
S'6\x85\xf2\x90\x84sQ\xc0\r\xf1\xdd)W&G\xc0\xea\x81\xce\x94\x95\xde4\xc0'
p1823
tp1824
bsg1794
S'Cell[1].axon[149]'
p1825
sI93
I155
tp1826
a(F2.4792261732936702
S'Cell[1].dend[18] syn_ = new ExpSid(0.5)'
p1827
I1
(dp1828
g1779
F0.16666666666666666
sg1780
F45.0
sg1781
I93
sg1782
g7
(g8
(I0
tp1829
g10
tp1830
Rp1831
(I1
(I3
tp1832
g1789
I00
S'\xec\x02\x9fp\x03@*\xc0\x11\x1a\xcc\xbf\x82\xc3<@T\xe1\\\xe6\x17x2@'
p1833
tp1834
bsg1794
S'Cell[1].axon[166]'
p1835
sI93
I59
tp1836
a(F1.4271994129432042
S'Cell[0].dend[0] syn_ = new ExpSid(0.214285714286)'
p1837
I0
(dp1838
g1779
F0.9444444444444446
sg1780
F45.0
sg1781
I93
sg1782
g7
(g8
(I0
tp1839
g10
tp1840
Rp1841
(I1
(I3
tp1842
g1789
I00
S'\x026\xf8\xb4$\x9eH\xc0\x94)/\xc7\xd9TU\xc0T\xd5Wc^\x89(\xc0'
p1843
tp1844
bsg1794
S'Cell[1].axon[166]'
p1845
sI93
I11
tp1846
a(F1.0440173923125984
S'Cell[0].dend[46] syn_ = new AmpaNmda(0.3)'
p1847
I0
(dp1848
S'seg'
p1849
F0.8333333333333333
sS'hostfrom'
p1850
F46.0
sS'gid'
p1851
I94
sS'coords'
p1852
g7
(g8
(I0
tp1853
g10
tp1854
Rp1855
(I1
(I3
tp1856
g14
(S'f8'
p1857
I0
I1
tp1858
Rp1859
(I3
S'<'
p1860
NNNI-1
I-1
I0
tp1861
bI00
S':y@\x173\xe76@\x03]\xecw\xcd\xceL\xc0aH\x12\x0e\xd6\xdf\xf3\xbf'
p1862
tp1863
bsS'secnames'
p1864
S'Cell[1].axon[102]'
p1865
sI94
I11
tp1866
a(F1.6922530252221686
S'Cell[1].dend[47] syn_ = new AmpaNmda(0.5)'
p1867
I1
(dp1868
g1849
F0.22727272727272727
sg1850
F46.0
sg1851
I142
sg1852
g7
(g8
(I0
tp1869
g10
tp1870
Rp1871
(I1
(I3
tp1872
g1859
I00
S'\xad\xd0\xa5-\x16\x9dW@."\xc2\x15\x1b\x19H@j\x99\xe8\xa0\xbc\xccN\xc0'
p1873
tp1874
bsg1864
S'Cell[2].axon[41]'
p1875
sI142
I59
tp1876
a(F2.0031935804700627
S'Cell[0].apic[30] syn_ = new ExpSid(0.5)'
p1877
I0
(dp1878
S'seg'
p1879
F0.16666666666666666
sS'hostfrom'
p1880
F47.0
sS'gid'
p1881
I143
sS'coords'
p1882
g7
(g8
(I0
tp1883
g10
tp1884
Rp1885
(I1
(I3
tp1886
g14
(S'f8'
p1887
I0
I1
tp1888
Rp1889
(I3
S'<'
p1890
NNNI-1
I-1
I0
tp1891
bI00
S'\xda\xd7\xb8\x85\x98(G\xc0\xb3\xafq\x0b\x97\x87R@\x00\x00\x00\xc0\xf5\xa82\xc0'
p1892
tp1893
bsS'secnames'
p1894
S'Cell[2].axon[0]'
p1895
sI143
I11
tp1896
a(F1.3473924953737022
S'Cell[3].dend[10] syn_ = new FastInhib(0.166666666667)'
p1897
I3
(dp1898
g1879
F0.16666666666666666
sg1880
F47.0
sg1881
I143
sg1882
g7
(g8
(I0
tp1899
g10
tp1900
Rp1901
(I1
(I3
tp1902
g1889
I00
S'<\xaco\xcc\xd2\xb5A\xc0\xb5\xf5\xd7\xd3\xfbs\xed\xbf\x1a\xa0\x91\xa6\x92\xc8\x01\xc0'
p1903
tp1904
bsg1894
S'Cell[2].axon[22]'
p1905
sI143
I155
tp1906
a(F2.1606201596726757
S'Cell[3].dend[16] syn_ = new FastInhib(0.5)'
p1907
I3
(dp1908
g1879
F0.07142857142857142
sg1880
F47.0
sg1881
I143
sg1882
g7
(g8
(I0
tp1909
g10
tp1910
Rp1911
(I1
(I3
tp1912
g1889
I00
S'\xc7n\xe0`;\xb3Q@\xcb2\xf1\x8a\x1fDN@\x00\x00\x00\xe0\xa3p\x07@'
p1913
tp1914
bsg1894
S'Cell[2].axon[178]'
p1915
sI143
I155
tp1916
a(F2.3081130482913963
S'Cell[1].dend[20] syn_ = new ExpSid(0.5)'
p1917
I1
(dp1918
g1879
F0.5
sg1880
F47.0
sg1881
I47
sg1882
g7
(g8
(I0
tp1919
g10
tp1920
Rp1921
(I1
(I3
tp1922
g1889
I00
S':IW`\xc0\xa1I\xc0t\x10\xd87\xa1\\(@\x00\x00\x00`ff\x0c\xc0'
p1923
tp1924
bsg1894
S'Cell[0].axon[34]'
p1925
sI47
I59
tp1926
a.