(lp0
(F1.5016960418871612
S'Cell[0].dend[0] syn_ = new ExpSid(0.5)'
p1
I0
(dp2
S'seg'
p3
F0.07142857142857142
sS'hostfrom'
p4
F1.0
sS'gid'
p5
I145
sS'coords'
p6
cnumpy.core.multiarray
_reconstruct
p7
(cnumpy
ndarray
p8
(I0
tp9
S'b'
p10
tp11
Rp12
(I1
(I3
tp13
cnumpy
dtype
p14
(S'f8'
p15
I0
I1
tp16
Rp17
(I3
S'<'
p18
NNNI-1
I-1
I0
tp19
bI00
S'\xdd\xc8w.\x90\xbfU\xc0\xe1\x90\xe1\xddl\xc12@\x88\xf58\xb4\x80"\x18@'
p20
tp21
bsS'secnames'
p22
S'Cell[3].axon[57]'
p23
sI145
I16
tp24
a(F2.332173076993192
S'Cell[0].dend[63] syn_ = new ExpSid(0.5)'
p25
I0
(dp26
g3
F0.5
sg4
F1.0
sg5
I145
sg6
g7
(g8
(I0
tp27
g10
tp28
Rp29
(I1
(I3
tp30
g17
I00
S'\x1e\x8e\xcd;s\x0f"@\xb6\t\xf9\x90\xa3\xc0?\xc0\x11\xae\t\xddr\'\xe9?'
p31
tp32
bsg22
S'Cell[3].axon[160]'
p33
sI145
I16
tp34
a(F2.498681999107972
S'Cell[0].dend[39] syn_ = new ExpSid(0.5)'
p35
I0
(dp36
g3
F0.8333333333333333
sg4
F1.0
sg5
I145
sg6
g7
(g8
(I0
tp37
g10
tp38
Rp39
(I1
(I3
tp40
g17
I00
S"'$\xbd\xe4>\xc4A\xc0f`%LQ\xb17\xc0\x15lF:\xca\x07F@"
p41
tp42
bsg22
S'Cell[3].axon[189]'
p43
sI145
I16
tp44
a(F2.4051386849071914
S'Cell[0].dend[65] syn_ = new ExpSid(0.7)'
p45
I0
(dp46
g3
F0.5
sg4
F1.0
sg5
I1
sg6
g7
(g8
(I0
tp47
g10
tp48
Rp49
(I1
(I3
tp50
g17
I00
S'\xdc\xc7\xd4\x14\x0cSG@\xe6\xad\x80\x0f<\x07Q\xc0\x02\xf1 R\x9c]\x1c@'
p51
tp52
bsg22
S'Cell[0].axon[4]'
p53
sI1
I16
tp54
a(F2.4151393127678316
S'Cell[3].dend[4] syn_ = new FastInhib(0.5)'
p55
I3
(dp56
g3
F0.5
sg4
F1.0
sg5
I97
sg6
g7
(g8
(I0
tp57
g10
tp58
Rp59
(I1
(I3
tp60
g17
I00
S"I'08\xb8l\xe2\xbf1b\xfb\xc5\xaa\x10F@\x04N\xdcmj\x8c\xf5\xbf"
p61
tp62
bsg22
S'Cell[2].axon[7]'
p63
sI97
I160
tp64
a(F1.4156569528164935
S'Cell[2].dend[18] syn_ = new FastInhib(0.5)'
p65
I2
(dp66
g3
F0.5
sg4
F1.0
sg5
I97
sg6
g7
(g8
(I0
tp67
g10
tp68
Rp69
(I1
(I3
tp70
g17
I00
S'\x8cL\x0f#\xfaw.\xc0\xbbW\x0fh|M\n\xc0(\xd1\xa7G\xb8\x07\x1e\xc0'
p71
tp72
bsg22
S'Cell[2].axon[18]'
p73
sI97
I112
tp74
a(F1.6679142662879811
S'Cell[3].apic[42] syn_ = new FastInhib(0.5)'
p75
I3
(dp76
g3
F0.5
sg4
F1.0
sg5
I97
sg6
g7
(g8
(I0
tp77
g10
tp78
Rp79
(I1
(I3
tp80
g17
I00
S'9>N\x98\xef\x9c-@\xac"\x88\xe5\x02\xb7X\xc0h+\x18\x19\xcd7\x1a@'
p81
tp82
bsg22
S'Cell[2].axon[56]'
p83
sI97
I160
tp84
a(F2.413644481136649
S'Cell[3].dend[5] syn_ = new FastInhib(0.5)'
p85
I3
(dp86
S'seg'
p87
F0.5
sS'hostfrom'
p88
F2.0
sS'gid'
p89
I98
sS'coords'
p90
g7
(g8
(I0
tp91
g10
tp92
Rp93
(I1
(I3
tp94
g14
(S'f8'
p95
I0
I1
tp96
Rp97
(I3
S'<'
p98
NNNI-1
I-1
I0
tp99
bI00
S'\xc02\x1dE)o1\xc0C\xbf\xd0\xb7\xa5_S@\x063\x12\xd5&\xbb0\xc0'
p100
tp101
bsS'secnames'
p102
S'Cell[2].axon[365]'
p103
sI98
I160
tp104
a(F1.6673075221539737
S'Cell[2].dend[5] syn_ = new FastInhib(0.166666666667)'
p105
I2
(dp106
g87
F0.7
sg88
F2.0
sg89
I98
sg90
g7
(g8
(I0
tp107
g10
tp108
Rp109
(I1
(I3
tp110
g97
I00
S'D7\x0em)\xc8\x1f@\xdc\xb2\xf1\xb7E)B@\x00\x00\x00\x80=\xca7\xc0'
p111
tp112
bsg102
S'Cell[2].axon[473]'
p113
sI98
I112
tp114
a(F2.1180305563166626
S'Cell[2].dend[23] syn_ = new FastInhib(0.166666666667)'
p115
I2
(dp116
g87
F0.5
sg88
F2.0
sg89
I146
sg90
g7
(g8
(I0
tp117
g10
tp118
Rp119
(I1
(I3
tp120
g97
I00
S'\x00\x00\x00\xe0z\x14:\xc0\x00\x00\x00\xc0\xcc\x8c2\xc0\x00\x00\x00\x00\x00\x00\n\xc0'
p121
tp122
bsg102
S'Cell[3].axon[123]'
p123
sI146
I112
tp124
a(F2.413644481136649
S'Cell[3].dend[5] syn_ = new FastInhib(0.5)'
p125
I3
(dp126
S'seg'
p127
F0.5
sS'hostfrom'
p128
F3.0
sS'gid'
p129
I99
sS'coords'
p130
g7
(g8
(I0
tp131
g10
tp132
Rp133
(I1
(I3
tp134
g14
(S'f8'
p135
I0
I1
tp136
Rp137
(I3
S'<'
p138
NNNI-1
I-1
I0
tp139
bI00
S'\xc02\x1dE)o1\xc0C\xbf\xd0\xb7\xa5_S@\x063\x12\xd5&\xbb0\xc0'
p140
tp141
bsS'secnames'
p142
S'Cell[2].axon[365]'
p143
sI99
I160
tp144
a(F1.6673075221539737
S'Cell[2].dend[5] syn_ = new FastInhib(0.166666666667)'
p145
I2
(dp146
g127
F0.7
sg128
F3.0
sg129
I99
sg130
g7
(g8
(I0
tp147
g10
tp148
Rp149
(I1
(I3
tp150
g137
I00
S'D7\x0em)\xc8\x1f@\xdc\xb2\xf1\xb7E)B@\x00\x00\x00\x80=\xca7\xc0'
p151
tp152
bsg142
S'Cell[2].axon[473]'
p153
sI99
I112
tp154
a(F2.1881452445110767
S'Cell[2].dend[0] syn_ = new FastInhib(0.1)'
p155
I2
(dp156
g127
F0.8333333333333333
sg128
F3.0
sg129
I147
sg130
g7
(g8
(I0
tp157
g10
tp158
Rp159
(I1
(I3
tp160
g137
I00
S'C\xe7\x11R/\xb7\x19@\xf1e\x00>\tf\x0b\xc0\xe4\xdb\xb6\xa0m:/@'
p161
tp162
bsg142
S'Cell[3].axon[10]'
p163
sI147
I112
tp164
a(F2.453829455873044
S'Cell[0].dend[10] syn_ = new AmpaNmda(0.5)'
p165
I0
(dp166
S'seg'
p167
F0.16666666666666666
sS'hostfrom'
p168
F4.0
sS'gid'
p169
I100
sS'coords'
p170
g7
(g8
(I0
tp171
g10
tp172
Rp173
(I1
(I3
tp174
g14
(S'f8'
p175
I0
I1
tp176
Rp177
(I3
S'<'
p178
NNNI-1
I-1
I0
tp179
bI00
S'\xbe\xe8/\xac\xf5d]\xc0\x00\x00\x00\x00\xd7\xa3\x10\xc0\x92\xc0\x0f.\xe7\x07\x18@'
p180
tp181
bsS'secnames'
p182
S'Cell[2].axon[58]'
p183
sI100
I16
tp184
a(F1.7215599369298773
S'Cell[3].apic[24] syn_ = new FastInhib(0.5)'
p185
I3
(dp186
g167
F0.16666666666666666
sg168
F4.0
sg169
I100
sg170
g7
(g8
(I0
tp187
g10
tp188
Rp189
(I1
(I3
tp190
g177
I00
S'c\xd0}\x9a*\x9f8@\xa5\xb6V3\xbb\x04D\xc0u\xc7\xc5o\xa1\xbe&\xc0'
p191
tp192
bsg182
S'Cell[2].axon[72]'
p193
sI100
I160
tp194
a(F2.0003485760450888
S'Cell[0].apic[13] syn_ = new ExpSid(0.833333333333)'
p195
I0
(dp196
S'seg'
p197
F0.5
sS'hostfrom'
p198
F5.0
sS'gid'
p199
I101
sS'coords'
p200
g7
(g8
(I0
tp201
g10
tp202
Rp203
(I1
(I3
tp204
g14
(S'f8'
p205
I0
I1
tp206
Rp207
(I3
S'<'
p208
NNNI-1
I-1
I0
tp209
bI00
S'p\r\xbd\x140\n<\xc02%Q\x10\xc1\x0en@\x00\x00\x00\x80\xc2\xb5>@'
p210
tp211
bsS'secnames'
p212
S'Cell[2].axon[11]'
p213
sI101
I16
tp214
a(F2.3652300036520635
S'Cell[2].dend[5] syn_ = new FastInhib(0.277777777778)'
p215
I2
(dp216
S'seg'
p217
F0.5
sS'hostfrom'
p218
F6.0
sS'gid'
p219
I150
sS'coords'
p220
g7
(g8
(I0
tp221
g10
tp222
Rp223
(I1
(I3
tp224
g14
(S'f8'
p225
I0
I1
tp226
Rp227
(I3
S'<'
p228
NNNI-1
I-1
I0
tp229
bI00
S'%U\x1fu\\\r0@n\xa7\x08\x96\xbegN@\x00\x00\x00\x80\x14\xee>\xc0'
p230
tp231
bsS'secnames'
p232
S'Cell[3].axon[15]'
p233
sI150
I112
tp234
a(F2.1987623323740184
S'Cell[2].dend[13] syn_ = new FastInhib(0.166666666667)'
p235
I2
(dp236
g217
F0.3571428571428571
sg218
F6.0
sg219
I150
sg220
g7
(g8
(I0
tp237
g10
tp238
Rp239
(I1
(I3
tp240
g227
I00
S'X\x10Nf\x8d\x16G\xc0\x08\xf9=\x17\xa2\x97]@\x00\x00\x00\x80\x14\xee>\xc0'
p241
tp242
bsg232
S'Cell[3].axon[97]'
p243
sI150
I112
tp244
a(F1.6350139320886943
S'Cell[3].dend[6] syn_ = new FastInhib(0.5)'
p245
I3
(dp246
g217
F0.30000000000000004
sg218
F6.0
sg219
I150
sg220
g7
(g8
(I0
tp247
g10
tp248
Rp249
(I1
(I3
tp250
g227
I00
S'|g\x0cd\xbc\xb7?\xc0\xf4\xba<cT\xe0[@\x00\x00\x00\x80\x14\xee>\xc0'
p251
tp252
bsg232
S'Cell[3].axon[158]'
p253
sI150
I160
tp254
a(F2.2248365147082074
S'Cell[3].dend[13] syn_ = new FastInhib(0.5)'
p255
I3
(dp256
S'seg'
p257
F0.22727272727272727
sS'hostfrom'
p258
F7.0
sS'gid'
p259
I103
sS'coords'
p260
g7
(g8
(I0
tp261
g10
tp262
Rp263
(I1
(I3
tp264
g14
(S'f8'
p265
I0
I1
tp266
Rp267
(I3
S'<'
p268
NNNI-1
I-1
I0
tp269
bI00
S'\xd9\xed\x11\xfc\x03DI\xc0*\x83\xa5\xe1\xf0\x06B@\xe6\xea\r\x06\xe0\x89<\xc0'
p270
tp271
bsS'secnames'
p272
S'Cell[2].axon[162]'
p273
sI103
I160
tp274
a(F1.7504255063789678
S'Cell[3].apic[39] syn_ = new FastInhib(0.5)'
p275
I3
(dp276
g257
F0.5
sg258
F7.0
sg259
I103
sg260
g7
(g8
(I0
tp277
g10
tp278
Rp279
(I1
(I3
tp280
g267
I00
S'\x00\x00\x000\\\x8f2@\x00\x00\x00P\xb8^V\xc0\x00\x00\x00\x00\xd7\xa3\x16\xc0'
p281
tp282
bsg272
S'Cell[2].axon[283]'
p283
sI103
I160
tp284
a(F0.5044779410585637
S'Cell[1].dend[35] syn_ = new ExpSid(0.166666666667)'
p285
I1
(dp286
g257
F0.30000000000000004
sg258
F7.0
sg259
I103
sg260
g7
(g8
(I0
tp287
g10
tp288
Rp289
(I1
(I3
tp290
g267
I00
S"\x08\xc2\xbf\xfb\xa6\xfb>@\xb4Z\xdb\x8a\x94nS@.\xcciE'\xd1,@"
p291
tp292
bsg272
S'Cell[2].axon[300]'
p293
sI103
I64
tp294
a(F1.8009484296964795
S'Cell[0].apic[85] syn_ = new ExpSid(0.5)'
p295
I0
(dp296
g257
F0.30000000000000004
sg258
F7.0
sg259
I151
sg260
g7
(g8
(I0
tp297
g10
tp298
Rp299
(I1
(I3
tp300
g267
I00
S'T\xf1\x94\xf3\x90zI\xc0\xc9\x86\x9e\xb7\x1d\xb8I@.\xa1\x93P+\xd2+@'
p301
tp302
bsg272
S'Cell[3].axon[38]'
p303
sI151
I16
tp304
a(F0.6041114480849613
S'Cell[3].dend[9] syn_ = new FastInhib(0.5)'
p305
I3
(dp306
g257
F0.7
sg258
F7.0
sg259
I151
sg260
g7
(g8
(I0
tp307
g10
tp308
Rp309
(I1
(I3
tp310
g267
I00
S'\x05U\xeb\xf0\xd8\x17\xf0?]\xba5\xdf\n\x81H@Pqg\x7f\xd1\\\x1a@'
p311
tp312
bsg272
S'Cell[3].axon[223]'
p313
sI151
I160
tp314
a(F1.9141603144764532
S'Cell[3].apic[1] syn_ = new FastInhib(0.833333333333)'
p315
I3
(dp316
g257
F0.16666666666666666
sg258
F7.0
sg259
I151
sg260
g7
(g8
(I0
tp317
g10
tp318
Rp319
(I1
(I3
tp320
g267
I00
S'D:C\x13\xc2\xfb\x15\xc0\xeb\xb8\xc3,\xb0\x12Q\xc0\x18\xa3\xbf\xc7\xd8\xa1A\xc0'
p321
tp322
bsg272
S'Cell[3].axon[257]'
p323
sI151
I160
tp324
a(F2.0879170799273017
S'Cell[0].dend[26] syn_ = new AmpaNmda(0.5)'
p325
I0
(dp326
S'seg'
p327
F0.16666666666666666
sS'hostfrom'
p328
F8.0
sS'gid'
p329
I8
sS'coords'
p330
g7
(g8
(I0
tp331
g10
tp332
Rp333
(I1
(I3
tp334
g14
(S'f8'
p335
I0
I1
tp336
Rp337
(I3
S'<'
p338
NNNI-1
I-1
I0
tp339
bI00
S'%\xbc1\x16\x1a\x9e_\xc0\x10\n\x0e`\xd5\x84D\xc0\x11){\xf2h\x044@'
p340
tp341
bsS'secnames'
p342
S'Cell[0].axon[42]'
p343
sI8
I16
tp344
a(F2.3328359183493355
S'Cell[0].dend[60] syn_ = new AmpaNmda(0.5)'
p345
I0
(dp346
g327
F0.5
sg328
F8.0
sg329
I56
sg330
g7
(g8
(I0
tp347
g10
tp348
Rp349
(I1
(I3
tp350
g337
I00
S'\x9cY\xeb\xb6YvD\xc0\xa2\x90K\xbc\x97\xa8U\xc0\x8cH\xbd\xca\x81\xde\x03@'
p351
tp352
bsg342
S'Cell[1].axon[1]'
p353
sI56
I16
tp354
a(F2.315218303817374
S'Cell[0].apic[78] syn_ = new AmpaNmda(0.5)'
p355
I0
(dp356
g327
F0.5
sg328
F8.0
sg329
I152
sg330
g7
(g8
(I0
tp357
g10
tp358
Rp359
(I1
(I3
tp360
g337
I00
S'<\xe0\x1a\xa4|\xb4;\xc0\x85\x07\xde\x19\xb5aU@\x00\x00\x00\xe0Q\xb8\xfa?'
p361
tp362
bsg342
S'Cell[3].axon[533]'
p363
sI152
I16
tp364
a(F1.2012109779577367
S'Cell[0].apic[79] syn_ = new AmpaNmda(0.5)'
p365
I0
g356
I152
I16
tp366
a(F2.3908407210961866
S'Cell[2].dend[16] syn_ = new FastInhib(0.5)'
p367
I2
(dp368
g327
F0.5
sg328
F8.0
sg329
I152
sg330
g7
(g8
(I0
tp369
g10
tp370
Rp371
(I1
(I3
tp372
g337
I00
S'\x84h\xe9\x013\xdeO\xc0\x04\x19\x12\x12\x1c\x9bW@\xfb\x06<\xc1\xcf\xc3\xe6?'
p373
tp374
bsg342
S'Cell[3].axon[554]'
p375
sI152
I112
tp376
a(F1.6836257649815807
S'Cell[2].dend[0] syn_ = new FastInhib(0.5)'
p377
I2
(dp378
g327
F0.5
sg328
F8.0
sg329
I104
sg330
g7
(g8
(I0
tp379
g10
tp380
Rp381
(I1
(I3
tp382
g337
I00
S'\xdem\xf0\xe3\xbcI,@\x0c\xbe\xfa\xba\xb0\x0bH\xc0Y\x9b\x1f\xce\xa35\x1f@'
p383
tp384
bsg342
S'Cell[2].axon[120]'
p385
sI104
I112
tp386
a(F1.2098517914975886
S'Cell[0].dend[24] syn_ = new ExpSid(0.1)'
p387
I0
(dp388
S'seg'
p389
F0.1
sS'hostfrom'
p390
F9.0
sS'gid'
p391
I153
sS'coords'
p392
g7
(g8
(I0
tp393
g10
tp394
Rp395
(I1
(I3
tp396
g14
(S'f8'
p397
I0
I1
tp398
Rp399
(I3
S'<'
p400
NNNI-1
I-1
I0
tp401
bI00
S'\x0b\xf4\x8e\xbb\xf9\xe2L\xc0"h\xc0\xde\x03\xf3C\xc0x \xdbZ\xf2\xb5)@'
p402
tp403
bsS'secnames'
p404
S'Cell[3].axon[27]'
p405
sI153
I16
tp406
a(F1.989663243359753
S'Cell[1].dend[22] syn_ = new ExpSid(0.166666666667)'
p407
I1
(dp408
g389
F0.5
sg390
F9.0
sg391
I153
sg392
g7
(g8
(I0
tp409
g10
tp410
Rp411
(I1
(I3
tp412
g399
I00
S'X\xc17\xd4\xec\xbdG@\xd0\xb8\x90\x10\xe2;a@i\x00c\x10Ce0\xc0'
p413
tp414
bsg404
S'Cell[3].axon[200]'
p415
sI153
I64
tp416
a(F2.0702291066552343
S'Cell[3].apic[25] syn_ = new FastInhib(0.0714285714286)'
p417
I3
(dp418
g389
F0.16666666666666666
sg390
F9.0
sg391
I9
sg392
g7
(g8
(I0
tp419
g10
tp420
Rp421
(I1
(I3
tp422
g399
I00
S'\xbaT\x99\x14\xbdg3@\xefk\xcd\xd7\x8cwH\xc0\xa4\x13R\x8e\xf2r*\xc0'
p423
tp424
bsg404
S'Cell[0].axon[20]'
p425
sI9
I160
tp426
a(F0.8314833880631693
S'Cell[1].dend[25] syn_ = new AmpaNmda(0.9)'
p427
I1
(dp428
S'seg'
p429
F0.5
sS'hostfrom'
p430
F10.0
sS'gid'
p431
I106
sS'coords'
p432
g7
(g8
(I0
tp433
g10
tp434
Rp435
(I1
(I3
tp436
g14
(S'f8'
p437
I0
I1
tp438
Rp439
(I3
S'<'
p440
NNNI-1
I-1
I0
tp441
bI00
S'*\x8a3\xb3\x13T0@\xa8/\x9a\x1eUK/@\x00\x00\x00@33!@'
p442
tp443
bsS'secnames'
p444
S'Cell[2].axon[191]'
p445
sI106
I64
tp446
a(F2.2606307443148306
S'Cell[0].dend[43] syn_ = new ExpSid(0.928571428571)'
p447
I0
(dp448
S'seg'
p449
F0.8333333333333333
sS'hostfrom'
p450
F11.0
sS'gid'
p451
I59
sS'coords'
p452
g7
(g8
(I0
tp453
g10
tp454
Rp455
(I1
(I3
tp456
g14
(S'f8'
p457
I0
I1
tp458
Rp459
(I3
S'<'
p460
NNNI-1
I-1
I0
tp461
bI00
S'c\xc3\xb0\xf5\xaakN@uj\xc7\x18\xa1HK\xc0\xf6\r\xf9\x02!\xc5I@'
p462
tp463
bsS'secnames'
p464
S'Cell[1].axon[10]'
p465
sI59
I16
tp466
a(F2.339367735778344
S'Cell[3].dend[24] syn_ = new FastInhib(0.5)'
p467
I3
(dp468
g449
F0.5
sg450
F11.0
sg451
I59
sg452
g7
(g8
(I0
tp469
g10
tp470
Rp471
(I1
(I3
tp472
g459
I00
S'\xbf\xb7\xdcN\xce\x03=\xc0\xb4\x0b\xc2a\x02\x90\x1f@\x9cD\xc1u\xd2h\x08@'
p473
tp474
bsg464
S'Cell[1].axon[60]'
p475
sI59
I160
tp476
a(F2.2943349458407494
S'Cell[3].apic[43] syn_ = new FastInhib(0.5)'
p477
I3
(dp478
g449
F0.16666666666666666
sg450
F11.0
sg451
I155
sg452
g7
(g8
(I0
tp479
g10
tp480
Rp481
(I1
(I3
tp482
g459
I00
S'\x0e\x91\x18\xa4B\x8b,\xc08\x17\xbfO\x18%[\xc0\x10\xb2\x01\xa8\x03\x95+@'
p483
tp484
bsg464
S'Cell[3].axon[227]'
p485
sI155
I160
tp486
a(F2.380682197461635
S'Cell[2].dend[11] syn_ = new FastInhib(0.166666666667)'
p487
I2
(dp488
g449
F0.7
sg450
F11.0
sg451
I155
sg452
g7
(g8
(I0
tp489
g10
tp490
Rp491
(I1
(I3
tp492
g459
I00
S'\x04\x10\xfa\xb1\xbav4\xc0\xd4\x97>\xcb^\xb6&@^;\x99\xdeL\x1e\x1c\xc0'
p493
tp494
bsg464
S'Cell[3].axon[240]'
p495
sI155
I112
tp496
a(F1.5729165296345358
S'Cell[0].apic[60] syn_ = new ExpSid(0.833333333333)'
p497
I0
(dp498
S'seg'
p499
F0.5
sS'hostfrom'
p500
F13.0
sS'gid'
p501
I109
sS'coords'
p502
g7
(g8
(I0
tp503
g10
tp504
Rp505
(I1
(I3
tp506
g14
(S'f8'
p507
I0
I1
tp508
Rp509
(I3
S'<'
p510
NNNI-1
I-1
I0
tp511
bI00
S'\xfc\x00\x9c\x0b\x0f\xc0E@4\xea\x8dIY\xfde@\x00\x00\x00\x80=\n\x14@'
p512
tp513
bsS'secnames'
p514
S'Cell[2].axon[6]'
p515
sI109
I16
tp516
a(F1.4983039510327014
S'Cell[1].dend[67] syn_ = new ExpSid(0.1)'
p517
I1
(dp518
g499
F0.5
sg500
F13.0
sg501
I109
sg502
g7
(g8
(I0
tp519
g10
tp520
Rp521
(I1
(I3
tp522
g509
I00
S'\xf7\xf0\x00\x17K\xd1X@8\xecz\x0et\x18^@\xd6Xl\x03u[0@'
p523
tp524
bsg514
S'Cell[2].axon[92]'
p525
sI109
I64
tp526
a(F2.436457096177977
S'Cell[2].dend[7] syn_ = new FastInhib(0.1)'
p527
I2
(dp528
S'seg'
p529
F0.8333333333333333
sS'hostfrom'
p530
F14.0
sS'gid'
p531
I110
sS'coords'
p532
g7
(g8
(I0
tp533
g10
tp534
Rp535
(I1
(I3
tp536
g14
(S'f8'
p537
I0
I1
tp538
Rp539
(I3
S'<'
p540
NNNI-1
I-1
I0
tp541
bI00
S'\x00\x00\x00@33F@\x89\x93\xf0\xe1\x1e\x1dE@\x00\xb48\x87\x9a\xfb6\xc0'
p542
tp543
bsS'secnames'
p544
S'Cell[2].axon[72]'
p545
sI110
I112
tp546
a(F1.936485199123542
S'Cell[0].apic[65] syn_ = new AmpaNmda(0.611111111111)'
p547
I0
(dp548
g529
F0.5
sg530
F14.0
sg531
I110
sg532
g7
(g8
(I0
tp549
g10
tp550
Rp551
(I1
(I3
tp552
g539
I00
S'\x00\x00\x00\xe0\xa3\xf0H@N\xf7_?\xc1-D@\x00\x00\x00\xc0\xcc\x8cB@'
p553
tp554
bsg544
S'Cell[2].axon[75]'
p555
sI110
I16
tp556
a(F2.2831215483549347
S'Cell[2].dend[0] syn_ = new FastInhib(0.3)'
p557
I2
(dp558
g529
F0.5909090909090909
sg530
F14.0
sg531
I62
sg532
g7
(g8
(I0
tp559
g10
tp560
Rp561
(I1
(I3
tp562
g539
I00
S"\xa0\x0c\r\xff\x04\xf9'@\xb2e\xb3kp\xa4;\xc0t\xb3\xee\xb5\tx2@"
p563
tp564
bsg544
S'Cell[1].axon[55]'
p565
sI62
I112
tp566
a(F1.1767024857172868
S'Cell[1].dend[63] syn_ = new ExpSid(0.1)'
p567
I1
(dp568
S'seg'
p569
F0.5
sS'hostfrom'
p570
F15.0
sS'gid'
p571
I111
sS'coords'
p572
g7
(g8
(I0
tp573
g10
tp574
Rp575
(I1
(I3
tp576
g14
(S'f8'
p577
I0
I1
tp578
Rp579
(I3
S'<'
p580
NNNI-1
I-1
I0
tp581
bI00
S'\xb9q\x15\x9c\xd1\xc5Y@%G\xf5q!l\\@S\xd9\xea\x94\x83(\x14\xc0'
p582
tp583
bsS'secnames'
p584
S'Cell[2].axon[274]'
p585
sI111
I64
tp586
a(F2.238011673560257
S'Cell[3].apic[5] syn_ = new FastInhib(0.5)'
p587
I3
(dp588
g569
F0.5
sg570
F15.0
sg571
I111
sg572
g7
(g8
(I0
tp589
g10
tp590
Rp591
(I1
(I3
tp592
g579
I00
S'X]\x04t1\x88@\xc0"\xffm=!\x96Y\xc0\x00\x00\x00`\xb8^Q\xc0'
p593
tp594
bsg584
S'Cell[2].axon[352]'
p595
sI111
I160
tp596
a(F2.0879276741467723
S'Cell[1].dend[27] syn_ = new ExpSid(0.5)'
p597
I1
(dp598
g569
F0.5
sg570
F15.0
sg571
I159
sg572
g7
(g8
(I0
tp599
g10
tp600
Rp601
(I1
(I3
tp602
g579
I00
S'\xb6\xb6_\x9f\xa3\xc6F@D|\x06\xac\xb7\xf3\\@6K\x9b!\xd0\x06:@'
p603
tp604
bsg584
S'Cell[3].axon[248]'
p605
sI159
I64
tp606
a(F2.0437246970029936
S'Cell[0].apic[51] syn_ = new AmpaNmda(0.5)'
p607
I0
(dp608
S'seg'
p609
F0.3571428571428571
sS'hostfrom'
p610
F16.0
sS'gid'
p611
I160
sS'coords'
p612
g7
(g8
(I0
tp613
g10
tp614
Rp615
(I1
(I3
tp616
g14
(S'f8'
p617
I0
I1
tp618
Rp619
(I3
S'<'
p620
NNNI-1
I-1
I0
tp621
bI00
S'\xd3\xb2\x87\xf1\xae.A\xc0:F6\x1d\x83jp@\x193L\x89\x9d\xf1\x11\xc0'
p622
tp623
bsS'secnames'
p624
S'Cell[3].axon[10]'
p625
sI160
I16
tp626
a(F1.6013707187284223
S'Cell[1].dend[40] syn_ = new AmpaNmda(0.5)'
p627
I1
(dp628
g609
F0.5
sg610
F16.0
sg611
I160
sg612
g7
(g8
(I0
tp629
g10
tp630
Rp631
(I1
(I3
tp632
g619
I00
S'\x00\x00\x00\xe0z\xe4E@\x00\x00\x00@\xe1\x92P@\x00\x00\x00p=J&@'
p633
tp634
bsg624
S'Cell[3].axon[57]'
p635
sI160
I64
tp636
a(F2.0586314776347283
S'Cell[1].dend[40] syn_ = new AmpaNmda(0.5)'
p637
I1
(dp638
g609
F0.5
sg610
F16.0
sg611
I160
sg612
g7
(g8
(I0
tp639
g10
tp640
Rp641
(I1
(I3
tp642
g619
I00
S'\x00\x00\x000\\\xdfE@\x00\x00\x00\xd8\xa3\x10P@\x00\x00\x00\xa0Ga$@'
p643
tp644
bsg624
S'Cell[3].axon[59]'
p645
sI160
I64
tp646
a(F2.407258564596569
S'Cell[1].dend[35] syn_ = new AmpaNmda(0.166666666667)'
p647
I1
(dp648
g609
F0.5
sg610
F16.0
sg611
I112
sg612
g7
(g8
(I0
tp649
g10
tp650
Rp651
(I1
(I3
tp652
g619
I00
S'T\x17\xe3c\xd6\xcb?@\x8b\xf5\xd8\x86\x03\x97S@\xbb\t\xe7\xd5J\xd00@'
p653
tp654
bsg624
S'Cell[2].axon[1]'
p655
sI112
I64
tp656
a(F2.201318506918813
S'Cell[3].apic[7] syn_ = new FastInhib(0.5)'
p657
I3
(dp658
g609
F0.14
sg610
F16.0
sg611
I112
sg612
g7
(g8
(I0
tp659
g10
tp660
Rp661
(I1
(I3
tp662
g619
I00
S'\x9e\xc6s\xed\\\xb5@\xc0*\x8d\xda\x00_\x1db\xc0\xbcr\xed\xe8@\xebC\xc0'
p663
tp664
bsg624
S'Cell[2].axon[102]'
p665
sI112
I160
tp666
a(F1.0992190849159826
S'Cell[3].apic[27] syn_ = new FastInhib(0.5)'
p667
I3
(dp668
S'seg'
p669
F0.5
sS'hostfrom'
p670
F17.0
sS'gid'
p671
I113
sS'coords'
p672
g7
(g8
(I0
tp673
g10
tp674
Rp675
(I1
(I3
tp676
g14
(S'f8'
p677
I0
I1
tp678
Rp679
(I3
S'<'
p680
NNNI-1
I-1
I0
tp681
bI00
S'Y$]\x17\xc9\n@@\xc8\x81s\xe7kHP\xc0\x00\x00\x00\x00\x00\x80 \xc0'
p682
tp683
bsS'secnames'
p684
S'Cell[2].axon[9]'
p685
sI113
I160
tp686
a(F1.9080910185181468
S'Cell[3].apic[43] syn_ = new FastInhib(0.166666666667)'
p687
I3
(dp688
g669
F0.5
sg670
F17.0
sg671
I113
sg672
g7
(g8
(I0
tp689
g10
tp690
Rp691
(I1
(I3
tp692
g679
I00
S'\x00\xca9\x1f[%\x17@\xbc\xa0\x8ff]}X\xc0\x00\x00\x00`\xb8\x1e\xe5\xbf'
p693
tp694
bsg684
S'Cell[2].axon[746]'
p695
sI113
I160
tp696
a(F2.2048819140545097
S'Cell[3].apic[35] syn_ = new FastInhib(0.166666666667)'
p697
I3
(dp698
g669
F0.7857142857142856
sg670
F17.0
sg671
I113
sg672
g7
(g8
(I0
tp699
g10
tp700
Rp701
(I1
(I3
tp702
g679
I00
S'r\x84B\x99R27@\xc1\xbb\xde\xaaN\xc7S\xc0o\xd5\xb8\x9f\x9f\xb95\xc0'
p703
tp704
bsg684
S'Cell[2].axon[758]'
p705
sI113
I160
tp706
a(F1.545375500595547
S'Cell[0].apic[86] syn_ = new AmpaNmda(0.5)'
p707
I0
(dp708
S'seg'
p709
F0.8333333333333333
sS'hostfrom'
p710
F18.0
sS'gid'
p711
I114
sS'coords'
p712
g7
(g8
(I0
tp713
g10
tp714
Rp715
(I1
(I3
tp716
g14
(S'f8'
p717
I0
I1
tp718
Rp719
(I3
S'<'
p720
NNNI-1
I-1
I0
tp721
bI00
S'\xc0`\xce\xd8\x8b\x0fK\xc0\xca\x12\xd2\xee]MH@\xde\xedlV\xfa\xb9\x16@'
p722
tp723
bsS'secnames'
p724
S'Cell[2].axon[40]'
p725
sI114
I16
tp726
a(F2.0170952454052085
S'Cell[0].apic[87] syn_ = new AmpaNmda(0.5)'
p727
I0
(dp728
g709
F0.5
sg710
F18.0
sg711
I114
sg712
g7
(g8
(I0
tp729
g10
tp730
Rp731
(I1
(I3
tp732
g719
I00
S'\xa1aQ\xb4\x07\xf1K\xc0\xb4\x84-Y\xfd\xc5H@^K\xc3*)\x1b%@'
p733
tp734
bsg724
S'Cell[2].axon[41]'
p735
sI114
I16
tp736
a(F1.6973344861005975
S'Cell[1].dend[42] syn_ = new AmpaNmda(0.5)'
p737
I1
(dp738
S'seg'
p739
F0.5
sS'hostfrom'
p740
F20.0
sS'gid'
p741
I68
sS'coords'
p742
g7
(g8
(I0
tp743
g10
tp744
Rp745
(I1
(I3
tp746
g14
(S'f8'
p747
I0
I1
tp748
Rp749
(I3
S'<'
p750
NNNI-1
I-1
I0
tp751
bI00
S'\xc6:\x0f\xd1\x1e\xad4@h9">\xb3\x832\xc0n\xf1\x84\x06q\x08#@'
p752
tp753
bsS'secnames'
p754
S'Cell[1].axon[2]'
p755
sI68
I64
tp756
a(F1.965018245439754
S'Cell[3].apic[38] syn_ = new FastInhib(0.5)'
p757
I3
(dp758
g739
F0.1
sg740
F20.0
sg741
I68
sg742
g7
(g8
(I0
tp759
g10
tp760
Rp761
(I1
(I3
tp762
g749
I00
S'\xd07k\x0cqe6@\xf9\x9c\x80\xe0\xb2\xebS\xc0\x00\x00\x00`ff\x1a\xc0'
p763
tp764
bsg754
S'Cell[1].axon[44]'
p765
sI68
I160
tp766
a(F2.475811331115422
S'Cell[3].dend[18] syn_ = new FastInhib(0.5)'
p767
I3
(dp768
g739
F0.5
sg740
F20.0
sg741
I116
sg742
g7
(g8
(I0
tp769
g10
tp770
Rp771
(I1
(I3
tp772
g749
I00
S'\x9b\xeb\xa8\x17 N`\xc0\x9e\xfc\xc0\x01q\xaf\\@\xd4\xc1\xcb\x8a\xe1\xd9F\xc0'
p773
tp774
bsg754
S'Cell[2].axon[252]'
p775
sI116
I160
tp776
a(F2.2652990541236853
S'Cell[2].dend[5] syn_ = new FastInhib(0.166666666667)'
p777
I2
(dp778
S'seg'
p779
F0.5
sS'hostfrom'
p780
F21.0
sS'gid'
p781
I117
sS'coords'
p782
g7
(g8
(I0
tp783
g10
tp784
Rp785
(I1
(I3
tp786
g14
(S'f8'
p787
I0
I1
tp788
Rp789
(I3
S'<'
p790
NNNI-1
I-1
I0
tp791
bI00
S'\x00\x00\x0083\xf3!@\x00\x00\x00\x10\xd7\xf3B@\x00\x00\x00\x80\xc2u9\xc0'
p792
tp793
bsS'secnames'
p794
S'Cell[2].axon[4]'
p795
sI117
I112
tp796
a(F1.833490926885169
S'Cell[2].dend[10] syn_ = new FastInhib(0.0714285714286)'
p797
I2
(dp798
g779
F0.5
sg780
F21.0
sg781
I117
sg782
g7
(g8
(I0
tp799
g10
tp800
Rp801
(I1
(I3
tp802
g789
I00
S'\n\xd0\x1f\x81\xff&G@GPF\xc5PBB@\x0eR;\xae\xf4\xed9\xc0'
p803
tp804
bsg794
S'Cell[2].axon[30]'
p805
sI117
I112
tp806
a(F1.9229887479554413
S'Cell[1].dend[4] syn_ = new ExpSid(0.5)'
p807
I1
(dp808
g779
F0.8333333333333333
sg780
F21.0
sg781
I117
sg782
g7
(g8
(I0
tp809
g10
tp810
Rp811
(I1
(I3
tp812
g789
I00
S'\xca\xfaR\x17\xd2\x06Q@\xde\xe4PH\xbd c@\x00\x00\x00\x80\xc2u9\xc0'
p813
tp814
bsg794
S'Cell[2].axon[335]'
p815
sI117
I64
tp816
a(F1.442877194274284
S'Cell[3].apic[43] syn_ = new FastInhib(0.833333333333)'
p817
I3
(dp818
g779
F0.9285714285714284
sg780
F21.0
sg781
I117
sg782
g7
(g8
(I0
tp819
g10
tp820
Rp821
(I1
(I3
tp822
g789
I00
S'\x18\xb7k1u\xda>\xc09\xf6P\xe1a+^\xc0\x00\x00\x00`\xb8\xde8@'
p823
tp824
bsg794
S'Cell[2].axon[360]'
p825
sI117
I160
tp826
a(F1.8286518833889152
S'Cell[1].dend[3] syn_ = new ExpSid(0.357142857143)'
p827
I1
(dp828
g779
F0.8333333333333333
sg780
F21.0
sg781
I117
sg782
g7
(g8
(I0
tp829
g10
tp830
Rp831
(I1
(I3
tp832
g789
I00
S'\x00\x00\x00\xf0\xee\x9eK@\xab\xaa\xaaj\x039e@\x00\x00\x00\x80\xc2u9\xc0'
p833
tp834
bsg794
S'Cell[2].axon[480]'
p835
sI117
I64
tp836
a(F2.3010397266399893
S'Cell[3].apic[45] syn_ = new FastInhib(0.833333333333)'
p837
I3
(dp838
g779
F0.20588235294117646
sg780
F21.0
sg781
I69
sg782
g7
(g8
(I0
tp839
g10
tp840
Rp841
(I1
(I3
tp842
g789
I00
S'\xe0Q]-\x1f\xbe&@<\xf8\xb3a\xd6bx\xc0f\xf8\xcat\xebu\x1f\xc0'
p843
tp844
bsg794
S'Cell[1].axon[43]'
p845
sI69
I160
tp846
a(F0.7559836785913496
S'Cell[1].dend[26] syn_ = new AmpaNmda(0.5)'
p847
I1
(dp848
S'seg'
p849
F0.8333333333333333
sS'hostfrom'
p850
F22.0
sS'gid'
p851
I22
sS'coords'
p852
g7
(g8
(I0
tp853
g10
tp854
Rp855
(I1
(I3
tp856
g14
(S'f8'
p857
I0
I1
tp858
Rp859
(I3
S'<'
p860
NNNI-1
I-1
I0
tp861
bI00
S'\xc3X=\x12\x17\x97G@0G\xec\xa5,\x98\\@\x84\xaf\xcem\xbb\xae8@'
p862
tp863
bsS'secnames'
p864
S'Cell[0].axon[5]'
p865
sI22
I64
tp866
a(F2.11521840787638
S'Cell[0].apic[66] syn_ = new AmpaNmda(0.5)'
p867
I0
(dp868
g849
F0.2777777777777778
sg850
F22.0
sg851
I22
sg852
g7
(g8
(I0
tp869
g10
tp870
Rp871
(I1
(I3
tp872
g859
I00
S'\xb7\x1a\x8a\x85W\xaf8\xc0\xc8\xa4h\x89\xcfI\\@p\x1ap\xf1oM!@'
p873
tp874
bsg864
S'Cell[0].axon[6]'
p875
sI22
I16
tp876
a(F1.7878756852649818
S'Cell[0].dend[57] syn_ = new AmpaNmda(0.1)'
p877
I0
(dp878
g849
F0.8333333333333333
sg850
F22.0
sg851
I166
sg852
g7
(g8
(I0
tp879
g10
tp880
Rp881
(I1
(I3
tp882
g859
I00
S'\xbe<\xaf\xfb\xe5\xf0V@\x19\x91<JU\xfb(@L\x1f\xadb\x8f[\x0b\xc0'
p883
tp884
bsg864
S'Cell[3].axon[268]'
p885
sI166
I16
tp886
a(F1.9674771966712075
S'Cell[3].apic[19] syn_ = new FastInhib(0.5)'
p887
I3
(dp888
S'seg'
p889
F0.5
sS'hostfrom'
p890
F24.0
sS'gid'
p891
I168
sS'coords'
p892
g7
(g8
(I0
tp893
g10
tp894
Rp895
(I1
(I3
tp896
g14
(S'f8'
p897
I0
I1
tp898
Rp899
(I3
S'<'
p900
NNNI-1
I-1
I0
tp901
bI00
S'\xfe\xf1\x9c*\xec\x1cO\xc0\xf4\xd8,\x1e0\x98^\xc0\x00\x00\x00\xc0\xcc\xdcQ\xc0'
p902
tp903
bsS'secnames'
p904
S'Cell[3].axon[78]'
p905
sI168
I160
tp906
a(F2.159304454917426
S'Cell[3].apic[37] syn_ = new FastInhib(0.5)'
p907
I3
(dp908
g889
F0.16666666666666666
sg890
F24.0
sg891
I120
sg892
g7
(g8
(I0
tp909
g10
tp910
Rp911
(I1
(I3
tp912
g899
I00
S'/\t\x91\x99br;@\x84+o\xf1\xc1aZ\xc0q\xa8+G_\xf3R\xc0'
p913
tp914
bsg904
S'Cell[2].axon[223]'
p915
sI120
I160
tp916
a(F2.0911612200101573
S'Cell[0].dend[60] syn_ = new ExpSid(0.166666666667)'
p917
I0
(dp918
S'seg'
p919
F0.8333333333333333
sS'hostfrom'
p920
F25.0
sS'gid'
p921
I169
sS'coords'
p922
g7
(g8
(I0
tp923
g10
tp924
Rp925
(I1
(I3
tp926
g14
(S'f8'
p927
I0
I1
tp928
Rp929
(I3
S'<'
p930
NNNI-1
I-1
I0
tp931
bI00
S'\x1fs\x9c\x17\\O?\xc01\xf2\xb8)*\xadR\xc0\xc2\xa9z\xcb\xb6\x1e\x05@'
p932
tp933
bsS'secnames'
p934
S'Cell[3].axon[0]'
p935
sI169
I16
tp936
a(F2.4435096708642634
S'Cell[1].dend[6] syn_ = new AmpaNmda(0.5)'
p937
I1
(dp938
S'seg'
p939
F0.16666666666666666
sS'hostfrom'
p940
F26.0
sS'gid'
p941
I170
sS'coords'
p942
g7
(g8
(I0
tp943
g10
tp944
Rp945
(I1
(I3
tp946
g14
(S'f8'
p947
I0
I1
tp948
Rp949
(I3
S'<'
p950
NNNI-1
I-1
I0
tp951
bI00
S'Y|u\xfa\x10\x01U@-1\xb2\xb2\x96ed@~\x92\x96\x96\x00D+\xc0'
p952
tp953
bsS'secnames'
p954
S'Cell[3].axon[35]'
p955
sI170
I64
tp956
a(F2.2169785467642202
S'Cell[1].dend[43] syn_ = new AmpaNmda(0.5)'
p957
I1
(dp958
g939
F0.7
sg940
F26.0
sg941
I170
sg942
g7
(g8
(I0
tp959
g10
tp960
Rp961
(I1
(I3
tp962
g949
I00
S'\x14(\xad\xe1\x07\x8cS@e%I\xe28\xdbY@\x1d\x8a\xc8\x9a\x8dE:@'
p963
tp964
bsg954
S'Cell[3].axon[167]'
p965
sI170
I64
tp966
a(F2.204946488837232
S'Cell[3].apic[24] syn_ = new FastInhib(0.5)'
p967
I3
(dp968
S'seg'
p969
F0.045454545454545456
sS'hostfrom'
p970
F27.0
sS'gid'
p971
I75
sS'coords'
p972
g7
(g8
(I0
tp973
g10
tp974
Rp975
(I1
(I3
tp976
g14
(S'f8'
p977
I0
I1
tp978
Rp979
(I3
S'<'
p980
NNNI-1
I-1
I0
tp981
bI00
S"i\x92\x129E\xae:@\xa9<\x8f8\xb1EE\xc0T\xf8U\x19L\x9b'\xc0"
p982
tp983
bsS'secnames'
p984
S'Cell[1].axon[14]'
p985
sI75
I160
tp986
a(F2.4612457627096584
S'Cell[0].apic[56] syn_ = new AmpaNmda(0.166666666667)'
p987
I0
(dp988
S'seg'
p989
F0.8333333333333333
sS'hostfrom'
p990
F28.0
sS'gid'
p991
I172
sS'coords'
p992
g7
(g8
(I0
tp993
g10
tp994
Rp995
(I1
(I3
tp996
g14
(S'f8'
p997
I0
I1
tp998
Rp999
(I3
S'<'
p1000
NNNI-1
I-1
I0
tp1001
bI00
S'\xb5\xe7\xf3\xa9\xb2?D\xc0\x18\xf4\x00\xf49lc@\x0e\x0ex\xfe\xcd\xa99@'
p1002
tp1003
bsS'secnames'
p1004
S'Cell[3].axon[11]'
p1005
sI172
I16
tp1006
a(F1.7935695243712424
S'Cell[2].dend[10] syn_ = new FastInhib(0.0714285714286)'
p1007
I2
(dp1008
S'seg'
p1009
F0.8999999999999999
sS'hostfrom'
p1010
F29.0
sS'gid'
p1011
I125
sS'coords'
p1012
g7
(g8
(I0
tp1013
g10
tp1014
Rp1015
(I1
(I3
tp1016
g14
(S'f8'
p1017
I0
I1
tp1018
Rp1019
(I3
S'<'
p1020
NNNI-1
I-1
I0
tp1021
bI00
S'OrZ\xea+xG@\x8e\x88\xfb\xc5d4C@:Y+\xd5CN8\xc0'
p1022
tp1023
bsS'secnames'
p1024
S'Cell[2].axon[173]'
p1025
sI125
I112
tp1026
a(F2.101532959806678
S'Cell[3].apic[26] syn_ = new FastInhib(0.5)'
p1027
I3
(dp1028
g1009
F0.029411764705882353
sg1010
F29.0
sg1011
I77
sg1012
g7
(g8
(I0
tp1029
g10
tp1030
Rp1031
(I1
(I3
tp1032
g1019
I00
S'\xaao\x01.5\x1c9@\xb4*\xc4%\x8e\x83J\xc0\xdc\xca/\x98\x19\xd5#\xc0'
p1033
tp1034
bsg1024
S'Cell[1].axon[2]'
p1035
sI77
I160
tp1036
a(F0.6283765125405778
S'Cell[0].apic[52] syn_ = new AmpaNmda(0.5)'
p1037
I0
(dp1038
S'seg'
p1039
F0.8333333333333333
sS'hostfrom'
p1040
F30.0
sS'gid'
p1041
I126
sS'coords'
p1042
g7
(g8
(I0
tp1043
g10
tp1044
Rp1045
(I1
(I3
tp1046
g14
(S'f8'
p1047
I0
I1
tp1048
Rp1049
(I3
S'<'
p1050
NNNI-1
I-1
I0
tp1051
bI00
S'\xd8\xfb\x1cQ@\xf4?\xc0\x0e\xd5\x0c\x1elvp@Z\xad\xf1\xef\x0f\xe7+\xc0'
p1052
tp1053
bsS'secnames'
p1054
S'Cell[2].axon[114]'
p1055
sI126
I16
tp1056
a(F1.873500423039157
S'Cell[2].dend[38] syn_ = new FastInhib(0.277777777778)'
p1057
I2
(dp1058
g1039
F0.8333333333333333
sg1040
F30.0
sg1041
I174
sg1042
g7
(g8
(I0
tp1059
g10
tp1060
Rp1061
(I1
(I3
tp1062
g1049
I00
S'\xbc\x0ey\xb6\x95\xddA\xc0XQ\x81\x074>J\xc0\x07gX-Z\xc18\xc0'
p1063
tp1064
bsg1054
S'Cell[3].axon[305]'
p1065
sI174
I112
tp1066
a(F2.2536902483586827
S'Cell[2].dend[23] syn_ = new FastInhib(0.833333333333)'
p1067
I2
(dp1068
g1039
F0.8333333333333333
sg1040
F30.0
sg1041
I174
sg1042
g7
(g8
(I0
tp1069
g10
tp1070
Rp1071
(I1
(I3
tp1072
g1049
I00
S'0UP\x18\x0b\xcfL\xc0\x04\x9f \xab/GF\xc0)\xd1I@\xa8\xb72@'
p1073
tp1074
bsg1054
S'Cell[3].axon[395]'
p1075
sI174
I112
tp1076
a(F2.2253011951214923
S'Cell[2].dend[21] syn_ = new FastInhib(0.3)'
p1077
I2
(dp1078
S'seg'
p1079
F0.5
sS'hostfrom'
p1080
F32.0
sS'gid'
p1081
I176
sS'coords'
p1082
g7
(g8
(I0
tp1083
g10
tp1084
Rp1085
(I1
(I3
tp1086
g14
(S'f8'
p1087
I0
I1
tp1088
Rp1089
(I3
S'<'
p1090
NNNI-1
I-1
I0
tp1091
bI00
S'\xc5[\xba\xbf\x08\xac<\xc0\xf7fU\xee\xfb\xdfL\xc0O\xf3\nI\n \x1d\xc0'
p1092
tp1093
bsS'secnames'
p1094
S'Cell[3].axon[97]'
p1095
sI176
I112
tp1096
a(F2.1114423966362352
S'Cell[0].dend[55] syn_ = new AmpaNmda(0.833333333333)'
p1097
I0
(dp1098
g1079
F0.8333333333333333
sg1080
F32.0
sg1081
I176
sg1082
g7
(g8
(I0
tp1099
g10
tp1100
Rp1101
(I1
(I3
tp1102
g1089
I00
S'\xb0\x0e\x03M\xd1JN@L \xbc\xd6\xbeQ\x07@\xcc\xf7Ut]\x8e\xf5\xbf'
p1103
tp1104
bsg1094
S'Cell[3].axon[109]'
p1105
sI176
I16
tp1106
a(F2.27955746307066
S'Cell[2].dend[3] syn_ = new FastInhib(0.1)'
p1107
I2
(dp1108
S'seg'
p1109
F0.16666666666666666
sS'hostfrom'
p1110
F33.0
sS'gid'
p1111
I129
sS'coords'
p1112
g7
(g8
(I0
tp1113
g10
tp1114
Rp1115
(I1
(I3
tp1116
g14
(S'f8'
p1117
I0
I1
tp1118
Rp1119
(I3
S'<'
p1120
NNNI-1
I-1
I0
tp1121
bI00
S'\xbd$\xdbp8\xae3@\x80\x15n\x02\n\xe4@\xc0\xc1\x9d\x9e\xfe\xe0\x84@\xc0'
p1122
tp1123
bsS'secnames'
p1124
S'Cell[2].axon[45]'
p1125
sI129
I112
tp1126
a(F2.341545000481491
S'Cell[1].dend[34] syn_ = new ExpSid(0.833333333333)'
p1127
I1
(dp1128
g1109
F0.5
sg1110
F33.0
sg1111
I129
sg1112
g7
(g8
(I0
tp1129
g10
tp1130
Rp1131
(I1
(I3
tp1132
g1119
I00
S'\xae\xabuc->E@\r\xc2\x91%\xdc\xafV@\x98\x8b\xcc\x14I&6@'
p1133
tp1134
bsg1124
S'Cell[2].axon[67]'
p1135
sI129
I64
tp1136
a(F2.313188453582941
S'Cell[3].dend[5] syn_ = new FastInhib(0.5)'
p1137
I3
(dp1138
g1109
F0.8333333333333333
sg1110
F33.0
sg1111
I177
sg1112
g7
(g8
(I0
tp1139
g10
tp1140
Rp1141
(I1
(I3
tp1142
g1119
I00
S'zQ\xa5\xcf\x95[2\xc0\xebl\xdc<O\xeeR@\x18\xef\x03\x1d\x18H/\xc0'
p1143
tp1144
bsg1124
S'Cell[3].axon[52]'
p1145
sI177
I160
tp1146
a(F2.110229107555701
S'Cell[3].apic[44] syn_ = new FastInhib(0.0555555555556)'
p1147
I3
(dp1148
S'seg'
p1149
F0.8333333333333333
sS'hostfrom'
p1150
F35.0
sS'gid'
p1151
I83
sS'coords'
p1152
g7
(g8
(I0
tp1153
g10
tp1154
Rp1155
(I1
(I3
tp1156
g14
(S'f8'
p1157
I0
I1
tp1158
Rp1159
(I3
S'<'
p1160
NNNI-1
I-1
I0
tp1161
bI00
S'.\x9aA\x8e\xf7\x845@\xe3\xcb\xc8.\xf1\xe4Y\xc0\x13e\x10\xf4\xd0\x86\x12\xc0'
p1162
tp1163
bsS'secnames'
p1164
S'Cell[1].axon[148]'
p1165
sI83
I160
tp1166
a(F2.43758385699747
S'Cell[0].dend[65] syn_ = new ExpSid(0.3)'
p1167
I0
(dp1168
g1149
F0.5
sg1150
F35.0
sg1151
I83
sg1152
g7
(g8
(I0
tp1169
g10
tp1170
Rp1171
(I1
(I3
tp1172
g1159
I00
S'*\x17\xa12\xda\xc3-@\x15\xd0\x88\x10\x15\xc0K\xc0\xee\xdbW\x90\xd0\t#@'
p1173
tp1174
bsg1164
S'Cell[1].axon[210]'
p1175
sI83
I16
tp1176
a(F2.4036448423247014
S'Cell[2].dend[0] syn_ = new FastInhib(0.5)'
p1177
I2
(dp1178
g1149
F0.8333333333333333
sg1150
F35.0
sg1151
I35
sg1152
g7
(g8
(I0
tp1179
g10
tp1180
Rp1181
(I1
(I3
tp1182
g1159
I00
S'\x0c\xf5{ejv*@\xa4LK\x9eH$H\xc0\xb0k\xae.\xea\x8d @'
p1183
tp1184
bsg1164
S'Cell[0].axon[1]'
p1185
sI35
I112
tp1186
a(F1.8727250897927992
S'Cell[3].dend[3] syn_ = new FastInhib(0.5)'
p1187
I3
(dp1188
g1149
F0.5
sg1150
F35.0
sg1151
I179
sg1152
g7
(g8
(I0
tp1189
g10
tp1190
Rp1191
(I1
(I3
tp1192
g1159
I00
S'\xfe\xa8F\xb1\xb4m\x1a@\xd5\xcd\x14\xac\x03\xbe<@L\x88HN\xa6\x80\x17@'
p1193
tp1194
bsg1164
S'Cell[3].axon[33]'
p1195
sI179
I160
tp1196
a(F1.9165849080806188
S'Cell[2].dend[5] syn_ = new FastInhib(0.5)'
p1197
I2
(dp1198
S'seg'
p1199
F0.5
sS'hostfrom'
p1200
F36.0
sS'gid'
p1201
I84
sS'coords'
p1202
g7
(g8
(I0
tp1203
g10
tp1204
Rp1205
(I1
(I3
tp1206
g14
(S'f8'
p1207
I0
I1
tp1208
Rp1209
(I3
S'<'
p1210
NNNI-1
I-1
I0
tp1211
bI00
S"\x87'\xcaA\x06\x849@\xcb\x0cQ\xb4\xc3#[@\xc0\x9b\x12\x13\xc0\xadI\xc0"
p1212
tp1213
bsS'secnames'
p1214
S'Cell[1].axon[212]'
p1215
sI84
I112
tp1216
a(F2.327956510732916
S'Cell[2].dend[14] syn_ = new FastInhib(0.166666666667)'
p1217
I2
(dp1218
g1199
F0.49999999999999994
sg1200
F36.0
sg1201
I84
sg1202
g7
(g8
(I0
tp1219
g10
tp1220
Rp1221
(I1
(I3
tp1222
g1209
I00
S'\x14\x83w\x87\x1b\\L\xc02*(1\x02b\\@\x16~\x92@W\xe5A\xc0'
p1223
tp1224
bsg1214
S'Cell[1].axon[461]'
p1225
sI84
I112
tp1226
a(F2.2680743821119678
S'Cell[0].apic[74] syn_ = new AmpaNmda(0.5)'
p1227
I0
(dp1228
g1199
F0.5
sg1200
F36.0
sg1201
I84
sg1202
g7
(g8
(I0
tp1229
g10
tp1230
Rp1231
(I1
(I3
tp1232
g1209
I00
S'\xefC\xebg)\xd11@`\xf7#\x9b\x84T]@\x9f\x00D\xf3\x99\xfd\x11@'
p1233
tp1234
bsg1214
S'Cell[1].axon[516]'
p1235
sI84
I16
tp1236
a(F2.0871997184415
S'Cell[1].dend[52] syn_ = new AmpaNmda(0.833333333333)'
p1237
I1
(dp1238
g1199
F0.16666666666666666
sg1200
F36.0
sg1201
I132
sg1202
g7
(g8
(I0
tp1239
g10
tp1240
Rp1241
(I1
(I3
tp1242
g1209
I00
S'\xdae\xff\x86T\x84_@\xe1\x07\x17W\xf0\x9eI@\x00\x00\x00\xc0\xcc\xcc\xec?'
p1243
tp1244
bsg1214
S'Cell[2].axon[100]'
p1245
sI132
I64
tp1246
a(F2.4117364756895046
S'Cell[1].dend[41] syn_ = new AmpaNmda(0.214285714286)'
p1247
I1
(dp1248
g1199
F0.8333333333333333
sg1200
F36.0
sg1201
I132
sg1202
g7
(g8
(I0
tp1249
g10
tp1250
Rp1251
(I1
(I3
tp1252
g1209
I00
S',?D1\x9d\xb3K@T\xe7zQ\xe8\xc6D@\x1b|\xef\xce\xe9!&@'
p1253
tp1254
bsg1214
S'Cell[2].axon[151]'
p1255
sI132
I64
tp1256
a(F1.6876552611642865
S'Cell[3].dend[24] syn_ = new FastInhib(0.833333333333)'
p1257
I3
(dp1258
g1199
F0.8333333333333333
sg1200
F36.0
sg1201
I180
sg1202
g7
(g8
(I0
tp1259
g10
tp1260
Rp1261
(I1
(I3
tp1262
g1209
I00
S'\x8e\xd6\x9f\xd8\x07uB\xc0\xe8\xf7\x16\xe4M\xc4\x17@\x1f\xc9K\xa1\xed\x9e0@'
p1263
tp1264
bsg1214
S'Cell[3].axon[162]'
p1265
sI180
I160
tp1266
a(F1.7967383557091938
S'Cell[1].dend[3] syn_ = new AmpaNmda(0.214285714286)'
p1267
I1
(dp1268
g1199
F0.3571428571428571
sg1200
F36.0
sg1201
I180
sg1202
g7
(g8
(I0
tp1269
g10
tp1270
Rp1271
(I1
(I3
tp1272
g1209
I00
S'\x12\x0eR\xe00\x9dI@\x9eR\xb7\x88Z\xc0c@\x98\xd3\x11V\xfeo@\xc0'
p1273
tp1274
bsg1214
S'Cell[3].axon[201]'
p1275
sI180
I64
tp1276
a(F2.3783391774536784
S'Cell[2].dend[1] syn_ = new FastInhib(0.166666666667)'
p1277
I2
(dp1278
S'seg'
p1279
F0.9285714285714284
sS'hostfrom'
p1280
F37.0
sS'gid'
p1281
I133
sS'coords'
p1282
g7
(g8
(I0
tp1283
g10
tp1284
Rp1285
(I1
(I3
tp1286
g14
(S'f8'
p1287
I0
I1
tp1288
Rp1289
(I3
S'<'
p1290
NNNI-1
I-1
I0
tp1291
bI00
S'u\xf3\xa5\xa5\x11\x93*@F\x964j\xc1\xbc\x1b@\x00\x00\x00\x00\xd7\xa3\x04\xc0'
p1292
tp1293
bsS'secnames'
p1294
S'Cell[2].axon[8]'
p1295
sI133
I112
tp1296
a(F2.270508551930055
S'Cell[2].dend[11] syn_ = new FastInhib(0.166666666667)'
p1297
I2
(dp1298
g1279
F0.16666666666666666
sg1280
F37.0
sg1281
I133
sg1282
g7
(g8
(I0
tp1299
g10
tp1300
Rp1301
(I1
(I3
tp1302
g1289
I00
S'#\x97\x11\xb8\xf3\xd36\xc0\xc8\x00\xb3r\x870*@\x8dp\x04b\x10\xec\x11\xc0'
p1303
tp1304
bsg1294
S'Cell[2].axon[80]'
p1305
sI133
I112
tp1306
a(F1.9244027326635949
S'Cell[3].apic[25] syn_ = new FastInhib(0.214285714286)'
p1307
I3
(dp1308
g1279
F0.5
sg1280
F37.0
sg1281
I37
sg1282
g7
(g8
(I0
tp1309
g10
tp1310
Rp1311
(I1
(I3
tp1312
g1289
I00
S'\x00\x00\x008\n\xd7\x13@\x00\x00\x00\xa0GIQ\xc0\x00\x00\x00\xa8\x99\x99\x1d\xc0'
p1313
tp1314
bsg1294
S'Cell[0].axon[2]'
p1315
sI37
I160
tp1316
a(F2.0937464433982345
S'Cell[3].apic[4] syn_ = new FastInhib(0.5)'
p1317
I3
(dp1318
S'seg'
p1319
F0.16666666666666666
sS'hostfrom'
p1320
F38.0
sS'gid'
p1321
I182
sS'coords'
p1322
g7
(g8
(I0
tp1323
g10
tp1324
Rp1325
(I1
(I3
tp1326
g14
(S'f8'
p1327
I0
I1
tp1328
Rp1329
(I3
S'<'
p1330
NNNI-1
I-1
I0
tp1331
bI00
S'\x00\x00\x00\xe0Q\xb89\xc0\x8a\x8c \xab\x17\x94X\xc0\x1d\xd2\x0fo\xa4\xf1>\xc0'
p1332
tp1333
bsS'secnames'
p1334
S'Cell[3].axon[35]'
p1335
sI182
I160
tp1336
a(F1.5002630878793328
S'Cell[2].dend[3] syn_ = new FastInhib(0.7)'
p1337
I2
(dp1338
S'seg'
p1339
F0.16666666666666666
sS'hostfrom'
p1340
F39.0
sS'gid'
p1341
I87
sS'coords'
p1342
g7
(g8
(I0
tp1343
g10
tp1344
Rp1345
(I1
(I3
tp1346
g14
(S'f8'
p1347
I0
I1
tp1348
Rp1349
(I3
S'<'
p1350
NNNI-1
I-1
I0
tp1351
bI00
S'\xa0\xd0\xda\xcf\x8e\x06D@,;(h\x0e8Z\xc0\xc8n5o\xb1\x96C\xc0'
p1352
tp1353
bsS'secnames'
p1354
S'Cell[1].axon[118]'
p1355
sI87
I112
tp1356
a(F1.8067035992890925
S'Cell[1].dend[35] syn_ = new ExpSid(0.166666666667)'
p1357
I1
(dp1358
g1339
F0.16666666666666666
sg1340
F39.0
sg1341
I183
sg1342
g7
(g8
(I0
tp1359
g10
tp1360
Rp1361
(I1
(I3
tp1362
g1349
I00
S'\x14!~@j\xa6=@\xbb\x02R\xfdyKS@\x941\xe9\x0e\xd0b/@'
p1363
tp1364
bsg1354
S'Cell[3].axon[20]'
p1365
sI183
I64
tp1366
a(F1.9560531482672374
S'Cell[0].apic[80] syn_ = new AmpaNmda(0.3)'
p1367
I0
(dp1368
S'seg'
p1369
F0.8333333333333333
sS'hostfrom'
p1370
F40.0
sS'gid'
p1371
I88
sS'coords'
p1372
g7
(g8
(I0
tp1373
g10
tp1374
Rp1375
(I1
(I3
tp1376
g14
(S'f8'
p1377
I0
I1
tp1378
Rp1379
(I3
S'<'
p1380
NNNI-1
I-1
I0
tp1381
bI00
S'q\xff\xe2q[\xcc\x14\xc0\xb6\xe7\xbf\xcc\t"R@"DgtS\xf2&@'
p1382
tp1383
bsS'secnames'
p1384
S'Cell[1].axon[326]'
p1385
sI88
I16
tp1386
a(F2.4545607603703044
S'Cell[3].apic[27] syn_ = new FastInhib(0.5)'
p1387
I3
(dp1388
g1369
F0.5
sg1370
F40.0
sg1371
I88
sg1372
g7
(g8
(I0
tp1389
g10
tp1390
Rp1391
(I1
(I3
tp1392
g1379
I00
S'\xbc\xc1?\xb1\xcf_@@\x04\xca\xd6\x0c6\xf3O\xc0\xb2\xbd\xce!+v!\xc0'
p1393
tp1394
bsg1384
S'Cell[1].axon[346]'
p1395
sI88
I160
tp1396
a(F1.137285034065529
S'Cell[3].dend[4] syn_ = new FastInhib(0.5)'
p1397
I3
(dp1398
g1369
F0.8333333333333333
sg1370
F40.0
sg1371
I184
sg1372
g7
(g8
(I0
tp1399
g10
tp1400
Rp1401
(I1
(I3
tp1402
g1379
I00
S"h\x1e\xd9v\x91\xaf\xf0?'\xe6W\xeeP\x81F@\x00\x00\x00\xe0z\x14\x08\xc0"
p1403
tp1404
bsg1384
S'Cell[3].axon[60]'
p1405
sI184
I160
tp1406
a(F1.234580935304963
S'Cell[3].dend[7] syn_ = new FastInhib(0.5)'
p1407
I3
(dp1408
g1369
F0.5
sg1370
F40.0
sg1371
I184
sg1372
g7
(g8
(I0
tp1409
g10
tp1410
Rp1411
(I1
(I3
tp1412
g1379
I00
S'\xcc\xbd{\xc5\x9b\x11A\xc0\x97@3\x0b}\x84\\@p\x88\xa0\xb2\xe2\xa5=\xc0'
p1413
tp1414
bsg1384
S'Cell[3].axon[105]'
p1415
sI184
I160
tp1416
a(F2.325860326408368
S'Cell[3].apic[38] syn_ = new FastInhib(0.5)'
p1417
I3
(dp1418
S'seg'
p1419
F0.8333333333333333
sS'hostfrom'
p1420
F41.0
sS'gid'
p1421
I41
sS'coords'
p1422
g7
(g8
(I0
tp1423
g10
tp1424
Rp1425
(I1
(I3
tp1426
g14
(S'f8'
p1427
I0
I1
tp1428
Rp1429
(I3
S'<'
p1430
NNNI-1
I-1
I0
tp1431
bI00
S'\x1c\xeeC\xc6*#6@\xdd_\xf3\xc2D6T\xc0\x04>\x9e\xdat\x0e#\xc0'
p1432
tp1433
bsS'secnames'
p1434
S'Cell[0].axon[46]'
p1435
sI41
I160
tp1436
a(F2.1488890705274106
S'Cell[1].dend[42] syn_ = new ExpSid(0.928571428571)'
p1437
I1
(dp1438
g1419
F0.5
sg1420
F41.0
sg1421
I41
sg1422
g7
(g8
(I0
tp1439
g10
tp1440
Rp1441
(I1
(I3
tp1442
g1429
I00
S'W#\xd3N\x8f\x9b@@\xba\x8d\x8d\xf5qDW\xc0ZZ\xd0@\x05\xce\xfd?'
p1443
tp1444
bsg1434
S'Cell[0].axon[47]'
p1445
sI41
I64
tp1446
a(F2.253158757120523
S'Cell[2].dend[7] syn_ = new FastInhib(0.1)'
p1447
I2
(dp1448
g1419
F0.5
sg1420
F41.0
sg1421
I185
sg1422
g7
(g8
(I0
tp1449
g10
tp1450
Rp1451
(I1
(I3
tp1452
g1429
I00
S'\x8e^)\xb4x\xabG@\x02n\rRq\xe8D@\x00\x00\x00\xc0\xf5\xa85\xc0'
p1453
tp1454
bsg1434
S'Cell[3].axon[93]'
p1455
sI185
I112
tp1456
a(F2.2126705246351723
S'Cell[2].dend[4] syn_ = new FastInhib(0.5)'
p1457
I2
(dp1458
g1419
F0.7
sg1420
F41.0
sg1421
I185
sg1422
g7
(g8
(I0
tp1459
g10
tp1460
Rp1461
(I1
(I3
tp1462
g1429
I00
S'F\x98\xc7\xd7\xd0\xdd$@~+&\xeb\x1c01@\x98\x86\xe1:\xd0G\xf9\xbf'
p1463
tp1464
bsg1434
S'Cell[3].axon[113]'
p1465
sI185
I112
tp1466
a(F1.7622958289327837
S'Cell[3].apic[1] syn_ = new FastInhib(0.833333333333)'
p1467
I3
(dp1468
g1419
F0.16666666666666666
sg1420
F41.0
sg1421
I185
sg1422
g7
(g8
(I0
tp1469
g10
tp1470
Rp1471
(I1
(I3
tp1472
g1429
I00
S'\xf2o?)\x97\xae\x19\xc0<Y\xcc\xcd3xP\xc0`\x92\xb53\x10|B\xc0'
p1473
tp1474
bsg1434
S'Cell[3].axon[243]'
p1475
sI185
I160
tp1476
a(F2.039528259669603
S'Cell[2].dend[33] syn_ = new FastInhib(0.5)'
p1477
I2
(dp1478
S'seg'
p1479
F0.30000000000000004
sS'hostfrom'
p1480
F42.0
sS'gid'
p1481
I90
sS'coords'
p1482
g7
(g8
(I0
tp1483
g10
tp1484
Rp1485
(I1
(I3
tp1486
g14
(S'f8'
p1487
I0
I1
tp1488
Rp1489
(I3
S'<'
p1490
NNNI-1
I-1
I0
tp1491
bI00
S'z\x88\xc5b&\x1eG\xc0rIE\x9a\x01\xda5\xc0ZZ\xad\xa0,\x8a\x08@'
p1492
tp1493
bsS'secnames'
p1494
S'Cell[1].axon[24]'
p1495
sI90
I112
tp1496
a(F2.488006424585039
S'Cell[0].dend[26] syn_ = new AmpaNmda(0.833333333333)'
p1497
I0
(dp1498
g1479
F0.14705882352941174
sg1480
F42.0
sg1481
I90
sg1482
g7
(g8
(I0
tp1499
g10
tp1500
Rp1501
(I1
(I3
tp1502
g1489
I00
S'\xe6O\xd6[`Xa\xc0\xd4/!S>\xa6C\xc00)\xafm\x86g\x0f@'
p1503
tp1504
bsg1494
S'Cell[1].axon[113]'
p1505
sI90
I16
tp1506
a(F2.423227945447512
S'Cell[1].dend[44] syn_ = new AmpaNmda(0.214285714286)'
p1507
I1
(dp1508
g1479
F0.05555555555555555
sg1480
F42.0
sg1481
I90
sg1482
g7
(g8
(I0
tp1509
g10
tp1510
Rp1511
(I1
(I3
tp1512
g1489
I00
S't\x15-\xc7\xe0\xb4\\@\xb6\x12\xbb\x10\xaa9N@\x00\x00\x00\xe0z\xf4L@'
p1513
tp1514
bsg1494
S'Cell[1].axon[122]'
p1515
sI90
I64
tp1516
a(F2.459801069152173
S'Cell[0].dend[52] syn_ = new AmpaNmda(0.3)'
p1517
I0
(dp1518
g1479
F0.8333333333333333
sg1480
F42.0
sg1481
I90
sg1482
g7
(g8
(I0
tp1519
g10
tp1520
Rp1521
(I1
(I3
tp1522
g1489
I00
S'\xc43\x02|Vs3\xc0R\xbc;\xa1\x1c\x15O\xc0\x00\x00\x00\x80\xc2eU@'
p1523
tp1524
bsg1494
S'Cell[1].axon[151]'
p1525
sI90
I16
tp1526
a(F1.4542430734247436
S'Cell[0].apic[80] syn_ = new AmpaNmda(0.5)'
p1527
I0
(dp1528
g1479
F0.16666666666666666
sg1480
F42.0
sg1481
I138
sg1482
g7
(g8
(I0
tp1529
g10
tp1530
Rp1531
(I1
(I3
tp1532
g1489
I00
S'v\xa5\x13\xd4n\x9b8@<\xa2\xfbI\xe6\xedP@&\xca\xcem\xfb\xc15@'
p1533
tp1534
bsg1494
S'Cell[2].axon[20]'
p1535
sI138
I16
tp1536
a(F1.8407786434538143
S'Cell[0].apic[44] syn_ = new AmpaNmda(0.833333333333)'
p1537
I0
(dp1538
g1479
F0.5
sg1480
F42.0
sg1481
I138
sg1482
g7
(g8
(I0
tp1539
g10
tp1540
Rp1541
(I1
(I3
tp1542
g1489
I00
S'\xa5\x9a\xfb+\xd1y\x10\xc0gb\xa8\x83+gp@\x9f\x17 \xc3\x9a66@'
p1543
tp1544
bsg1494
S'Cell[2].axon[265]'
p1545
sI138
I16
tp1546
a(F2.40255589928917
S'Cell[1].dend[42] syn_ = new AmpaNmda(0.642857142857)'
p1547
I1
(dp1548
g1479
F0.5
sg1480
F42.0
sg1481
I186
sg1482
g7
(g8
(I0
tp1549
g10
tp1550
Rp1551
(I1
(I3
tp1552
g1489
I00
S"\xce\x82\xe7\xae\xaen9@t}E*\xc1?D\xc0X\xac'\x9a\xfcQ&@"
p1553
tp1554
bsg1494
S'Cell[3].axon[85]'
p1555
sI186
I64
tp1556
a(F2.292218446685149
S'Cell[0].apic[62] syn_ = new ExpSid(0.5)'
p1557
I0
(dp1558
S'seg'
p1559
F0.5
sS'hostfrom'
p1560
F43.0
sS'gid'
p1561
I91
sS'coords'
p1562
g7
(g8
(I0
tp1563
g10
tp1564
Rp1565
(I1
(I3
tp1566
g14
(S'f8'
p1567
I0
I1
tp1568
Rp1569
(I3
S'<'
p1570
NNNI-1
I-1
I0
tp1571
bI00
S'n\x11#u\xc1\xeeM@\xf8{\xc8iV\x06g@\x00\x00\x00 \\\x8f\xf6?'
p1572
tp1573
bsS'secnames'
p1574
S'Cell[1].axon[325]'
p1575
sI91
I16
tp1576
a(F2.2928546037881556
S'Cell[3].apic[24] syn_ = new FastInhib(0.5)'
p1577
I3
(dp1578
g1559
F0.5
sg1560
F43.0
sg1561
I187
sg1562
g7
(g8
(I0
tp1579
g10
tp1580
Rp1581
(I1
(I3
tp1582
g1569
I00
S'\xfeS}s\xffP7@u\x11\xe2,\x00DD\xc0\xff\x1f\x8c\xbcO\xfc%\xc0'
p1583
tp1584
bsg1574
S'Cell[3].axon[2]'
p1585
sI187
I160
tp1586
a(F2.4927737563657972
S'Cell[3].apic[34] syn_ = new FastInhib(0.5)'
p1587
I3
(dp1588
g1559
F0.5
sg1560
F43.0
sg1561
I187
sg1562
g7
(g8
(I0
tp1589
g10
tp1590
Rp1591
(I1
(I3
tp1592
g1569
I00
S'\xa0\x96\xed\xdd(\xda8@.\xa5NC\x7fpP\xc0\x00\x00\x00@\nW#\xc0'
p1593
tp1594
bsg1574
S'Cell[3].axon[3]'
p1595
sI187
I160
tp1596
a(F1.0480447220780023
S'Cell[0].dend[57] syn_ = new ExpSid(0.1)'
p1597
I0
(dp1598
g1559
F0.8333333333333333
sg1560
F43.0
sg1561
I187
sg1562
g7
(g8
(I0
tp1599
g10
tp1600
Rp1601
(I1
(I3
tp1602
g1569
I00
S'\x00\xdf\xb1kH\x98V@\xc0\xd7\xa661y&@\xa4\xb1\xa6\xb5\nR\x12\xc0'
p1603
tp1604
bsg1574
S'Cell[3].axon[59]'
p1605
sI187
I16
tp1606
a(F1.3647840852006754
S'Cell[3].dend[13] syn_ = new FastInhib(0.166666666667)'
p1607
I3
(dp1608
g1559
F0.5
sg1560
F43.0
sg1561
I187
sg1562
g7
(g8
(I0
tp1609
g10
tp1610
Rp1611
(I1
(I3
tp1612
g1569
I00
S' \xa6\xe6%\xc2\xfa6\xc0\xba\xbcO\x9dw\xd33@\x00\x00\x00 \\O7\xc0'
p1613
tp1614
bsg1574
S'Cell[3].axon[212]'
p1615
sI187
I160
tp1616
a(F2.2208609771693246
S'Cell[0].dend[66] syn_ = new AmpaNmda(0.5)'
p1617
I0
(dp1618
S'seg'
p1619
F0.7
sS'hostfrom'
p1620
F44.0
sS'gid'
p1621
I92
sS'coords'
p1622
g7
(g8
(I0
tp1623
g10
tp1624
Rp1625
(I1
(I3
tp1626
g14
(S'f8'
p1627
I0
I1
tp1628
Rp1629
(I3
S'<'
p1630
NNNI-1
I-1
I0
tp1631
bI00
S"W\tJn\xc5\xeeO@b{G\x86#\x11U\xc0|,\x1a'`%+@"
p1632
tp1633
bsS'secnames'
p1634
S'Cell[1].axon[26]'
p1635
sI92
I16
tp1636
a(F1.9322625382413283
S'Cell[3].apic[39] syn_ = new FastInhib(0.5)'
p1637
I3
(dp1638
g1619
F0.16666666666666666
sg1620
F44.0
sg1621
I92
sg1622
g7
(g8
(I0
tp1639
g10
tp1640
Rp1641
(I1
(I3
tp1642
g1629
I00
S',?P\xbd\x9bX3@\xa6\xfb;\x11d\x9eV\xc0Z\xb6i\xc9\xf0\xca\x1b\xc0'
p1643
tp1644
bsg1634
S'Cell[1].axon[80]'
p1645
sI92
I160
tp1646
a(F1.4121676469422408
S'Cell[0].dend[55] syn_ = new AmpaNmda(0.5)'
p1647
I0
(dp1648
g1619
F0.8333333333333333
sg1620
F44.0
sg1621
I92
sg1622
g7
(g8
(I0
tp1649
g10
tp1650
Rp1651
(I1
(I3
tp1652
g1629
I00
S"'\xe7\x16q\xdfY?@\xc9\xe7A\x84V\xe5\t\xc0\x00 .e\xa3#\n\xc0"
p1653
tp1654
bsg1634
S'Cell[1].axon[236]'
p1655
sI92
I16
tp1656
a(F1.4900914833846386
S'Cell[2].dend[33] syn_ = new FastInhib(0.5)'
p1657
I2
(dp1658
g1619
F0.7857142857142856
sg1620
F44.0
sg1621
I92
sg1622
g7
(g8
(I0
tp1659
g10
tp1660
Rp1661
(I1
(I3
tp1662
g1629
I00
S'vW\xb8Bf\xcfF\xc0\xad\x97?+\x00O7\xc0\x88\xa2\x911\xbd2\xfe?'
p1663
tp1664
bsg1634
S'Cell[1].axon[252]'
p1665
sI92
I112
tp1666
a(F2.2913344820021253
S'Cell[3].dend[3] syn_ = new FastInhib(0.5)'
p1667
I3
(dp1668
g1619
F0.5
sg1620
F44.0
sg1621
I188
sg1622
g7
(g8
(I0
tp1669
g10
tp1670
Rp1671
(I1
(I3
tp1672
g1629
I00
S'/^_\x12\x83\xb5\x1d@U\x18\x14n\x0f\xa1;@\xff\xff\xff?\xe1z\n@'
p1673
tp1674
bsg1634
S'Cell[3].axon[54]'
p1675
sI188
I160
tp1676
a(F2.165075108763156
S'Cell[3].dend[4] syn_ = new FastInhib(0.5)'
p1677
I3
(dp1678
g1619
F0.5
sg1620
F44.0
sg1621
I188
sg1622
g7
(g8
(I0
tp1679
g10
tp1680
Rp1681
(I1
(I3
tp1682
g1629
I00
S'\x90\xc0\xff\x13\xdbY\xec?qy\x12\x9f\xae\xe1E@\x80>\xab[rw\xfc\xbf'
p1683
tp1684
bsg1634
S'Cell[3].axon[145]'
p1685
sI188
I160
tp1686
a(F2.3749665885804014
S'Cell[0].apic[65] syn_ = new AmpaNmda(0.5)'
p1687
I0
(dp1688
g1619
F0.5
sg1620
F44.0
sg1621
I188
sg1622
g7
(g8
(I0
tp1689
g10
tp1690
Rp1691
(I1
(I3
tp1692
g1629
I00
S'\x00\x00\x00 \xae\x07<@\x0e\x08\x87o\xc9\xf6H@\xd9_\xe6\x94)\x87;@'
p1693
tp1694
bsg1634
S'Cell[3].axon[200]'
p1695
sI188
I16
tp1696
a(F2.0034217435347053
S'Cell[1].dend[52] syn_ = new AmpaNmda(0.166666666667)'
p1697
I1
(dp1698
g1619
F0.1
sg1620
F44.0
sg1621
I188
sg1622
g7
(g8
(I0
tp1699
g10
tp1700
Rp1701
(I1
(I3
tp1702
g1629
I00
S'\x19Q W\xeb\xa1X@TX\x13\xdd\x05\x07X@\x00\x00\x00\xa0\x99\x99\xfd?'
p1703
tp1704
bsg1634
S'Cell[3].axon[231]'
p1705
sI188
I64
tp1706
a(F1.7300082577227447
S'Cell[1].dend[41] syn_ = new ExpSid(0.928571428571)'
p1707
I1
(dp1708
S'seg'
p1709
F0.2777777777777778
sS'hostfrom'
p1710
F45.0
sS'gid'
p1711
I141
sS'coords'
p1712
g7
(g8
(I0
tp1713
g10
tp1714
Rp1715
(I1
(I3
tp1716
g14
(S'f8'
p1717
I0
I1
tp1718
Rp1719
(I3
S'<'
p1720
NNNI-1
I-1
I0
tp1721
bI00
S'\xa7\xd6\x1cm%qH@\x1d\x1d&\x10\xe3\xce\x19\xc0\x8c\x97\xd4\xc5-\x06B\xc0'
p1722
tp1723
bsS'secnames'
p1724
S'Cell[2].axon[82]'
p1725
sI141
I64
tp1726
a(F1.4445979032715492
S'Cell[2].dend[38] syn_ = new FastInhib(0.0555555555556)'
p1727
I2
(dp1728
g1709
F0.5
sg1710
F45.0
sg1711
I141
sg1712
g7
(g8
(I0
tp1729
g10
tp1730
Rp1731
(I1
(I3
tp1732
g1719
I00
S'\xf0\xdbF\xd1`\x8d9\xc0J\xd9(\xc8Rn6\xc0F>\x04\xa0U\xef\x12\xc0'
p1733
tp1734
bsg1724
S'Cell[2].axon[143]'
p1735
sI141
I112
tp1736
a(F2.298084452700266
S'Cell[2].dend[36] syn_ = new FastInhib(0.3)'
p1737
I2
(dp1738
g1709
F0.7
sg1710
F45.0
sg1711
I141
sg1712
g7
(g8
(I0
tp1739
g10
tp1740
Rp1741
(I1
(I3
tp1742
g1719
I00
S"4\xc8\xd9B'\x8a\\\xc0\xba\x07U\x06\xff\xf2L\xc0\xbe\xfd\x94(\xd5\xa54\xc0"
p1743
tp1744
bsg1724
S'Cell[2].axon[238]'
p1745
sI141
I112
tp1746
a(F2.2118885871719396
S'Cell[2].dend[10] syn_ = new FastInhib(0.214285714286)'
p1747
I2
(dp1748
g1709
F0.5
sg1710
F45.0
sg1711
I141
sg1712
g7
(g8
(I0
tp1749
g10
tp1750
Rp1751
(I1
(I3
tp1752
g1719
I00
S'\x00\x00\x00\x00\x00\xe0K@\x00\x00\x00\xf0QxH@\x00\x00\x00\x90\xc2\x85F\xc0'
p1753
tp1754
bsg1724
S'Cell[2].axon[316]'
p1755
sI141
I112
tp1756
a(F1.6482822206579517
S'Cell[2].dend[1] syn_ = new FastInhib(0.5)'
p1757
I2
(dp1758
g1709
F0.5
sg1710
F45.0
sg1711
I141
sg1712
g7
(g8
(I0
tp1759
g10
tp1760
Rp1761
(I1
(I3
tp1762
g1719
I00
S'\xd1\x18#1\xed\x084@\xee:\x8b\xae\x90\xe3\x14\xc0]%O\xab\n/*\xc0'
p1763
tp1764
bsg1724
S'Cell[2].axon[472]'
p1765
sI141
I112
tp1766
a(F1.3908250134931728
S'Cell[1].dend[41] syn_ = new ExpSid(0.785714285714)'
p1767
I1
(dp1768
g1709
F0.5
sg1710
F45.0
sg1711
I141
sg1712
g7
(g8
(I0
tp1769
g10
tp1770
Rp1771
(I1
(I3
tp1772
g1719
I00
S'\xdd\xf2\xb6[\xe6\x94L@$\xd0D\xf9\xbbR\xf9\xbf\x00\x00\x00@\n\xd7!\xc0'
p1773
tp1774
bsg1724
S'Cell[2].axon[477]'
p1775
sI141
I64
tp1776
a(F1.3543691025078586
S'Cell[3].dend[24] syn_ = new FastInhib(0.833333333333)'
p1777
I3
(dp1778
g1709
F0.16666666666666666
sg1710
F45.0
sg1711
I141
sg1712
g7
(g8
(I0
tp1779
g10
tp1780
Rp1781
(I1
(I3
tp1782
g1719
I00
S'H\xb0N\x13\x19\xfbA\xc0"\xcd|\xac\x10\xc4\x1b@\xf0\xf5\x01\n\x01\x1e0@'
p1783
tp1784
bsg1724
S'Cell[2].axon[522]'
p1785
sI141
I160
tp1786
a(F2.3408422020190236
S'Cell[0].dend[65] syn_ = new ExpSid(0.1)'
p1787
I0
(dp1788
g1709
F0.5
sg1710
F45.0
sg1711
I189
sg1712
g7
(g8
(I0
tp1789
g10
tp1790
Rp1791
(I1
(I3
tp1792
g1719
I00
S'\x00\x00\x00\x80\xc2\xf5\x04@\x00\x00\x00\xa0\x99\xb9C\xc0\x00\x00\x00\xe0\xa3p&@'
p1793
tp1794
bsg1724
S'Cell[3].soma[0]'
p1795
sI189
I16
tp1796
a(F2.081401223185298
S'Cell[0].apic[71] syn_ = new AmpaNmda(0.5)'
p1797
I0
(dp1798
S'seg'
p1799
F0.16666666666666666
sS'hostfrom'
p1800
F46.0
sS'gid'
p1801
I94
sS'coords'
p1802
g7
(g8
(I0
tp1803
g10
tp1804
Rp1805
(I1
(I3
tp1806
g14
(S'f8'
p1807
I0
I1
tp1808
Rp1809
(I3
S'<'
p1810
NNNI-1
I-1
I0
tp1811
bI00
S'\x18Cn\xe9TYB\xc0Q\xe0\xa9w\xe0\x8cZ@\x14\xd3\xedo\xb1\x0c\xe0\xbf'
p1812
tp1813
bsS'secnames'
p1814
S'Cell[1].axon[319]'
p1815
sI94
I16
tp1816
a(F2.3369534905612546
S'Cell[2].dend[7] syn_ = new FastInhib(0.9)'
p1817
I2
(dp1818
g1799
F0.7
sg1800
F46.0
sg1801
I142
sg1802
g7
(g8
(I0
tp1819
g10
tp1820
Rp1821
(I1
(I3
tp1822
g1809
I00
S'\xd5\xa1\xc9\xdd\xe8\x1ea@\xf7\xc1\x98\x80\x80\xbbY@<F\xb07,\xb5D\xc0'
p1823
tp1824
bsg1814
S'Cell[2].axon[33]'
p1825
sI142
I112
tp1826
a(F1.0922055239714812
S'Cell[2].dend[10] syn_ = new FastInhib(0.214285714286)'
p1827
I2
(dp1828
S'seg'
p1829
F0.5
sS'hostfrom'
p1830
F47.0
sS'gid'
p1831
I95
sS'coords'
p1832
g7
(g8
(I0
tp1833
g10
tp1834
Rp1835
(I1
(I3
tp1836
g14
(S'f8'
p1837
I0
I1
tp1838
Rp1839
(I3
S'<'
p1840
NNNI-1
I-1
I0
tp1841
bI00
S'\xae\xc9^\xb7C7K@\xca)\xc3r\xf6:I@:\x97dk\xd7\xc8F\xc0'
p1842
tp1843
bsS'secnames'
p1844
S'Cell[1].axon[209]'
p1845
sI95
I112
tp1846
a(F2.214693589510392
S'Cell[2].dend[3] syn_ = new FastInhib(0.7)'
p1847
I2
(dp1848
g1829
F0.16666666666666666
sg1830
F47.0
sg1831
I95
sg1832
g7
(g8
(I0
tp1849
g10
tp1850
Rp1851
(I1
(I3
tp1852
g1839
I00
S'\x1e\xc0?\xd1\xfb}D@\xb0L\x9d\x1a\xa6/Z\xc0\x00\x00\x00 \xae\x87C\xc0'
p1853
tp1854
bsg1844
S'Cell[1].axon[229]'
p1855
sI95
I112
tp1856
a(F1.7503664122646716
S'Cell[1].dend[40] syn_ = new ExpSid(0.5)'
p1857
I1
(dp1858
g1829
F0.5
sg1830
F47.0
sg1831
I143
sg1832
g7
(g8
(I0
tp1859
g10
tp1860
Rp1861
(I1
(I3
tp1862
g1839
I00
S'\\|j\xd9\xfb\xcdF@\xa32"\xfb\xcb"P@\x00\x00\x00\x00\x00\x00(@'
p1863
tp1864
bsg1844
S'Cell[2].axon[90]'
p1865
sI143
I64
tp1866
a(F1.3691200357624704
S'Cell[0].apic[78] syn_ = new ExpSid(0.5)'
p1867
I0
(dp1868
g1829
F0.5
sg1830
F47.0
sg1831
I143
sg1832
g7
(g8
(I0
tp1869
g10
tp1870
Rp1871
(I1
(I3
tp1872
g1839
I00
S'\x1c?#\xaf\x0f\xc19\xc0y\xe4\xe9\x834\x0bU@h\xddtl \xe2\xf8?'
p1873
tp1874
bsg1844
S'Cell[2].axon[99]'
p1875
sI143
I16
tp1876
a(F2.3179399180424802
S'Cell[0].apic[79] syn_ = new ExpSid(0.5)'
p1877
I0
g1868
I143
I16
tp1878
a.