(lp0
(F2.360014479701582
S'Cell[3].dend[37] syn_ = new FastInhib(0.5)'
p1
I3
(dp2
S'seg'
p3
F0.5
sS'hostfrom'
p4
F1.0
sS'gid'
p5
I97
sS'coords'
p6
cnumpy.core.multiarray
_reconstruct
p7
(cnumpy
ndarray
p8
(I0
tp9
S'b'
p10
tp11
Rp12
(I1
(I3
tp13
cnumpy
dtype
p14
(S'f8'
p15
I0
I1
tp16
Rp17
(I3
S'<'
p18
NNNI-1
I-1
I0
tp19
bI00
S'\xa4\xde\xc2\x02D\xb4\x11@\xee\xdf\xcf\x0b\x92<>@\x8cL\xb0\xeb\x94:\x17\xc0'
p20
tp21
bsS'secnames'
p22
S'Cell[2].axon[3]'
p23
sI97
I176
tp24
a(F1.5135220188946623
S'Cell[3].dend[52] syn_ = new FastInhib(0.3)'
p25
I3
(dp26
g3
F0.7
sg4
F1.0
sg5
I97
sg6
g7
(g8
(I0
tp27
g10
tp28
Rp29
(I1
(I3
tp30
g17
I00
S'\x9c\x11\xa4q&jD@BW\xb9\\\xdcgU\xc0\xdc\xeaJz\xb7D\xfd?'
p31
tp32
bsg22
S'Cell[2].axon[107]'
p33
sI97
I176
tp34
a(F2.3124457297865626
S'Cell[3].dend[9] syn_ = new FastInhib(0.928571428571)'
p35
I3
(dp36
S'seg'
p37
F0.16666666666666666
sS'hostfrom'
p38
F2.0
sS'gid'
p39
I98
sS'coords'
p40
g7
(g8
(I0
tp41
g10
tp42
Rp43
(I1
(I3
tp44
g14
(S'f8'
p45
I0
I1
tp46
Rp47
(I3
S'<'
p48
NNNI-1
I-1
I0
tp49
bI00
S'\xc6\xf0\xafo\x80Md@\x00\x00\x00\xe0\xa30^@;\xad\xd3\xaa\xe4\x06*\xc0'
p50
tp51
bsS'secnames'
p52
S'Cell[2].axon[103]'
p53
sI98
I176
tp54
a(F1.7653448723957388
S'Cell[0].dend[1] syn_ = new AmpaNmda(0.5)'
p55
I0
(dp56
g37
F0.1
sg38
F2.0
sg39
I98
sg40
g7
(g8
(I0
tp57
g10
tp58
Rp59
(I1
(I3
tp60
g47
I00
S'W\xdd\xba\xd3g2<@\xa0\r\xf8O\xddQA@\x86\xa4\xe1\x04\x84\xf5<\xc0'
p61
tp62
bsg52
S'Cell[2].axon[427]'
p63
sI98
I32
tp64
a(F2.3124457297865626
S'Cell[3].dend[9] syn_ = new FastInhib(0.928571428571)'
p65
I3
(dp66
S'seg'
p67
F0.16666666666666666
sS'hostfrom'
p68
F3.0
sS'gid'
p69
I99
sS'coords'
p70
g7
(g8
(I0
tp71
g10
tp72
Rp73
(I1
(I3
tp74
g14
(S'f8'
p75
I0
I1
tp76
Rp77
(I3
S'<'
p78
NNNI-1
I-1
I0
tp79
bI00
S'\xc6\xf0\xafo\x80Md@\x00\x00\x00\xe0\xa30^@;\xad\xd3\xaa\xe4\x06*\xc0'
p80
tp81
bsS'secnames'
p82
S'Cell[2].axon[103]'
p83
sI99
I176
tp84
a(F1.7653448723957388
S'Cell[0].dend[1] syn_ = new ExpSid(0.5)'
p85
I0
(dp86
g67
F0.1
sg68
F3.0
sg69
I99
sg70
g7
(g8
(I0
tp87
g10
tp88
Rp89
(I1
(I3
tp90
g77
I00
S'W\xdd\xba\xd3g2<@\xa0\r\xf8O\xddQA@\x86\xa4\xe1\x04\x84\xf5<\xc0'
p91
tp92
bsg82
S'Cell[2].axon[427]'
p93
sI99
I32
tp94
a(F2.1349829102390228
S'Cell[3].dend[12] syn_ = new FastInhib(0.5)'
p95
I3
(dp96
S'seg'
p97
F0.8333333333333333
sS'hostfrom'
p98
F4.0
sS'gid'
p99
I148
sS'coords'
p100
g7
(g8
(I0
tp101
g10
tp102
Rp103
(I1
(I3
tp104
g14
(S'f8'
p105
I0
I1
tp106
Rp107
(I3
S'<'
p108
NNNI-1
I-1
I0
tp109
bI00
S'\xc2\x0b\xca\xda\xf8_M@N\xbc\xaf\x01\xa5BV\xc0;JB\x8d\xf3\xb5!\xc0'
p110
tp111
bsS'secnames'
p112
S'Cell[3].axon[175]'
p113
sI148
I176
tp114
a(F2.1528655810778914
S'Cell[3].dend[28] syn_ = new FastInhib(0.166666666667)'
p115
I3
(dp116
g97
F0.16666666666666666
sg98
F4.0
sg99
I100
sg100
g7
(g8
(I0
tp117
g10
tp118
Rp119
(I1
(I3
tp120
g107
I00
S'c\xd0}\x9a*\x9f8@\xa5\xb6V3\xbb\x04D\xc0u\xc7\xc5o\xa1\xbe&\xc0'
p121
tp122
bsg112
S'Cell[2].axon[72]'
p123
sI100
I176
tp124
a(F1.9938075437937313
S'Cell[3].dend[35] syn_ = new FastInhib(0.166666666667)'
p125
I3
(dp126
g97
F0.8333333333333333
sg98
F4.0
sg99
I100
sg100
g7
(g8
(I0
tp127
g10
tp128
Rp129
(I1
(I3
tp130
g107
I00
S'\xf0\xc6"\x9e$\x7f;@p\xbf\x94\xfb\xb2\xc63\xc0\xee!\x05\xfb\x9a}0\xc0'
p131
tp132
bsg112
S'Cell[2].axon[72]'
p133
sI100
I176
tp134
a(F1.297638958131069
S'Cell[3].dend[33] syn_ = new FastInhib(0.5)'
p135
I3
(dp136
g97
F0.16666666666666666
sg98
F4.0
sg99
I100
sg100
g7
(g8
(I0
tp137
g10
tp138
Rp139
(I1
(I3
tp140
g107
I00
S'\x00\x00\x00\xe0P\xb8\x16\xc0z\xd5Q\x95\x80\xf7A\xc0\x90\x87\xc2\x94\xe9j!\xc0'
p141
tp142
bsg112
S'Cell[2].axon[116]'
p143
sI100
I176
tp144
a(F2.081118187572428
S'Cell[0].dend[5] syn_ = new ExpSid(0.5)'
p145
I0
(dp146
S'seg'
p147
F0.5
sS'hostfrom'
p148
F5.0
sS'gid'
p149
I149
sS'coords'
p150
g7
(g8
(I0
tp151
g10
tp152
Rp153
(I1
(I3
tp154
g14
(S'f8'
p155
I0
I1
tp156
Rp157
(I3
S'<'
p158
NNNI-1
I-1
I0
tp159
bI00
S'\xea\x93\x12a\x8e[4\xc0\x00\xdb\x9c\x04\x90=;@\xc6\x17\xe3\xe7\x8f\x84\x14@'
p160
tp161
bsS'secnames'
p162
S'Cell[3].axon[13]'
p163
sI149
I32
tp164
a(F2.4491432496970478
S'Cell[0].apic[1] syn_ = new ExpSid(0.5)'
p165
I0
(dp166
g147
F0.045454545454545456
sg148
F5.0
sg149
I5
sg150
g7
(g8
(I0
tp167
g10
tp168
Rp169
(I1
(I3
tp170
g157
I00
S'\xdd9\x8b\xf6\x10uF@W\xad\xd7@O\xb0S@\x00\x00\x00\xc0\x1e\x85\xf7\xbf'
p171
tp172
bsg162
S'Cell[0].axon[70]'
p173
sI5
I32
tp174
a(F2.278983293539281
S'Cell[0].dend[20] syn_ = new AmpaNmda(0.7)'
p175
I0
(dp176
S'seg'
p177
F0.7
sS'hostfrom'
p178
F6.0
sS'gid'
p179
I150
sS'coords'
p180
g7
(g8
(I0
tp181
g10
tp182
Rp183
(I1
(I3
tp184
g14
(S'f8'
p185
I0
I1
tp186
Rp187
(I3
S'<'
p188
NNNI-1
I-1
I0
tp189
bI00
S'\xcf\x83\xa5o\xdb|d@\x1csTI\xa4\xaaP@\x00\x00\x00\x80\x14\xee>\xc0'
p190
tp191
bsS'secnames'
p192
S'Cell[3].axon[25]'
p193
sI150
I32
tp194
a(F1.8488278969291527
S'Cell[3].dend[29] syn_ = new FastInhib(0.166666666667)'
p195
I3
(dp196
S'seg'
p197
F0.8999999999999999
sS'hostfrom'
p198
F7.0
sS'gid'
p199
I103
sS'coords'
p200
g7
(g8
(I0
tp201
g10
tp202
Rp203
(I1
(I3
tp204
g14
(S'f8'
p205
I0
I1
tp206
Rp207
(I3
S'<'
p208
NNNI-1
I-1
I0
tp209
bI00
S'\xd9A\x02p\xd4\xe9\xf2\xbf^\xa1Y\x98\xa0\x90G\xc0x\xd0\xa4\xc4X\x13,\xc0'
p210
tp211
bsS'secnames'
p212
S'Cell[2].axon[39]'
p213
sI103
I176
tp214
a(F2.3519206948343236
S'Cell[3].dend[32] syn_ = new FastInhib(0.5)'
p215
I3
(dp216
g197
F0.16666666666666666
sg198
F7.0
sg199
I151
sg200
g7
(g8
(I0
tp217
g10
tp218
Rp219
(I1
(I3
tp220
g207
I00
S'\xb6\xa17g\xf8\x93\xfe?"g~\xec2\xcbE\xc0\xaeRf\xbb{\x04&\xc0'
p221
tp222
bsg212
S'Cell[3].axon[217]'
p223
sI151
I176
tp224
a(F2.213187694270332
S'Cell[3].dend[3] syn_ = new FastInhib(0.166666666667)'
p225
I3
(dp226
S'seg'
p227
F0.5
sS'hostfrom'
p228
F8.0
sS'gid'
p229
I104
sS'coords'
p230
g7
(g8
(I0
tp231
g10
tp232
Rp233
(I1
(I3
tp234
g14
(S'f8'
p235
I0
I1
tp236
Rp237
(I3
S'<'
p238
NNNI-1
I-1
I0
tp239
bI00
S'\x00\x00\x00 \x85\xbbN@\x00\x00\x00P\xe1z\x11\xc0\x00\x00\x00@\n\xd7\x1f@'
p240
tp241
bsS'secnames'
p242
S'Cell[2].axon[297]'
p243
sI104
I176
tp244
a(F1.9596950152229016
S'Cell[3].dend[22] syn_ = new FastInhib(0.166666666667)'
p245
I3
(dp246
S'seg'
p247
F0.5
sS'hostfrom'
p248
F9.0
sS'gid'
p249
I153
sS'coords'
p250
g7
(g8
(I0
tp251
g10
tp252
Rp253
(I1
(I3
tp254
g14
(S'f8'
p255
I0
I1
tp256
Rp257
(I3
S'<'
p258
NNNI-1
I-1
I0
tp259
bI00
S'\xeb\x94\x1e\x0e@\xf5L@\xde\xf4\xba\xa3\xcfrK\xc0\x8ey\xa1(\x8e\x05!\xc0'
p260
tp261
bsS'secnames'
p262
S'Cell[3].axon[13]'
p263
sI153
I176
tp264
a(F2.326420047354389
S'Cell[3].dend[0] syn_ = new FastInhib(0.5)'
p265
I3
(dp266
g247
F0.16666666666666666
sg248
F9.0
sg249
I153
sg250
g7
(g8
(I0
tp267
g10
tp268
Rp269
(I1
(I3
tp270
g257
I00
S"F\xe9>F\xcfeM@\xd0'\x9bnv\xbb9@\xbb\x12\xef^\xbf\xfc$@"
p271
tp272
bsg262
S'Cell[3].axon[54]'
p273
sI153
I176
tp274
a(F1.898111685791413
S'Cell[0].dend[12] syn_ = new ExpSid(0.5)'
p275
I0
(dp276
g247
F0.5
sg248
F9.0
sg249
I153
sg250
g7
(g8
(I0
tp277
g10
tp278
Rp279
(I1
(I3
tp280
g257
I00
S'0\xcb\xca\xce\xc8\x86P@\xb3\x89\x98V:\xf4@@\xe1\x1ca\x94\xb6\x8c$@'
p281
tp282
bsg262
S'Cell[3].axon[118]'
p283
sI153
I32
tp284
a(F2.374421758934887
S'Cell[3].dend[28] syn_ = new FastInhib(0.5)'
p285
I3
(dp286
g247
F0.16666666666666666
sg248
F9.0
sg249
I9
sg250
g7
(g8
(I0
tp287
g10
tp288
Rp289
(I1
(I3
tp290
g257
I00
S'\xbaT\x99\x14\xbdg3@\xefk\xcd\xd7\x8cwH\xc0\xa4\x13R\x8e\xf2r*\xc0'
p291
tp292
bsg262
S'Cell[0].axon[20]'
p293
sI9
I176
tp294
a(F2.4845946444792526
S'Cell[3].dend[27] syn_ = new FastInhib(0.214285714286)'
p295
I3
(dp296
g247
F0.5
sg248
F9.0
sg249
I105
sg250
g7
(g8
(I0
tp297
g10
tp298
Rp299
(I1
(I3
tp300
g257
I00
S'\x90\xfd[\xa2\xe3u&@\x8fm\xef\x90;\xd2S\xc0.\xc4R\xf9K\xab1\xc0'
p301
tp302
bsg262
S'Cell[2].axon[1]'
p303
sI105
I176
tp304
a(F0.9752339660623957
S'Cell[3].dend[20] syn_ = new FastInhib(0.1)'
p305
I3
(dp306
S'seg'
p307
F0.5
sS'hostfrom'
p308
F10.0
sS'gid'
p309
I106
sS'coords'
p310
g7
(g8
(I0
tp311
g10
tp312
Rp313
(I1
(I3
tp314
g14
(S'f8'
p315
I0
I1
tp316
Rp317
(I3
S'<'
p318
NNNI-1
I-1
I0
tp319
bI00
S'\xf0\x1bo\xc13\x9dL@}\xbb\xc2\xcc\x17=Q\xc0\x00\x00\x00\xa0Ga!\xc0'
p320
tp321
bsS'secnames'
p322
S'Cell[2].axon[166]'
p323
sI106
I176
tp324
a(F2.338085878026181
S'Cell[3].dend[38] syn_ = new FastInhib(0.833333333333)'
p325
I3
(dp326
g307
F0.5
sg308
F10.0
sg309
I106
sg310
g7
(g8
(I0
tp327
g10
tp328
Rp329
(I1
(I3
tp330
g317
I00
S'\x8d(\xe3mB\xdc)\xc0l\xc3\xef\x9bX\xb76\xc0\x00\x00\x00\x00)\\(@'
p331
tp332
bsg322
S'Cell[2].axon[175]'
p333
sI106
I176
tp334
a(F2.1271423324364886
S'Cell[3].dend[29] syn_ = new FastInhib(0.833333333333)'
p335
I3
(dp336
g307
F0.5
sg308
F10.0
sg309
I106
sg310
g7
(g8
(I0
tp337
g10
tp338
Rp339
(I1
(I3
tp340
g317
I00
S'$\x11/J\xb6\x7f2\xc0\xf3~\xc1\x1c:\x08F\xc0\xd6\x94\xfa\xad\x1a\r6\xc0'
p341
tp342
bsg322
S'Cell[2].axon[263]'
p343
sI106
I176
tp344
a(F2.3192501238304986
S'Cell[3].dend[54] syn_ = new FastInhib(0.5)'
p345
I3
(dp346
S'seg'
p347
F0.5
sS'hostfrom'
p348
F14.0
sS'gid'
p349
I110
sS'coords'
p350
g7
(g8
(I0
tp351
g10
tp352
Rp353
(I1
(I3
tp354
g14
(S'f8'
p355
I0
I1
tp356
Rp357
(I3
S'<'
p358
NNNI-1
I-1
I0
tp359
bI00
S'\x08\x06\x8dC\xc7UP@\xc3\x0e\xa65k\xa1>\xc0\x00\x00\x00\x00)\xdc4@'
p360
tp361
bsS'secnames'
p362
S'Cell[2].axon[96]'
p363
sI110
I176
tp364
a(F1.474441076306499
S'Cell[3].dend[36] syn_ = new FastInhib(0.5)'
p365
I3
(dp366
S'seg'
p367
F0.5
sS'hostfrom'
p368
F16.0
sS'gid'
p369
I64
sS'coords'
p370
g7
(g8
(I0
tp371
g10
tp372
Rp373
(I1
(I3
tp374
g14
(S'f8'
p375
I0
I1
tp376
Rp377
(I3
S'<'
p378
NNNI-1
I-1
I0
tp379
bI00
S'I1\x9e\xd6\x83G@@\xdc\x8f\xad\xfcz?*\xc0\x00\x00\x00 \xaeG\x10@'
p380
tp381
bsS'secnames'
p382
S'Cell[1].axon[10]'
p383
sI64
I176
tp384
a(F1.852139475869774
S'Cell[3].dend[17] syn_ = new FastInhib(0.7)'
p385
I3
(dp386
S'seg'
p387
F0.5
sS'hostfrom'
p388
F17.0
sS'gid'
p389
I113
sS'coords'
p390
g7
(g8
(I0
tp391
g10
tp392
Rp393
(I1
(I3
tp394
g14
(S'f8'
p395
I0
I1
tp396
Rp397
(I3
S'<'
p398
NNNI-1
I-1
I0
tp399
bI00
S'\x7f\xefP\x9ar\x86\xcd\xbf\xd5~EX?\xaf\\\xc0\xa3\xc5\x0e\xa9\xa7Q\xfd\xbf'
p400
tp401
bsS'secnames'
p402
S'Cell[2].axon[78]'
p403
sI113
I176
tp404
a(F1.1649577771329163
S'Cell[3].dend[52] syn_ = new FastInhib(0.3)'
p405
I3
(dp406
g387
F0.16666666666666666
sg388
F17.0
sg389
I113
sg390
g7
(g8
(I0
tp407
g10
tp408
Rp409
(I1
(I3
tp410
g397
I00
S'\x04y\xfezEyD@\xf8[t\xc2<\xf3T\xc0\x08\xf4X\x0e\x92G\xa0\xbf'
p411
tp412
bsg402
S'Cell[2].axon[123]'
p413
sI113
I176
tp414
a(F1.4997310454261552
S'Cell[3].dend[50] syn_ = new FastInhib(0.5)'
p415
I3
(dp416
g387
F0.5
sg388
F17.0
sg389
I113
sg390
g7
(g8
(I0
tp417
g10
tp418
Rp419
(I1
(I3
tp420
g397
I00
S"\x00\x00\x00\xc0\x1e\x05%@\x00\x00\x00\x90\xc2\xc5\\\xc0\x00\x00\x00\x80=\x8a'@"
p421
tp422
bsg402
S'Cell[2].axon[556]'
p423
sI113
I176
tp424
a(F2.2560307272211686
S'Cell[3].dend[52] syn_ = new FastInhib(0.7)'
p425
I3
(dp426
g387
F0.5
sg388
F17.0
sg389
I113
sg390
g7
(g8
(I0
tp427
g10
tp428
Rp429
(I1
(I3
tp430
g397
I00
S"\xb1-&]\xce\x92G@\xd4\xb2\x89\xbfY\xe5]\xc0\x00\x00\x00\x80\x14.'@"
p431
tp432
bsg402
S'Cell[2].axon[560]'
p433
sI113
I176
tp434
a(F1.786239985475104
S'Cell[3].dend[17] syn_ = new FastInhib(0.3)'
p435
I3
(dp436
g387
F0.16666666666666666
sg388
F17.0
sg389
I113
sg390
g7
(g8
(I0
tp437
g10
tp438
Rp439
(I1
(I3
tp440
g397
I00
S'\xae\x8e\xaf\x06246@\xcb\x0eU\x1f)VS\xc0\xcen\xa4X\xe7\x1c\x02\xc0'
p441
tp442
bsg402
S'Cell[2].axon[606]'
p443
sI113
I176
tp444
a(F2.2628714930699663
S'Cell[3].dend[34] syn_ = new FastInhib(0.5)'
p445
I3
(dp446
S'seg'
p447
F0.5
sS'hostfrom'
p448
F18.0
sS'gid'
p449
I18
sS'coords'
p450
g7
(g8
(I0
tp451
g10
tp452
Rp453
(I1
(I3
tp454
g14
(S'f8'
p455
I0
I1
tp456
Rp457
(I3
S'<'
p458
NNNI-1
I-1
I0
tp459
bI00
S"@\x98\xfb\xb9~%'\xc0\xde\xdfP`\x9c\xb1B\xc0\x00\x00\x00\x80\xebQ%\xc0"
p460
tp461
bsS'secnames'
p462
S'Cell[0].axon[0]'
p463
sI18
I176
tp464
a(F1.1762087921959683
S'Cell[3].dend[19] syn_ = new FastInhib(0.5)'
p465
I3
(dp466
g447
F0.8999999999999999
sg448
F18.0
sg449
I114
sg450
g7
(g8
(I0
tp467
g10
tp468
Rp469
(I1
(I3
tp470
g457
I00
S'H\x84\xc0G^\xebF@u\xbe\xb7\xdf\x08\xbfL\xc0%\xe6\x03\xfc\xf3\xb5\x1a\xc0'
p471
tp472
bsg462
S'Cell[2].axon[174]'
p473
sI114
I176
tp474
a(F2.4478946307908447
S'Cell[3].dend[37] syn_ = new FastInhib(0.9)'
p475
I3
(dp476
S'seg'
p477
F0.7
sS'hostfrom'
p478
F19.0
sS'gid'
p479
I115
sS'coords'
p480
g7
(g8
(I0
tp481
g10
tp482
Rp483
(I1
(I3
tp484
g14
(S'f8'
p485
I0
I1
tp486
Rp487
(I3
S'<'
p488
NNNI-1
I-1
I0
tp489
bI00
S'^T\xf8\xf5\xe0\x95\x15\xc0\xcf\x8b\xfd\xabM\x0fN@\x8e\x19/\x04h\x1b\xfe\xbf'
p490
tp491
bsS'secnames'
p492
S'Cell[2].axon[77]'
p493
sI115
I176
tp494
a(F0.2090372548911347
S'Cell[3].dend[12] syn_ = new FastInhib(0.5)'
p495
I3
(dp496
S'seg'
p497
F0.07142857142857142
sS'hostfrom'
p498
F21.0
sS'gid'
p499
I165
sS'coords'
p500
g7
(g8
(I0
tp501
g10
tp502
Rp503
(I1
(I3
tp504
g14
(S'f8'
p505
I0
I1
tp506
Rp507
(I3
S'<'
p508
NNNI-1
I-1
I0
tp509
bI00
S'\xb6h\x1ci\x7f\xceL@8\xff\xfc\x0e)\xa1V\xc0\xc2\xd1\x92*\xe7\xb9#\xc0'
p510
tp511
bsS'secnames'
p512
S'Cell[3].axon[42]'
p513
sI165
I176
tp514
a(F1.1154730731056608
S'Cell[3].dend[37] syn_ = new FastInhib(0.1)'
p515
I3
(dp516
g497
F0.5
sg498
F21.0
sg499
I165
sg500
g7
(g8
(I0
tp517
g10
tp518
Rp519
(I1
(I3
tp520
g507
I00
S'kkt\xcc\x88Q7@b}\xd9M\xf7\xd9\xe3\xbf\x0b\rk\xb7\x84*\xf1\xbf'
p521
tp522
bsg512
S'Cell[3].axon[68]'
p523
sI165
I176
tp524
a(F1.6788208413851546
S'Cell[3].dend[56] syn_ = new FastInhib(0.5)'
p525
I3
(dp526
S'seg'
p527
F0.5
sS'hostfrom'
p528
F22.0
sS'gid'
p529
I118
sS'coords'
p530
g7
(g8
(I0
tp531
g10
tp532
Rp533
(I1
(I3
tp534
g14
(S'f8'
p535
I0
I1
tp536
Rp537
(I3
S'<'
p538
NNNI-1
I-1
I0
tp539
bI00
S'vK\xeb\xd4naQ@l\x8b54\nAQ\xc0>O\xd9\xa5}\x874@'
p540
tp541
bsS'secnames'
p542
S'Cell[2].axon[22]'
p543
sI118
I176
tp544
a(F2.473822450727815
S'Cell[2].dend[14] syn_ = new FastInhib(0.409090909091)'
p545
I2
(dp546
g527
F0.5
sg528
F22.0
sg529
I118
sg530
g7
(g8
(I0
tp547
g10
tp548
Rp549
(I1
(I3
tp550
g537
I00
S'\x00\x00\x00 \xae\x17i@\x00\x00\x00\xa0G\x89b\xc0L\xd9\xc1\x10\xb7\xfeM\xc0'
p551
tp552
bsg542
S'Cell[2].axon[372]'
p553
sI118
I128
tp554
a(F2.022101748168477
S'Cell[2].dend[15] syn_ = new FastInhib(0.5)'
p555
I2
(dp556
g527
F0.8333333333333333
sg528
F22.0
sg529
I118
sg530
g7
(g8
(I0
tp557
g10
tp558
Rp559
(I1
(I3
tp560
g537
I00
S"\x84\xd1\x15\xec\x00\x0ek@.\xd5\xa5\x18\xf1\\U\xc0\x1e \xc9'\xc1\x01E\xc0"
p561
tp562
bsg542
S'Cell[2].axon[377]'
p563
sI118
I128
tp564
a(F2.0517082218311606
S'Cell[3].dend[52] syn_ = new FastInhib(0.9)'
p565
I3
(dp566
S'seg'
p567
F0.8333333333333333
sS'hostfrom'
p568
F24.0
sS'gid'
p569
I72
sS'coords'
p570
g7
(g8
(I0
tp571
g10
tp572
Rp573
(I1
(I3
tp574
g14
(S'f8'
p575
I0
I1
tp576
Rp577
(I3
S'<'
p578
NNNI-1
I-1
I0
tp579
bI00
S'BB\x99\x8ehkF@\x9e\xcb~\x8d\xf6\xe9a\xc0\x00\x00\x00`f\xe6&@'
p580
tp581
bsS'secnames'
p582
S'Cell[1].axon[39]'
p583
sI72
I176
tp584
a(F2.091372927856134
S'Cell[3].dend[50] syn_ = new FastInhib(0.5)'
p585
I3
(dp586
g567
F0.5
sg568
F24.0
sg569
I120
sg570
g7
(g8
(I0
tp587
g10
tp588
Rp589
(I1
(I3
tp590
g577
I00
S'\xb3^WNl9#@FG\xf4\xef#n\\\xc0y^\x1f\x15\xf5k(@'
p591
tp592
bsg582
S'Cell[2].axon[108]'
p593
sI120
I176
tp594
a(F2.110866027695739
S'Cell[3].dend[15] syn_ = new FastInhib(0.7)'
p595
I3
(dp596
S'seg'
p597
F0.8333333333333333
sS'hostfrom'
p598
F25.0
sS'gid'
p599
I169
sS'coords'
p600
g7
(g8
(I0
tp601
g10
tp602
Rp603
(I1
(I3
tp604
g14
(S'f8'
p605
I0
I1
tp606
Rp607
(I3
S'<'
p608
NNNI-1
I-1
I0
tp609
bI00
S'\x1fs\x9c\x17\\O?\xc01\xf2\xb8)*\xadR\xc0\xc2\xa9z\xcb\xb6\x1e\x05@'
p610
tp611
bsS'secnames'
p612
S'Cell[3].axon[0]'
p613
sI169
I176
tp614
a(F2.1959096154646094
S'Cell[0].dend[4] syn_ = new ExpSid(0.5)'
p615
I0
(dp616
S'seg'
p617
F0.36666666666666664
sS'hostfrom'
p618
F27.0
sS'gid'
p619
I123
sS'coords'
p620
g7
(g8
(I0
tp621
g10
tp622
Rp623
(I1
(I3
tp624
g14
(S'f8'
p625
I0
I1
tp626
Rp627
(I3
S'<'
p628
NNNI-1
I-1
I0
tp629
bI00
S'#0\xed\x9f\x1e\r8@l,&\xe0\x06\xf8;@\xfb8\x0fN\x00\x925\xc0'
p630
tp631
bsS'secnames'
p632
S'Cell[2].axon[32]'
p633
sI123
I32
tp634
a(F2.4512324923075037
S'Cell[3].dend[17] syn_ = new FastInhib(0.5)'
p635
I3
(dp636
g617
F0.16666666666666666
sg618
F27.0
sg619
I123
sg620
g7
(g8
(I0
tp637
g10
tp638
Rp639
(I1
(I3
tp640
g627
I00
S"\xd2\xc3:'\x00?+@\x92m\xb0\xaaA\xf9W\xc0t\xe2\xb0j=[\x05\xc0"
p641
tp642
bsg632
S'Cell[2].axon[39]'
p643
sI123
I176
tp644
a(F1.381852151470805
S'Cell[3].dend[26] syn_ = new FastInhib(0.833333333333)'
p645
I3
(dp646
S'seg'
p647
F0.16666666666666666
sS'hostfrom'
p648
F30.0
sS'gid'
p649
I174
sS'coords'
p650
g7
(g8
(I0
tp651
g10
tp652
Rp653
(I1
(I3
tp654
g14
(S'f8'
p655
I0
I1
tp656
Rp657
(I3
S'<'
p658
NNNI-1
I-1
I0
tp659
bI00
S'\x88%\xed\x11~\xfb<\xc0\xce\xb5\xddq\xb1\x81F\xc0\xd5\xc9\xb3\x04\x0bb,\xc0'
p660
tp661
bsS'secnames'
p662
S'Cell[3].axon[363]'
p663
sI174
I176
tp664
a(F1.7537463074068314
S'Cell[0].apic[20] syn_ = new ExpSid(0.5)'
p665
I0
(dp666
S'seg'
p667
F0.8333333333333333
sS'hostfrom'
p668
F33.0
sS'gid'
p669
I129
sS'coords'
p670
g7
(g8
(I0
tp671
g10
tp672
Rp673
(I1
(I3
tp674
g14
(S'f8'
p675
I0
I1
tp676
Rp677
(I3
S'<'
p678
NNNI-1
I-1
I0
tp679
bI00
S'q\xed\xf5\x7f\x11W5\xc0\x17\xe69\x92\xf4\x93^@\xac\xb35\xa0\xb2\xcf1@'
p680
tp681
bsS'secnames'
p682
S'Cell[2].axon[74]'
p683
sI129
I32
tp684
a(F1.9971361608800198
S'Cell[3].dend[27] syn_ = new FastInhib(0.0714285714286)'
p685
I3
(dp686
g667
F0.16666666666666669
sg668
F33.0
sg669
I81
sg670
g7
(g8
(I0
tp687
g10
tp688
Rp689
(I1
(I3
tp690
g677
I00
S'\x9a;\xa5\x1c}L6@\xd6\x1ce\xc2E$K\xc0\x00\x00\x00\x00\xd7c3\xc0'
p691
tp692
bsg682
S'Cell[1].axon[74]'
p693
sI81
I176
tp694
a(F2.2504448823948917
S'Cell[3].dend[9] syn_ = new FastInhib(0.0714285714286)'
p695
I3
(dp696
S'seg'
p697
F0.8333333333333335
sS'hostfrom'
p698
F34.0
sS'gid'
p699
I82
sS'coords'
p700
g7
(g8
(I0
tp701
g10
tp702
Rp703
(I1
(I3
tp704
g14
(S'f8'
p705
I0
I1
tp706
Rp707
(I3
S'<'
p708
NNNI-1
I-1
I0
tp709
bI00
S'\x82\xc4l\xa2\xa1\xb3L@nP\xeb\x01\xbb}\x0c\xc0\x98\xf9z\xc2\x8cR&\xc0'
p710
tp711
bsS'secnames'
p712
S'Cell[1].axon[132]'
p713
sI82
I176
tp714
a(F2.2038291004339783
S'Cell[3].dend[4] syn_ = new FastInhib(0.5)'
p715
I3
(dp716
S'seg'
p717
F0.8333333333333333
sS'hostfrom'
p718
F35.0
sS'gid'
p719
I83
sS'coords'
p720
g7
(g8
(I0
tp721
g10
tp722
Rp723
(I1
(I3
tp724
g14
(S'f8'
p725
I0
I1
tp726
Rp727
(I3
S'<'
p728
NNNI-1
I-1
I0
tp729
bI00
S"\x96\xbe`\x13I\x86L@\x17\xe6\xc7G\xb9s.\xc0\xfc\r\xb0\xd2'\r!\xc0"
p730
tp731
bsS'secnames'
p732
S'Cell[1].axon[191]'
p733
sI83
I176
tp734
a(F2.4142012505514567
S'Cell[2].dend[30] syn_ = new FastInhib(0.166666666667)'
p735
I2
(dp736
g717
F0.5
sg718
F35.0
sg719
I131
sg720
g7
(g8
(I0
tp737
g10
tp738
Rp739
(I1
(I3
tp740
g727
I00
S'\x8cH>)\xe5\x8co@2"\xf9\x848\xa4D\xc0\xa0\xe8\x9aY\xc8\xc7J\xc0'
p741
tp742
bsg732
S'Cell[2].axon[228]'
p743
sI131
I128
tp744
a(F1.9058564396857023
S'Cell[0].apic[1] syn_ = new AmpaNmda(0.5)'
p745
I0
(dp746
S'seg'
p747
F0.5
sS'hostfrom'
p748
F36.0
sS'gid'
p749
I132
sS'coords'
p750
g7
(g8
(I0
tp751
g10
tp752
Rp753
(I1
(I3
tp754
g14
(S'f8'
p755
I0
I1
tp756
Rp757
(I3
S'<'
p758
NNNI-1
I-1
I0
tp759
bI00
S"\xa4'\xdf\xcb\x90OG@ \xaf\x87\xee\x027S@\xca\x95k\x83\xde\x9e\xd3\xbf"
p760
tp761
bsS'secnames'
p762
S'Cell[2].axon[62]'
p763
sI132
I32
tp764
a(F1.6208332051775642
S'Cell[3].dend[36] syn_ = new FastInhib(0.5)'
p765
I3
(dp766
g747
F0.5
sg748
F36.0
sg749
I180
sg750
g7
(g8
(I0
tp767
g10
tp768
Rp769
(I1
(I3
tp770
g757
I00
S'\x00\x00\x00@\n\xc7@@\x00\x00\x00\x90\xc2u&\xc0\x00\x00\x00|\x14\xae\n@'
p771
tp772
bsg762
S'Cell[3].axon[291]'
p773
sI180
I176
tp774
a(F1.6860129942854913
S'Cell[3].dend[15] syn_ = new FastInhib(0.3)'
p775
I3
(dp776
g747
F0.21428571428571427
sg748
F36.0
sg749
I36
sg750
g7
(g8
(I0
tp777
g10
tp778
Rp779
(I1
(I3
tp780
g757
I00
S'\xd3\\\xb92Q\xd2 @y\xca\xa3\xf3@\xe0K\xc0\x12\xb8R\x9c\xdb\xbd\xd2?'
p781
tp782
bsg762
S'Cell[0].axon[24]'
p783
sI36
I176
tp784
a(F1.4362056600987487
S'Cell[3].dend[28] syn_ = new FastInhib(0.833333333333)'
p785
I3
(dp786
S'seg'
p787
F0.5
sS'hostfrom'
p788
F37.0
sS'gid'
p789
I133
sS'coords'
p790
g7
(g8
(I0
tp791
g10
tp792
Rp793
(I1
(I3
tp794
g14
(S'f8'
p795
I0
I1
tp796
Rp797
(I3
S'<'
p798
NNNI-1
I-1
I0
tp799
bI00
S'6\x9b<\xd9\xcb\xce!@\x89\t`\xad\xb8\xbaG\xc0\x00\x00\x00\x00\x00\x80 \xc0'
p800
tp801
bsS'secnames'
p802
S'Cell[2].axon[103]'
p803
sI133
I176
tp804
a(F1.7961978585780276
S'Cell[3].dend[9] syn_ = new FastInhib(0.214285714286)'
p805
I3
(dp806
S'seg'
p807
F0.07142857142857142
sS'hostfrom'
p808
F38.0
sS'gid'
p809
I182
sS'coords'
p810
g7
(g8
(I0
tp811
g10
tp812
Rp813
(I1
(I3
tp814
g14
(S'f8'
p815
I0
I1
tp816
Rp817
(I3
S'<'
p818
NNNI-1
I-1
I0
tp819
bI00
S'F-\x8a\x1f<\x81S@\x86\xa7/tH\xd3,@b-\xf5\x10\xb0y0\xc0'
p820
tp821
bsS'secnames'
p822
S'Cell[3].axon[256]'
p823
sI182
I176
tp824
a(F2.4201975477969837
S'Cell[3].dend[37] syn_ = new FastInhib(0.3)'
p825
I3
(dp826
g807
F0.5
sg808
F38.0
sg809
I86
sg810
g7
(g8
(I0
tp827
g10
tp828
Rp829
(I1
(I3
tp830
g817
I00
S'\x00\x00\x00\xd0\xccL0@\x01\x00\x00\xe0Q8*@\x00\x00\x00 \\\x8f\x08\xc0'
p831
tp832
bsg822
S'Cell[1].soma[0]'
p833
sI86
I176
tp834
a(F2.124300259328322
S'Cell[2].dend[36] syn_ = new FastInhib(0.5)'
p835
I2
(dp836
g807
F0.1
sg808
F38.0
sg809
I86
sg810
g7
(g8
(I0
tp837
g10
tp838
Rp839
(I1
(I3
tp840
g817
I00
S'\x1a\r\xeb\xd8Y\x90d@W\x03jKF\xfcb\xc0Rv\xc7\xa3G\xb2F\xc0'
p841
tp842
bsg822
S'Cell[1].axon[170]'
p843
sI86
I128
tp844
a(F1.6265061438211283
S'Cell[3].dend[51] syn_ = new FastInhib(0.5)'
p845
I3
(dp846
g807
F0.5
sg808
F38.0
sg809
I134
sg810
g7
(g8
(I0
tp847
g10
tp848
Rp849
(I1
(I3
tp850
g817
I00
S'\x87B\xf0\xc9\xc3\x93<@\xbc\x0e\x0e\xc5\xd9;_\xc0\xf9.\xa4\xb1\x87\x9f2@'
p851
tp852
bsg822
S'Cell[2].axon[88]'
p853
sI134
I176
tp854
a(F1.945105506889667
S'Cell[0].dend[7] syn_ = new ExpSid(0.5)'
p855
I0
(dp856
S'seg'
p857
F0.5
sS'hostfrom'
p858
F39.0
sS'gid'
p859
I87
sS'coords'
p860
g7
(g8
(I0
tp861
g10
tp862
Rp863
(I1
(I3
tp864
g14
(S'f8'
p865
I0
I1
tp866
Rp867
(I3
S'<'
p868
NNNI-1
I-1
I0
tp869
bI00
S'@\xc7\xc2R{jE@\xe0.\x96\xac,I6@\x82\xb0\xe1\xbb\xfa\xb8\x16@'
p870
tp871
bsS'secnames'
p872
S'Cell[1].axon[82]'
p873
sI87
I32
tp874
a(F2.385194521582149
S'Cell[3].dend[17] syn_ = new FastInhib(0.1)'
p875
I3
(dp876
S'seg'
p877
F0.5
sS'hostfrom'
p878
F40.0
sS'gid'
p879
I40
sS'coords'
p880
g7
(g8
(I0
tp881
g10
tp882
Rp883
(I1
(I3
tp884
g14
(S'f8'
p885
I0
I1
tp886
Rp887
(I3
S'<'
p888
NNNI-1
I-1
I0
tp889
bI00
S'x\xee]\x81\xb6}A@\x95\xf9\x8f\x03\xd52K\xc0\x00\x00\x00\xc0\xcc\xcc\x08\xc0'
p890
tp891
bsS'secnames'
p892
S'Cell[0].axon[0]'
p893
sI40
I176
tp894
a(F2.195855265388569
S'Cell[0].apic[28] syn_ = new AmpaNmda(0.166666666667)'
p895
I0
(dp896
g877
F0.5
sg878
F40.0
sg879
I88
sg880
g7
(g8
(I0
tp897
g10
tp898
Rp899
(I1
(I3
tp900
g887
I00
S'\xa3C\x1a\xc8u\xfdA@L\x1e=\t\xee\nQ@\xc6\r\x03QpM\n\xc0'
p901
tp902
bsg892
S'Cell[1].axon[278]'
p903
sI88
I32
tp904
a(F2.2542922718178176
S'Cell[3].dend[9] syn_ = new FastInhib(0.214285714286)'
p905
I3
(dp906
S'seg'
p907
F0.7
sS'hostfrom'
p908
F41.0
sS'gid'
p909
I185
sS'coords'
p910
g7
(g8
(I0
tp911
g10
tp912
Rp913
(I1
(I3
tp914
g14
(S'f8'
p915
I0
I1
tp916
Rp917
(I3
S'<'
p918
NNNI-1
I-1
I0
tp919
bI00
S'63\\\x95\x98SS@\xc4Pg\xa0D\x8d/@\x00\x00\x00\x80\x14\xae*\xc0'
p920
tp921
bsS'secnames'
p922
S'Cell[3].axon[218]'
p923
sI185
I176
tp924
a(F1.91404407210964
S'Cell[3].dend[49] syn_ = new FastInhib(0.5)'
p925
I3
(dp926
g907
F0.7222222222222223
sg908
F41.0
sg909
I89
sg910
g7
(g8
(I0
tp927
g10
tp928
Rp929
(I1
(I3
tp930
g917
I00
S'\x94\x1e\xf4\xf9!\x9dC@\x8b\xdbe\xc3\xeeYQ\xc0\xccGCEl\x97%@'
p931
tp932
bsg922
S'Cell[1].axon[155]'
p933
sI89
I176
tp934
a(F2.165036952681681
S'Cell[3].dend[43] syn_ = new FastInhib(0.5)'
p935
I3
(dp936
S'seg'
p937
F0.5
sS'hostfrom'
p938
F42.0
sS'gid'
p939
I138
sS'coords'
p940
g7
(g8
(I0
tp941
g10
tp942
Rp943
(I1
(I3
tp944
g14
(S'f8'
p945
I0
I1
tp946
Rp947
(I3
S'<'
p948
NNNI-1
I-1
I0
tp949
bI00
S'1B\xd9\x1ds\x83#@ \xe7Fe\x12\\-@\xb4\xbf\xba\x84\xd2\x182@'
p950
tp951
bsS'secnames'
p952
S'Cell[2].axon[146]'
p953
sI138
I176
tp954
a(F2.2135821012219528
S'Cell[3].dend[35] syn_ = new FastInhib(0.166666666667)'
p955
I3
(dp956
S'seg'
p957
F0.5
sS'hostfrom'
p958
F43.0
sS'gid'
p959
I91
sS'coords'
p960
g7
(g8
(I0
tp961
g10
tp962
Rp963
(I1
(I3
tp964
g14
(S'f8'
p965
I0
I1
tp966
Rp967
(I3
S'<'
p968
NNNI-1
I-1
I0
tp969
bI00
S'\x88\xf7d\tp\xb8;@\x9d\xf8\x80q\xbfq5\xc0\x1a\x9el\x9b2\x19/\xc0'
p970
tp971
bsS'secnames'
p972
S'Cell[1].axon[381]'
p973
sI91
I176
tp974
a(F2.328034583118007
S'Cell[3].dend[42] syn_ = new FastInhib(0.5)'
p975
I3
(dp976
g957
F0.8333333333333333
sg958
F43.0
sg959
I91
sg960
g7
(g8
(I0
tp977
g10
tp978
Rp979
(I1
(I3
tp980
g967
I00
S'dN: \x06\xd58@x\xbd\xa9V{7*\xc0\x00\x00\x00\x80\xeb\xd1*@'
p981
tp982
bsg972
S'Cell[1].axon[435]'
p983
sI91
I176
tp984
a(F2.491053836320248
S'Cell[0].apic[22] syn_ = new ExpSid(0.1)'
p985
I0
(dp986
g957
F0.8333333333333333
sg958
F43.0
sg959
I91
sg960
g7
(g8
(I0
tp987
g10
tp988
Rp989
(I1
(I3
tp990
g967
I00
S'\x03\xaa,x\xfa)P@\xb0\xb8K\x00\xea\xe8Z@\x000\xa8\xbe\xee\xb1$\xc0'
p991
tp992
bsg972
S'Cell[1].axon[495]'
p993
sI91
I32
tp994
a(F1.4362896941168413
S'Cell[0].dend[5] syn_ = new AmpaNmda(0.833333333333)'
p995
I0
(dp996
S'seg'
p997
F0.5
sS'hostfrom'
p998
F44.0
sS'gid'
p999
I188
sS'coords'
p1000
g7
(g8
(I0
tp1001
g10
tp1002
Rp1003
(I1
(I3
tp1004
g14
(S'f8'
p1005
I0
I1
tp1006
Rp1007
(I3
S'<'
p1008
NNNI-1
I-1
I0
tp1009
bI00
S"v\x05'\xb7|-F\xc0\xddU\xe9\xf8e\x9d0@\x93\\\xed\xeb}\n8@"
p1010
tp1011
bsS'secnames'
p1012
S'Cell[3].axon[49]'
p1013
sI188
I32
tp1014
a(F1.845313341185287
S'Cell[0].dend[4] syn_ = new AmpaNmda(0.5)'
p1015
I0
(dp1016
g997
F0.5
sg998
F44.0
sg999
I188
sg1000
g7
(g8
(I0
tp1017
g10
tp1018
Rp1019
(I1
(I3
tp1020
g1007
I00
S'7[\xc3\x07\x12d8@\xb2\xba/&\x90\x8f;@\x00\x00\x00\xa0G\xe11\xc0'
p1021
tp1022
bsg1012
S'Cell[3].axon[130]'
p1023
sI188
I32
tp1024
a(F1.91342457399949
S'Cell[0].dend[22] syn_ = new AmpaNmda(0.5)'
p1025
I0
(dp1026
g997
F0.5
sg998
F44.0
sg999
I188
sg1000
g7
(g8
(I0
tp1027
g10
tp1028
Rp1029
(I1
(I3
tp1030
g1007
I00
S'\xb4\xdc\xf4,\xa4iU@F}\x19\xb5\x051;@\x00\x00\x00\x80=\n\x13\xc0'
p1031
tp1032
bsg1012
S'Cell[3].axon[207]'
p1033
sI188
I32
tp1034
a(F1.740476597974134
S'Cell[3].dend[56] syn_ = new FastInhib(0.5)'
p1035
I3
(dp1036
S'seg'
p1037
F0.9285714285714284
sS'hostfrom'
p1038
F45.0
sS'gid'
p1039
I141
sS'coords'
p1040
g7
(g8
(I0
tp1041
g10
tp1042
Rp1043
(I1
(I3
tp1044
g14
(S'f8'
p1045
I0
I1
tp1046
Rp1047
(I3
S'<'
p1048
NNNI-1
I-1
I0
tp1049
bI00
S'l\xfc\xa6> \xe6Q@\x02\x10 \xa0\xfe\xd9P\xc0\x9c@o"\x87\x892@'
p1050
tp1051
bsS'secnames'
p1052
S'Cell[2].axon[147]'
p1053
sI141
I176
tp1054
a(F1.814501617781504
S'Cell[0].dend[2] syn_ = new ExpSid(0.214285714286)'
p1055
I0
(dp1056
g1037
F0.16666666666666666
sg1038
F45.0
sg1039
I141
sg1040
g7
(g8
(I0
tp1057
g10
tp1058
Rp1059
(I1
(I3
tp1060
g1047
I00
S'=Vs\x1b\x84\xbe\x1a@[\x94\x89\xd4\xd9\xd6B@\xe6\r\xe5\xda\xa50H\xc0'
p1061
tp1062
bsg1052
S'Cell[2].axon[256]'
p1063
sI141
I32
tp1064
a(F1.2362728771149285
S'Cell[3].dend[56] syn_ = new FastInhib(0.5)'
p1065
I3
(dp1066
g1037
F0.5
sg1038
F45.0
sg1039
I141
sg1040
g7
(g8
(I0
tp1067
g10
tp1068
Rp1069
(I1
(I3
tp1070
g1047
I00
S'\x00\x00\x00p=\xb2Q@\x00\x00\x00\xe0\xa3PQ\xc0\x00\x00\x00\x80\xc2\x954@'
p1071
tp1072
bsg1052
S'Cell[2].axon[481]'
p1073
sI141
I176
tp1074
a(F2.079843910608817
S'Cell[0].dend[0] syn_ = new ExpSid(0.5)'
p1075
I0
(dp1076
g1037
F0.16666666666666666
sg1038
F45.0
sg1039
I93
sg1040
g7
(g8
(I0
tp1077
g10
tp1078
Rp1079
(I1
(I3
tp1080
g1047
I00
S'\x18\x7f\xc6\xae\xffpC@\xbd\xf7\x85`\x9b\xab@@\x8c\xb5\x01\xfax\x1f5\xc0'
p1081
tp1082
bsg1052
S'Cell[1].axon[232]'
p1083
sI93
I32
tp1084
a(F1.4730347978188665
S'Cell[0].dend[6] syn_ = new AmpaNmda(0.1)'
p1085
I0
(dp1086
S'seg'
p1087
F0.5
sS'hostfrom'
p1088
F46.0
sS'gid'
p1089
I94
sS'coords'
p1090
g7
(g8
(I0
tp1091
g10
tp1092
Rp1093
(I1
(I3
tp1094
g14
(S'f8'
p1095
I0
I1
tp1096
Rp1097
(I3
S'<'
p1098
NNNI-1
I-1
I0
tp1099
bI00
S')\x04\xb2r\x8c+\x1b@]+\xe8]\x86\xe34@\x00\x00\x00@\xe1:8\xc0'
p1100
tp1101
bsS'secnames'
p1102
S'Cell[1].axon[239]'
p1103
sI94
I32
tp1104
a(F2.361795382851233
S'Cell[3].dend[15] syn_ = new FastInhib(0.9)'
p1105
I3
(dp1106
S'seg'
p1107
F0.07142857142857142
sS'hostfrom'
p1108
F47.0
sS'gid'
p1109
I47
sS'coords'
p1110
g7
(g8
(I0
tp1111
g10
tp1112
Rp1113
(I1
(I3
tp1114
g14
(S'f8'
p1115
I0
I1
tp1116
Rp1117
(I3
S'<'
p1118
NNNI-1
I-1
I0
tp1119
bI00
S'\xcax\x95n\x1c\xe7G\xc0\xd6\xa7\x85\x04\xdf\xa6Q\xc0 2\xcaN_2 @'
p1120
tp1121
bsS'secnames'
p1122
S'Cell[0].axon[39]'
p1123
sI47
I176
tp1124
a.