(lp0
(F0.9529489353867425
S'Cell[2].dend[58] syn_ = new FastInhib(0.833333333333)'
p1
I2
(dp2
S'seg'
p3
F0.7
sS'hostfrom'
p4
F1.0
sS'gid'
p5
I145
sS'coords'
p6
cnumpy.core.multiarray
_reconstruct
p7
(cnumpy
ndarray
p8
(I0
tp9
S'b'
p10
tp11
Rp12
(I1
(I3
tp13
cnumpy
dtype
p14
(S'f8'
p15
I0
I1
tp16
Rp17
(I3
S'<'
p18
NNNI-1
I-1
I0
tp19
bI00
S'L\x96j\r8\x04W\xc0\xb2\x0b`mh\\3@\x00\x00\x00\x00)\\K\xc0'
p20
tp21
bsS'secnames'
p22
S'Cell[3].axon[84]'
p23
sI145
I103
tp24
a(F2.19616308955741
S'Cell[2].dend[33] syn_ = new FastInhib(0.5)'
p25
I2
(dp26
g3
F0.5
sg4
F1.0
sg5
I97
sg6
g7
(g8
(I0
tp27
g10
tp28
Rp29
(I1
(I3
tp30
g17
I00
S'\n\x8f~\xb3.\xb7:@|\x00\xef\xd7\xfd\x168@\x8b\xa4n\xfcF\xa0.\xc0'
p31
tp32
bsg22
S'Cell[2].axon[176]'
p33
sI97
I103
tp34
a(F2.333947411166705
S'Cell[3].dend[63] syn_ = new FastInhib(0.5)'
p35
I3
(dp36
S'seg'
p37
F0.5
sS'hostfrom'
p38
F2.0
sS'gid'
p39
I98
sS'coords'
p40
g7
(g8
(I0
tp41
g10
tp42
Rp43
(I1
(I3
tp44
g14
(S'f8'
p45
I0
I1
tp46
Rp47
(I3
S'<'
p48
NNNI-1
I-1
I0
tp49
bI00
S'\xb4\x8c\xa32\xcf\xcd\x10\xc0\x10\x14\x87l\xf6\xb2X@\x80\xbaq\xc1_\x8c#\xc0'
p50
tp51
bsS'secnames'
p52
S'Cell[2].axon[34]'
p53
sI98
I151
tp54
a(F2.4682173742195355
S'Cell[2].dend[18] syn_ = new FastInhib(0.5)'
p55
I2
(dp56
g37
F0.8333333333333333
sg38
F2.0
sg39
I98
sg40
g7
(g8
(I0
tp57
g10
tp58
Rp59
(I1
(I3
tp60
g47
I00
S'\xde;{\rf\xb4+@b=\xe4\x01`\x1d^@\x00\x00\x00\xa0\x99\x99\x10\xc0'
p61
tp62
bsg52
S'Cell[2].axon[67]'
p63
sI98
I103
tp64
a(F0.8813452687072368
S'Cell[2].dend[38] syn_ = new FastInhib(0.5)'
p65
I2
(dp66
g37
F0.5
sg38
F2.0
sg39
I98
sg40
g7
(g8
(I0
tp67
g10
tp68
Rp69
(I1
(I3
tp70
g47
I00
S';%\x8a\xe6\x8c]N@U\x0e\xf1\\t\xf5\\@\x00\x00\x00\xe0\xa3\xb0D\xc0'
p71
tp72
bsg52
S'Cell[2].axon[202]'
p73
sI98
I103
tp74
a(F1.9223752894722275
S'Cell[0].apic[265] syn_ = new AmpaNmda(0.5)'
p75
I0
(dp76
g37
F0.30000000000000004
sg38
F2.0
sg39
I98
sg40
g7
(g8
(I0
tp77
g10
tp78
Rp79
(I1
(I3
tp80
g47
I00
S'\x84\xc8:\xbc\xe0%A\xc0\x12m\n\xe3\xba\xf2Y\xc0\xc1\xfb\xed\xd6.\xbe7\xc0'
p81
tp82
bsg52
S'Cell[2].axon[244]'
p83
sI98
I7
tp84
a(F1.8282357378222969
S'Cell[3].dend[40] syn_ = new FastInhib(0.166666666667)'
p85
I3
(dp86
g37
F0.5
sg38
F2.0
sg39
I98
sg40
g7
(g8
(I0
tp87
g10
tp88
Rp89
(I1
(I3
tp90
g47
I00
S"^\xd3q'\xa1\x92\x04@\xcf<\x80\x8b\x9b\x00/@B4\xa5}~X\x12\xc0"
p91
tp92
bsg52
S'Cell[2].axon[301]'
p93
sI98
I151
tp94
a(F1.3941708751231985
S'Cell[2].dend[30] syn_ = new FastInhib(0.5)'
p95
I2
(dp96
g37
F0.16666666666666666
sg38
F2.0
sg39
I98
sg40
g7
(g8
(I0
tp97
g10
tp98
Rp99
(I1
(I3
tp100
g47
I00
S'PH5\r\xf3\x1aJ\xc0\xf4\x93\x05A\xe0\x8e[@\x0e\xd0V\xd4\xa7\xb9*\xc0'
p101
tp102
bsg52
S'Cell[2].axon[395]'
p103
sI98
I103
tp104
a(F1.4187161406807003
S'Cell[3].dend[8] syn_ = new FastInhib(0.5)'
p105
I3
(dp106
g37
F0.16666666666666666
sg38
F2.0
sg39
I98
sg40
g7
(g8
(I0
tp107
g10
tp108
Rp109
(I1
(I3
tp110
g47
I00
S'\xec\xb0\x01\xcdzf)@\x9e\xca\xfe\xc1\xde\x18P@\x84\x8fl\xc9\x0bY-\xc0'
p111
tp112
bsg52
S'Cell[2].axon[400]'
p113
sI98
I151
tp114
a(F1.7886727902848611
S'Cell[3].dend[0] syn_ = new FastInhib(0.5)'
p115
I3
(dp116
g37
F0.5
sg38
F2.0
sg39
I98
sg40
g7
(g8
(I0
tp117
g10
tp118
Rp119
(I1
(I3
tp120
g47
I00
S'}#S\xe8\x02\xa1 @\xf2\x920\xd5=;N@\xa5\xa6\xe6\x9e0\x168\xc0'
p121
tp122
bsg52
S'Cell[2].axon[407]'
p123
sI98
I151
tp124
a(F1.9145423277322167
S'Cell[3].dend[73] syn_ = new FastInhib(0.5)'
p125
I3
(dp126
g37
F0.30000000000000004
sg38
F2.0
sg39
I98
sg40
g7
(g8
(I0
tp127
g10
tp128
Rp129
(I1
(I3
tp130
g47
I00
S'\xbb\xecQ\xdc.\x074@\xe1\x80\x8d/\x1a8_@\xa7Zn%\x86\xe8\x13\xc0'
p131
tp132
bsg52
S'Cell[2].axon[435]'
p133
sI98
I151
tp134
a(F1.4602073515749177
S'Cell[0].apic[4] syn_ = new AmpaNmda(0.5)'
p135
I0
(dp136
g37
F0.8333333333333333
sg38
F2.0
sg39
I98
sg40
g7
(g8
(I0
tp137
g10
tp138
Rp139
(I1
(I3
tp140
g47
I00
S'\xfb\x05\xe4^ \t$\xc09\x8c\xa0\x85@9d@\xaa\xff^;\x0c\xad\x08@'
p141
tp142
bsg52
S'Cell[2].axon[440]'
p143
sI98
I7
tp144
a(F1.137197788784847
S'Cell[3].dend[55] syn_ = new FastInhib(0.5)'
p145
I3
(dp146
g37
F0.5
sg38
F2.0
sg39
I146
sg40
g7
(g8
(I0
tp147
g10
tp148
Rp149
(I1
(I3
tp150
g47
I00
S'\x88\x9d4\xdc\x1ao%\xc0\xe0\x04\x7f\xdd\xa90V@\x00\x00\x00\xc0\xcc\xcc\x10\xc0'
p151
tp152
bsg52
S'Cell[3].axon[190]'
p153
sI146
I151
tp154
a(F2.0953099729816325
S'Cell[3].dend[57] syn_ = new FastInhib(0.5)'
p155
I3
(dp156
g37
F0.16666666666666666
sg38
F2.0
sg39
I146
sg40
g7
(g8
(I0
tp157
g10
tp158
Rp159
(I1
(I3
tp160
g47
I00
S'f\xcd\x93\xfew\xbe\x0b@\xf5.B\x10\x12\xc7S@e=\xd6v\xb8!3\xc0'
p161
tp162
bsg52
S'Cell[3].axon[197]'
p163
sI146
I151
tp164
a(F2.1364148655773505
S'Cell[3].dend[55] syn_ = new FastInhib(0.166666666667)'
p165
I3
(dp166
g37
F0.5
sg38
F2.0
sg39
I146
sg40
g7
(g8
(I0
tp167
g10
tp168
Rp169
(I1
(I3
tp170
g47
I00
S'\xe6\xed\xdd\xe0\xa3\xc5\x04\xc0^\xfbu6\x18\xd0S@\x00\x00\x00\xc0\xcc\xcc1\xc0'
p171
tp172
bsg52
S'Cell[3].axon[200]'
p173
sI146
I151
tp174
a(F2.333947411166705
S'Cell[3].dend[63] syn_ = new FastInhib(0.5)'
p175
I3
(dp176
S'seg'
p177
F0.5
sS'hostfrom'
p178
F3.0
sS'gid'
p179
I99
sS'coords'
p180
g7
(g8
(I0
tp181
g10
tp182
Rp183
(I1
(I3
tp184
g14
(S'f8'
p185
I0
I1
tp186
Rp187
(I3
S'<'
p188
NNNI-1
I-1
I0
tp189
bI00
S'\xb4\x8c\xa32\xcf\xcd\x10\xc0\x10\x14\x87l\xf6\xb2X@\x80\xbaq\xc1_\x8c#\xc0'
p190
tp191
bsS'secnames'
p192
S'Cell[2].axon[34]'
p193
sI99
I151
tp194
a(F2.4682173742195355
S'Cell[2].dend[18] syn_ = new FastInhib(0.5)'
p195
I2
(dp196
g177
F0.8333333333333333
sg178
F3.0
sg179
I99
sg180
g7
(g8
(I0
tp197
g10
tp198
Rp199
(I1
(I3
tp200
g187
I00
S'\xde;{\rf\xb4+@b=\xe4\x01`\x1d^@\x00\x00\x00\xa0\x99\x99\x10\xc0'
p201
tp202
bsg192
S'Cell[2].axon[67]'
p203
sI99
I103
tp204
a(F0.8813452687072368
S'Cell[2].dend[38] syn_ = new FastInhib(0.5)'
p205
I2
(dp206
g177
F0.5
sg178
F3.0
sg179
I99
sg180
g7
(g8
(I0
tp207
g10
tp208
Rp209
(I1
(I3
tp210
g187
I00
S';%\x8a\xe6\x8c]N@U\x0e\xf1\\t\xf5\\@\x00\x00\x00\xe0\xa3\xb0D\xc0'
p211
tp212
bsg192
S'Cell[2].axon[202]'
p213
sI99
I103
tp214
a(F1.9223752894722275
S'Cell[0].apic[265] syn_ = new ExpSid(0.5)'
p215
I0
(dp216
g177
F0.30000000000000004
sg178
F3.0
sg179
I99
sg180
g7
(g8
(I0
tp217
g10
tp218
Rp219
(I1
(I3
tp220
g187
I00
S'\x84\xc8:\xbc\xe0%A\xc0\x12m\n\xe3\xba\xf2Y\xc0\xc1\xfb\xed\xd6.\xbe7\xc0'
p221
tp222
bsg192
S'Cell[2].axon[244]'
p223
sI99
I7
tp224
a(F1.8282357378222969
S'Cell[3].dend[40] syn_ = new FastInhib(0.166666666667)'
p225
I3
(dp226
g177
F0.5
sg178
F3.0
sg179
I99
sg180
g7
(g8
(I0
tp227
g10
tp228
Rp229
(I1
(I3
tp230
g187
I00
S"^\xd3q'\xa1\x92\x04@\xcf<\x80\x8b\x9b\x00/@B4\xa5}~X\x12\xc0"
p231
tp232
bsg192
S'Cell[2].axon[301]'
p233
sI99
I151
tp234
a(F1.3941708751231985
S'Cell[2].dend[30] syn_ = new FastInhib(0.5)'
p235
I2
(dp236
g177
F0.16666666666666666
sg178
F3.0
sg179
I99
sg180
g7
(g8
(I0
tp237
g10
tp238
Rp239
(I1
(I3
tp240
g187
I00
S'PH5\r\xf3\x1aJ\xc0\xf4\x93\x05A\xe0\x8e[@\x0e\xd0V\xd4\xa7\xb9*\xc0'
p241
tp242
bsg192
S'Cell[2].axon[395]'
p243
sI99
I103
tp244
a(F1.4187161406807003
S'Cell[3].dend[8] syn_ = new FastInhib(0.5)'
p245
I3
(dp246
g177
F0.16666666666666666
sg178
F3.0
sg179
I99
sg180
g7
(g8
(I0
tp247
g10
tp248
Rp249
(I1
(I3
tp250
g187
I00
S'\xec\xb0\x01\xcdzf)@\x9e\xca\xfe\xc1\xde\x18P@\x84\x8fl\xc9\x0bY-\xc0'
p251
tp252
bsg192
S'Cell[2].axon[400]'
p253
sI99
I151
tp254
a(F1.7886727902848611
S'Cell[3].dend[0] syn_ = new FastInhib(0.5)'
p255
I3
(dp256
g177
F0.5
sg178
F3.0
sg179
I99
sg180
g7
(g8
(I0
tp257
g10
tp258
Rp259
(I1
(I3
tp260
g187
I00
S'}#S\xe8\x02\xa1 @\xf2\x920\xd5=;N@\xa5\xa6\xe6\x9e0\x168\xc0'
p261
tp262
bsg192
S'Cell[2].axon[407]'
p263
sI99
I151
tp264
a(F1.9145423277322167
S'Cell[3].dend[73] syn_ = new FastInhib(0.5)'
p265
I3
(dp266
g177
F0.30000000000000004
sg178
F3.0
sg179
I99
sg180
g7
(g8
(I0
tp267
g10
tp268
Rp269
(I1
(I3
tp270
g187
I00
S'\xbb\xecQ\xdc.\x074@\xe1\x80\x8d/\x1a8_@\xa7Zn%\x86\xe8\x13\xc0'
p271
tp272
bsg192
S'Cell[2].axon[435]'
p273
sI99
I151
tp274
a(F1.4602073515749177
S'Cell[0].apic[4] syn_ = new ExpSid(0.5)'
p275
I0
(dp276
g177
F0.8333333333333333
sg178
F3.0
sg179
I99
sg180
g7
(g8
(I0
tp277
g10
tp278
Rp279
(I1
(I3
tp280
g187
I00
S'\xfb\x05\xe4^ \t$\xc09\x8c\xa0\x85@9d@\xaa\xff^;\x0c\xad\x08@'
p281
tp282
bsg192
S'Cell[2].axon[440]'
p283
sI99
I7
tp284
a(F1.7053076226184036
S'Cell[0].apic[230] syn_ = new ExpSid(0.833333333333)'
p285
I0
(dp286
g177
F0.21428571428571427
sg178
F3.0
sg179
I3
sg180
g7
(g8
(I0
tp287
g10
tp288
Rp289
(I1
(I3
tp290
g187
I00
S'|3[v\xaf\x93\x0b\xc0Z\xb2\x14\x05\xbf%a\xc00\x0c\x9f~Q\x07\x19\xc0'
p291
tp292
bsg192
S'Cell[0].axon[77]'
p293
sI3
I7
tp294
a(F2.271267441466487
S'Cell[2].dend[10] syn_ = new FastInhib(0.5)'
p295
I2
(dp296
g177
F0.16666666666666666
sg178
F3.0
sg179
I147
sg180
g7
(g8
(I0
tp297
g10
tp298
Rp299
(I1
(I3
tp300
g187
I00
S'\xb5\xe8P\x92\xa7<\xe1?\xb7F\xf0\x1cs\x7fH@\x00\x00\x00`\xb8\x1e\x01@'
p301
tp302
bsg192
S'Cell[3].axon[1]'
p303
sI147
I103
tp304
a(F2.022339271634169
S'Cell[3].dend[65] syn_ = new FastInhib(0.833333333333)'
p305
I3
(dp306
g177
F0.21428571428571427
sg178
F3.0
sg179
I147
sg180
g7
(g8
(I0
tp307
g10
tp308
Rp309
(I1
(I3
tp310
g187
I00
S'"\x99\xbe\x10\xdbzC\xc0\xfc\x1a\xf5U\xda\x04a@\x1f6\xe3\x0f3\x84\x07@'
p311
tp312
bsg192
S'Cell[3].axon[139]'
p313
sI147
I151
tp314
a(F2.0772592947834827
S'Cell[2].dend[50] syn_ = new FastInhib(0.1)'
p315
I2
(dp316
S'seg'
p317
F0.1
sS'hostfrom'
p318
F4.0
sS'gid'
p319
I148
sS'coords'
p320
g7
(g8
(I0
tp321
g10
tp322
Rp323
(I1
(I3
tp324
g14
(S'f8'
p325
I0
I1
tp326
Rp327
(I3
S'<'
p328
NNNI-1
I-1
I0
tp329
bI00
S'\xc6]\xb9l\x82\x026\xc0\xa7\xf26\x11:\x87e\xc0\x00\x00\x00@\xe1z\x12@'
p330
tp331
bsS'secnames'
p332
S'Cell[3].axon[101]'
p333
sI148
I103
tp334
a(F1.7727028256608448
S'Cell[0].dend[2] syn_ = new AmpaNmda(0.5)'
p335
I0
(dp336
g317
F0.5
sg318
F4.0
sg319
I148
sg320
g7
(g8
(I0
tp337
g10
tp338
Rp339
(I1
(I3
tp340
g327
I00
S'\x97`\x83\xca\x84<D@\x91|\xd5\xc1\xf2\xae#\xc0D\x1f8\x82\x80\xeb$@'
p341
tp342
bsg332
S'Cell[3].axon[341]'
p343
sI148
I7
tp344
a(F1.4398275045760671
S'Cell[2].dend[16] syn_ = new FastInhib(0.833333333333)'
p345
I2
(dp346
g317
F0.9444444444444446
sg318
F4.0
sg319
I100
sg320
g7
(g8
(I0
tp347
g10
tp348
Rp349
(I1
(I3
tp350
g327
I00
S'\xfa\xb5\xee^?\x93\x06\xc0\xf3\xd0Xs\xa5\x94Z@\xe1\x98D/J\x9f\x06@'
p351
tp352
bsg332
S'Cell[2].axon[117]'
p353
sI100
I103
tp354
a(F2.074094336157389
S'Cell[3].dend[40] syn_ = new FastInhib(0.5)'
p355
I3
(dp356
S'seg'
p357
F0.1
sS'hostfrom'
p358
F6.0
sS'gid'
p359
I102
sS'coords'
p360
g7
(g8
(I0
tp361
g10
tp362
Rp363
(I1
(I3
tp364
g14
(S'f8'
p365
I0
I1
tp366
Rp367
(I3
S'<'
p368
NNNI-1
I-1
I0
tp369
bI00
S' \x81\x8d\xcd\xca\xfa(\xc0T\x0e\xd2\xc4\x1a\xc1\x02@\x96Nf\xf4\xf7\xf1\xff?'
p370
tp371
bsS'secnames'
p372
S'Cell[2].axon[77]'
p373
sI102
I151
tp374
a(F1.5441704862713115
S'Cell[0].apic[194] syn_ = new AmpaNmda(0.5)'
p375
I0
(dp376
g357
F0.8333333333333333
sg358
F6.0
sg359
I102
sg360
g7
(g8
(I0
tp377
g10
tp378
Rp379
(I1
(I3
tp380
g367
I00
S'\t\x88k\x1a\xfedW\xc0\x10\xd7\x07\xc0\x19\x1db\xc0F\x19rl}\xd7+@'
p381
tp382
bsg372
S'Cell[2].axon[81]'
p383
sI102
I7
tp384
a(F2.0233421310503092
S'Cell[0].apic[257] syn_ = new AmpaNmda(0.269230769231)'
p385
I0
(dp386
g357
F0.07142857142857142
sg358
F6.0
sg359
I6
sg360
g7
(g8
(I0
tp387
g10
tp388
Rp389
(I1
(I3
tp390
g367
I00
S'\x8cxm\x14\x88\xfa\x82\xc0- \x97\x10N\x92t\xc0:IT\xa4\xa0\x87\x1e\xc0'
p391
tp392
bsg372
S'Cell[0].axon[73]'
p393
sI6
I7
tp394
a(F2.0818858716049133
S'Cell[3].dend[68] syn_ = new FastInhib(0.5)'
p395
I3
(dp396
g357
F0.16666666666666666
sg358
F6.0
sg359
I150
sg360
g7
(g8
(I0
tp397
g10
tp398
Rp399
(I1
(I3
tp400
g367
I00
S';a$\xc1\x88\x988@R&\xb1\xfc\x7ftU@\x01\x00\x00\x80\x14\xee>\xc0'
p401
tp402
bsg372
S'Cell[3].axon[100]'
p403
sI150
I151
tp404
a(F1.3378620863529709
S'Cell[2].dend[37] syn_ = new FastInhib(0.166666666667)'
p405
I2
(dp406
g357
F0.8333333333333333
sg358
F6.0
sg359
I150
sg360
g7
(g8
(I0
tp407
g10
tp408
Rp409
(I1
(I3
tp410
g367
I00
S'i\xb4|\xfa})N@\x90G\x9b\x01\xf9\xd4W@\x00\x00\x00\x80\x14\xee>\xc0'
p411
tp412
bsg372
S'Cell[3].axon[100]'
p413
sI150
I103
tp414
a(F1.816498379083353
S'Cell[3].dend[75] syn_ = new FastInhib(0.5)'
p415
I3
(dp416
S'seg'
p417
F0.8333333333333333
sS'hostfrom'
p418
F7.0
sS'gid'
p419
I103
sS'coords'
p420
g7
(g8
(I0
tp421
g10
tp422
Rp423
(I1
(I3
tp424
g14
(S'f8'
p425
I0
I1
tp426
Rp427
(I3
S'<'
p428
NNNI-1
I-1
I0
tp429
bI00
S'\xd4\x16\x8bx;\x93 \xc0\x10\x8a\x9d:\xd82f@\xa8E\x9a\x15D"/\xc0'
p430
tp431
bsS'secnames'
p432
S'Cell[2].axon[17]'
p433
sI103
I151
tp434
a(F2.419003090169166
S'Cell[3].dend[16] syn_ = new FastInhib(0.166666666667)'
p435
I3
(dp436
g417
F0.21428571428571427
sg418
F7.0
sg419
I103
sg420
g7
(g8
(I0
tp437
g10
tp438
Rp439
(I1
(I3
tp440
g427
I00
S'\x08o\xe3M\x7f\xd68@\xe3\xd7\xb9m\xebx[@\xde\xbd\xa4\xdeDV:\xc0'
p441
tp442
bsg432
S'Cell[2].axon[19]'
p443
sI103
I151
tp444
a(F1.183776136007896
S'Cell[3].dend[60] syn_ = new FastInhib(0.5)'
p445
I3
(dp446
g417
F0.5
sg418
F7.0
sg419
I103
sg420
g7
(g8
(I0
tp447
g10
tp448
Rp449
(I1
(I3
tp450
g427
I00
S'\ri\x14\x94\xdc\xb8&@)\x88\xeb\rj\x17]@\xc0\xc6_\xdd\xfe\x0e\x9a\xbf'
p451
tp452
bsg432
S'Cell[2].axon[269]'
p453
sI103
I151
tp454
a(F2.4317515846455153
S'Cell[0].apic[171] syn_ = new AmpaNmda(0.0555555555556)'
p455
I0
(dp456
S'seg'
p457
F0.16666666666666666
sS'hostfrom'
p458
F8.0
sS'gid'
p459
I8
sS'coords'
p460
g7
(g8
(I0
tp461
g10
tp462
Rp463
(I1
(I3
tp464
g14
(S'f8'
p465
I0
I1
tp466
Rp467
(I3
S'<'
p468
NNNI-1
I-1
I0
tp469
bI00
S'\x94i\xa5\x91\x04\xa0L@h\xcfR\xe8\xd0\x9ck\xc0X\xef)Pq\x9e\x12@'
p470
tp471
bsS'secnames'
p472
S'Cell[0].axon[6]'
p473
sI8
I7
tp474
a(F1.9005297257714142
S'Cell[2].dend[18] syn_ = new FastInhib(0.5)'
p475
I2
(dp476
g457
F0.8333333333333333
sg458
F8.0
sg459
I152
sg460
g7
(g8
(I0
tp477
g10
tp478
Rp479
(I1
(I3
tp480
g467
I00
S'\x03\x0c#O\xfaS\'@\x10"-\xf3\x1d\xe3]@\x00\x00\x00@\xe1z\x14\xc0'
p481
tp482
bsg472
S'Cell[3].axon[147]'
p483
sI152
I103
tp484
a(F1.9243441654766302
S'Cell[3].dend[50] syn_ = new FastInhib(0.166666666667)'
p485
I3
(dp486
g457
F0.8333333333333333
sg458
F8.0
sg459
I152
sg460
g7
(g8
(I0
tp487
g10
tp488
Rp489
(I1
(I3
tp490
g467
I00
S'\xae\xb1\xbe\xd5\x0f%;\xc0\x83\x15\xad\xb6\xfa\xeaS@\x00\x00\x00`\x8fBD\xc0'
p491
tp492
bsg472
S'Cell[3].axon[328]'
p493
sI152
I151
tp494
a(F1.7902729030507336
S'Cell[2].dend[14] syn_ = new FastInhib(0.357142857143)'
p495
I2
(dp496
g457
F0.5
sg458
F8.0
sg459
I152
sg460
g7
(g8
(I0
tp497
g10
tp498
Rp499
(I1
(I3
tp500
g467
I00
S'\x00\x00\x00`\x8f\x12H@\x00\x00\x00\x90\xeb\x89\\@\x00\x00\x000\\OB\xc0'
p501
tp502
bsg472
S'Cell[3].axon[364]'
p503
sI152
I103
tp504
a(F1.3879954316159058
S'Cell[0].dend[1] syn_ = new AmpaNmda(0.7)'
p505
I0
(dp506
g457
F0.5
sg458
F8.0
sg459
I152
sg460
g7
(g8
(I0
tp507
g10
tp508
Rp509
(I1
(I3
tp510
g467
I00
S'\xcc\xc6LV\xe2\x88V@\xd5W\x89\xd6H\xfe\x11@\x00\x00\x00\x80=\n\x10@'
p511
tp512
bsg472
S'Cell[3].axon[416]'
p513
sI152
I7
tp514
a(F1.2593962135604964
S'Cell[0].apic[91] syn_ = new AmpaNmda(0.5)'
p515
I0
(dp516
g457
F0.5
sg458
F8.0
sg459
I152
sg460
g7
(g8
(I0
tp517
g10
tp518
Rp519
(I1
(I3
tp520
g467
I00
S'\x00\x00\x00\x00\x00\x90@\xc0\x00\x00\x00\xd0\xa3\xa0W@\x00\x00\x00\xb0Ga\x19@'
p521
tp522
bsg472
S'Cell[3].axon[543]'
p523
sI152
I7
tp524
a(F2.017342312813081
S'Cell[2].dend[19] syn_ = new FastInhib(0.5)'
p525
I2
(dp526
g457
F0.5
sg458
F8.0
sg459
I104
sg460
g7
(g8
(I0
tp527
g10
tp528
Rp529
(I1
(I3
tp530
g467
I00
S'4E`\x8f\x12P0@\xd8\x06\x0eZ\xfeGa@\xa4\x1d\x92\x1e\xf4\xdb\x17\xc0'
p531
tp532
bsg472
S'Cell[2].axon[150]'
p533
sI104
I103
tp534
a(F2.0981966078962127
S'Cell[2].dend[46] syn_ = new FastInhib(0.5)'
p535
I2
(dp536
g457
F0.5
sg458
F8.0
sg459
I104
sg460
g7
(g8
(I0
tp537
g10
tp538
Rp539
(I1
(I3
tp540
g467
I00
S'9\xfb1^\xff\xb02\xc0\xcbw\xbbX #>\xc0`\t\x07\xa8ox\xfc?'
p541
tp542
bsg472
S'Cell[2].axon[232]'
p543
sI104
I103
tp544
a(F1.5521107433217909
S'Cell[2].dend[29] syn_ = new FastInhib(0.166666666667)'
p545
I2
(dp546
g457
F0.16666666666666666
sg458
F8.0
sg459
I104
sg460
g7
(g8
(I0
tp547
g10
tp548
Rp549
(I1
(I3
tp550
g467
I00
S'\x80W\xad\xf0c\xa37\xc0M`\x10\xc0\xca\x8bE@\xa9\x11\xb9e\x17\x07\x1b\xc0'
p551
tp552
bsg472
S'Cell[2].axon[387]'
p553
sI104
I103
tp554
a(F1.6550921634711544
S'Cell[3].dend[60] syn_ = new FastInhib(0.5)'
p555
I3
(dp556
g457
F0.5
sg458
F8.0
sg459
I104
sg460
g7
(g8
(I0
tp557
g10
tp558
Rp559
(I1
(I3
tp560
g467
I00
S'\x8c\x93\xd3\xcd\xf6\xea$@,\x9a\xb5"\x8ce]@\x00\x00\x00 \xaeG\xf9\xbf'
p561
tp562
bsg472
S'Cell[2].axon[426]'
p563
sI104
I151
tp564
a(F2.0229796838396266
S'Cell[0].dend[27] syn_ = new ExpSid(0.5)'
p565
I0
(dp566
S'seg'
p567
F0.5
sS'hostfrom'
p568
F9.0
sS'gid'
p569
I153
sS'coords'
p570
g7
(g8
(I0
tp571
g10
tp572
Rp573
(I1
(I3
tp574
g14
(S'f8'
p575
I0
I1
tp576
Rp577
(I3
S'<'
p578
NNNI-1
I-1
I0
tp579
bI00
S'\x00\x00\x00\x80\xeb\xf1J@\x00\x00\x00\x80\xc259@\x00\x00\x00\xe0Q\xb8\xe6?'
p580
tp581
bsS'secnames'
p582
S'Cell[3].soma[0]'
p583
sI153
I7
tp584
a(F1.2122445820162315
S'Cell[0].dend[1] syn_ = new ExpSid(0.3)'
p585
I0
(dp586
g567
F0.8333333333333333
sg568
F9.0
sg569
I153
sg570
g7
(g8
(I0
tp587
g10
tp588
Rp589
(I1
(I3
tp590
g577
I00
S'6\x97\xa8\xc82wH@\x02 t3w<2@\x00\x00\x00\x80\xeb\xd1$@'
p591
tp592
bsg582
S'Cell[3].axon[86]'
p593
sI153
I7
tp594
a(F1.9478378027906451
S'Cell[2].dend[28] syn_ = new FastInhib(0.1)'
p595
I2
(dp596
g567
F0.5
sg568
F9.0
sg569
I105
sg570
g7
(g8
(I0
tp597
g10
tp598
Rp599
(I1
(I3
tp600
g577
I00
S'M1\xb9d\xf1GB\xc0,\xb5Y\x9dkZZ@#\xcc=y\xe9\xba@\xc0'
p601
tp602
bsg582
S'Cell[2].axon[27]'
p603
sI105
I103
tp604
a(F2.138232497356504
S'Cell[0].dend[29] syn_ = new AmpaNmda(0.9)'
p605
I0
(dp606
S'seg'
p607
F0.16666666666666666
sS'hostfrom'
p608
F10.0
sS'gid'
p609
I106
sS'coords'
p610
g7
(g8
(I0
tp611
g10
tp612
Rp613
(I1
(I3
tp614
g14
(S'f8'
p615
I0
I1
tp616
Rp617
(I3
S'<'
p618
NNNI-1
I-1
I0
tp619
bI00
S'\x1bs\x92\xd6\xfd\x90W@\xb6\x0e-Yc\xb0P\xc0`\xc9\x9fO\xa1\xce\x0f@'
p620
tp621
bsS'secnames'
p622
S'Cell[2].axon[108]'
p623
sI106
I7
tp624
a(F1.5340686972615478
S'Cell[0].apic[271] syn_ = new AmpaNmda(0.5)'
p625
I0
(dp626
g607
F0.16666666666666666
sg608
F10.0
sg609
I106
sg610
g7
(g8
(I0
tp627
g10
tp628
Rp629
(I1
(I3
tp630
g617
I00
S'4d]\xfe\x80\xacN@-b\xd0\xbe\xf8qY\xc0\xbb\xc93\xcbeb0\xc0'
p631
tp632
bsg622
S'Cell[2].axon[111]'
p633
sI106
I7
tp634
a(F2.0435951219784605
S'Cell[3].dend[40] syn_ = new FastInhib(0.833333333333)'
p635
I3
(dp636
g607
F0.16666666666666666
sg608
F10.0
sg609
I106
sg610
g7
(g8
(I0
tp637
g10
tp638
Rp639
(I1
(I3
tp640
g617
I00
S'/\xaf\xdb\xc6n9<\xc0\xa6\xda\xb4\xd1,:/\xc0\x00\x00\x00\x80\xebQ\x16@'
p641
tp642
bsg622
S'Cell[2].axon[177]'
p643
sI106
I151
tp644
a(F1.2124717784583903
S'Cell[3].dend[36] syn_ = new FastInhib(0.5)'
p645
I3
(dp646
g607
F0.16666666666666666
sg608
F10.0
sg609
I106
sg610
g7
(g8
(I0
tp647
g10
tp648
Rp649
(I1
(I3
tp650
g617
I00
S'\xa3\x8f\x90W\x90K\x16@\xe68\xc9)\x9a\xe51@\x00\x00\x00\xc0\xf5(\x1c\xc0'
p651
tp652
bsg622
S'Cell[2].axon[223]'
p653
sI106
I151
tp654
a(F2.246340649573405
S'Cell[3].dend[31] syn_ = new FastInhib(0.833333333333)'
p655
I3
(dp656
g607
F0.8333333333333333
sg608
F10.0
sg609
I106
sg610
g7
(g8
(I0
tp657
g10
tp658
Rp659
(I1
(I3
tp660
g617
I00
S'p\xfe\x80\xe4\x85\xc7T@\x00\xaa5\x17\xe9\x8fC\xc0\xa1\x9b\xcd\xc4\x8e\xab@\xc0'
p661
tp662
bsg622
S'Cell[2].axon[283]'
p663
sI106
I151
tp664
a(F1.825261184068166
S'Cell[0].apic[279] syn_ = new AmpaNmda(0.166666666667)'
p665
I0
(dp666
g607
F0.5
sg608
F10.0
sg609
I106
sg610
g7
(g8
(I0
tp667
g10
tp668
Rp669
(I1
(I3
tp670
g617
I00
S'\x077\xb0\xd4X:=@\x97jbKc\x8f%\xc0\x8bl\x06\x95\xb6\xcdO\xc0'
p671
tp672
bsg622
S'Cell[2].axon[331]'
p673
sI106
I7
tp674
a(F2.003065026735843
S'Cell[0].dend[29] syn_ = new AmpaNmda(0.1)'
p675
I0
(dp676
S'seg'
p677
F0.16666666666666666
sS'hostfrom'
p678
F12.0
sS'gid'
p679
I60
sS'coords'
p680
g7
(g8
(I0
tp681
g10
tp682
Rp683
(I1
(I3
tp684
g14
(S'f8'
p685
I0
I1
tp686
Rp687
(I3
S'<'
p688
NNNI-1
I-1
I0
tp689
bI00
S'\xd4M7\x9b\x9e;A@\x0e3\x89L"t0@\x9d\x03\xceR\xfc\x91\x10\xc0'
p690
tp691
bsS'secnames'
p692
S'Cell[1].axon[0]'
p693
sI60
I7
tp694
a(F1.2637374497364784
S'Cell[0].apic[227] syn_ = new AmpaNmda(0.676470588235)'
p695
I0
(dp696
g677
F0.8333333333333333
sg678
F12.0
sg679
I60
sg680
g7
(g8
(I0
tp697
g10
tp698
Rp699
(I1
(I3
tp700
g687
I00
S"\xa5\x1a?\x05\xa3'g\xc0\x83h\xd6H1\xfcw\xc0@\xff\x1e_\x7f\x96/\xc0"
p701
tp702
bsg692
S'Cell[1].axon[24]'
p703
sI60
I7
tp704
a(F2.1498386610798685
S'Cell[0].apic[264] syn_ = new AmpaNmda(0.5)'
p705
I0
(dp706
g677
F0.30000000000000004
sg678
F12.0
sg679
I156
sg680
g7
(g8
(I0
tp707
g10
tp708
Rp709
(I1
(I3
tp710
g687
I00
S'\xf2\x82\x91\xdc\x15\xc49\xc0\x90w2\xb5\x15\x9b_\xc0\x00\x00\x00\xa0p=:\xc0'
p711
tp712
bsg692
S'Cell[3].axon[578]'
p713
sI156
I7
tp714
a(F1.3616427887000093
S'Cell[0].apic[155] syn_ = new AmpaNmda(0.5)'
p715
I0
(dp716
g677
F0.16666666666666666
sg678
F12.0
sg679
I108
sg680
g7
(g8
(I0
tp717
g10
tp718
Rp719
(I1
(I3
tp720
g687
I00
S'\xb5\xa9\xf2\x88\xf0\xb4A\xc0^\xc21\xcc\x0c\xe6i\xc0\x9b\x85\xca\x81\xec\x03\x1a\xc0'
p721
tp722
bsg692
S'Cell[2].axon[356]'
p723
sI108
I7
tp724
a(F2.19044346432512
S'Cell[0].apic[132] syn_ = new ExpSid(0.833333333333)'
p725
I0
(dp726
S'seg'
p727
F0.16666666666666666
sS'hostfrom'
p728
F13.0
sS'gid'
p729
I157
sS'coords'
p730
g7
(g8
(I0
tp731
g10
tp732
Rp733
(I1
(I3
tp734
g14
(S'f8'
p735
I0
I1
tp736
Rp737
(I3
S'<'
p738
NNNI-1
I-1
I0
tp739
bI00
S'\xe9i&\x8fS\x85T\xc0U($\xa8\x12\xdbp\xc0j\x13D\xb9\x15\xb96\xc0'
p740
tp741
bsS'secnames'
p742
S'Cell[3].axon[68]'
p743
sI157
I7
tp744
a(F1.8098246554582367
S'Cell[2].dend[14] syn_ = new FastInhib(0.214285714286)'
p745
I2
(dp746
g727
F0.5
sg728
F13.0
sg729
I109
sg730
g7
(g8
(I0
tp747
g10
tp748
Rp749
(I1
(I3
tp750
g737
I00
S'\xce\xc8\x12K\r\x07B@\x8ao.\xa6\xedOZ@\xf4\xc2\x9b\xe9\xbc\xc17\xc0'
p751
tp752
bsg742
S'Cell[2].axon[216]'
p753
sI109
I103
tp754
a(F0.8370682996243848
S'Cell[1].dend[2] syn_ = new AmpaNmda(0.5)'
p755
I1
(dp756
S'seg'
p757
F0.5
sS'hostfrom'
p758
F14.0
sS'gid'
p759
I110
sS'coords'
p760
g7
(g8
(I0
tp761
g10
tp762
Rp763
(I1
(I3
tp764
g14
(S'f8'
p765
I0
I1
tp766
Rp767
(I3
S'<'
p768
NNNI-1
I-1
I0
tp769
bI00
S'\xff\xff\xff?\n\x17I@b\x89[x\xa0A\x10\xc0\x00\x00\x00\xe0Q8-@'
p770
tp771
bsS'secnames'
p772
S'Cell[2].axon[69]'
p773
sI110
I55
tp774
a(F2.0038928695486184
S'Cell[3].dend[18] syn_ = new FastInhib(0.5)'
p775
I3
(dp776
S'seg'
p777
F0.1
sS'hostfrom'
p778
F15.0
sS'gid'
p779
I111
sS'coords'
p780
g7
(g8
(I0
tp781
g10
tp782
Rp783
(I1
(I3
tp784
g14
(S'f8'
p785
I0
I1
tp786
Rp787
(I3
S'<'
p788
NNNI-1
I-1
I0
tp789
bI00
S'\x00\x00\x00 \\\x8fK@\x88\xca\xe0\x9f\xad\x1cb@\x00\x00\x00\x00)\xbcH\xc0'
p790
tp791
bsS'secnames'
p792
S'Cell[2].axon[64]'
p793
sI111
I151
tp794
a(F1.4159618463909969
S'Cell[0].apic[278] syn_ = new ExpSid(0.5)'
p795
I0
(dp796
g777
F0.16666666666666666
sg778
F15.0
sg779
I111
sg780
g7
(g8
(I0
tp797
g10
tp798
Rp799
(I1
(I3
tp800
g787
I00
S'\x1d\xab\x97 \xeb\x8aA@\x00\x00\x00 \xaeG)\xc0\xc2|*\x8f\x97\xe7O\xc0'
p801
tp802
bsg792
S'Cell[2].axon[185]'
p803
sI111
I7
tp804
a(F2.136062211964715
S'Cell[2].dend[35] syn_ = new FastInhib(0.166666666667)'
p805
I2
(dp806
S'seg'
p807
F0.3571428571428571
sS'hostfrom'
p808
F16.0
sS'gid'
p809
I64
sS'coords'
p810
g7
(g8
(I0
tp811
g10
tp812
Rp813
(I1
(I3
tp814
g14
(S'f8'
p815
I0
I1
tp816
Rp817
(I3
S'<'
p818
NNNI-1
I-1
I0
tp819
bI00
S'G\x14\xe1\xddsJP@!Z=\x0c\xc0EM@>4\xe9\x954\xc7@\xc0'
p820
tp821
bsS'secnames'
p822
S'Cell[1].axon[6]'
p823
sI64
I103
tp824
a(F1.9745940374179332
S'Cell[1].dend[5] syn_ = new AmpaNmda(0.3)'
p825
I1
(dp826
g807
F0.5
sg808
F16.0
sg809
I64
sg810
g7
(g8
(I0
tp827
g10
tp828
Rp829
(I1
(I3
tp830
g817
I00
S'\xc1\x0cP\x95\x82\x11M@X\\Zl\xf0\x0fI\xc0\xc8:\\:H\x051\xc0'
p831
tp832
bsg822
S'Cell[1].axon[11]'
p833
sI64
I55
tp834
a(F2.249618258539307
S'Cell[0].apic[70] syn_ = new AmpaNmda(0.166666666667)'
p835
I0
(dp836
g807
F0.8333333333333333
sg808
F16.0
sg809
I112
sg810
g7
(g8
(I0
tp837
g10
tp838
Rp839
(I1
(I3
tp840
g817
I00
S'p\xdb\x006uLN\xc0YE\x93\xa01\xa1`@\x00\x00\x00@\xe1z\x17\xc0'
p841
tp842
bsg822
S'Cell[2].axon[37]'
p843
sI112
I7
tp844
a(F2.443836799506867
S'Cell[1].dend[2] syn_ = new AmpaNmda(0.3)'
p845
I1
(dp846
g807
F0.8333333333333333
sg808
F16.0
sg809
I112
sg810
g7
(g8
(I0
tp847
g10
tp848
Rp849
(I1
(I3
tp850
g817
I00
S'\xb2 \x07\\\xfe:P@\xc7\x81r\x02R\\\x0e\xc0\x1a\xc24$\xaf@-@'
p851
tp852
bsg822
S'Cell[2].axon[94]'
p853
sI112
I55
tp854
a(F1.7752320135740025
S'Cell[3].dend[41] syn_ = new FastInhib(0.5)'
p855
I3
(dp856
g807
F0.5
sg808
F16.0
sg809
I112
sg810
g7
(g8
(I0
tp857
g10
tp858
Rp859
(I1
(I3
tp860
g817
I00
S't\xe0\xae\xc0\x85V$@D0\x0f\xcc<\x8f3@\xa3\x88\x9c\xca\x9d\xa8\x00\xc0'
p861
tp862
bsg822
S'Cell[2].axon[103]'
p863
sI112
I151
tp864
a(F2.3365936325794414
S'Cell[0].apic[266] syn_ = new AmpaNmda(0.357142857143)'
p865
I0
(dp866
g807
F0.7857142857142856
sg808
F16.0
sg809
I112
sg810
g7
(g8
(I0
tp867
g10
tp868
Rp869
(I1
(I3
tp870
g817
I00
S'\xffC\xf4Z\r\xbfT\xc0\xee\x99\x8d\xfcq]T\xc0\xd8\x0f\x11O0\x95+\xc0'
p871
tp872
bsg822
S'Cell[2].axon[200]'
p873
sI112
I7
tp874
a(F1.039912954395447
S'Cell[0].apic[174] syn_ = new ExpSid(0.5)'
p875
I0
(dp876
S'seg'
p877
F0.5
sS'hostfrom'
p878
F17.0
sS'gid'
p879
I113
sS'coords'
p880
g7
(g8
(I0
tp881
g10
tp882
Rp883
(I1
(I3
tp884
g14
(S'f8'
p885
I0
I1
tp886
Rp887
(I3
S'<'
p888
NNNI-1
I-1
I0
tp889
bI00
S'q>;\x16\xca\xafU@\x1a\x82Oh\xa3\x7fi\xc0\xc1b\xb6\xbc\x86\x8f#@'
p890
tp891
bsS'secnames'
p892
S'Cell[2].axon[429]'
p893
sI113
I7
tp894
a(F2.0893479663462906
S'Cell[0].apic[229] syn_ = new ExpSid(0.166666666667)'
p895
I0
(dp896
g877
F0.5
sg878
F17.0
sg879
I113
sg880
g7
(g8
(I0
tp897
g10
tp898
Rp899
(I1
(I3
tp900
g887
I00
S'\xa5\x88\xa2\xdb!aJ\xc0\xf0\xa27\x1f9\xbba\xc0\x00\x00\x00\xc0\x1e\x854\xc0'
p901
tp902
bsg892
S'Cell[2].axon[656]'
p903
sI113
I7
tp904
a(F1.5407766626268924
S'Cell[0].apic[79] syn_ = new ExpSid(0.3)'
p905
I0
(dp906
g877
F0.16666666666666666
sg878
F17.0
sg879
I161
sg880
g7
(g8
(I0
tp907
g10
tp908
Rp909
(I1
(I3
tp910
g887
I00
S'\x13|\xce\xa7\x9a\xb7K@+\x13;w\xdd\xb2T@\xc89W.\xfe\x01\xd8\xbf'
p911
tp912
bsg892
S'Cell[3].axon[112]'
p913
sI161
I7
tp914
a(F0.811619007988511
S'Cell[3].dend[69] syn_ = new FastInhib(0.166666666667)'
p915
I3
(dp916
g877
F0.8333333333333333
sg878
F17.0
sg879
I161
sg880
g7
(g8
(I0
tp917
g10
tp918
Rp919
(I1
(I3
tp920
g887
I00
S'\x9f\xcc\x96n\xd30=@\xbc\xf0*\x1eYWU@\x8e\x9bd\xa23)@\xc0'
p921
tp922
bsg892
S'Cell[3].axon[224]'
p923
sI161
I151
tp924
a(F2.2536532860396585
S'Cell[1].apic[1] syn_ = new ExpSid(0.5)'
p925
I1
(dp926
g877
F0.3888888888888889
sg878
F17.0
sg879
I65
sg880
g7
(g8
(I0
tp927
g10
tp928
Rp929
(I1
(I3
tp930
g887
I00
S'\xe8\x15GV\x84\xa8Y@\xe6\x0c\xaa\xf2\xee5"@\x83]\xc1\xeb;?\x02\xc0'
p931
tp932
bsg892
S'Cell[1].axon[8]'
p933
sI65
I55
tp934
a(F0.5097667740751557
S'Cell[2].dend[49] syn_ = new FastInhib(0.166666666667)'
p935
I2
(dp936
S'seg'
p937
F0.5
sS'hostfrom'
p938
F18.0
sS'gid'
p939
I114
sS'coords'
p940
g7
(g8
(I0
tp941
g10
tp942
Rp943
(I1
(I3
tp944
g14
(S'f8'
p945
I0
I1
tp946
Rp947
(I3
S'<'
p948
NNNI-1
I-1
I0
tp949
bI00
S'Ht\x06m\xff\x177\xc0\xd2\xfdGH:\xb5P\xc0;\xf5\x14\\I\xe0\x03\xc0'
p950
tp951
bsS'secnames'
p952
S'Cell[2].axon[76]'
p953
sI114
I103
tp954
a(F1.4546458358335106
S'Cell[0].apic[268] syn_ = new AmpaNmda(0.833333333333)'
p955
I0
(dp956
g937
F0.5
sg938
F18.0
sg939
I114
sg940
g7
(g8
(I0
tp957
g10
tp958
Rp959
(I1
(I3
tp960
g947
I00
S'\x82LM\xe4\x97\xc5F\xc0\xcc\xba\x96\xc7\xcas`\xc0\xf4%\x08\xad\x17W-\xc0'
p961
tp962
bsg952
S'Cell[2].axon[131]'
p963
sI114
I7
tp964
a(F2.482712303254973
S'Cell[0].apic[224] syn_ = new AmpaNmda(0.166666666667)'
p965
I0
(dp966
g937
F0.5
sg938
F18.0
sg939
I114
sg940
g7
(g8
(I0
tp967
g10
tp968
Rp969
(I1
(I3
tp970
g947
I00
S'\x9fu\x8b1\xdf\x15K\xc0x<4\xf8\xf33a\xc0B~&\x95\xb7:>\xc0'
p971
tp972
bsg952
S'Cell[2].axon[133]'
p973
sI114
I7
tp974
a(F1.6106090766264864
S'Cell[0].apic[231] syn_ = new AmpaNmda(0.136363636364)'
p975
I0
(dp976
g937
F0.30000000000000004
sg938
F18.0
sg939
I114
sg940
g7
(g8
(I0
tp977
g10
tp978
Rp979
(I1
(I3
tp980
g947
I00
S'\x12\xda`\xeb+,A@7\x96X\x86\x92[`\xc0\x8f\x056\xf4qh \xc0'
p981
tp982
bsg952
S'Cell[2].axon[174]'
p983
sI114
I7
tp984
a(F2.3815577124167473
S'Cell[1].dend[5] syn_ = new AmpaNmda(0.9)'
p985
I1
(dp986
g937
F0.5
sg938
F18.0
sg939
I114
sg940
g7
(g8
(I0
tp987
g10
tp988
Rp989
(I1
(I3
tp990
g947
I00
S'\\\xba\x8e\x80\xa7U/@\xce\xed\xf3\xc7\xc0\x1cT\xc0P\xc7\xfdp\xb0bB\xc0'
p991
tp992
bsg952
S'Cell[2].axon[187]'
p993
sI114
I55
tp994
a(F1.5461844235971105
S'Cell[3].dend[22] syn_ = new FastInhib(0.833333333333)'
p995
I3
(dp996
g937
F0.5
sg938
F18.0
sg939
I162
sg940
g7
(g8
(I0
tp997
g10
tp998
Rp999
(I1
(I3
tp1000
g947
I00
S'I\x08\xe1\xf2\xb4\xa6R@\x8f\x03|k\xf2\xc9Y@\xc4\xa3\x87y\xd5DR\xc0'
p1001
tp1002
bsg952
S'Cell[3].axon[128]'
p1003
sI162
I151
tp1004
a(F1.4332011142787877
S'Cell[3].dend[15] syn_ = new FastInhib(0.833333333333)'
p1005
I3
(dp1006
g937
F0.5
sg938
F18.0
sg939
I162
sg940
g7
(g8
(I0
tp1007
g10
tp1008
Rp1009
(I1
(I3
tp1010
g947
I00
S'\rq~a\x9e\x1f8@e"\xd1\xfa\x92gW@d{\xd3\xb7\xdb\xf7;\xc0'
p1011
tp1012
bsg952
S'Cell[3].axon[176]'
p1013
sI162
I151
tp1014
a(F0.8764949116244308
S'Cell[0].dend[25] syn_ = new AmpaNmda(0.5)'
p1015
I0
(dp1016
g937
F0.5
sg938
F18.0
sg939
I162
sg940
g7
(g8
(I0
tp1017
g10
tp1018
Rp1019
(I1
(I3
tp1020
g947
I00
S'\x81Jx\x11\xd8\x18"@\x8e\xa0;3\xff\x1d=@EF]\x9aqo\x14@'
p1021
tp1022
bsg952
S'Cell[3].axon[181]'
p1023
sI162
I7
tp1024
a(F2.0208950896718836
S'Cell[2].dend[49] syn_ = new FastInhib(0.833333333333)'
p1025
I2
(dp1026
S'seg'
p1027
F0.3888888888888889
sS'hostfrom'
p1028
F19.0
sS'gid'
p1029
I67
sS'coords'
p1030
g7
(g8
(I0
tp1031
g10
tp1032
Rp1033
(I1
(I3
tp1034
g14
(S'f8'
p1035
I0
I1
tp1036
Rp1037
(I3
S'<'
p1038
NNNI-1
I-1
I0
tp1039
bI00
S'\x0b2\xb8\xfaH2;\xc0HS\xca\x99Y\x1ab\xc0&Bv\x91\xdeu\t@'
p1040
tp1041
bsS'secnames'
p1042
S'Cell[1].axon[14]'
p1043
sI67
I103
tp1044
a(F1.933423776265613
S'Cell[0].apic[97] syn_ = new ExpSid(0.5)'
p1045
I0
(dp1046
g1027
F0.5
sg1028
F19.0
sg1029
I163
sg1030
g7
(g8
(I0
tp1047
g10
tp1048
Rp1049
(I1
(I3
tp1050
g1037
I00
S'\x00\x00\x00\xc0\xf5xC\xc0\x00\x00\x00\x80\xeb\x89^\xc0\x00\x00\x00@33\x1f@'
p1051
tp1052
bsg1042
S'Cell[3].axon[10]'
p1053
sI163
I7
tp1054
a(F1.7925563170833456
S'Cell[0].apic[96] syn_ = new ExpSid(0.5)'
p1055
I0
(dp1056
g1027
F0.16666666666666666
sg1028
F19.0
sg1029
I163
sg1030
g7
(g8
(I0
tp1057
g10
tp1058
Rp1059
(I1
(I3
tp1060
g1037
I00
S'0;\x95GK\x12D\xc0\xf8\x8e\x1c2Q\xf4\\\xc0\xd8JJ\x1a\xc4d"@'
p1061
tp1062
bsg1042
S'Cell[3].axon[11]'
p1063
sI163
I7
tp1064
a(F2.118251785851269
S'Cell[0].apic[193] syn_ = new ExpSid(0.5)'
p1065
I0
(dp1066
g1027
F0.16666666666666666
sg1028
F19.0
sg1029
I163
sg1030
g7
(g8
(I0
tp1067
g10
tp1068
Rp1069
(I1
(I3
tp1070
g1037
I00
S'\xbd\xe2\xdc\xc4x\xb8T\xc0\x87:%\x8f\x99\xf3b\xc0hI\xda]\x87\x12-@'
p1071
tp1072
bsg1042
S'Cell[3].axon[24]'
p1073
sI163
I7
tp1074
a(F2.15149071961233
S'Cell[0].apic[191] syn_ = new ExpSid(0.5)'
p1075
I0
(dp1076
g1027
F0.5
sg1028
F19.0
sg1029
I163
sg1030
g7
(g8
(I0
tp1077
g10
tp1078
Rp1079
(I1
(I3
tp1080
g1037
I00
S'\x00\x00\x00\xe0z$E\xc0\x00\x00\x00P\xb8\xb2h\xc0\x00\x00\x00\x10\x85\x0b6@'
p1081
tp1082
bsg1042
S'Cell[3].axon[119]'
p1083
sI163
I7
tp1084
a(F2.454414983209936
S'Cell[2].dend[26] syn_ = new FastInhib(0.833333333333)'
p1085
I2
(dp1086
S'seg'
p1087
F0.36666666666666664
sS'hostfrom'
p1088
F20.0
sS'gid'
p1089
I68
sS'coords'
p1090
g7
(g8
(I0
tp1091
g10
tp1092
Rp1093
(I1
(I3
tp1094
g14
(S'f8'
p1095
I0
I1
tp1096
Rp1097
(I3
S'<'
p1098
NNNI-1
I-1
I0
tp1099
bI00
S'\x1f\x8cp\x07\xf0i@\xc0a\x11\x96\xb5\x93\x82T@D\xc7EZ\x0c3>\xc0'
p1100
tp1101
bsS'secnames'
p1102
S'Cell[1].axon[4]'
p1103
sI68
I103
tp1104
a(F2.0501162250311844
S'Cell[0].apic[171] syn_ = new AmpaNmda(0.388888888889)'
p1105
I0
(dp1106
g1087
F0.8333333333333333
sg1088
F20.0
sg1089
I68
sg1090
g7
(g8
(I0
tp1107
g10
tp1108
Rp1109
(I1
(I3
tp1110
g1097
I00
S'\x1e\xfb\x96\x9fw+[@\xa85\xc3\xb67Dp\xc0\xe7>\xe2+\x8c\xcf\x1e\xc0'
p1111
tp1112
bsg1102
S'Cell[1].axon[67]'
p1113
sI68
I7
tp1114
a(F1.9643600715163108
S'Cell[3].dend[34] syn_ = new FastInhib(0.5)'
p1115
I3
(dp1116
S'seg'
p1117
F0.5
sS'hostfrom'
p1118
F21.0
sS'gid'
p1119
I165
sS'coords'
p1120
g7
(g8
(I0
tp1121
g10
tp1122
Rp1123
(I1
(I3
tp1124
g14
(S'f8'
p1125
I0
I1
tp1126
Rp1127
(I3
S'<'
p1128
NNNI-1
I-1
I0
tp1129
bI00
S'\x00\x00\x00\xb0\x1e\x85 @\x00\x00\x00\xf0Qx<@\x00\x00\x00 \xae\xc7 \xc0'
p1130
tp1131
bsS'secnames'
p1132
S'Cell[3].axon[6]'
p1133
sI165
I151
tp1134
a(F1.2073390291168093
S'Cell[3].dend[65] syn_ = new FastInhib(0.833333333333)'
p1135
I3
(dp1136
g1117
F0.07142857142857142
sg1118
F21.0
sg1119
I165
sg1120
g7
(g8
(I0
tp1137
g10
tp1138
Rp1139
(I1
(I3
tp1140
g1127
I00
S'A\x81\x9a\tj_C\xc0dJ\x02d\x19)a@W\xce\x9bi_\xd3\x12@'
p1141
tp1142
bsg1132
S'Cell[3].axon[83]'
p1143
sI165
I151
tp1144
a(F1.7008932463857618
S'Cell[0].apic[266] syn_ = new ExpSid(0.0714285714286)'
p1145
I0
(dp1146
g1117
F0.8333333333333333
sg1118
F21.0
sg1119
I165
sg1120
g7
(g8
(I0
tp1147
g10
tp1148
Rp1149
(I1
(I3
tp1150
g1127
I00
S'\xb5\x1d\x9d\xd4d\xadD\xc0\xd1\xa0E~\r\xf5W\xc0\xc9\x8f1\xe2.<+\xc0'
p1151
tp1152
bsg1132
S'Cell[3].axon[87]'
p1153
sI165
I7
tp1154
a(F1.8203715551191815
S'Cell[3].dend[50] syn_ = new FastInhib(0.833333333333)'
p1155
I3
(dp1156
g1117
F0.5
sg1118
F21.0
sg1119
I117
sg1120
g7
(g8
(I0
tp1157
g10
tp1158
Rp1159
(I1
(I3
tp1160
g1127
I00
S'\xfeZPs\xe4\xe6B\xc0\x8e^\x8fe^\xfc]@\x00\x00\x00\x80\xc2u9\xc0'
p1161
tp1162
bsg1132
S'Cell[2].axon[173]'
p1163
sI117
I151
tp1164
a(F2.494174471685817
S'Cell[3].dend[67] syn_ = new FastInhib(0.5)'
p1165
I3
(dp1166
g1117
F0.5
sg1118
F21.0
sg1119
I117
sg1120
g7
(g8
(I0
tp1167
g10
tp1168
Rp1169
(I1
(I3
tp1170
g1127
I00
S"\xdc\xee'\xd7$h3@\xd0\x01KR\xb1\xedU@\x00\x00\x00\x80\xc2u9\xc0"
p1171
tp1172
bsg1132
S'Cell[2].axon[287]'
p1173
sI117
I151
tp1174
a(F2.1975437175737693
S'Cell[3].dend[50] syn_ = new FastInhib(0.833333333333)'
p1175
I3
(dp1176
g1117
F0.5
sg1118
F21.0
sg1119
I117
sg1120
g7
(g8
(I0
tp1177
g10
tp1178
Rp1179
(I1
(I3
tp1180
g1127
I00
S'8\x1b\x92\x88RSA\xc0\xd6f:\xc4\x98\xfc]@\x00\x00\x00\x80\xc2u9\xc0'
p1181
tp1182
bsg1132
S'Cell[2].axon[290]'
p1183
sI117
I151
tp1184
a(F1.796401958662864
S'Cell[3].dend[67] syn_ = new FastInhib(0.5)'
p1185
I3
(dp1186
g1117
F0.5
sg1118
F21.0
sg1119
I117
sg1120
g7
(g8
(I0
tp1187
g10
tp1188
Rp1189
(I1
(I3
tp1190
g1127
I00
S'\xcc\x97fC\x7fE2@\xa5\x1b\xa2F\x07fU@\x00\x00\x00\x80\xc2u9\xc0'
p1191
tp1192
bsg1132
S'Cell[2].axon[293]'
p1193
sI117
I151
tp1194
a(F1.113072974802278
S'Cell[3].dend[39] syn_ = new FastInhib(0.1)'
p1195
I3
(dp1196
g1117
F0.8333333333333333
sg1118
F21.0
sg1119
I117
sg1120
g7
(g8
(I0
tp1197
g10
tp1198
Rp1199
(I1
(I3
tp1200
g1127
I00
S"\x04+<|~\xbf*@c\xf2\xac1[\x1f'@\xc8W\x96 \xc5\x175\xc0"
p1201
tp1202
bsg1132
S'Cell[2].axon[356]'
p1203
sI117
I151
tp1204
a(F1.9565063145324582
S'Cell[3].dend[20] syn_ = new FastInhib(0.5)'
p1205
I3
(dp1206
g1117
F0.5
sg1118
F21.0
sg1119
I117
sg1120
g7
(g8
(I0
tp1207
g10
tp1208
Rp1209
(I1
(I3
tp1210
g1127
I00
S'L\xe8\x8br{52@*\n\x7f\x07\xc61P@\x00\x00\x00\x80\xc2u9\xc0'
p1211
tp1212
bsg1132
S'Cell[2].axon[487]'
p1213
sI117
I151
tp1214
a(F1.7930275758451084
S'Cell[3].dend[20] syn_ = new FastInhib(0.5)'
p1215
I3
(dp1216
g1117
F0.5
sg1118
F21.0
sg1119
I117
sg1120
g7
(g8
(I0
tp1217
g10
tp1218
Rp1219
(I1
(I3
tp1220
g1127
I00
S'\xdc\x15I\xaaaX1@\xf5\xd3-?\x18\xe5O@\x00\x00\x00\x80\xc2u9\xc0'
p1221
tp1222
bsg1132
S'Cell[2].axon[538]'
p1223
sI117
I151
tp1224
a(F2.3564023792970836
S'Cell[0].apic[178] syn_ = new AmpaNmda(0.166666666667)'
p1225
I0
(dp1226
S'seg'
p1227
F0.5
sS'hostfrom'
p1228
F22.0
sS'gid'
p1229
I118
sS'coords'
p1230
g7
(g8
(I0
tp1231
g10
tp1232
Rp1233
(I1
(I3
tp1234
g14
(S'f8'
p1235
I0
I1
tp1236
Rp1237
(I3
S'<'
p1238
NNNI-1
I-1
I0
tp1239
bI00
S'\x10\x07[8\xfc)a@\x16\x0bs\xce\xca%h\xc0D^dNu\x8d7@'
p1240
tp1241
bsS'secnames'
p1242
S'Cell[2].axon[475]'
p1243
sI118
I7
tp1244
a(F2.238431369968656
S'Cell[0].apic[175] syn_ = new AmpaNmda(0.833333333333)'
p1245
I0
(dp1246
g1227
F0.5
sg1228
F22.0
sg1229
I118
sg1230
g7
(g8
(I0
tp1247
g10
tp1248
Rp1249
(I1
(I3
tp1250
g1237
I00
S'\xfa\xdek\xe3\x0cGP@VidP\xbabh\xc0\x0e5\x97\xc0y\x881@'
p1251
tp1252
bsg1242
S'Cell[2].axon[492]'
p1253
sI118
I7
tp1254
a(F1.6268740120481406
S'Cell[0].apic[162] syn_ = new AmpaNmda(0.5)'
p1255
I0
(dp1256
g1227
F0.5
sg1228
F22.0
sg1229
I118
sg1230
g7
(g8
(I0
tp1257
g10
tp1258
Rp1259
(I1
(I3
tp1260
g1237
I00
S'\xe8\xd0\x87\xd1t\xfbF@^4\x1e\x97\xfe\xd0k\xc0:|\x01\x07F|\xd7?'
p1261
tp1262
bsg1242
S'Cell[2].axon[507]'
p1263
sI118
I7
tp1264
a(F2.3828013797164362
S'Cell[2].dend[48] syn_ = new FastInhib(0.5)'
p1265
I2
(dp1266
g1227
F0.5
sg1228
F22.0
sg1229
I70
sg1230
g7
(g8
(I0
tp1267
g10
tp1268
Rp1269
(I1
(I3
tp1270
g1237
I00
S'v\xb4v\xf2\xba~6\xc0\xce\x19\x96\x8e\xbc\xb2F\xc0\x84\xc9\xf1\xc1\xb3}\xe7\xbf'
p1271
tp1272
bsg1242
S'Cell[1].axon[8]'
p1273
sI70
I103
tp1274
a(F1.5759915214400821
S'Cell[3].dend[37] syn_ = new FastInhib(0.166666666667)'
p1275
I3
(dp1276
g1227
F0.5
sg1228
F22.0
sg1229
I22
sg1230
g7
(g8
(I0
tp1277
g10
tp1278
Rp1279
(I1
(I3
tp1280
g1237
I00
S'\xff\xff\xff?\x00\x00\xf4?\x00\x00\x00\x80\x14./@\x00\x00\x00\xc0\xcc\xcc%\xc0'
p1281
tp1282
bsg1242
S'Cell[0].soma[0]'
p1283
sI22
I151
tp1284
a(F2.395593013315511
S'Cell[2].dend[21] syn_ = new FastInhib(0.833333333333)'
p1285
I2
(dp1286
g1227
F0.5
sg1228
F22.0
sg1229
I22
sg1230
g7
(g8
(I0
tp1287
g10
tp1288
Rp1289
(I1
(I3
tp1290
g1237
I00
S'\x00\x00\x00\xe0z\x14@@\x00\x00\x00\x10\xd7\xffd@\x00\x00\x00@33\x16@'
p1291
tp1292
bsg1242
S'Cell[0].axon[2]'
p1293
sI22
I103
tp1294
a(F1.4176075416724936
S'Cell[2].dend[21] syn_ = new FastInhib(0.5)'
p1295
I2
(dp1296
g1227
F0.16666666666666666
sg1228
F22.0
sg1229
I22
sg1230
g7
(g8
(I0
tp1297
g10
tp1298
Rp1299
(I1
(I3
tp1300
g1237
I00
S'g2a\xaa\x1et=@\\\xa0\xf1R\x0c\x10e@\xb2\x93\xc1\x9f%4\x06\xc0'
p1301
tp1302
bsg1242
S'Cell[0].axon[4]'
p1303
sI22
I103
tp1304
a(F1.7906369225832528
S'Cell[0].apic[75] syn_ = new AmpaNmda(0.166666666667)'
p1305
I0
(dp1306
g1227
F0.7222222222222223
sg1228
F22.0
sg1229
I22
sg1230
g7
(g8
(I0
tp1307
g10
tp1308
Rp1309
(I1
(I3
tp1310
g1237
I00
S'K\x86\x98]\x03\x84V\xc0/\t7H\xb6bY@\x00\x00\x00@\xe1z\x15\xc0'
p1311
tp1312
bsg1242
S'Cell[0].axon[6]'
p1313
sI22
I7
tp1314
a(F2.4433638607709667
S'Cell[2].dend[45] syn_ = new FastInhib(0.9)'
p1315
I2
(dp1316
g1227
F0.16666666666666666
sg1228
F22.0
sg1229
I166
sg1230
g7
(g8
(I0
tp1317
g10
tp1318
Rp1319
(I1
(I3
tp1320
g1237
I00
S'y1-\x9b\xa0|<\xc0 \x82\xed\x01\xabd`\xc0\x0e\x9d\xa5\t\xf29-@'
p1321
tp1322
bsg1242
S'Cell[3].axon[304]'
p1323
sI166
I103
tp1324
a(F1.8532846636842384
S'Cell[1].apic[39] syn_ = new ExpSid(0.833333333333)'
p1325
I1
(dp1326
S'seg'
p1327
F0.16666666666666666
sS'hostfrom'
p1328
F23.0
sS'gid'
p1329
I119
sS'coords'
p1330
g7
(g8
(I0
tp1331
g10
tp1332
Rp1333
(I1
(I3
tp1334
g14
(S'f8'
p1335
I0
I1
tp1336
Rp1337
(I3
S'<'
p1338
NNNI-1
I-1
I0
tp1339
bI00
S'\x80\xed\x01\xe0\x08\x80\xd8?c\x18\xa4E\xae\x0bX@\x8a\xa3X\xadp\xcf\n@'
p1340
tp1341
bsS'secnames'
p1342
S'Cell[2].axon[5]'
p1343
sI119
I55
tp1344
a(F0.7672741461005829
S'Cell[2].dend[11] syn_ = new FastInhib(0.5)'
p1345
I2
(dp1346
g1327
F0.5
sg1328
F23.0
sg1329
I71
sg1330
g7
(g8
(I0
tp1347
g10
tp1348
Rp1349
(I1
(I3
tp1350
g1337
I00
S'I\xff\xff\xdf{\x14\xe6\xbf\x00\x00\x00\x00\x00\xe0F@\x00\x00\x00\x80=\n\x1c@'
p1351
tp1352
bsg1342
S'Cell[1].soma[0]'
p1353
sI71
I103
tp1354
a(F2.2112466652225327
S'Cell[0].apic[196] syn_ = new ExpSid(0.166666666667)'
p1355
I0
(dp1356
g1327
F0.49999999999999994
sg1328
F23.0
sg1329
I167
sg1330
g7
(g8
(I0
tp1357
g10
tp1358
Rp1359
(I1
(I3
tp1360
g1337
I00
S'\x8fd\xae#\x91\x13\\\xc0\xde\xf60\xa4stf\xc0\x00\x00\x00\xc0\x1e\xc56@'
p1361
tp1362
bsg1342
S'Cell[3].axon[14]'
p1363
sI167
I7
tp1364
a(F1.2827105562794188
S'Cell[2].dend[47] syn_ = new FastInhib(0.166666666667)'
p1365
I2
(dp1366
g1327
F0.5
sg1328
F23.0
sg1329
I167
sg1330
g7
(g8
(I0
tp1367
g10
tp1368
Rp1369
(I1
(I3
tp1370
g1337
I00
S'\xf9\xf5#\x95 -9\xc06\xc1%?\xf0\xc0C\xc0\xf6g\xa0\x8f\xe8\x81\xd4\xbf'
p1371
tp1372
bsg1342
S'Cell[3].axon[156]'
p1373
sI167
I103
tp1374
a(F1.265659039767776
S'Cell[0].apic[195] syn_ = new ExpSid(0.166666666667)'
p1375
I0
(dp1376
g1327
F0.5769230769230769
sg1328
F23.0
sg1329
I167
sg1330
g7
(g8
(I0
tp1377
g10
tp1378
Rp1379
(I1
(I3
tp1380
g1337
I00
S'rW\xd0\xfa\x1f\xcbH\xc0\xf0\x0fv\x94lQh\xc0XL\xd1\xebgi6@'
p1381
tp1382
bsg1342
S'Cell[3].axon[159]'
p1383
sI167
I7
tp1384
a(F1.151139567447188
S'Cell[3].dend[11] syn_ = new FastInhib(0.5)'
p1385
I3
(dp1386
g1327
F0.5909090909090909
sg1328
F23.0
sg1329
I23
sg1330
g7
(g8
(I0
tp1387
g10
tp1388
Rp1389
(I1
(I3
tp1390
g1337
I00
S'\xf8(\xbf\xae\xebl;@ju\x1e\x8e6\x82V@\x00\x00\x00\xe0Q\xb8\x02\xc0'
p1391
tp1392
bsg1342
S'Cell[0].axon[8]'
p1393
sI23
I151
tp1394
a(F2.08610573616945
S'Cell[3].dend[1] syn_ = new FastInhib(0.833333333333)'
p1395
I3
(dp1396
S'seg'
p1397
F0.05555555555555555
sS'hostfrom'
p1398
F24.0
sS'gid'
p1399
I168
sS'coords'
p1400
g7
(g8
(I0
tp1401
g10
tp1402
Rp1403
(I1
(I3
tp1404
g14
(S'f8'
p1405
I0
I1
tp1406
Rp1407
(I3
S'<'
p1408
NNNI-1
I-1
I0
tp1409
bI00
S'>\x19\x81gOc(\xc04\xf0k\x01\xe5\xa9P@\x00\x00\x00\xc0\xcc\xdcQ\xc0'
p1410
tp1411
bsS'secnames'
p1412
S'Cell[3].axon[540]'
p1413
sI168
I151
tp1414
a(F1.9687169688034674
S'Cell[0].apic[268] syn_ = new AmpaNmda(0.166666666667)'
p1415
I0
(dp1416
g1397
F0.49999999999999994
sg1398
F24.0
sg1399
I120
sg1400
g7
(g8
(I0
tp1417
g10
tp1418
Rp1419
(I1
(I3
tp1420
g1407
I00
S'\xaa\xadS\x1f\x17\tD\xc0\xb9\x10\xce\x1b\xf0oZ\xc0\x00\x00\x00`\x8fB(\xc0'
p1421
tp1422
bsg1412
S'Cell[2].axon[263]'
p1423
sI120
I7
tp1424
a(F2.3477286427197908
S'Cell[1].apic[45] syn_ = new ExpSid(0.5)'
p1425
I1
(dp1426
S'seg'
p1427
F0.6111111111111112
sS'hostfrom'
p1428
F25.0
sS'gid'
p1429
I121
sS'coords'
p1430
g7
(g8
(I0
tp1431
g10
tp1432
Rp1433
(I1
(I3
tp1434
g14
(S'f8'
p1435
I0
I1
tp1436
Rp1437
(I3
S'<'
p1438
NNNI-1
I-1
I0
tp1439
bI00
S'x\xdb\xc5~\xe9\xaeE@t@!<\x97\xb6g@*\xb0\xbb\xc4#^\x10@'
p1440
tp1441
bsS'secnames'
p1442
S'Cell[2].axon[30]'
p1443
sI121
I55
tp1444
a(F1.9836770675100222
S'Cell[2].dend[31] syn_ = new FastInhib(0.166666666667)'
p1445
I2
(dp1446
g1427
F0.5
sg1428
F25.0
sg1429
I121
sg1430
g7
(g8
(I0
tp1447
g10
tp1448
Rp1449
(I1
(I3
tp1450
g1437
I00
S'C\xe4P^\xba<F\xc0\x01m\x1e(\xdf\xf5R@\x00\x00\x00@33&\xc0'
p1451
tp1452
bsg1442
S'Cell[2].axon[107]'
p1453
sI121
I103
tp1454
a(F2.369077344405201
S'Cell[2].dend[24] syn_ = new FastInhib(0.833333333333)'
p1455
I2
(dp1456
g1427
F0.16666666666666666
sg1428
F25.0
sg1429
I121
sg1430
g7
(g8
(I0
tp1457
g10
tp1458
Rp1459
(I1
(I3
tp1460
g1437
I00
S'\x13\xcb\xe5\x88\xe2\x0eN\xc0>F22\xd5\xaeV@8\x1bI[\xb9P\x18\xc0'
p1461
tp1462
bsg1442
S'Cell[2].axon[122]'
p1463
sI121
I103
tp1464
a(F2.0823431387070404
S'Cell[0].apic[74] syn_ = new ExpSid(0.5)'
p1465
I0
(dp1466
g1427
F0.5
sg1428
F25.0
sg1429
I121
sg1430
g7
(g8
(I0
tp1467
g10
tp1468
Rp1469
(I1
(I3
tp1470
g1437
I00
S'\xd1\x0cRi{@O\xc0*\xe3_\x85K\xc0Y@\xbc\xb2"\xdbH_\x1b\xc0'
p1471
tp1472
bsg1442
S'Cell[2].axon[122]'
p1473
sI121
I7
tp1474
a(F1.5350594820214307
S'Cell[3].dend[37] syn_ = new FastInhib(0.833333333333)'
p1475
I3
(dp1476
g1427
F0.5
sg1428
F25.0
sg1429
I121
sg1430
g7
(g8
(I0
tp1477
g10
tp1478
Rp1479
(I1
(I3
tp1480
g1437
I00
S"m1e\xc8S\x1dB\xc0\xb4\xb4\xb2\x9d\xd6>2\xc0\x00\x00\x00`ff'@"
p1481
tp1482
bsg1442
S'Cell[2].axon[186]'
p1483
sI121
I151
tp1484
a(F1.799364121828627
S'Cell[0].apic[98] syn_ = new ExpSid(0.5)'
p1485
I0
(dp1486
g1427
F0.8333333333333333
sg1428
F25.0
sg1429
I121
sg1430
g7
(g8
(I0
tp1487
g10
tp1488
Rp1489
(I1
(I3
tp1490
g1437
I00
S'mS\x82|}\x9cB\xc0\x95}rg\x00\x1a`\xc0\xcb\xd0q\xeb\xda\xf9"@'
p1491
tp1492
bsg1442
S'Cell[2].axon[217]'
p1493
sI121
I7
tp1494
a(F2.0937844684898037
S'Cell[0].apic[129] syn_ = new ExpSid(0.5)'
p1495
I0
(dp1496
g1427
F0.02631578947368421
sg1428
F25.0
sg1429
I121
sg1430
g7
(g8
(I0
tp1497
g10
tp1498
Rp1499
(I1
(I3
tp1500
g1437
I00
S'\x12\x0758\xc4\xb5G\xc0A\x9f\xa5:\xfefq\xc0\xc4\xeeMM],7\xc0'
p1501
tp1502
bsg1442
S'Cell[2].axon[219]'
p1503
sI121
I7
tp1504
a(F1.6892094910585798
S'Cell[0].apic[263] syn_ = new ExpSid(0.5)'
p1505
I0
(dp1506
g1427
F0.5
sg1428
F25.0
sg1429
I169
sg1430
g7
(g8
(I0
tp1507
g10
tp1508
Rp1509
(I1
(I3
tp1510
g1437
I00
S'2\x02l\xc3K\xca<\xc0\xde\x871\xea@\xe4a\xc0\xfd\xbc\x92\x1f\x84\x00>\xc0'
p1511
tp1512
bsg1442
S'Cell[3].axon[118]'
p1513
sI169
I7
tp1514
a(F2.312538201653845
S'Cell[0].dend[3] syn_ = new ExpSid(0.166666666667)'
p1515
I0
(dp1516
g1427
F0.03333333333333333
sg1428
F25.0
sg1429
I73
sg1430
g7
(g8
(I0
tp1517
g10
tp1518
Rp1519
(I1
(I3
tp1520
g1437
I00
S'\r*\xa3\x10\x14w\x0c\xc0\xc8x|^\x03\xa8\x19@\x00\x00\x00\xc0\xccL2@'
p1521
tp1522
bsg1442
S'Cell[1].axon[3]'
p1523
sI73
I7
tp1524
a(F1.915815703171325
S'Cell[0].apic[89] syn_ = new ExpSid(0.642857142857)'
p1525
I0
(dp1526
g1427
F0.4333333333333333
sg1428
F25.0
sg1429
I73
sg1430
g7
(g8
(I0
tp1527
g10
tp1528
Rp1529
(I1
(I3
tp1530
g1437
I00
S'\xdc\xda\x8fcv{[\xc0\xbf\x1a\xc8bd\xb6[@I,\xaf\xad\xe9\xd00\xc0'
p1531
tp1532
bsg1442
S'Cell[1].axon[3]'
p1533
sI73
I7
tp1534
a(F0.8778851787574214
S'Cell[1].apic[45] syn_ = new AmpaNmda(0.277777777778)'
p1535
I1
(dp1536
S'seg'
p1537
F0.30000000000000004
sS'hostfrom'
p1538
F26.0
sS'gid'
p1539
I170
sS'coords'
p1540
g7
(g8
(I0
tp1541
g10
tp1542
Rp1543
(I1
(I3
tp1544
g14
(S'f8'
p1545
I0
I1
tp1546
Rp1547
(I3
S'<'
p1548
NNNI-1
I-1
I0
tp1549
bI00
S'\xfa\x1fqMc\xddK@9\xcb\x87\xa8\x06\xf8`@X\x08D\xf0\x02l&@'
p1550
tp1551
bsS'secnames'
p1552
S'Cell[3].axon[167]'
p1553
sI170
I55
tp1554
a(F1.9734921135948646
S'Cell[3].dend[74] syn_ = new FastInhib(0.833333333333)'
p1555
I3
(dp1556
g1537
F0.1
sg1538
F26.0
sg1539
I170
sg1540
g7
(g8
(I0
tp1557
g10
tp1558
Rp1559
(I1
(I3
tp1560
g1547
I00
S'\n\x08H\x1d\x9aq\x05\xc0\x96\xf1\x11\xe3\xbe3e@\x00\x00\x00\x00\x00\x00&\xc0'
p1561
tp1562
bsg1552
S'Cell[3].axon[311]'
p1563
sI170
I151
tp1564
a(F1.748378672955837
S'Cell[0].dend[2] syn_ = new ExpSid(0.5)'
p1565
I0
(dp1566
S'seg'
p1567
F0.05555555555555555
sS'hostfrom'
p1568
F27.0
sS'gid'
p1569
I75
sS'coords'
p1570
g7
(g8
(I0
tp1571
g10
tp1572
Rp1573
(I1
(I3
tp1574
g14
(S'f8'
p1575
I0
I1
tp1576
Rp1577
(I3
S'<'
p1578
NNNI-1
I-1
I0
tp1579
bI00
S"\xbc,\xa9(\xe5jD@\xab\xc0\x82\xedqk'\xc0\x00\x00\x00@3\xb3 @"
p1580
tp1581
bsS'secnames'
p1582
S'Cell[1].axon[2]'
p1583
sI75
I7
tp1584
a(F2.2626463782721604
S'Cell[0].apic[224] syn_ = new ExpSid(0.5)'
p1585
I0
(dp1586
g1567
F0.1
sg1568
F27.0
sg1569
I75
sg1570
g7
(g8
(I0
tp1587
g10
tp1588
Rp1589
(I1
(I3
tp1590
g1577
I00
S'\x9f\x84v\xf33~L\xc0\x8d\x06XA1`^\xc0\x0f\xf2|\xe1\xf8\t@\xc0'
p1591
tp1592
bsg1582
S'Cell[1].axon[24]'
p1593
sI75
I7
tp1594
a(F1.7136722395697273
S'Cell[3].dend[60] syn_ = new FastInhib(0.5)'
p1595
I3
(dp1596
g1567
F0.5
sg1568
F27.0
sg1569
I171
sg1570
g7
(g8
(I0
tp1597
g10
tp1598
Rp1599
(I1
(I3
tp1600
g1577
I00
S'y>_\x95>\x01&@\x1c\x1dJ\xdaLj]@\xaa\x14=o\xae\x06\xfa\xbf'
p1601
tp1602
bsg1582
S'Cell[3].axon[4]'
p1603
sI171
I151
tp1604
a(F2.1294553270577903
S'Cell[0].dend[26] syn_ = new ExpSid(0.5)'
p1605
I0
(dp1606
g1567
F0.30000000000000004
sg1568
F27.0
sg1569
I171
sg1570
g7
(g8
(I0
tp1607
g10
tp1608
Rp1609
(I1
(I3
tp1610
g1577
I00
S'\x82\x0f\x8a\x10\xdcpA@pQ\x04>\xea.@@\xb9\xfe9\xb4\xef\x0f\xf5?'
p1611
tp1612
bsg1582
S'Cell[3].axon[32]'
p1613
sI171
I7
tp1614
a(F2.250026759658477
S'Cell[0].dend[25] syn_ = new ExpSid(0.5)'
p1615
I0
(dp1616
g1567
F0.5
sg1568
F27.0
sg1569
I171
sg1570
g7
(g8
(I0
tp1617
g10
tp1618
Rp1619
(I1
(I3
tp1620
g1577
I00
S'~s^\xc3\xa5\xb9#@T\xa2\xe9\xecq\x03<@Q\xa0\xb5\x96\xa8\x9c\x07@'
p1621
tp1622
bsg1582
S'Cell[3].axon[64]'
p1623
sI171
I7
tp1624
a(F1.5879559512860244
S'Cell[3].dend[32] syn_ = new FastInhib(0.5)'
p1625
I3
(dp1626
S'seg'
p1627
F0.5
sS'hostfrom'
p1628
F28.0
sS'gid'
p1629
I172
sS'coords'
p1630
g7
(g8
(I0
tp1631
g10
tp1632
Rp1633
(I1
(I3
tp1634
g14
(S'f8'
p1635
I0
I1
tp1636
Rp1637
(I3
S'<'
p1638
NNNI-1
I-1
I0
tp1639
bI00
S'\x99\x0f :{\xe4H@D\x8f:tA\x04\x17@|/\x8f\r7\xdc\xf6?'
p1640
tp1641
bsS'secnames'
p1642
S'Cell[3].axon[90]'
p1643
sI172
I151
tp1644
a(F2.0017261785320373
S'Cell[3].dend[54] syn_ = new FastInhib(0.5)'
p1645
I3
(dp1646
S'seg'
p1647
F0.5
sS'hostfrom'
p1648
F29.0
sS'gid'
p1649
I173
sS'coords'
p1650
g7
(g8
(I0
tp1651
g10
tp1652
Rp1653
(I1
(I3
tp1654
g14
(S'f8'
p1655
I0
I1
tp1656
Rp1657
(I3
S'<'
p1658
NNNI-1
I-1
I0
tp1659
bI00
S'\x8d\xc9\xfc]\xba\xc4\x06@;IK\x96v\xfbP@\x97\xbc\x89\x0f\xcb\x922\xc0'
p1660
tp1661
bsS'secnames'
p1662
S'Cell[3].axon[0]'
p1663
sI173
I151
tp1664
a(F2.0852461599879675
S'Cell[0].apic[231] syn_ = new ExpSid(0.0454545454545)'
p1665
I0
(dp1666
g1647
F0.16666666666666666
sg1648
F29.0
sg1649
I125
sg1650
g7
(g8
(I0
tp1667
g10
tp1668
Rp1669
(I1
(I3
tp1670
g1657
I00
S'\xae\xf4\xa7s\x91\xc3-@8\xae9\x9e\xa4\x98`\xc0\x00\x00\x00 \xae\xc7)\xc0'
p1671
tp1672
bsg1662
S'Cell[2].axon[1]'
p1673
sI125
I7
tp1674
a(F2.3310047894363177
S'Cell[0].apic[271] syn_ = new AmpaNmda(0.277777777778)'
p1675
I0
(dp1676
S'seg'
p1677
F0.16666666666666666
sS'hostfrom'
p1678
F30.0
sS'gid'
p1679
I126
sS'coords'
p1680
g7
(g8
(I0
tp1681
g10
tp1682
Rp1683
(I1
(I3
tp1684
g14
(S'f8'
p1685
I0
I1
tp1686
Rp1687
(I3
S'<'
p1688
NNNI-1
I-1
I0
tp1689
bI00
S'\xd7\xb7\x8cp\xf1\xbe4@~\x96\xfc=\xda\xc6X\xc0l\x85\xd8\n\x96+-\xc0'
p1690
tp1691
bsS'secnames'
p1692
S'Cell[2].axon[8]'
p1693
sI126
I7
tp1694
a(F2.3522054002102073
S'Cell[3].dend[71] syn_ = new FastInhib(0.5)'
p1695
I3
(dp1696
g1677
F0.8333333333333333
sg1678
F30.0
sg1679
I126
sg1680
g7
(g8
(I0
tp1697
g10
tp1698
Rp1699
(I1
(I3
tp1700
g1687
I00
S'\xc0\xc9\x1d\x81\r\x8b*@!\xbe\xe9\xa5,\x15[@&\x8f\x94\xe9\xbay&\xc0'
p1701
tp1702
bsg1692
S'Cell[2].axon[175]'
p1703
sI126
I151
tp1704
a(F2.0715486254238673
S'Cell[0].apic[52] syn_ = new AmpaNmda(0.166666666667)'
p1705
I0
(dp1706
g1677
F0.9444444444444446
sg1678
F30.0
sg1679
I126
sg1680
g7
(g8
(I0
tp1707
g10
tp1708
Rp1709
(I1
(I3
tp1710
g1687
I00
S'a\x08\xbe\xa0\xfeEQ\xc0r\x9ef\xc1n\xe3r@r\xa3O\xae\xa5y\x18@'
p1711
tp1712
bsg1692
S'Cell[2].axon[216]'
p1713
sI126
I7
tp1714
a(F2.4110757365390616
S'Cell[0].apic[231] syn_ = new AmpaNmda(0.0454545454545)'
p1715
I0
(dp1716
g1677
F0.30000000000000004
sg1678
F30.0
sg1679
I174
sg1680
g7
(g8
(I0
tp1717
g10
tp1718
Rp1719
(I1
(I3
tp1720
g1687
I00
S'\x18\xddgD\xf9n-@\xc4]/\tC\x05a\xc0Qq3P\xe7\xb3(\xc0'
p1721
tp1722
bsg1692
S'Cell[3].axon[137]'
p1723
sI174
I7
tp1724
a(F2.3606271310687643
S'Cell[2].dend[45] syn_ = new FastInhib(0.9)'
p1725
I2
(dp1726
g1677
F0.5
sg1678
F30.0
sg1679
I174
sg1680
g7
(g8
(I0
tp1727
g10
tp1728
Rp1729
(I1
(I3
tp1730
g1687
I00
S'!\xab9\x1a\x8c\x15=\xc09u30C\x8e`\xc0vjA\xc3N\x1a%@'
p1731
tp1732
bsg1692
S'Cell[3].axon[141]'
p1733
sI174
I103
tp1734
a(F2.126454102849776
S'Cell[2].dend[7] syn_ = new FastInhib(0.5)'
p1735
I2
(dp1736
g1677
F0.8999999999999999
sg1678
F30.0
sg1679
I174
sg1680
g7
(g8
(I0
tp1737
g10
tp1738
Rp1739
(I1
(I3
tp1740
g1687
I00
S'vM\x8c\xcf\xcd\x9c(@\xda[xdI\xf7Y@#\xd9\xcf\xb3\xbd<&@'
p1741
tp1742
bsg1692
S'Cell[3].axon[151]'
p1743
sI174
I103
tp1744
a(F1.471531896135226
S'Cell[2].dend[8] syn_ = new FastInhib(0.5)'
p1745
I2
g1736
I174
I103
tp1746
a(F2.389061516758979
S'Cell[0].apic[0] syn_ = new AmpaNmda(0.5)'
p1747
I0
(dp1748
g1677
F0.5
sg1678
F30.0
sg1679
I174
sg1680
g7
(g8
(I0
tp1749
g10
tp1750
Rp1751
(I1
(I3
tp1752
g1687
I00
S'<m\x01v\xfd}/\xc0Z\xe3\xb5\xd8\xecEI@\xdaVq\x14\xb3\xcb#@'
p1753
tp1754
bsg1692
S'Cell[3].axon[370]'
p1755
sI174
I7
tp1756
a(F1.3359730354592387
S'Cell[0].apic[92] syn_ = new ExpSid(0.5)'
p1757
I0
(dp1758
S'seg'
p1759
F0.6428571428571428
sS'hostfrom'
p1760
F31.0
sS'gid'
p1761
I175
sS'coords'
p1762
g7
(g8
(I0
tp1763
g10
tp1764
Rp1765
(I1
(I3
tp1766
g14
(S'f8'
p1767
I0
I1
tp1768
Rp1769
(I3
S'<'
p1770
NNNI-1
I-1
I0
tp1771
bI00
S"L\x1a4'\x03\x9e5\xc0\x935\xf7\xa0\xfd\xd6V@\x9eT%.\xaa\x1d\x17@"
p1772
tp1773
bsS'secnames'
p1774
S'Cell[3].axon[128]'
p1775
sI175
I7
tp1776
a(F2.123195591862457
S'Cell[0].apic[93] syn_ = new ExpSid(0.5)'
p1777
I0
g1758
I175
I7
tp1778
a(F2.4929153221892184
S'Cell[0].apic[264] syn_ = new AmpaNmda(0.5)'
p1779
I0
(dp1780
S'seg'
p1781
F0.5
sS'hostfrom'
p1782
F32.0
sS'gid'
p1783
I176
sS'coords'
p1784
g7
(g8
(I0
tp1785
g10
tp1786
Rp1787
(I1
(I3
tp1788
g14
(S'f8'
p1789
I0
I1
tp1790
Rp1791
(I3
S'<'
p1792
NNNI-1
I-1
I0
tp1793
bI00
S's\x15s\xbb\xd0U<\xc0LL\xacuI#`\xc0\xfd\x89M\xd7\x0e\x02=\xc0'
p1794
tp1795
bsS'secnames'
p1796
S'Cell[3].axon[25]'
p1797
sI176
I7
tp1798
a(F1.788798295873169
S'Cell[0].apic[162] syn_ = new AmpaNmda(0.5)'
p1799
I0
(dp1800
g1781
F0.16666666666666666
sg1782
F32.0
sg1783
I176
sg1784
g7
(g8
(I0
tp1801
g10
tp1802
Rp1803
(I1
(I3
tp1804
g1791
I00
S'\xbe\xf0\xfe\x8b\xee\x03H@P\xae\xfe\x01\xac\xbbk\xc0xg\x94\xfe=\x95\xb8\xbf'
p1805
tp1806
bsg1796
S'Cell[3].axon[30]'
p1807
sI176
I7
tp1808
a(F1.7898908683418757
S'Cell[0].apic[231] syn_ = new AmpaNmda(0.136363636364)'
p1809
I0
(dp1810
g1781
F0.5
sg1782
F32.0
sg1783
I176
sg1784
g7
(g8
(I0
tp1811
g10
tp1812
Rp1813
(I1
(I3
tp1814
g1791
I00
S'\x00\x00\x00 \x85\x9b@@\x00\x00\x00 \x85\x8f`\xc0\x00\x00\x00p\x14.#\xc0'
p1815
tp1816
bsg1796
S'Cell[3].axon[74]'
p1817
sI176
I7
tp1818
a(F2.428507967361368
S'Cell[2].dend[30] syn_ = new FastInhib(0.7)'
p1819
I2
(dp1820
S'seg'
p1821
F0.16666666666666666
sS'hostfrom'
p1822
F33.0
sS'gid'
p1823
I129
sS'coords'
p1824
g7
(g8
(I0
tp1825
g10
tp1826
Rp1827
(I1
(I3
tp1828
g14
(S'f8'
p1829
I0
I1
tp1830
Rp1831
(I3
S'<'
p1832
NNNI-1
I-1
I0
tp1833
bI00
S'\xea\xb2\x96\xcd\x83\xdfO\xc0\xfa\x12,\xee\xcf\xa9^@\x00\x00\x00@\n\x977\xc0'
p1834
tp1835
bsS'secnames'
p1836
S'Cell[2].axon[18]'
p1837
sI129
I103
tp1838
a(F2.2853977404305965
S'Cell[1].apic[40] syn_ = new ExpSid(0.3)'
p1839
I1
(dp1840
g1821
F0.30000000000000004
sg1822
F33.0
sg1823
I129
sg1824
g7
(g8
(I0
tp1841
g10
tp1842
Rp1843
(I1
(I3
tp1844
g1831
I00
S'8~"\xfcT\xcaB@(;\xb0\xcb\xebs`@\xca\xa2B\xb9\xcah\x0b@'
p1845
tp1846
bsg1836
S'Cell[2].axon[57]'
p1847
sI129
I55
tp1848
a(F1.9267737290675788
S'Cell[1].apic[38] syn_ = new ExpSid(0.5)'
p1849
I1
(dp1850
g1821
F0.5
sg1822
F33.0
sg1823
I129
sg1824
g7
(g8
(I0
tp1851
g10
tp1852
Rp1853
(I1
(I3
tp1854
g1831
I00
S"\xdfG\xf6>\xc1\xa7N@)\x97i\xc9DRU@\x1f\xec\xa7G\xbd\x9c'@"
p1855
tp1856
bsg1836
S'Cell[2].axon[69]'
p1857
sI129
I55
tp1858
a(F2.0320896107052207
S'Cell[2].dend[42] syn_ = new FastInhib(0.3)'
p1859
I2
(dp1860
g1821
F0.8333333333333333
sg1822
F33.0
sg1823
I177
sg1824
g7
(g8
(I0
tp1861
g10
tp1862
Rp1863
(I1
(I3
tp1864
g1831
I00
S'\xbfg\xeb\xf2&\xf7>@\x17q\xa1AZn4@jo\xecI\x98\xb7\n\xc0'
p1865
tp1866
bsg1836
S'Cell[3].axon[36]'
p1867
sI177
I103
tp1868
a(F2.0763099765903776
S'Cell[2].dend[22] syn_ = new FastInhib(0.5)'
p1869
I2
(dp1870
g1821
F0.5
sg1822
F33.0
sg1823
I177
sg1824
g7
(g8
(I0
tp1871
g10
tp1872
Rp1873
(I1
(I3
tp1874
g1831
I00
S'\x00\x00\x00\x00\x00`5\xc0\x00\x00\x00\x00\x00\xc0H@\x00\x00\x00\x10\xd7\xa3\xf0\xbf'
p1875
tp1876
bsg1836
S'Cell[3].axon[44]'
p1877
sI177
I103
tp1878
a(F2.4910972258872826
S'Cell[0].apic[95] syn_ = new ExpSid(0.166666666667)'
p1879
I0
(dp1880
g1821
F0.8333333333333333
sg1822
F33.0
sg1823
I177
sg1824
g7
(g8
(I0
tp1881
g10
tp1882
Rp1883
(I1
(I3
tp1884
g1831
I00
S"\x81'\xb4\x95^(5\xc0^\xfc9\xc5k\x00\x16\xc0\x01\x96\xcb|\xaaU6@"
p1885
tp1886
bsg1836
S'Cell[3].axon[58]'
p1887
sI177
I7
tp1888
a(F1.6043379429912952
S'Cell[2].dend[21] syn_ = new FastInhib(0.5)'
p1889
I2
(dp1890
g1821
F0.7
sg1822
F33.0
sg1823
I177
sg1824
g7
(g8
(I0
tp1891
g10
tp1892
Rp1893
(I1
(I3
tp1894
g1831
I00
S'\xcd/6.\x1ff<@\xcfi\x16\xd9a\xd1d@\xe2)skJ\xd2\x05\xc0'
p1895
tp1896
bsg1836
S'Cell[3].axon[67]'
p1897
sI177
I103
tp1898
a(F1.677712389495767
S'Cell[3].dend[15] syn_ = new FastInhib(0.833333333333)'
p1899
I3
(dp1900
g1821
F0.1
sg1822
F33.0
sg1823
I177
sg1824
g7
(g8
(I0
tp1901
g10
tp1902
Rp1903
(I1
(I3
tp1904
g1831
I00
S'\x15\x14j\xe7p\xe27@\x10u\xb3.\xa1\xa1W@\x18\r\xcf\x10)\x9f<\xc0'
p1905
tp1906
bsg1836
S'Cell[3].axon[144]'
p1907
sI177
I151
tp1908
a(F1.926711004027865
S'Cell[0].apic[202] syn_ = new ExpSid(0.676470588235)'
p1909
I0
(dp1910
g1821
F0.06
sg1822
F33.0
sg1823
I81
sg1824
g7
(g8
(I0
tp1911
g10
tp1912
Rp1913
(I1
(I3
tp1914
g1831
I00
S'4\xeb5\xbf]C`@\xf3e\xe6o\t\xfcR\xc0\xb8\xad\xa3\xe8\x16\xe5>\xc0'
p1915
tp1916
bsg1836
S'Cell[1].axon[5]'
p1917
sI81
I7
tp1918
a(F1.6722582905710555
S'Cell[2].dend[10] syn_ = new FastInhib(0.5)'
p1919
I2
(dp1920
g1821
F0.9285714285714284
sg1822
F33.0
sg1823
I81
sg1824
g7
(g8
(I0
tp1921
g10
tp1922
Rp1923
(I1
(I3
tp1924
g1831
I00
S'\x04\xcd\xc7[\x7fJ\t\xc0\xcf\\6\x19(\xc5H@\x00\x00\x00@33\xf3?'
p1925
tp1926
bsg1836
S'Cell[1].axon[73]'
p1927
sI81
I103
tp1928
a(F1.8982914286920893
S'Cell[3].dend[10] syn_ = new FastInhib(0.166666666667)'
p1929
I3
(dp1930
S'seg'
p1931
F0.5
sS'hostfrom'
p1932
F34.0
sS'gid'
p1933
I82
sS'coords'
p1934
g7
(g8
(I0
tp1935
g10
tp1936
Rp1937
(I1
(I3
tp1938
g14
(S'f8'
p1939
I0
I1
tp1940
Rp1941
(I3
S'<'
p1942
NNNI-1
I-1
I0
tp1943
bI00
S"\x86\xc5\xd3\xa6H\xc27@\xeb\xdc10'zX@\x00\x00\x00\xc0\xcc\xcc\x10\xc0"
p1944
tp1945
bsS'secnames'
p1946
S'Cell[1].axon[2]'
p1947
sI82
I151
tp1948
a(F1.6526989333873188
S'Cell[0].apic[79] syn_ = new AmpaNmda(0.1)'
p1949
I0
g1930
I82
I7
tp1950
a(F2.3320460675594523
S'Cell[2].dend[47] syn_ = new FastInhib(0.166666666667)'
p1951
I2
(dp1952
g1931
F0.8333333333333333
sg1932
F34.0
sg1933
I82
sg1934
g7
(g8
(I0
tp1953
g10
tp1954
Rp1955
(I1
(I3
tp1956
g1941
I00
S'i]\xa6+\x97\x9b9\xc0V\x99\xe7C\xfdZE\xc0\x00\x00\x00\x00\x00\x00\xf8\xbf'
p1957
tp1958
bsg1946
S'Cell[1].axon[255]'
p1959
sI82
I103
tp1960
a(F2.2316775182984787
S'Cell[2].dend[52] syn_ = new FastInhib(0.166666666667)'
p1961
I2
(dp1962
g1931
F0.5
sg1932
F34.0
sg1933
I82
sg1934
g7
(g8
(I0
tp1963
g10
tp1964
Rp1965
(I1
(I3
tp1966
g1941
I00
S'\x00\x00\x0004\xd3:\xc0\x00\x00\x0003\xa3J\xc0\x00\x00\x80fff\n\xc0'
p1967
tp1968
bsg1946
S'Cell[1].axon[261]'
p1969
sI82
I103
tp1970
a(F2.3770596379575193
S'Cell[0].apic[269] syn_ = new AmpaNmda(0.5)'
p1971
I0
(dp1972
g1931
F0.5
sg1932
F34.0
sg1933
I82
sg1934
g7
(g8
(I0
tp1973
g10
tp1974
Rp1975
(I1
(I3
tp1976
g1941
I00
S'vl\x19\xc3\x07\x11@\xc0$\xb3\x18$YDY\xc0\x00\x00\x00\xa0\x99\x99&\xc0'
p1977
tp1978
bsg1946
S'Cell[1].axon[269]'
p1979
sI82
I7
tp1980
a(F2.172857782270887
S'Cell[3].dend[31] syn_ = new FastInhib(0.5)'
p1981
I3
(dp1982
g1931
F0.5
sg1932
F34.0
sg1933
I178
sg1934
g7
(g8
(I0
tp1983
g10
tp1984
Rp1985
(I1
(I3
tp1986
g1941
I00
S'\xd50A#\xa4_Q@\xbe`73u\x876\xc0\x00\x00\x00\x00)\x1c?\xc0'
p1987
tp1988
bsg1946
S'Cell[3].axon[99]'
p1989
sI178
I151
tp1990
a(F2.120980022226712
S'Cell[0].apic[65] syn_ = new AmpaNmda(0.833333333333)'
p1991
I0
(dp1992
g1931
F0.8333333333333333
sg1932
F34.0
sg1933
I178
sg1934
g7
(g8
(I0
tp1993
g10
tp1994
Rp1995
(I1
(I3
tp1996
g1941
I00
S'\x12V9h,\xbdR\xc0\xdc\xdau\xa4\xcc\xb6r@\x01\x00\x00\x80\x14\xee>\xc0'
p1997
tp1998
bsg1946
S'Cell[3].axon[426]'
p1999
sI178
I7
tp2000
a(F2.1174572023934135
S'Cell[2].dend[55] syn_ = new FastInhib(0.166666666667)'
p2001
I2
(dp2002
S'seg'
p2003
F0.7
sS'hostfrom'
p2004
F35.0
sS'gid'
p2005
I83
sS'coords'
p2006
g7
(g8
(I0
tp2007
g10
tp2008
Rp2009
(I1
(I3
tp2010
g14
(S'f8'
p2011
I0
I1
tp2012
Rp2013
(I3
S'<'
p2014
NNNI-1
I-1
I0
tp2015
bI00
S'S\xd8-\xf4\x88\xcfH\xc0\xa5\xdc\xfe\xe6\r\xe8X\xc0\xa2\xf2%U\x8e}C\xc0'
p2016
tp2017
bsS'secnames'
p2018
S'Cell[1].axon[5]'
p2019
sI83
I103
tp2020
a(F2.3408152724930864
S'Cell[2].dend[45] syn_ = new FastInhib(0.3)'
p2021
I2
(dp2022
g2003
F0.16666666666666666
sg2004
F35.0
sg2005
I83
sg2006
g7
(g8
(I0
tp2023
g10
tp2024
Rp2025
(I1
(I3
tp2026
g2013
I00
S"\xf4_\x06M{(0\xc0\x1e_'6B\x13O\xc0\xb5\x8f\x8e\x87f\x11\x18@"
p2027
tp2028
bsg2018
S'Cell[1].axon[7]'
p2029
sI83
I103
tp2030
a(F1.8965957648298766
S'Cell[0].apic[274] syn_ = new AmpaNmda(0.833333333333)'
p2031
I0
(dp2032
S'seg'
p2033
F0.16666666666666666
sS'hostfrom'
p2034
F36.0
sS'gid'
p2035
I84
sS'coords'
p2036
g7
(g8
(I0
tp2037
g10
tp2038
Rp2039
(I1
(I3
tp2040
g14
(S'f8'
p2041
I0
I1
tp2042
Rp2043
(I3
S'<'
p2044
NNNI-1
I-1
I0
tp2045
bI00
S'\x15\xd7X\xd6v\x94V@\xeb(\xa7\t\x04tp@\xa2E\xdb\xed\xa2\xa4@\xc0'
p2046
tp2047
bsS'secnames'
p2048
S'Cell[1].axon[123]'
p2049
sI84
I7
tp2050
a(F0.8506721666715054
S'Cell[0].apic[5] syn_ = new AmpaNmda(0.5)'
p2051
I0
(dp2052
g2033
F0.5
sg2034
F36.0
sg2035
I84
sg2036
g7
(g8
(I0
tp2053
g10
tp2054
Rp2055
(I1
(I3
tp2056
g2043
I00
S'\xf7\xc9\x96\xd2\xe4\xea\x18\xc0[\xb5Y\x8f\xbevk@RI3\x05\xc6\\\x1a\xc0'
p2057
tp2058
bsg2048
S'Cell[1].axon[146]'
p2059
sI84
I7
tp2060
a(F2.1402459189798653
S'Cell[3].dend[55] syn_ = new FastInhib(0.5)'
p2061
I3
(dp2062
g2033
F0.5
sg2034
F36.0
sg2035
I84
sg2036
g7
(g8
(I0
tp2063
g10
tp2064
Rp2065
(I1
(I3
tp2066
g2043
I00
S";@\xd6{'\t%\xc0s\x08[\x1c\x80\x87V@i\x83\x18\xf2\x91\xa9\x14\xc0"
p2067
tp2068
bsg2048
S'Cell[1].axon[478]'
p2069
sI84
I151
tp2070
a(F2.370427932223892
S'Cell[0].apic[67] syn_ = new AmpaNmda(0.5)'
p2071
I0
(dp2072
g2033
F0.16666666666666666
sg2034
F36.0
sg2035
I84
sg2036
g7
(g8
(I0
tp2073
g10
tp2074
Rp2075
(I1
(I3
tp2076
g2043
I00
S'Z\x8b\x8a|i\xf33\xc0}\x84:zXlY@\x80\x18}\xcff\xf4\x17\xc0'
p2077
tp2078
bsg2048
S'Cell[1].axon[479]'
p2079
sI84
I7
tp2080
a(F2.471908033014141
S'Cell[0].dend[3] syn_ = new AmpaNmda(0.5)'
p2081
I0
(dp2082
g2033
F0.16666666666666666
sg2034
F36.0
sg2035
I132
sg2036
g7
(g8
(I0
tp2083
g10
tp2084
Rp2085
(I1
(I3
tp2086
g2043
I00
S'\xe6\xabo\xfe\xd4\xb5*\xc0C\xf2\r\xe5\xae\xaf(\xc0(\xe0\x04kp\xd45@'
p2087
tp2088
bsg2048
S'Cell[2].axon[10]'
p2089
sI132
I7
tp2090
a(F1.2938059525313246
S'Cell[1].apic[37] syn_ = new AmpaNmda(0.5)'
p2091
I1
(dp2092
g2033
F0.5
sg2034
F36.0
sg2035
I132
sg2036
g7
(g8
(I0
tp2093
g10
tp2094
Rp2095
(I1
(I3
tp2096
g2043
I00
S'mo\xe0\xa9VIW@\x0c>D+\x89\xf1E@\x00\x00\x00\xe0Q8!@'
p2097
tp2098
bsg2048
S'Cell[2].axon[97]'
p2099
sI132
I55
tp2100
a(F1.3161474362990364
S'Cell[0].apic[2] syn_ = new AmpaNmda(0.5)'
p2101
I0
(dp2102
g2033
F0.5
sg2034
F36.0
sg2035
I180
sg2036
g7
(g8
(I0
tp2103
g10
tp2104
Rp2105
(I1
(I3
tp2106
g2043
I00
S'"\x80\xca\xca\x05p*\xc0\xf8\xe2\x15g\x1fLT@z\xe3\xd2`\x02\x0b\x1d@'
p2107
tp2108
bsg2048
S'Cell[3].axon[69]'
p2109
sI180
I7
tp2110
a(F1.8662574813932489
S'Cell[2].dend[15] syn_ = new FastInhib(0.166666666667)'
p2111
I2
(dp2112
g2033
F0.8333333333333333
sg2034
F36.0
sg2035
I180
sg2036
g7
(g8
(I0
tp2113
g10
tp2114
Rp2115
(I1
(I3
tp2116
g2043
I00
S'\xb5\x13\x9f\xf6j\x026@Y>D\xa4\x8e\xb7T@\x98\xd2E\x84:\xa6,\xc0'
p2117
tp2118
bsg2048
S'Cell[3].axon[165]'
p2119
sI180
I103
tp2120
a(F1.7796872063258158
S'Cell[2].dend[15] syn_ = new FastInhib(0.833333333333)'
p2121
I2
(dp2122
g2033
F0.8333333333333333
sg2034
F36.0
sg2035
I180
sg2036
g7
(g8
(I0
tp2123
g10
tp2124
Rp2125
(I1
(I3
tp2126
g2043
I00
S'8\x11\xa9\xf9\x9c\x843@\xce\xab\xd5\x03\xcd\xe3Z@~g\xb4\xd2t\xab\x1a\xc0'
p2127
tp2128
bsg2048
S'Cell[3].axon[206]'
p2129
sI180
I103
tp2130
a(F1.78536650908651
S'Cell[0].apic[215] syn_ = new AmpaNmda(0.5)'
p2131
I0
(dp2132
g2033
F0.9285714285714284
sg2034
F36.0
sg2035
I36
sg2036
g7
(g8
(I0
tp2133
g10
tp2134
Rp2135
(I1
(I3
tp2136
g2043
I00
S"\xea\xee\xe1\xcc\xa0'e\xc0*pLg\x0c\xa5o\xc0\x1a\xe4\x00\x05I\tD\xc0"
p2137
tp2138
bsg2048
S'Cell[0].axon[40]'
p2139
sI36
I7
tp2140
a(F1.8601800069005583
S'Cell[0].apic[151] syn_ = new AmpaNmda(0.5)'
p2141
I0
(dp2142
g2033
F0.1
sg2034
F36.0
sg2035
I36
sg2036
g7
(g8
(I0
tp2143
g10
tp2144
Rp2145
(I1
(I3
tp2146
g2043
I00
S'^\xd6\xb9\xa4\xa7\xdfr\xc0\x93\x90\x0f\xee\x10\xccg\xc0\x00\x00\x00@33\x1b\xc0'
p2147
tp2148
bsg2048
S'Cell[0].axon[49]'
p2149
sI36
I7
tp2150
a(F2.461403800009736
S'Cell[0].apic[3] syn_ = new ExpSid(0.5)'
p2151
I0
(dp2152
S'seg'
p2153
F0.8333333333333333
sS'hostfrom'
p2154
F37.0
sS'gid'
p2155
I133
sS'coords'
p2156
g7
(g8
(I0
tp2157
g10
tp2158
Rp2159
(I1
(I3
tp2160
g14
(S'f8'
p2161
I0
I1
tp2162
Rp2163
(I3
S'<'
p2164
NNNI-1
I-1
I0
tp2165
bI00
S'\x1f\xa4\x02k\x94Q0\xc0\x89\x08\x8b\x0cH5X@F \xa2\x07,\xa6\x1b@'
p2166
tp2167
bsS'secnames'
p2168
S'Cell[2].axon[109]'
p2169
sI133
I7
tp2170
a(F1.6936025314850238
S'Cell[3].dend[60] syn_ = new FastInhib(0.5)'
p2171
I3
(dp2172
g2153
F0.5
sg2154
F37.0
sg2155
I181
sg2156
g7
(g8
(I0
tp2173
g10
tp2174
Rp2175
(I1
(I3
tp2176
g2163
I00
S'\x88-\xe4\xcd\xd0\x7f$@\xa0\x88\x08j\xe69]@\x00\x00\x00`\xb8\x1e\xd5?'
p2177
tp2178
bsg2168
S'Cell[3].axon[153]'
p2179
sI181
I151
tp2180
a(F2.4622895923633483
S'Cell[0].apic[85] syn_ = new ExpSid(0.833333333333)'
p2181
I0
(dp2182
g2153
F0.5
sg2154
F37.0
sg2155
I181
sg2156
g7
(g8
(I0
tp2183
g10
tp2184
Rp2185
(I1
(I3
tp2186
g2163
I00
S'\xd3j\xc1\x15\xabiH@\xe4`\x93\xf5\xb4\xbce@~k\xbf\xed\xf9A\x07@'
p2187
tp2188
bsg2168
S'Cell[3].axon[199]'
p2189
sI181
I7
tp2190
a(F2.2464802141999765
S'Cell[3].dend[39] syn_ = new FastInhib(0.3)'
p2191
I3
(dp2192
g2153
F0.3888888888888889
sg2154
F37.0
sg2155
I37
sg2156
g7
(g8
(I0
tp2193
g10
tp2194
Rp2195
(I1
(I3
tp2196
g2163
I00
S'\xe5X,\xa0j\xa3$@\x80\x90\xe4\xb0|_\x17\xc0\x8aN\xfa\xe6\x93\xdf7\xc0'
p2197
tp2198
bsg2168
S'Cell[0].axon[3]'
p2199
sI37
I151
tp2200
a(F1.8858335935335193
S'Cell[0].apic[270] syn_ = new ExpSid(0.5)'
p2201
I0
(dp2202
g2153
F0.5
sg2154
F37.0
sg2155
I37
sg2156
g7
(g8
(I0
tp2203
g10
tp2204
Rp2205
(I1
(I3
tp2206
g2163
I00
S'w&.\x7f\xeb\xf9A\xc0\x08\xc8\xfbj\xb6a]\xc0CFE\x7f\x9d\xcc"\xc0'
p2207
tp2208
bsg2168
S'Cell[0].axon[17]'
p2209
sI37
I7
tp2210
a(F2.35803705699987
S'Cell[2].dend[7] syn_ = new FastInhib(0.5)'
p2211
I2
(dp2212
g2153
F0.1
sg2154
F37.0
sg2155
I85
sg2156
g7
(g8
(I0
tp2213
g10
tp2214
Rp2215
(I1
(I3
tp2216
g2163
I00
S'\xf4\xdb"@\xcf3\'@\x9c\xd0\xb8S\xba\xdbY@\x00\x00\x00\xa0G\xe1\'@'
p2217
tp2218
bsg2168
S'Cell[1].axon[249]'
p2219
sI85
I103
tp2220
a(F2.061081054601079
S'Cell[2].dend[8] syn_ = new FastInhib(0.5)'
p2221
I2
g2212
I85
I103
tp2222
a(F1.3857976161896075
S'Cell[1].apic[39] syn_ = new ExpSid(0.5)'
p2223
I1
(dp2224
g2153
F0.16666666666666666
sg2154
F37.0
sg2155
I85
sg2156
g7
(g8
(I0
tp2225
g10
tp2226
Rp2227
(I1
(I3
tp2228
g2163
I00
S'n\xb4\xdd\xd0I\xab2@yW:\x81r\xd5W@\xaa\xfa\xdbzI\x1e @'
p2229
tp2230
bsg2168
S'Cell[1].axon[250]'
p2231
sI85
I55
tp2232
a(F1.7768986397478648
S'Cell[3].dend[28] syn_ = new FastInhib(0.5)'
p2233
I3
(dp2234
S'seg'
p2235
F0.5
sS'hostfrom'
p2236
F38.0
sS'gid'
p2237
I182
sS'coords'
p2238
g7
(g8
(I0
tp2239
g10
tp2240
Rp2241
(I1
(I3
tp2242
g14
(S'f8'
p2243
I0
I1
tp2244
Rp2245
(I3
S'<'
p2246
NNNI-1
I-1
I0
tp2247
bI00
S'\x00\x00\x00\x80=\x8a/@\x00\x00\x00\x90\x99y6@\x00\x00\x00\x00\xae\xc7\x1c\xc0'
p2248
tp2249
bsS'secnames'
p2250
S'Cell[3].axon[29]'
p2251
sI182
I151
tp2252
a(F2.072797636267561
S'Cell[0].apic[2] syn_ = new AmpaNmda(0.5)'
p2253
I0
(dp2254
g2235
F0.30000000000000004
sg2236
F38.0
sg2237
I182
sg2238
g7
(g8
(I0
tp2255
g10
tp2256
Rp2257
(I1
(I3
tp2258
g2245
I00
S'jD\x868\xcd\xb7(\xc0\x8a-8\xf5\xd9\xd2S@\x96\xc3o \xfe\xb8!@'
p2259
tp2260
bsg2250
S'Cell[3].axon[302]'
p2261
sI182
I7
tp2262
a(F2.098113688575318
S'Cell[2].dend[50] syn_ = new FastInhib(0.7)'
p2263
I2
(dp2264
g2235
F0.5
sg2236
F38.0
sg2237
I182
sg2238
g7
(g8
(I0
tp2265
g10
tp2266
Rp2267
(I1
(I3
tp2268
g2245
I00
S'\xac\xfc\xab8\x8f\xd78\xc00l\xaf\xd3o4n\xc0?PY\x81\x08\xba!@'
p2269
tp2270
bsg2250
S'Cell[3].axon[316]'
p2271
sI182
I103
tp2272
a(F2.4501716530476334
S'Cell[0].apic[263] syn_ = new AmpaNmda(0.833333333333)'
p2273
I0
(dp2274
g2235
F0.21428571428571427
sg2236
F38.0
sg2237
I182
sg2238
g7
(g8
(I0
tp2275
g10
tp2276
Rp2277
(I1
(I3
tp2278
g2245
I00
S'\xe8\x86\xb1\xd0\xc1<=\xc0\x92\xc6\xd8\xca\x813c\xc0\x98\x86\x8e\xd1$\x91>\xc0'
p2279
tp2280
bsg2250
S'Cell[3].axon[384]'
p2281
sI182
I7
tp2282
a(F1.7922718662995532
S'Cell[0].apic[263] syn_ = new AmpaNmda(0.5)'
p2283
I0
(dp2284
g2235
F0.30000000000000004
sg2236
F38.0
sg2237
I86
sg2238
g7
(g8
(I0
tp2285
g10
tp2286
Rp2287
(I1
(I3
tp2288
g2245
I00
S')\xc6\x0b\x05\xd7H;\xc0\x94\xf2\xb7\x9c\xd1\xcaa\xc0\x00\x00\x00\x80\xc2u?\xc0'
p2289
tp2290
bsg2250
S'Cell[1].axon[92]'
p2291
sI86
I7
tp2292
a(F2.1684021644559097
S'Cell[2].dend[42] syn_ = new FastInhib(0.7)'
p2293
I2
(dp2294
g2235
F0.5
sg2236
F38.0
sg2237
I38
sg2238
g7
(g8
(I0
tp2295
g10
tp2296
Rp2297
(I1
(I3
tp2298
g2245
I00
S'\x00\x00\x00P\xb8^G@\x00\x00\x00 \x85\xcbK@\x00\x00\x00\x00\x00\x80 \xc0'
p2299
tp2300
bsg2250
S'Cell[0].soma[0]'
p2301
sI38
I103
tp2302
a(F2.1612210637530214
S'Cell[2].dend[52] syn_ = new FastInhib(0.5)'
p2303
I2
(dp2304
g2235
F0.5
sg2236
F38.0
sg2237
I38
sg2238
g7
(g8
(I0
tp2305
g10
tp2306
Rp2307
(I1
(I3
tp2308
g2245
I00
S'`W\xc1\xbf\xf8ID\xc02\xc6\xa7\x16"\xe3N\xc0\x12\xef~\x85`\x9e"\xc0'
p2309
tp2310
bsg2250
S'Cell[0].axon[44]'
p2311
sI38
I103
tp2312
a(F2.069169327349632
S'Cell[3].dend[31] syn_ = new FastInhib(0.5)'
p2313
I3
(dp2314
g2235
F0.1
sg2236
F38.0
sg2237
I38
sg2238
g7
(g8
(I0
tp2315
g10
tp2316
Rp2317
(I1
(I3
tp2318
g2245
I00
S'\xb3T\xa6ZM\xbaP@(\xe0\t.\xc1\xeb5\xc0\xbap\xf3\xee\r\xe5?\xc0'
p2319
tp2320
bsg2250
S'Cell[0].axon[46]'
p2321
sI38
I151
tp2322
a(F2.487108284415911
S'Cell[1].apic[40] syn_ = new ExpSid(0.7)'
p2323
I1
(dp2324
S'seg'
p2325
F0.9285714285714284
sS'hostfrom'
p2326
F39.0
sS'gid'
p2327
I87
sS'coords'
p2328
g7
(g8
(I0
tp2329
g10
tp2330
Rp2331
(I1
(I3
tp2332
g14
(S'f8'
p2333
I0
I1
tp2334
Rp2335
(I3
S'<'
p2336
NNNI-1
I-1
I0
tp2337
bI00
S'\xc8\x8d\x03\xb1/\x84G@\x9e\x17q\xfe!we@#\x15O\xa5\xc4]2\xc0'
p2338
tp2339
bsS'secnames'
p2340
S'Cell[1].axon[57]'
p2341
sI87
I55
tp2342
a(F2.0419828095575125
S'Cell[2].dend[42] syn_ = new FastInhib(0.5)'
p2343
I2
(dp2344
g2325
F0.16666666666666666
sg2326
F39.0
sg2327
I87
sg2328
g7
(g8
(I0
tp2345
g10
tp2346
Rp2347
(I1
(I3
tp2348
g2335
I00
S';\xebo\xe5jAF@x\xfb\xa8f3*B@\xb6?\xfd\xca#\x11\x06\xc0'
p2349
tp2350
bsg2340
S'Cell[1].axon[86]'
p2351
sI87
I103
tp2352
a(F0.897778832239324
S'Cell[3].dend[15] syn_ = new FastInhib(0.166666666667)'
p2353
I3
(dp2354
g2325
F0.5
sg2326
F39.0
sg2327
I183
sg2328
g7
(g8
(I0
tp2355
g10
tp2356
Rp2357
(I1
(I3
tp2358
g2335
I00
S'\x03\xd7:\xc8[\x8c0@\x8aS\xddD\xb5aQ@H\x89`m\x83T;\xc0'
p2359
tp2360
bsg2340
S'Cell[3].axon[56]'
p2361
sI183
I151
tp2362
a(F2.302172922639442
S'Cell[2].dend[52] syn_ = new FastInhib(0.5)'
p2363
I2
(dp2364
S'seg'
p2365
F0.16666666666666666
sS'hostfrom'
p2366
F40.0
sS'gid'
p2367
I88
sS'coords'
p2368
g7
(g8
(I0
tp2369
g10
tp2370
Rp2371
(I1
(I3
tp2372
g14
(S'f8'
p2373
I0
I1
tp2374
Rp2375
(I3
S'<'
p2376
NNNI-1
I-1
I0
tp2377
bI00
S'\x00\x00\x00\xa0\x1f\xa5D\xc0\x9f\xf80}\x02=M\xc0\x00\x00\x00\x80\xeb\xd1$\xc0'
p2378
tp2379
bsS'secnames'
p2380
S'Cell[1].axon[80]'
p2381
sI88
I103
tp2382
a(F2.4953072070386986
S'Cell[2].dend[29] syn_ = new FastInhib(0.833333333333)'
p2383
I2
(dp2384
g2365
F0.5
sg2366
F40.0
sg2367
I88
sg2368
g7
(g8
(I0
tp2385
g10
tp2386
Rp2387
(I1
(I3
tp2388
g2375
I00
S'\xbc\x94pHb\xd1A\xc0B\xe2\x94\xc3\xd1{Q@\xd4W\xe3\x92\x19\xef\x10\xc0'
p2389
tp2390
bsg2380
S'Cell[1].axon[260]'
p2391
sI88
I103
tp2392
a(F1.5388963160942215
S'Cell[1].apic[45] syn_ = new AmpaNmda(0.0555555555556)'
p2393
I1
(dp2394
g2365
F0.5
sg2366
F40.0
sg2367
I88
sg2368
g7
(g8
(I0
tp2395
g10
tp2396
Rp2397
(I1
(I3
tp2398
g2375
I00
S'\x00\x00\x00\x00\xeb\tQ@\x00\x00\x00\x10\xd7\x0bU@\x00\x00\x00\xb0\x1e\x853@'
p2399
tp2400
bsg2380
S'Cell[1].axon[298]'
p2401
sI88
I55
tp2402
a(F1.5210317433416785
S'Cell[1].apic[48] syn_ = new AmpaNmda(0.5)'
p2403
I1
(dp2404
g2365
F0.16666666666666666
sg2366
F40.0
sg2367
I88
sg2368
g7
(g8
(I0
tp2405
g10
tp2406
Rp2407
(I1
(I3
tp2408
g2375
I00
S'\xe4\x03\x02\xf6\xc5\x03X@\xc5=\x13\xd9\xbc\xd4\x15@N\x86\xdaF\x89g1\xc0'
p2409
tp2410
bsg2380
S'Cell[1].axon[351]'
p2411
sI88
I55
tp2412
a(F1.5415435086561238
S'Cell[2].dend[9] syn_ = new FastInhib(0.5)'
p2413
I2
(dp2414
g2365
F0.8333333333333333
sg2366
F40.0
sg2367
I184
sg2368
g7
(g8
(I0
tp2415
g10
tp2416
Rp2417
(I1
(I3
tp2418
g2375
I00
S'\xe6\x12\xcf\xcbj\xd5\n\xc0\xa24\x86Y\x18h@@\x14\xedW$I1\xf0\xbf'
p2419
tp2420
bsg2380
S'Cell[3].axon[18]'
p2421
sI184
I103
tp2422
a(F1.7949403226050644
S'Cell[0].apic[81] syn_ = new ExpSid(0.5)'
p2423
I0
(dp2424
S'seg'
p2425
F0.5
sS'hostfrom'
p2426
F41.0
sS'gid'
p2427
I137
sS'coords'
p2428
g7
(g8
(I0
tp2429
g10
tp2430
Rp2431
(I1
(I3
tp2432
g14
(S'f8'
p2433
I0
I1
tp2434
Rp2435
(I3
S'<'
p2436
NNNI-1
I-1
I0
tp2437
bI00
S'\x00\x00\x00\xa0\x99\x999@\x00\x00\x00X\xb8"`@\x00\x00\x00@\n\xd7\xd3\xbf'
p2438
tp2439
bsS'secnames'
p2440
S'Cell[2].axon[2]'
p2441
sI137
I7
tp2442
a(F2.248771477425434
S'Cell[0].apic[62] syn_ = new ExpSid(0.1)'
p2443
I0
(dp2444
g2425
F0.045454545454545456
sg2426
F41.0
sg2427
I137
sg2428
g7
(g8
(I0
tp2445
g10
tp2446
Rp2447
(I1
(I3
tp2448
g2435
I00
S'\x00\x00\x00\xe0Q\xb8=\xc0\xc3\xce@\xb9\xb0\x9bm@/2s\xe4)31\xc0'
p2449
tp2450
bsg2440
S'Cell[2].axon[9]'
p2451
sI137
I7
tp2452
a(F2.168423669078504
S'Cell[0].apic[105] syn_ = new ExpSid(0.833333333333)'
p2453
I0
(dp2454
g2425
F0.5
sg2426
F41.0
sg2427
I185
sg2428
g7
(g8
(I0
tp2455
g10
tp2456
Rp2457
(I1
(I3
tp2458
g2435
I00
S"F\xa9S\t\xf4\xfc\xfd\xbf@\x8d\xfa\xb6\x82\xd5r\xc0\x00\x00\x00\x80=\n'@"
p2459
tp2460
bsg2440
S'Cell[3].axon[7]'
p2461
sI185
I7
tp2462
a(F1.3302350959289828
S'Cell[3].dend[32] syn_ = new FastInhib(0.166666666667)'
p2463
I3
(dp2464
g2425
F0.8999999999999999
sg2426
F41.0
sg2427
I185
sg2428
g7
(g8
(I0
tp2465
g10
tp2466
Rp2467
(I1
(I3
tp2468
g2435
I00
S'\x0f\xd8|5\xfa#@@\xe4\x8bL\x93/J)@1\x94\x108\xfd\xed\x1c\xc0'
p2469
tp2470
bsg2440
S'Cell[3].axon[113]'
p2471
sI185
I151
tp2472
a(F2.4638429815803065
S'Cell[2].dend[28] syn_ = new FastInhib(0.9)'
p2473
I2
(dp2474
g2425
F0.8333333333333333
sg2426
F41.0
sg2427
I185
sg2428
g7
(g8
(I0
tp2475
g10
tp2476
Rp2477
(I1
(I3
tp2478
g2435
I00
S'=\xbaMw\xb0\x8aP\xc0r\n\x16\xb0V\xf2a@J\xb5HT{4O\xc0'
p2479
tp2480
bsg2440
S'Cell[3].axon[149]'
p2481
sI185
I103
tp2482
a(F1.5964782027513102
S'Cell[0].apic[90] syn_ = new ExpSid(0.166666666667)'
p2483
I0
(dp2484
g2425
F0.8333333333333333
sg2426
F41.0
sg2427
I185
sg2428
g7
(g8
(I0
tp2485
g10
tp2486
Rp2487
(I1
(I3
tp2488
g2435
I00
S'\x89\x82@\xd2\xebW2\xc0\xaf\x06o\xc4q\x82N@:\xd2\x01"\xf2v\x17@'
p2489
tp2490
bsg2440
S'Cell[3].axon[270]'
p2491
sI185
I7
tp2492
a(F1.9927735850256
S'Cell[0].dend[2] syn_ = new ExpSid(0.166666666667)'
p2493
I0
(dp2494
g2425
F0.30000000000000004
sg2426
F41.0
sg2427
I185
sg2428
g7
(g8
(I0
tp2495
g10
tp2496
Rp2497
(I1
(I3
tp2498
g2435
I00
S'z\xc3\x1c.\xaeB;@f\xbf\x0f\xaf\xbf\x8c6@`m\x1c\xd4*b @'
p2499
tp2500
bsg2440
S'Cell[3].axon[283]'
p2501
sI185
I7
tp2502
a(F2.3461614083895928
S'Cell[2].dend[29] syn_ = new FastInhib(0.833333333333)'
p2503
I2
(dp2504
g2425
F0.5
sg2426
F41.0
sg2427
I89
sg2428
g7
(g8
(I0
tp2505
g10
tp2506
Rp2507
(I1
(I3
tp2508
g2435
I00
S'\xcd\xe4T\x99\xe6]B\xc0F%\xce\x86$cP@R\x9cpF\n\xbf\x0f\xc0'
p2509
tp2510
bsg2440
S'Cell[1].axon[87]'
p2511
sI89
I103
tp2512
a(F2.053461120132392
S'Cell[3].dend[47] syn_ = new FastInhib(0.5)'
p2513
I3
(dp2514
g2425
F0.5
sg2426
F41.0
sg2427
I89
sg2428
g7
(g8
(I0
tp2515
g10
tp2516
Rp2517
(I1
(I3
tp2518
g2435
I00
S'8QO\xcf\xdc\xbb?\xc0\xcb*r\xd7LAM@\x00\x00\x00 \xae\x07P\xc0'
p2519
tp2520
bsg2440
S'Cell[1].axon[127]'
p2521
sI89
I151
tp2522
a(F1.4721432091866966
S'Cell[3].dend[13] syn_ = new FastInhib(0.833333333333)'
p2523
I3
(dp2524
S'seg'
p2525
F0.6428571428571428
sS'hostfrom'
p2526
F42.0
sS'gid'
p2527
I138
sS'coords'
p2528
g7
(g8
(I0
tp2529
g10
tp2530
Rp2531
(I1
(I3
tp2532
g14
(S'f8'
p2533
I0
I1
tp2534
Rp2535
(I3
S'<'
p2536
NNNI-1
I-1
I0
tp2537
bI00
S'\xf7\x16&M?\xa5[@\\:\xa1\x04\x8c\x9e\\@\xc2\xe1:l_\xcd"\xc0'
p2538
tp2539
bsS'secnames'
p2540
S'Cell[2].axon[14]'
p2541
sI138
I151
tp2542
a(F2.1876430045846242
S'Cell[2].dend[24] syn_ = new FastInhib(0.5)'
p2543
I2
(dp2544
g2525
F0.8333333333333333
sg2526
F42.0
sg2527
I138
sg2528
g7
(g8
(I0
tp2545
g10
tp2546
Rp2547
(I1
(I3
tp2548
g2535
I00
S'"h\x05\xf4n\x90E\xc0vf\x0e;%\x10U@S\x04#\x84cW\x1f\xc0'
p2549
tp2550
bsg2540
S'Cell[2].axon[104]'
p2551
sI138
I103
tp2552
a(F1.8734620669124702
S'Cell[2].dend[24] syn_ = new FastInhib(0.833333333333)'
p2553
I2
(dp2554
g2525
F0.5
sg2526
F42.0
sg2527
I138
sg2528
g7
(g8
(I0
tp2555
g10
tp2556
Rp2557
(I1
(I3
tp2558
g2535
I00
S'\xbf\xefk\x07\xb8\rM\xc0:!Q\xc6YPV@\x93\x94\xd6\xadO\xf6 \xc0'
p2559
tp2560
bsg2540
S'Cell[2].axon[106]'
p2561
sI138
I103
tp2562
a(F1.3860956158004762
S'Cell[1].dend[2] syn_ = new AmpaNmda(0.9)'
p2563
I1
(dp2564
g2525
F0.30000000000000004
sg2526
F42.0
sg2527
I138
sg2528
g7
(g8
(I0
tp2565
g10
tp2566
Rp2567
(I1
(I3
tp2568
g2535
I00
S'\xaa\t\x7f\x01\\\x971@\xb9\xff\x1f\xad\x99\xa4\x00@\xe1\x80L\x80s\x861@'
p2569
tp2570
bsg2540
S'Cell[2].axon[146]'
p2571
sI138
I55
tp2572
a(F2.309436769905482
S'Cell[0].apic[8] syn_ = new AmpaNmda(0.3)'
p2573
I0
(dp2574
g2525
F0.6111111111111112
sg2526
F42.0
sg2527
I138
sg2528
g7
(g8
(I0
tp2575
g10
tp2576
Rp2577
(I1
(I3
tp2578
g2535
I00
S'f]?\xa4!\xea\xe5\xbf\xfc\\\xb5\xd4\xa6\x9cy@\\\xa9\x92\x1b`\xca\xfe\xbf'
p2579
tp2580
bsg2540
S'Cell[2].axon[280]'
p2581
sI138
I7
tp2582
a(F0.4509477647142483
S'Cell[0].apic[224] syn_ = new AmpaNmda(0.833333333333)'
p2583
I0
(dp2584
g2525
F0.5
sg2526
F42.0
sg2527
I186
sg2528
g7
(g8
(I0
tp2585
g10
tp2586
Rp2587
(I1
(I3
tp2588
g2535
I00
S'\xfa\xd4\x90\xf0\xf6NI\xc0;\xb2\xee\xa1\xea\xcd[\xc0\x00\x00\x00\xe0Q\x18@\xc0'
p2589
tp2590
bsg2540
S'Cell[3].axon[31]'
p2591
sI186
I7
tp2592
a(F1.6497877343436769
S'Cell[3].dend[37] syn_ = new FastInhib(0.833333333333)'
p2593
I3
(dp2594
g2525
F0.16666666666666666
sg2526
F42.0
sg2527
I186
sg2528
g7
(g8
(I0
tp2595
g10
tp2596
Rp2597
(I1
(I3
tp2598
g2535
I00
S'\xc5\xe3\xc8G\x91JB\xc0\x04\x0b\xd4\xc6\xa1\xcf/\xc0\xd2\x8a\xa4:\xb1\x87#@'
p2599
tp2600
bsg2540
S'Cell[3].axon[68]'
p2601
sI186
I151
tp2602
a(F0.9693989440538451
S'Cell[3].dend[74] syn_ = new FastInhib(0.166666666667)'
p2603
I3
(dp2604
S'seg'
p2605
F0.5
sS'hostfrom'
p2606
F43.0
sS'gid'
p2607
I91
sS'coords'
p2608
g7
(g8
(I0
tp2609
g10
tp2610
Rp2611
(I1
(I3
tp2612
g14
(S'f8'
p2613
I0
I1
tp2614
Rp2615
(I3
S'<'
p2616
NNNI-1
I-1
I0
tp2617
bI00
S"y\x1c\xb6\xae\xaa\x06\x1e@\x1aY\xbbes\xe7\\@\xb6v\x02\xf9\xb2)'\xc0"
p2618
tp2619
bsS'secnames'
p2620
S'Cell[1].axon[195]'
p2621
sI91
I151
tp2622
a(F2.0173511673317215
S'Cell[3].dend[17] syn_ = new FastInhib(0.5)'
p2623
I3
(dp2624
g2605
F0.5
sg2606
F43.0
sg2607
I91
sg2608
g7
(g8
(I0
tp2625
g10
tp2626
Rp2627
(I1
(I3
tp2628
g2615
I00
S'\x81U)\x9b\x947E@4\xe2\x8f\x12\x0f\x1f]@\x8a\xe8\xd6&&\x7fE\xc0'
p2629
tp2630
bsg2620
S'Cell[1].axon[212]'
p2631
sI91
I151
tp2632
a(F1.7789716541007314
S'Cell[1].dend[5] syn_ = new ExpSid(0.5)'
p2633
I1
(dp2634
g2605
F0.8333333333333333
sg2606
F43.0
sg2607
I91
sg2608
g7
(g8
(I0
tp2635
g10
tp2636
Rp2637
(I1
(I3
tp2638
g2615
I00
S"ae\x86'\xe9)F@\x07\x1c\xd0\xef\xbc\tM\xc0\x00\x00\x00\xe0\xa3\xb0:\xc0"
p2639
tp2640
bsg2620
S'Cell[1].axon[382]'
p2641
sI91
I55
tp2642
a(F1.7754850762406942
S'Cell[3].dend[61] syn_ = new FastInhib(0.5)'
p2643
I3
(dp2644
g2605
F0.5
sg2606
F43.0
sg2607
I91
sg2608
g7
(g8
(I0
tp2645
g10
tp2646
Rp2647
(I1
(I3
tp2648
g2615
I00
S'\xd0\x01\x8b\xc0V~\xf5\xbfs\x98#X\x02OV@\xe5\xb4\xa9\xa2\xfc\xa14\xc0'
p2649
tp2650
bsg2620
S'Cell[1].axon[519]'
p2651
sI91
I151
tp2652
a(F1.7982390919959153
S'Cell[1].dend[3] syn_ = new ExpSid(0.5)'
p2653
I1
(dp2654
g2605
F0.5
sg2606
F43.0
sg2607
I139
sg2608
g7
(g8
(I0
tp2655
g10
tp2656
Rp2657
(I1
(I3
tp2658
g2615
I00
S'\x84\x07#\xd7\x90\x14^@\x84L\x1b\x87\x99\xc4 \xc0\x00\x00\x00\x80\x14\xae\x16@'
p2659
tp2660
bsg2620
S'Cell[2].axon[199]'
p2661
sI139
I55
tp2662
a(F1.843235302517442
S'Cell[0].apic[169] syn_ = new ExpSid(0.833333333333)'
p2663
I0
(dp2664
g2605
F0.16666666666666666
sg2606
F43.0
sg2607
I139
sg2608
g7
(g8
(I0
tp2665
g10
tp2666
Rp2667
(I1
(I3
tp2668
g2615
I00
S'^\xd4\xc6\xa0\xa0b8@x\xed%|\xbe0i\xc0\x91Ae\x83\x05}\x0e@'
p2669
tp2670
bsg2620
S'Cell[2].axon[346]'
p2671
sI139
I7
tp2672
a(F1.9811843670175935
S'Cell[0].apic[113] syn_ = new ExpSid(0.1)'
p2673
I0
(dp2674
g2605
F0.8333333333333333
sg2606
F43.0
sg2607
I187
sg2608
g7
(g8
(I0
tp2675
g10
tp2676
Rp2677
(I1
(I3
tp2678
g2615
I00
S'\x168k\x89U\x91Q@\x00\xe2\xe5\xef\x03[r\xc0\x8c\t\xe8z\x0f\xfb\x0c@'
p2679
tp2680
bsg2620
S'Cell[3].axon[13]'
p2681
sI187
I7
tp2682
a(F2.1807885880661786
S'Cell[0].apic[79] syn_ = new ExpSid(0.9)'
p2683
I0
(dp2684
g2605
F0.16666666666666666
sg2606
F43.0
sg2607
I187
sg2608
g7
(g8
(I0
tp2685
g10
tp2686
Rp2687
(I1
(I3
tp2688
g2615
I00
S'\xc6b\x1f\xad\x90ab@\x8b/b\r\xb3\x14F@f\xcc\xb4\xc1\x88\xfe\x00\xc0'
p2689
tp2690
bsg2620
S'Cell[3].axon[82]'
p2691
sI187
I7
tp2692
a(F0.47206062762640927
S'Cell[0].apic[79] syn_ = new ExpSid(0.7)'
p2693
I0
(dp2694
g2605
F0.7
sg2606
F43.0
sg2607
I187
sg2608
g7
(g8
(I0
tp2695
g10
tp2696
Rp2697
(I1
(I3
tp2698
g2615
I00
S'\x9cH\x06K\x0f4_@-\x91\x07?\xaa\xc5O@\x00\x00\x00\xa0G\xe1\x06\xc0'
p2699
tp2700
bsg2620
S'Cell[3].axon[115]'
p2701
sI187
I7
tp2702
a(F1.2716396036200004
S'Cell[1].apic[48] syn_ = new ExpSid(0.5)'
p2703
I1
(dp2704
g2605
F0.5
sg2606
F43.0
sg2607
I187
sg2608
g7
(g8
(I0
tp2705
g10
tp2706
Rp2707
(I1
(I3
tp2708
g2615
I00
S'~\x0f\x1f\xf4\x12gX@v\x96\x9f\xf8\xdd}\x11@M\xa2=C\x99\xd12\xc0'
p2709
tp2710
bsg2620
S'Cell[3].axon[164]'
p2711
sI187
I55
tp2712
a(F2.278419711214652
S'Cell[1].apic[4] syn_ = new ExpSid(0.5)'
p2713
I1
(dp2714
g2605
F0.5
sg2606
F43.0
sg2607
I187
sg2608
g7
(g8
(I0
tp2715
g10
tp2716
Rp2717
(I1
(I3
tp2718
g2615
I00
S'\xf6\xd0C\xbaA\x10a@:y\xbfB\xd9[1@\x00\x00\x00\xc0\xcc\xcc @'
p2719
tp2720
bsg2620
S'Cell[3].axon[168]'
p2721
sI187
I55
tp2722
a(F2.4423847281423385
S'Cell[0].apic[202] syn_ = new ExpSid(0.852941176471)'
p2723
I0
(dp2724
g2605
F0.5
sg2606
F43.0
sg2607
I187
sg2608
g7
(g8
(I0
tp2725
g10
tp2726
Rp2727
(I1
(I3
tp2728
g2615
I00
S'\x1e\xff\xb9$\x8a\xcfg@\xe64\xe2\x19\xdc\xddG\xc0\x00\x00\x00\xa0\x99\x19>\xc0'
p2729
tp2730
bsg2620
S'Cell[3].axon[178]'
p2731
sI187
I7
tp2732
a(F1.5713061439715337
S'Cell[3].dend[1] syn_ = new FastInhib(0.833333333333)'
p2733
I3
(dp2734
g2605
F0.16666666666666666
sg2606
F43.0
sg2607
I187
sg2608
g7
(g8
(I0
tp2735
g10
tp2736
Rp2737
(I1
(I3
tp2738
g2615
I00
S'P\xf0kk\tE(\xc0\x7f\xf2\xa9\xec\xf7HQ@!\x18\xe0\x15\x90\x9aQ\xc0'
p2739
tp2740
bsg2620
S'Cell[3].axon[216]'
p2741
sI187
I151
tp2742
a(F2.302585524655799
S'Cell[0].apic[231] syn_ = new AmpaNmda(0.681818181818)'
p2743
I0
(dp2744
S'seg'
p2745
F0.5
sS'hostfrom'
p2746
F44.0
sS'gid'
p2747
I92
sS'coords'
p2748
g7
(g8
(I0
tp2749
g10
tp2750
Rp2751
(I1
(I3
tp2752
g14
(S'f8'
p2753
I0
I1
tp2754
Rp2755
(I3
S'<'
p2756
NNNI-1
I-1
I0
tp2757
bI00
S'\xbb\xa6Q\x02\x00sd@\xb6L\x8f\x1d\xf6J`\xc0\x00\x00\x00 \\\x8f!@'
p2758
tp2759
bsS'secnames'
p2760
S'Cell[1].axon[62]'
p2761
sI92
I7
tp2762
a(F0.9230640942792789
S'Cell[0].apic[54] syn_ = new AmpaNmda(0.5)'
p2763
I0
(dp2764
g2745
F0.5
sg2746
F44.0
sg2747
I140
sg2748
g7
(g8
(I0
tp2765
g10
tp2766
Rp2767
(I1
(I3
tp2768
g2755
I00
S'\xdc\xf8:h\x99`(@fQL\x87\xbb\xc9o@>[\xb9\x00\xbaL%@'
p2769
tp2770
bsg2760
S'Cell[2].axon[19]'
p2771
sI140
I7
tp2772
a(F1.6430793008020383
S'Cell[0].apic[89] syn_ = new AmpaNmda(0.0714285714286)'
p2773
I0
(dp2774
g2745
F0.7
sg2746
F44.0
sg2747
I140
sg2748
g7
(g8
(I0
tp2775
g10
tp2776
Rp2777
(I1
(I3
tp2778
g2755
I00
S'+\x03\x96a\xf5\xfa.\xc0\x10Y\xf8\xd2tIR@\x00\x00\x00`ff\x16\xc0'
p2779
tp2780
bsg2760
S'Cell[2].axon[25]'
p2781
sI140
I7
tp2782
a(F2.172406972782967
S'Cell[2].dend[4] syn_ = new FastInhib(0.5)'
p2783
I2
(dp2784
g2745
F0.5
sg2746
F44.0
sg2747
I188
sg2748
g7
(g8
(I0
tp2785
g10
tp2786
Rp2787
(I1
(I3
tp2788
g2755
I00
S'\x97\x1c\x9a\n\x8a\x7f\xdc\xbf\x0b\x1d\xcaG\xc1\x0e9@\xbe\xecO\xe8\x8a\xdb\x13@'
p2789
tp2790
bsg2760
S'Cell[3].axon[53]'
p2791
sI188
I103
tp2792
a(F1.1045301982259237
S'Cell[3].dend[62] syn_ = new FastInhib(0.166666666667)'
p2793
I3
(dp2794
g2745
F0.1
sg2746
F44.0
sg2747
I188
sg2748
g7
(g8
(I0
tp2795
g10
tp2796
Rp2797
(I1
(I3
tp2798
g2755
I00
S'?V\x15\xb6C\xfa\xdb?\x02\x9f\x85\xc6\xbd\xa1Z@@\x8c\xca@m[7\xc0'
p2799
tp2800
bsg2760
S'Cell[3].axon[68]'
p2801
sI188
I151
tp2802
a(F2.1796848933339334
S'Cell[0].dend[2] syn_ = new ExpSid(0.833333333333)'
p2803
I0
(dp2804
S'seg'
p2805
F0.16666666666666666
sS'hostfrom'
p2806
F45.0
sS'gid'
p2807
I141
sS'coords'
p2808
g7
(g8
(I0
tp2809
g10
tp2810
Rp2811
(I1
(I3
tp2812
g14
(S'f8'
p2813
I0
I1
tp2814
Rp2815
(I3
S'<'
p2816
NNNI-1
I-1
I0
tp2817
bI00
S'q\x06K\xb0\xfd"J@\xb4\x1d\xce\xe7\xbdaC\xc0\x00\x00\x00 \x85\xeb\xc1?'
p2818
tp2819
bsS'secnames'
p2820
S'Cell[2].axon[57]'
p2821
sI141
I7
tp2822
a(F2.3094243303347413
S'Cell[0].apic[202] syn_ = new ExpSid(0.205882352941)'
p2823
I0
(dp2824
g2805
F0.8333333333333333
sg2806
F45.0
sg2807
I141
sg2808
g7
(g8
(I0
tp2825
g10
tp2826
Rp2827
(I1
(I3
tp2828
g2815
I00
S"r\xad\xf3\xd4\xf60:\xc0\xda\xb2\x9a9\x1ekc\xc0\xd1'T\x91\xe1\x18\xfe\xbf"
p2829
tp2830
bsg2820
S'Cell[2].axon[200]'
p2831
sI141
I7
tp2832
a(F2.476327305642583
S'Cell[3].dend[35] syn_ = new FastInhib(0.5)'
p2833
I3
(dp2834
g2805
F0.1
sg2806
F45.0
sg2807
I189
sg2808
g7
(g8
(I0
tp2835
g10
tp2836
Rp2837
(I1
(I3
tp2838
g2815
I00
S'\x1e\xae\xd2\xf0\x06\xc6\x1a@p\\R\xd1X\x956@\xbb\xc2M\\4\x10%\xc0'
p2839
tp2840
bsg2820
S'Cell[3].axon[1]'
p2841
sI189
I151
tp2842
a(F0.8755273468175722
S'Cell[0].dend[28] syn_ = new ExpSid(0.5)'
p2843
I0
(dp2844
g2805
F0.8333333333333333
sg2806
F45.0
sg2807
I189
sg2808
g7
(g8
(I0
tp2845
g10
tp2846
Rp2847
(I1
(I3
tp2848
g2815
I00
S'u\xaa~\xe4\xb9dK@\xe4\xfcp\x8c\xac\x8f8@n\x89\xb072P @'
p2849
tp2850
bsg2820
S'Cell[3].axon[49]'
p2851
sI189
I7
tp2852
a(F1.5663103583021798
S'Cell[3].dend[44] syn_ = new FastInhib(0.5)'
p2853
I3
(dp2854
g2805
F0.5
sg2806
F45.0
sg2807
I189
sg2808
g7
(g8
(I0
tp2855
g10
tp2856
Rp2857
(I1
(I3
tp2858
g2815
I00
S'< \xb4K\xf7\xe2\x00@\x92A\x81k\x9d\xd3L@\xdeJe\xe7\xb3\xaf.\xc0'
p2859
tp2860
bsg2820
S'Cell[3].axon[180]'
p2861
sI189
I151
tp2862
a(F1.0609471914610795
S'Cell[3].dend[62] syn_ = new FastInhib(0.5)'
p2863
I3
(dp2864
g2805
F0.045454545454545456
sg2806
F45.0
sg2807
I189
sg2808
g7
(g8
(I0
tp2865
g10
tp2866
Rp2867
(I1
(I3
tp2868
g2815
I00
S'\x00\x00\x00 \xae\xc7 \xc0\xe2\xacQoC\xc6_@\xb7\xf1D+\xf4\xa8C\xc0'
p2869
tp2870
bsg2820
S'Cell[3].axon[187]'
p2871
sI189
I151
tp2872
a(F2.467123984714792
S'Cell[3].dend[57] syn_ = new FastInhib(0.5)'
p2873
I3
(dp2874
g2805
F0.16666666666666666
sg2806
F45.0
sg2807
I93
sg2808
g7
(g8
(I0
tp2875
g10
tp2876
Rp2877
(I1
(I3
tp2878
g2815
I00
S'\xa2\x94m\xb3b\x19\x0c@WO\xbf5\x97\xfdS@\\\tf\xc5D\x022\xc0'
p2879
tp2880
bsg2820
S'Cell[1].axon[47]'
p2881
sI93
I151
tp2882
a(F2.2662434444771016
S'Cell[3].dend[31] syn_ = new FastInhib(0.5)'
p2883
I3
(dp2884
g2805
F0.16666666666666666
sg2806
F45.0
sg2807
I93
sg2808
g7
(g8
(I0
tp2885
g10
tp2886
Rp2887
(I1
(I3
tp2888
g2815
I00
S'\xb3\x16\xc8\x94\x9btP@\xe1=\\|?\x1f5\xc0\xff\x8c\x823\xde\xf3>\xc0'
p2889
tp2890
bsg2820
S'Cell[1].axon[70]'
p2891
sI93
I151
tp2892
a(F1.656168209672684
S'Cell[3].dend[56] syn_ = new FastInhib(0.5)'
p2893
I3
(dp2894
g2805
F0.16666666666666666
sg2806
F45.0
sg2807
I93
sg2808
g7
(g8
(I0
tp2895
g10
tp2896
Rp2897
(I1
(I3
tp2898
g2815
I00
S'\x02\xbe\x8f\xbb6\xe6\xfe?\xae]\xa2\x1c-zR@\x00\x00\x00\xe0z\x14,\xc0'
p2899
tp2900
bsg2820
S'Cell[1].axon[143]'
p2901
sI93
I151
tp2902
a(F1.8743602673409898
S'Cell[2].dend[57] syn_ = new FastInhib(0.1)'
p2903
I2
(dp2904
g2805
F0.5
sg2806
F45.0
sg2807
I93
sg2808
g7
(g8
(I0
tp2905
g10
tp2906
Rp2907
(I1
(I3
tp2908
g2815
I00
S'\xd1X\xaa[\xb7\x179\xc0\x7fD\xb1\x14:2\x1b\xc0\x14\xe8\xf2\xab$-(\xc0'
p2909
tp2910
bsg2820
S'Cell[1].axon[166]'
p2911
sI93
I103
tp2912
a(F2.3843394583351087
S'Cell[2].dend[36] syn_ = new FastInhib(0.833333333333)'
p2913
I2
(dp2914
g2805
F0.5
sg2806
F45.0
sg2807
I93
sg2808
g7
(g8
(I0
tp2915
g10
tp2916
Rp2917
(I1
(I3
tp2918
g2815
I00
S'\x00\x00\x00\xc0\xf5\x98L@\x00\x00\x00\x90\xeb\x89U@\x00\x00\x00pfF;\xc0'
p2919
tp2920
bsg2820
S'Cell[1].axon[252]'
p2921
sI93
I103
tp2922
a(F2.0801895764480904
S'Cell[3].dend[21] syn_ = new FastInhib(0.5)'
p2923
I3
(dp2924
g2805
F0.16666666666666666
sg2806
F45.0
sg2807
I93
sg2808
g7
(g8
(I0
tp2925
g10
tp2926
Rp2927
(I1
(I3
tp2928
g2815
I00
S'\\Q\x0e\xfe\xca\x03<@\x8cF\xdb\xc0\xbd\xbcQ@q\xf5\xb7v.K@\xc0'
p2929
tp2930
bsg2820
S'Cell[1].axon[262]'
p2931
sI93
I151
tp2932
a(F2.3312725110378323
S'Cell[1].dend[11] syn_ = new AmpaNmda(0.166666666667)'
p2933
I1
(dp2934
S'seg'
p2935
F0.8999999999999999
sS'hostfrom'
p2936
F46.0
sS'gid'
p2937
I94
sS'coords'
p2938
g7
(g8
(I0
tp2939
g10
tp2940
Rp2941
(I1
(I3
tp2942
g14
(S'f8'
p2943
I0
I1
tp2944
Rp2945
(I3
S'<'
p2946
NNNI-1
I-1
I0
tp2947
bI00
S'\xcc%\xea\x8e\x1br`@\xb7~\xdc\xc0\x94\xa6?\xc0\xa7\xa2\xa6G\x13s!@'
p2948
tp2949
bsS'secnames'
p2950
S'Cell[1].axon[67]'
p2951
sI94
I55
tp2952
a(F1.230286993563834
S'Cell[0].apic[154] syn_ = new AmpaNmda(0.5)'
p2953
I0
(dp2954
g2935
F0.5
sg2936
F46.0
sg2937
I94
sg2938
g7
(g8
(I0
tp2955
g10
tp2956
Rp2957
(I1
(I3
tp2958
g2945
I00
S'\x00\x00\x00p=\xcaA\xc0\x00\x00\x00\xe0z\xc0i\xc0\x00\x00\x00\xa8G\xe1\xd2\xbf'
p2959
tp2960
bsg2950
S'Cell[1].axon[140]'
p2961
sI94
I7
tp2962
a(F2.402078250842083
S'Cell[0].apic[253] syn_ = new AmpaNmda(0.166666666667)'
p2963
I0
(dp2964
g2935
F0.7
sg2936
F46.0
sg2937
I94
sg2938
g7
(g8
(I0
tp2965
g10
tp2966
Rp2967
(I1
(I3
tp2968
g2945
I00
S'\xd3\x18\xcc4\xff\xd1U\xc0\x01.\xb9\xb2\x8c\x8bX\xc0\xa1\xb4d\xa0g\x82\x1e@'
p2969
tp2970
bsg2950
S'Cell[1].axon[176]'
p2971
sI94
I7
tp2972
a(F2.4614224885370786
S'Cell[3].dend[69] syn_ = new FastInhib(0.5)'
p2973
I3
(dp2974
g2935
F0.8333333333333333
sg2936
F46.0
sg2937
I142
sg2938
g7
(g8
(I0
tp2975
g10
tp2976
Rp2977
(I1
(I3
tp2978
g2945
I00
S'\xe6cc`\xe3\x9fD@\x13\x04\x06z\xcbyU@S3\x85\x9b\x8fWD\xc0'
p2979
tp2980
bsg2950
S'Cell[2].axon[27]'
p2981
sI142
I151
tp2982
a(F1.8982615848298456
S'Cell[0].apic[177] syn_ = new ExpSid(0.5)'
p2983
I0
(dp2984
S'seg'
p2985
F0.8333333333333333
sS'hostfrom'
p2986
F47.0
sS'gid'
p2987
I95
sS'coords'
p2988
g7
(g8
(I0
tp2989
g10
tp2990
Rp2991
(I1
(I3
tp2992
g14
(S'f8'
p2993
I0
I1
tp2994
Rp2995
(I3
S'<'
p2996
NNNI-1
I-1
I0
tp2997
bI00
S'6\xb2\xc1\x13\xa0\xceV@\xe8\x15\n\xe4\xf7\x8dh\xc0>e\xae%\x9f\xd50@'
p2998
tp2999
bsS'secnames'
p3000
S'Cell[1].axon[158]'
p3001
sI95
I7
tp3002
a(F0.8387257073962298
S'Cell[2].dend[42] syn_ = new FastInhib(0.7)'
p3003
I2
(dp3004
g2985
F0.5
sg2986
F47.0
sg2987
I95
sg2988
g7
(g8
(I0
tp3005
g10
tp3006
Rp3007
(I1
(I3
tp3008
g2995
I00
S'jV\xb6\xbe\x9c`G@T\xe7\xd0\xb5\xe2\xf4J@`\x1eR\xc1\xbb]$\xc0'
p3009
tp3010
bsg3000
S'Cell[1].axon[175]'
p3011
sI95
I103
tp3012
a(F1.705447597840243
S'Cell[0].apic[4] syn_ = new ExpSid(0.5)'
p3013
I0
(dp3014
g2985
F0.5
sg2986
F47.0
sg2987
I143
sg2988
g7
(g8
(I0
tp3015
g10
tp3016
Rp3017
(I1
(I3
tp3018
g2995
I00
S'\x80\x8d\xcb\x8aa^ \xc0x\xd5\xf9\xf9\xa9]d@\x9b,Rd_v\x01@'
p3019
tp3020
bsg3000
S'Cell[2].axon[129]'
p3021
sI143
I7
tp3022
a(F1.1770216899676873
S'Cell[3].dend[57] syn_ = new FastInhib(0.5)'
p3023
I3
(dp3024
g2985
F0.8333333333333333
sg2986
F47.0
sg2987
I143
sg2988
g7
(g8
(I0
tp3025
g10
tp3026
Rp3027
(I1
(I3
tp3028
g2995
I00
S'\x1a\x00Rb\xadZ\xf6?\x9a\x91\x85\xac\xb0\x1cT@V.\x85\xd8<\xc12\xc0'
p3029
tp3030
bsg3000
S'Cell[2].axon[225]'
p3031
sI143
I151
tp3032
a(F1.9300241263826952
S'Cell[1].dend[6] syn_ = new ExpSid(0.5)'
p3033
I1
(dp3034
g2985
F0.7857142857142856
sg2986
F47.0
sg2987
I47
sg2988
g7
(g8
(I0
tp3035
g10
tp3036
Rp3037
(I1
(I3
tp3038
g2995
I00
S'5\xfaByu^R@\x0b\x1e\xd0\xe7\x1d\xe9H\xc0\x0ezj\x0f\xe5\xcc\x1e\xc0'
p3039
tp3040
bsg3000
S'Cell[0].axon[14]'
p3041
sI47
I55
tp3042
a.