(lp0
(F1.206395943952034
S'Cell[2].dend[3] syn_ = new FastInhib(0.5)'
p1
I2
(dp2
S'seg'
p3
F0.8333333333333333
sS'hostfrom'
p4
F1.0
sS'gid'
p5
I145
sS'coords'
p6
cnumpy.core.multiarray
_reconstruct
p7
(cnumpy
ndarray
p8
(I0
tp9
S'b'
p10
tp11
Rp12
(I1
(I3
tp13
cnumpy
dtype
p14
(S'f8'
p15
I0
I1
tp16
Rp17
(I3
S'<'
p18
NNNI-1
I-1
I0
tp19
bI00
S'@\xc3> \xe6.2@\xcb\x14Ux\xa9\xbf!\xc0\x00\x00\x00\x00\xd7\xa3\xe0\xbf'
p20
tp21
bsS'secnames'
p22
S'Cell[3].axon[133]'
p23
sI145
I141
tp24
a(F2.290547838123801
S'Cell[2].dend[16] syn_ = new FastInhib(0.5)'
p25
I2
(dp26
g3
F0.16666666666666666
sg4
F1.0
sg5
I97
sg6
g7
(g8
(I0
tp27
g10
tp28
Rp29
(I1
(I3
tp30
g17
I00
S'k\xea0r\xaaPC@Q\xad\xfel\x0f\xc6\x18@\xe0\t\x01T3\x863\xc0'
p31
tp32
bsg22
S'Cell[2].axon[0]'
p33
sI97
I141
tp34
a(F2.3764787931953317
S'Cell[1].dend[34] syn_ = new FastInhib(0.5)'
p35
I1
(dp36
g3
F0.5
sg4
F1.0
sg5
I97
sg6
g7
(g8
(I0
tp37
g10
tp38
Rp39
(I1
(I3
tp40
g17
I00
S'\x8acZ\xd1B\xd4\x1d@\xbed\x80\x8c\xf4\xbeZ\xc0\x00\x00\x00\x00\x00\x00\x02@'
p41
tp42
bsg22
S'Cell[2].axon[57]'
p43
sI97
I93
tp44
a(F1.7351250821277322
S'Cell[1].dend[4] syn_ = new FastInhib(0.833333333333)'
p45
I1
(dp46
g3
F0.5
sg4
F1.0
sg5
I97
sg6
g7
(g8
(I0
tp47
g10
tp48
Rp49
(I1
(I3
tp50
g17
I00
S'aZ\xa95\x14z\x11@f\x18H:\xa1\xf6P@%]\x94y\x01\xc8H\xc0'
p51
tp52
bsg22
S'Cell[2].axon[212]'
p53
sI97
I93
tp54
a(F2.4247458324783073
S'Cell[1].dend[3] syn_ = new FastInhib(0.3)'
p55
I1
(dp56
S'seg'
p57
F0.5
sS'hostfrom'
p58
F2.0
sS'gid'
p59
I98
sS'coords'
p60
g7
(g8
(I0
tp61
g10
tp62
Rp63
(I1
(I3
tp64
g14
(S'f8'
p65
I0
I1
tp66
Rp67
(I3
S'<'
p68
NNNI-1
I-1
I0
tp69
bI00
S'3\x16u \xe1\x0c\x0c\xc0\xafvC\xe5\xb0\x1aR@\x00\x00\x00\xc0\xcc\xcc\x1f\xc0'
p70
tp71
bsS'secnames'
p72
S'Cell[2].axon[1]'
p73
sI98
I93
tp74
a(F1.8167327570683702
S'Cell[0].dend[3] syn_ = new AmpaNmda(0.7)'
p75
I0
(dp76
g57
F0.5
sg58
F2.0
sg59
I98
sg60
g7
(g8
(I0
tp77
g10
tp78
Rp79
(I1
(I3
tp80
g67
I00
S'F,\x13zK\xdeN\xc0\xfbQT\xfeyD\x02\xc02\xac\x8e\xadQ\x1b,@'
p81
tp82
bsg72
S'Cell[2].axon[28]'
p83
sI98
I45
tp84
a(F2.4416094544742104
S'Cell[1].dend[10] syn_ = new FastInhib(0.5)'
p85
I1
(dp86
g57
F0.30000000000000004
sg58
F2.0
sg59
I98
sg60
g7
(g8
(I0
tp87
g10
tp88
Rp89
(I1
(I3
tp90
g67
I00
S'\x9e#\x9fU\x0c\xc6B@\x8c\xaai+\x14\t4@6\xf3}8\x7f\xae=\xc0'
p91
tp92
bsg72
S'Cell[2].axon[427]'
p93
sI98
I93
tp94
a(F2.0686045474039076
S'Cell[2].dend[6] syn_ = new FastInhib(0.5)'
p95
I2
(dp96
g57
F0.5
sg58
F2.0
sg59
I146
sg60
g7
(g8
(I0
tp97
g10
tp98
Rp99
(I1
(I3
tp100
g67
I00
S'\x88\xcf\xb8CK\x96B@B\x89\xdfi\xe8\xfc?\xc0\xa6\xa6\xa6K(e4\xc0'
p101
tp102
bsg72
S'Cell[3].axon[182]'
p103
sI146
I141
tp104
a(F2.0312971004692693
S'Cell[0].dend[3] syn_ = new AmpaNmda(0.9)'
p105
I0
(dp106
g57
F0.16666666666666666
sg58
F2.0
sg59
I146
sg60
g7
(g8
(I0
tp107
g10
tp108
Rp109
(I1
(I3
tp110
g67
I00
S"\xd6\xddm\xff#\xd5Q\xc0@\xcc0\\\xa7\xe9'\xc0\x00\x00\x00\x80=\n\xb7?"
p111
tp112
bsg72
S'Cell[3].axon[312]'
p113
sI146
I45
tp114
a(F2.4247458324783073
S'Cell[1].dend[3] syn_ = new FastInhib(0.3)'
p115
I1
(dp116
S'seg'
p117
F0.5
sS'hostfrom'
p118
F3.0
sS'gid'
p119
I99
sS'coords'
p120
g7
(g8
(I0
tp121
g10
tp122
Rp123
(I1
(I3
tp124
g14
(S'f8'
p125
I0
I1
tp126
Rp127
(I3
S'<'
p128
NNNI-1
I-1
I0
tp129
bI00
S'3\x16u \xe1\x0c\x0c\xc0\xafvC\xe5\xb0\x1aR@\x00\x00\x00\xc0\xcc\xcc\x1f\xc0'
p130
tp131
bsS'secnames'
p132
S'Cell[2].axon[1]'
p133
sI99
I93
tp134
a(F1.8167327570683702
S'Cell[0].dend[3] syn_ = new ExpSid(0.7)'
p135
I0
(dp136
g117
F0.5
sg118
F3.0
sg119
I99
sg120
g7
(g8
(I0
tp137
g10
tp138
Rp139
(I1
(I3
tp140
g127
I00
S'F,\x13zK\xdeN\xc0\xfbQT\xfeyD\x02\xc02\xac\x8e\xadQ\x1b,@'
p141
tp142
bsg132
S'Cell[2].axon[28]'
p143
sI99
I45
tp144
a(F2.4416094544742104
S'Cell[1].dend[10] syn_ = new FastInhib(0.5)'
p145
I1
(dp146
g117
F0.30000000000000004
sg118
F3.0
sg119
I99
sg120
g7
(g8
(I0
tp147
g10
tp148
Rp149
(I1
(I3
tp150
g127
I00
S'\x9e#\x9fU\x0c\xc6B@\x8c\xaai+\x14\t4@6\xf3}8\x7f\xae=\xc0'
p151
tp152
bsg132
S'Cell[2].axon[427]'
p153
sI99
I93
tp154
a(F1.1162929100152954
S'Cell[1].dend[23] syn_ = new FastInhib(0.5)'
p155
I1
(dp156
g117
F0.16666666666666666
sg118
F3.0
sg119
I51
sg120
g7
(g8
(I0
tp157
g10
tp158
Rp159
(I1
(I3
tp160
g127
I00
S"\x8a\xac\xfc]\x14\x01!@\xabU\x05\x02h\xf8'\xc0\xf4\x06\x87M\x9e\xac?\xc0"
p161
tp162
bsg132
S'Cell[1].axon[33]'
p163
sI51
I93
tp164
a(F2.1951575904263425
S'Cell[2].dend[4] syn_ = new FastInhib(0.5)'
p165
I2
(dp166
g117
F0.49999999999999994
sg118
F3.0
sg119
I147
sg120
g7
(g8
(I0
tp167
g10
tp168
Rp169
(I1
(I3
tp170
g127
I00
S'\x18Wg[&E5@7P(\x18@\xe7)\xc0\xd4\xb6\x95\xa6\x88\xb3=\xc0'
p171
tp172
bsg132
S'Cell[3].axon[135]'
p173
sI147
I141
tp174
a(F2.012546118432364
S'Cell[1].dend[37] syn_ = new FastInhib(0.7)'
p175
I1
(dp176
S'seg'
p177
F0.5
sS'hostfrom'
p178
F4.0
sS'gid'
p179
I148
sS'coords'
p180
g7
(g8
(I0
tp181
g10
tp182
Rp183
(I1
(I3
tp184
g14
(S'f8'
p185
I0
I1
tp186
Rp187
(I3
S'<'
p188
NNNI-1
I-1
I0
tp189
bI00
S'\x13\xe3pE\xd7\xf8R\xc0gdk\xd6\x1a#&@\xa1\xb3\xebO\t\x9f:\xc0'
p190
tp191
bsS'secnames'
p192
S'Cell[3].axon[394]'
p193
sI148
I93
tp194
a(F1.025232692759267
S'Cell[0].dend[6] syn_ = new ExpSid(0.3)'
p195
I0
(dp196
S'seg'
p197
F0.30000000000000004
sS'hostfrom'
p198
F5.0
sS'gid'
p199
I5
sS'coords'
p200
g7
(g8
(I0
tp201
g10
tp202
Rp203
(I1
(I3
tp204
g14
(S'f8'
p205
I0
I1
tp206
Rp207
(I3
S'<'
p208
NNNI-1
I-1
I0
tp209
bI00
S"iq'\xa4\xf5\x99E\xc0u6\x85\xbb\xd4\x9fQ@\xa6\x9eLK\xf7\xb31@"
p210
tp211
bsS'secnames'
p212
S'Cell[0].axon[11]'
p213
sI5
I45
tp214
a(F2.0476111920379783
S'Cell[1].dend[19] syn_ = new FastInhib(0.5)'
p215
I1
(dp216
S'seg'
p217
F0.5
sS'hostfrom'
p218
F6.0
sS'gid'
p219
I150
sS'coords'
p220
g7
(g8
(I0
tp221
g10
tp222
Rp223
(I1
(I3
tp224
g14
(S'f8'
p225
I0
I1
tp226
Rp227
(I3
S'<'
p228
NNNI-1
I-1
I0
tp229
bI00
S"W\xb0\xdd+y\x84L\xc0u\xd5\xbbS\x13\x1bG@\x00\x00\x00 \xae'K\xc0"
p230
tp231
bsS'secnames'
p232
S'Cell[3].axon[8]'
p233
sI150
I93
tp234
a(F1.72614013883887
S'Cell[1].dend[0] syn_ = new FastInhib(0.3)'
p235
I1
(dp236
g217
F0.8333333333333333
sg218
F6.0
sg219
I150
sg220
g7
(g8
(I0
tp237
g10
tp238
Rp239
(I1
(I3
tp240
g227
I00
S'\xf8la8I\xbf.\xc0\xf2p\xeeQ\xcbS8@e\x13\x84\xe1\xca\xe9D\xc0'
p241
tp242
bsg232
S'Cell[3].axon[42]'
p243
sI150
I93
tp244
a(F1.2543893507915804
S'Cell[2].dend[12] syn_ = new FastInhib(0.833333333333)'
p245
I2
(dp246
g217
F0.5
sg218
F6.0
sg219
I150
sg220
g7
(g8
(I0
tp247
g10
tp248
Rp249
(I1
(I3
tp250
g227
I00
S'0\xe4\xad\x9a\xda8(@D\x84\xed\x83J\xa9;\xc0\x00\x00\x00\x80\x14\xee>\xc0'
p251
tp252
bsg232
S'Cell[3].axon[110]'
p253
sI150
I141
tp254
a(F2.4901860890016705
S'Cell[0].dend[21] syn_ = new ExpSid(0.5)'
p255
I0
(dp256
S'seg'
p257
F0.8333333333333333
sS'hostfrom'
p258
F7.0
sS'gid'
p259
I103
sS'coords'
p260
g7
(g8
(I0
tp261
g10
tp262
Rp263
(I1
(I3
tp264
g14
(S'f8'
p265
I0
I1
tp266
Rp267
(I3
S'<'
p268
NNNI-1
I-1
I0
tp269
bI00
S'\xce\xb6\xb7\x10\xc0AC@M\x12_\x1cv[?@\x92\xd1\xb7qOB\xed\xbf'
p270
tp271
bsS'secnames'
p272
S'Cell[2].axon[298]'
p273
sI103
I45
tp274
a(F1.4943313531625833
S'Cell[1].dend[32] syn_ = new FastInhib(0.833333333333)'
p275
I1
(dp276
g257
F0.5
sg258
F7.0
sg259
I103
sg260
g7
(g8
(I0
tp277
g10
tp278
Rp279
(I1
(I3
tp280
g267
I00
S'N\xf3\xb4V+j#@\xd0\x8f\xcd\xdf,uT\xc0F\xf3yH\xad\xf8\x12\xc0'
p281
tp282
bsg272
S'Cell[2].axon[360]'
p283
sI103
I93
tp284
a(F1.8274325131045461
S'Cell[1].dend[31] syn_ = new FastInhib(0.5)'
p285
I1
(dp286
g257
F0.8333333333333333
sg258
F7.0
sg259
I151
sg260
g7
(g8
(I0
tp287
g10
tp288
Rp289
(I1
(I3
tp290
g267
I00
S'\xc0F\xa9^\xfa\x8b\x18@\xa4j\x91\xb4\xe2\x89+\xc0\x96`\x95\xbb\xc2X"\xc0'
p291
tp292
bsg272
S'Cell[3].axon[217]'
p293
sI151
I93
tp294
a(F2.056509561582827
S'Cell[1].dend[26] syn_ = new FastInhib(0.5)'
p295
I1
(dp296
g257
F0.16666666666666666
sg258
F7.0
sg259
I151
sg260
g7
(g8
(I0
tp297
g10
tp298
Rp299
(I1
(I3
tp300
g267
I00
S'\x00p>y%\xfc%\xbf\xb2\x85\xaa\xcb\xec5\x19\xc0|\tFf\xd5V\x1d\xc0'
p301
tp302
bsg272
S'Cell[3].axon[218]'
p303
sI151
I93
tp304
a(F2.0217173100882784
S'Cell[3].dend[15] syn_ = new FastInhib(0.5)'
p305
I3
(dp306
g257
F0.8333333333333333
sg258
F7.0
sg259
I151
sg260
g7
(g8
(I0
tp307
g10
tp308
Rp309
(I1
(I3
tp310
g267
I00
S'f&\x87+\x9c03@\x9cwl\x94\xd9\xcb`@\x03`\xc2+\x86\xf05@'
p311
tp312
bsg272
S'Cell[3].axon[227]'
p313
sI151
I189
tp314
a(F2.38330150642502
S'Cell[3].dend[58] syn_ = new FastInhib(0.833333333333)'
p315
I3
(dp316
S'seg'
p317
F0.16666666666666666
sS'hostfrom'
p318
F8.0
sS'gid'
p319
I8
sS'coords'
p320
g7
(g8
(I0
tp321
g10
tp322
Rp323
(I1
(I3
tp324
g14
(S'f8'
p325
I0
I1
tp326
Rp327
(I3
S'<'
p328
NNNI-1
I-1
I0
tp329
bI00
S'\x90\x15\xfc\xbcd\r(\xc0\xc4x[/\xa5\xd5h\xc02\x83m\xbe\xed\xb64@'
p330
tp331
bsS'secnames'
p332
S'Cell[0].axon[3]'
p333
sI8
I189
tp334
a(F2.252840976602998
S'Cell[1].dend[15] syn_ = new FastInhib(0.5)'
p335
I1
(dp336
g317
F0.5
sg318
F8.0
sg319
I152
sg320
g7
(g8
(I0
tp337
g10
tp338
Rp339
(I1
(I3
tp340
g327
I00
S'\xbaY\x19\xff\x98C:@~\xe8\x7f\xf0\x17\xc79@\x00\x00\x00\xc0\xcc\xcc3\xc0'
p341
tp342
bsg332
S'Cell[3].axon[133]'
p343
sI152
I93
tp344
a(F2.4707336913129447
S'Cell[3].dend[4] syn_ = new FastInhib(0.5)'
p345
I3
(dp346
g317
F0.8333333333333333
sg318
F8.0
sg319
I152
sg320
g7
(g8
(I0
tp347
g10
tp348
Rp349
(I1
(I3
tp350
g327
I00
S'\x13U\xc6Z^9=@\xfal\x1a\x93\xd4\xbf3@\xc5\x82\xce?e\xe27@'
p351
tp352
bsg332
S'Cell[3].axon[141]'
p353
sI152
I189
tp354
a(F2.2696582721079723
S'Cell[0].dend[5] syn_ = new AmpaNmda(0.166666666667)'
p355
I0
(dp356
g317
F0.8333333333333333
sg318
F8.0
sg319
I152
sg320
g7
(g8
(I0
tp357
g10
tp358
Rp359
(I1
(I3
tp360
g327
I00
S'\x89T\x12\x99\xe3\x19=\xc0\x8d\xcf\xba}\xfb\xa2L@O\xca\x02\x1f\x8f\xaa!@'
p361
tp362
bsg332
S'Cell[3].axon[323]'
p363
sI152
I45
tp364
a(F0.7810375415844162
S'Cell[3].dend[46] syn_ = new FastInhib(0.166666666667)'
p365
I3
(dp366
g317
F0.16666666666666666
sg318
F8.0
sg319
I152
sg320
g7
(g8
(I0
tp367
g10
tp368
Rp369
(I1
(I3
tp370
g327
I00
S'\xcf~R=\xe9\xd8C@~6\xbc(\xb9\x92d@\x1dS\t\xc9]c2@'
p371
tp372
bsg332
S'Cell[3].axon[378]'
p373
sI152
I189
tp374
a(F1.2173923325219074
S'Cell[0].dend[5] syn_ = new AmpaNmda(0.5)'
p375
I0
(dp376
g317
F0.8333333333333333
sg318
F8.0
sg319
I152
sg320
g7
(g8
(I0
tp377
g10
tp378
Rp379
(I1
(I3
tp380
g327
I00
S',]\xbe\xa9i\xc4J\xc0$\xc6w1\xf5\xe1G@L\x8b\xda`\x9f\xaa\x18\xc0'
p381
tp382
bsg332
S'Cell[3].axon[560]'
p383
sI152
I45
tp384
a(F2.4107392797056684
S'Cell[1].dend[32] syn_ = new FastInhib(0.833333333333)'
p385
I1
(dp386
g317
F0.8333333333333333
sg318
F8.0
sg319
I104
sg320
g7
(g8
(I0
tp387
g10
tp388
Rp389
(I1
(I3
tp390
g327
I00
S"\x07\xeb\x80/f\x9d'@\x14bs\x83\x9f\xaeT\xc0\x9f\xa3h-\x91\x9c\x10\xc0"
p391
tp392
bsg332
S'Cell[2].axon[86]'
p393
sI104
I93
tp394
a(F2.367511349745632
S'Cell[2].dend[19] syn_ = new FastInhib(0.833333333333)'
p395
I2
(dp396
S'seg'
p397
F0.1
sS'hostfrom'
p398
F10.0
sS'gid'
p399
I106
sS'coords'
p400
g7
(g8
(I0
tp401
g10
tp402
Rp403
(I1
(I3
tp404
g14
(S'f8'
p405
I0
I1
tp406
Rp407
(I3
S'<'
p408
NNNI-1
I-1
I0
tp409
bI00
S'\xe7\xb6\xf4=\x03\x868@00\xbf 6ZD\xc0\x9c\xff\xaa\xc5\x9a#4\xc0'
p410
tp411
bsS'secnames'
p412
S'Cell[2].axon[85]'
p413
sI106
I141
tp414
a(F1.520654350706358
S'Cell[0].dend[11] syn_ = new AmpaNmda(0.5)'
p415
I0
(dp416
g397
F0.1
sg398
F10.0
sg399
I106
sg400
g7
(g8
(I0
tp417
g10
tp418
Rp419
(I1
(I3
tp420
g407
I00
S'\xc4\xb5\n\xb4sG#\xc0\xd2T\x1b\xfc\xc1\x87"@\xe9\xee\xde\x1d.>0\xc0'
p421
tp422
bsg412
S'Cell[2].axon[128]'
p423
sI106
I45
tp424
a(F2.306660591289557
S'Cell[3].dend[7] syn_ = new FastInhib(0.833333333333)'
p425
I3
(dp426
g397
F0.16666666666666666
sg398
F10.0
sg399
I106
sg400
g7
(g8
(I0
tp427
g10
tp428
Rp429
(I1
(I3
tp430
g407
I00
S'\x0cs}\x0cY\xf7\x18@5\xd9\xc8UM\xbaS@\xc6\xf5\x00\x9dl\x1b-@'
p431
tp432
bsg412
S'Cell[2].axon[226]'
p433
sI106
I189
tp434
a(F1.4446847739898891
S'Cell[0].dend[13] syn_ = new AmpaNmda(0.5)'
p435
I0
(dp436
g397
F0.21428571428571427
sg398
F10.0
sg399
I58
sg400
g7
(g8
(I0
tp437
g10
tp438
Rp439
(I1
(I3
tp440
g407
I00
S'\x92%\xff\xfa].\x1f\xc0\x8c\xe7\x02_|\x0e8\xc0\xe3J\xb2\xd3\xb1\x81>\xc0'
p441
tp442
bsg412
S'Cell[1].axon[3]'
p443
sI58
I45
tp444
a(F1.0305294289791855
S'Cell[0].dend[21] syn_ = new AmpaNmda(0.5)'
p445
I0
(dp446
g397
F0.11538461538461539
sg398
F10.0
sg399
I58
sg400
g7
(g8
(I0
tp447
g10
tp448
Rp449
(I1
(I3
tp450
g407
I00
S'\xf9Ty\xc2\x01LC@^\xd3Q\xa0y\xb9>@v`8\x1e\x91F\x10\xc0'
p451
tp452
bsg412
S'Cell[1].axon[36]'
p453
sI58
I45
tp454
a(F1.6809413325516545
S'Cell[3].dend[26] syn_ = new FastInhib(0.166666666667)'
p455
I3
(dp456
S'seg'
p457
F0.8333333333333333
sS'hostfrom'
p458
F13.0
sS'gid'
p459
I109
sS'coords'
p460
g7
(g8
(I0
tp461
g10
tp462
Rp463
(I1
(I3
tp464
g14
(S'f8'
p465
I0
I1
tp466
Rp467
(I3
S'<'
p468
NNNI-1
I-1
I0
tp469
bI00
S'\xa6\xfd5Yk\xaaA@]\xfb\xe8\xd8\x8c\xf1L@w\xf6\x99\x9b\xc4\x8b4@'
p470
tp471
bsS'secnames'
p472
S'Cell[2].axon[71]'
p473
sI109
I189
tp474
a(F2.172622824046263
S'Cell[3].dend[25] syn_ = new FastInhib(0.166666666667)'
p475
I3
(dp476
g457
F0.5
sg458
F13.0
sg459
I109
sg460
g7
(g8
(I0
tp477
g10
tp478
Rp479
(I1
(I3
tp480
g467
I00
S'N\xa3\xc1;\x92ZB@Dy\xc1\xa4\x18.F@Dy\xc1\x04\xfaH8@'
p481
tp482
bsg472
S'Cell[2].axon[97]'
p483
sI109
I189
tp484
a(F2.1316855180746708
S'Cell[0].apic[0] syn_ = new ExpSid(0.5)'
p485
I0
(dp486
g457
F0.30000000000000004
sg458
F13.0
sg459
I109
sg460
g7
(g8
(I0
tp487
g10
tp488
Rp489
(I1
(I3
tp490
g467
I00
S'\x9d;\x00\x9c\xb9\x8c\x15@@`\xe3\xa7j\xadQ@\xb7\xf4\xe5\xd2\xb9]\xf5\xbf'
p491
tp492
bsg472
S'Cell[2].axon[237]'
p493
sI109
I45
tp494
a(F2.2174518896750777
S'Cell[2].dend[4] syn_ = new FastInhib(0.166666666667)'
p495
I2
(dp496
S'seg'
p497
F0.5
sS'hostfrom'
p498
F14.0
sS'gid'
p499
I110
sS'coords'
p500
g7
(g8
(I0
tp501
g10
tp502
Rp503
(I1
(I3
tp504
g14
(S'f8'
p505
I0
I1
tp506
Rp507
(I3
S'<'
p508
NNNI-1
I-1
I0
tp509
bI00
S'\x00\x00\x00\xd0\xcc\x0c6@\x00\x00\x00\x90\xeb\x91+\xc0\x00\x00\x0003\xb3"\xc0'
p510
tp511
bsS'secnames'
p512
S'Cell[2].axon[6]'
p513
sI110
I141
tp514
a(F2.0501530057554027
S'Cell[2].dend[4] syn_ = new FastInhib(0.166666666667)'
p515
I2
(dp516
g497
F0.5
sg498
F14.0
sg499
I110
sg500
g7
(g8
(I0
tp517
g10
tp518
Rp519
(I1
(I3
tp520
g507
I00
S'\x03\xdd\xf0\xf7\xb5+7@\xcf\x1b:x:\xa9%\xc0\xb3\xce\x80\x9d(7$\xc0'
p521
tp522
bsg512
S'Cell[2].axon[8]'
p523
sI110
I141
tp524
a(F2.474597770217301
S'Cell[3].dend[0] syn_ = new FastInhib(0.5)'
p525
I3
(dp526
g497
F0.5
sg498
F14.0
sg499
I110
sg500
g7
(g8
(I0
tp527
g10
tp528
Rp529
(I1
(I3
tp530
g507
I00
S'8b\x9fLL\xc7/@\xfd}h2\xc7\xfc/\xc0\x00\x00\x00\xe0Qx2@'
p531
tp532
bsg512
S'Cell[2].axon[80]'
p533
sI110
I189
tp534
a(F1.800035185165937
S'Cell[1].dend[10] syn_ = new FastInhib(0.5)'
p535
I1
(dp536
S'seg'
p537
F0.49999999999999994
sS'hostfrom'
p538
F15.0
sS'gid'
p539
I159
sS'coords'
p540
g7
(g8
(I0
tp541
g10
tp542
Rp543
(I1
(I3
tp544
g14
(S'f8'
p545
I0
I1
tp546
Rp547
(I3
S'<'
p548
NNNI-1
I-1
I0
tp549
bI00
S'\x95\xd6\xad3^\x9bC@\xa2\t\x00\x01\x1f\xbc6@\x00\x00\x00\x80\xc25;\xc0'
p550
tp551
bsS'secnames'
p552
S'Cell[3].axon[4]'
p553
sI159
I93
tp554
a(F2.3650014086981392
S'Cell[1].dend[37] syn_ = new FastInhib(0.7)'
p555
I1
(dp556
g537
F0.5
sg538
F15.0
sg539
I159
sg540
g7
(g8
(I0
tp557
g10
tp558
Rp559
(I1
(I3
tp560
g547
I00
S'FW\x96\xe7\xc2xR\xc0\xed\xa7r\xae\x90`,@\x00\x00\x00`f\xe6<\xc0'
p561
tp562
bsg552
S'Cell[3].axon[158]'
p563
sI159
I93
tp564
a(F1.8464339551171838
S'Cell[2].dend[11] syn_ = new FastInhib(0.5)'
p565
I2
(dp566
S'seg'
p567
F0.8333333333333333
sS'hostfrom'
p568
F16.0
sS'gid'
p569
I160
sS'coords'
p570
g7
(g8
(I0
tp571
g10
tp572
Rp573
(I1
(I3
tp574
g14
(S'f8'
p575
I0
I1
tp576
Rp577
(I3
S'<'
p578
NNNI-1
I-1
I0
tp579
bI00
S'b\xe1/\xa0I\x16=@\xfc\x87_\x18]:\x04@\x00\x00\x00`ff\n\xc0'
p580
tp581
bsS'secnames'
p582
S'Cell[3].axon[138]'
p583
sI160
I141
tp584
a(F1.2124586794041423
S'Cell[2].dend[19] syn_ = new FastInhib(0.166666666667)'
p585
I2
(dp586
g567
F0.5
sg568
F16.0
sg569
I112
sg570
g7
(g8
(I0
tp587
g10
tp588
Rp589
(I1
(I3
tp590
g577
I00
S'\xd3\x06\xd9\t\xf1JB@\xea\x1a\x94\x98\xfe\x0b\xdb?\xb2}\xa4\x88Y]%@'
p591
tp592
bsg582
S'Cell[2].axon[5]'
p593
sI112
I141
tp594
a(F2.4176332067928015
S'Cell[3].dend[26] syn_ = new FastInhib(0.5)'
p595
I3
(dp596
g567
F0.5
sg568
F16.0
sg569
I112
sg570
g7
(g8
(I0
tp597
g10
tp598
Rp599
(I1
(I3
tp600
g577
I00
S'-zF\xd9\x82\xecC@Zy\x07[\x98>W@\x00\x00\x00\x00\x00@2@'
p601
tp602
bsg582
S'Cell[2].axon[83]'
p603
sI112
I189
tp604
a(F2.3938840126978875
S'Cell[1].dend[11] syn_ = new FastInhib(0.1)'
p605
I1
(dp606
g567
F0.5
sg568
F16.0
sg569
I112
sg570
g7
(g8
(I0
tp607
g10
tp608
Rp609
(I1
(I3
tp610
g577
I00
S'.\x9d\x0e\x1f\xd0\x82M@\x90\xb8I\x81\xd9e(@\xbb\x9f\x96\xbc#\xc1F\xc0'
p611
tp612
bsg582
S'Cell[2].axon[88]'
p613
sI112
I93
tp614
a(F1.6190930469649052
S'Cell[1].dend[2] syn_ = new FastInhib(0.166666666667)'
p615
I1
(dp616
g567
F0.5
sg568
F16.0
sg569
I112
sg570
g7
(g8
(I0
tp617
g10
tp618
Rp619
(I1
(I3
tp620
g577
I00
S'\x10p\xdbr\xe9\xbe\x04@\xeb\xe1r\xc8qwD@B:X/\xb3\xcf.\xc0'
p621
tp622
bsg582
S'Cell[2].axon[132]'
p623
sI112
I93
tp624
a(F1.0728281787720304
S'Cell[0].apic[0] syn_ = new AmpaNmda(0.5)'
p625
I0
(dp626
g567
F0.5
sg568
F16.0
sg569
I112
sg570
g7
(g8
(I0
tp627
g10
tp628
Rp629
(I1
(I3
tp630
g577
I00
S'\xd3\x88\xa7\xd0%\x9d\x12@\xa9@\xbb\r\x9e\xf3Q@\x90\x82cO\xdbl\x0c\xc0'
p631
tp632
bsg582
S'Cell[2].axon[208]'
p633
sI112
I45
tp634
a(F1.1819008404043467
S'Cell[1].dend[30] syn_ = new FastInhib(0.5)'
p635
I1
(dp636
S'seg'
p637
F0.5
sS'hostfrom'
p638
F17.0
sS'gid'
p639
I113
sS'coords'
p640
g7
(g8
(I0
tp641
g10
tp642
Rp643
(I1
(I3
tp644
g14
(S'f8'
p645
I0
I1
tp646
Rp647
(I3
S'<'
p648
NNNI-1
I-1
I0
tp649
bI00
S"l\x96\xe7\xc3\x10\xbe\x08@\r\xc7\xca\x9af\x8f1\xc0'Y\xf0\x82\xa5\xb9\x1d\xc0"
p650
tp651
bsS'secnames'
p652
S'Cell[2].axon[505]'
p653
sI113
I93
tp654
a(F2.454883857684385
S'Cell[1].dend[31] syn_ = new FastInhib(0.5)'
p655
I1
(dp656
g637
F0.5
sg638
F17.0
sg639
I113
sg640
g7
(g8
(I0
tp657
g10
tp658
Rp659
(I1
(I3
tp660
g647
I00
S'\xb2\xc1EA\x8d\x02\x1b@l\xca\xa8#^@)\xc0\x97\xe1e\x1e,\xfc$\xc0'
p661
tp662
bsg652
S'Cell[2].axon[510]'
p663
sI113
I93
tp664
a(F1.6469574317757976
S'Cell[1].dend[1] syn_ = new FastInhib(0.166666666667)'
p665
I1
(dp666
g637
F0.7
sg638
F17.0
sg639
I113
sg640
g7
(g8
(I0
tp667
g10
tp668
Rp669
(I1
(I3
tp670
g647
I00
S'\x10\x0e\xdc|$a\xf4?\xa6<\x8eyLbA@\xaaI\xac\xf1\xa4\xf36\xc0'
p671
tp672
bsg652
S'Cell[2].axon[512]'
p673
sI113
I93
tp674
a(F1.412150477342885
S'Cell[0].dend[21] syn_ = new ExpSid(0.5)'
p675
I0
(dp676
g637
F0.5
sg638
F17.0
sg639
I161
sg640
g7
(g8
(I0
tp677
g10
tp678
Rp679
(I1
(I3
tp680
g647
I00
S'\x00\x00\x00\x10\xd7\x03C@\x00\x00\x00 \xae\x07?@\x00\x00\x00<\nW\x12\xc0'
p681
tp682
bsg652
S'Cell[3].axon[128]'
p683
sI161
I45
tp684
a(F2.120617246216189
S'Cell[1].dend[37] syn_ = new FastInhib(0.1)'
p685
I1
(dp686
S'seg'
p687
F0.5
sS'hostfrom'
p688
F18.0
sS'gid'
p689
I162
sS'coords'
p690
g7
(g8
(I0
tp691
g10
tp692
Rp693
(I1
(I3
tp694
g14
(S'f8'
p695
I0
I1
tp696
Rp697
(I3
S'<'
p698
NNNI-1
I-1
I0
tp699
bI00
S'\x00\x00\x00\xe0z\x94"\xc0\x00\x00\x00`\xb8\x9e(@\x00\x00\x00 \x85\xeb\x1e\xc0'
p700
tp701
bsS'secnames'
p702
S'Cell[3].soma[0]'
p703
sI162
I93
tp704
a(F1.3635474912974832
S'Cell[0].dend[6] syn_ = new ExpSid(0.7)'
p705
I0
(dp706
S'seg'
p707
F0.5
sS'hostfrom'
p708
F19.0
sS'gid'
p709
I115
sS'coords'
p710
g7
(g8
(I0
tp711
g10
tp712
Rp713
(I1
(I3
tp714
g14
(S'f8'
p715
I0
I1
tp716
Rp717
(I3
S'<'
p718
NNNI-1
I-1
I0
tp719
bI00
S'\xac\x1b\x04b\xd9\xa5T\xc0\xd9\xbc\xd3\x1d>vV@G\xfb%\xc6\x00\xc20@'
p720
tp721
bsS'secnames'
p722
S'Cell[2].axon[70]'
p723
sI115
I45
tp724
a(F1.827530123328274
S'Cell[3].dend[61] syn_ = new FastInhib(0.166666666667)'
p725
I3
(dp726
g707
F0.5
sg708
F19.0
sg709
I163
sg710
g7
(g8
(I0
tp727
g10
tp728
Rp729
(I1
(I3
tp730
g717
I00
S'\x00\x00\x00\xf0(\x9c)\xc0\x00\x00\x00\x00)\x1cY\xc0\x00\x00\x00\x08\x00\x00\x11@'
p731
tp732
bsg722
S'Cell[3].axon[3]'
p733
sI163
I189
tp734
a(F1.7861470176121608
S'Cell[2].dend[7] syn_ = new FastInhib(0.5)'
p735
I2
(dp736
S'seg'
p737
F0.5
sS'hostfrom'
p738
F21.0
sS'gid'
p739
I165
sS'coords'
p740
g7
(g8
(I0
tp741
g10
tp742
Rp743
(I1
(I3
tp744
g14
(S'f8'
p745
I0
I1
tp746
Rp747
(I3
S'<'
p748
NNNI-1
I-1
I0
tp749
bI00
S'\xfay\xbe\xe2\xf3qH@&\xe9\x1e3R\xfaB\xc0k\x01\xdd\x18\xd3\xaa\xde\xbf'
p750
tp751
bsS'secnames'
p752
S'Cell[3].axon[31]'
p753
sI165
I141
tp754
a(F0.5846428927351542
S'Cell[0].apic[4] syn_ = new ExpSid(0.5)'
p755
I0
(dp756
g737
F0.5
sg738
F21.0
sg739
I117
sg740
g7
(g8
(I0
tp757
g10
tp758
Rp759
(I1
(I3
tp760
g747
I00
S'\xe2\x10s\xdbTk\x1b\xc0\xcd8P\x8f\x0e\x8b`@\x00\x00\x00\x80\xc2u9\xc0'
p761
tp762
bsg752
S'Cell[2].axon[205]'
p763
sI117
I45
tp764
a(F0.6895661957969662
S'Cell[0].apic[8] syn_ = new ExpSid(0.5)'
p765
I0
(dp766
g737
F0.5
sg738
F21.0
sg739
I117
sg740
g7
(g8
(I0
tp767
g10
tp768
Rp769
(I1
(I3
tp770
g747
I00
S'\x84\xe5\x07\xc9\x99D @\xb2LpZa\x03R@\x00\x00\x00\x80\xc2u9\xc0'
p771
tp772
bsg752
S'Cell[2].axon[266]'
p773
sI117
I45
tp774
a(F2.2623673555494457
S'Cell[2].dend[18] syn_ = new FastInhib(0.7)'
p775
I2
(dp776
g737
F0.5
sg738
F21.0
sg739
I117
sg740
g7
(g8
(I0
tp777
g10
tp778
Rp779
(I1
(I3
tp780
g747
I00
S'\x17h\xb0\x16\x1b\xeeR@\xe5ey\x85m\xb26@\x00\x00\x00\x80\xc2u9\xc0'
p781
tp782
bsg752
S'Cell[2].axon[411]'
p783
sI117
I141
tp784
a(F2.4116600124205747
S'Cell[1].dend[13] syn_ = new FastInhib(0.5)'
p785
I1
(dp786
S'seg'
p787
F0.07142857142857142
sS'hostfrom'
p788
F22.0
sS'gid'
p789
I166
sS'coords'
p790
g7
(g8
(I0
tp791
g10
tp792
Rp793
(I1
(I3
tp794
g14
(S'f8'
p795
I0
I1
tp796
Rp797
(I3
S'<'
p798
NNNI-1
I-1
I0
tp799
bI00
S"D'\x92\xe8qUT@\xbe\x06l\xadBZ7@\x00O\xa9\x84\x8clG\xc0"
p800
tp801
bsS'secnames'
p802
S'Cell[3].axon[135]'
p803
sI166
I93
tp804
a(F1.9825462601445958
S'Cell[1].dend[22] syn_ = new FastInhib(0.5)'
p805
I1
(dp806
g787
F0.16666666666666666
sg788
F22.0
sg789
I166
sg790
g7
(g8
(I0
tp807
g10
tp808
Rp809
(I1
(I3
tp810
g797
I00
S'\x8e\xa4\x81:p\xc1B@\xac\x94<\x13T\x0f<\xc0\x08\xb1?\xf6\xb2\xf3G\xc0'
p811
tp812
bsg802
S'Cell[3].axon[206]'
p813
sI166
I93
tp814
a(F2.4506360523066357
S'Cell[1].dend[34] syn_ = new FastInhib(0.5)'
p815
I1
(dp816
S'seg'
p817
F0.05555555555555555
sS'hostfrom'
p818
F23.0
sS'gid'
p819
I71
sS'coords'
p820
g7
(g8
(I0
tp821
g10
tp822
Rp823
(I1
(I3
tp824
g14
(S'f8'
p825
I0
I1
tp826
Rp827
(I3
S'<'
p828
NNNI-1
I-1
I0
tp829
bI00
S'\x7f\xcc\xb7}\x82\x1e\x17@\x11R\xc6I\x80\xd9Z\xc0\x00\x00\x00\x00\x00\x00\xfc\xbf'
p830
tp831
bsS'secnames'
p832
S'Cell[1].axon[4]'
p833
sI71
I93
tp834
a(F1.3685981803757306
S'Cell[2].dend[7] syn_ = new FastInhib(0.5)'
p835
I2
(dp836
S'seg'
p837
F0.5
sS'hostfrom'
p838
F24.0
sS'gid'
p839
I120
sS'coords'
p840
g7
(g8
(I0
tp841
g10
tp842
Rp843
(I1
(I3
tp844
g14
(S'f8'
p845
I0
I1
tp846
Rp847
(I3
S'<'
p848
NNNI-1
I-1
I0
tp849
bI00
S'\x98\x18\xa7\x08\x1dbH@\r\xa6\xe0\xe8\xbe[C\xc0\x00\x00\x00`\x8f\xc2\xc5\xbf'
p850
tp851
bsS'secnames'
p852
S'Cell[2].axon[59]'
p853
sI120
I141
tp854
a(F2.094490172760481
S'Cell[1].dend[27] syn_ = new FastInhib(0.3)'
p855
I1
(dp856
g837
F0.5
sg838
F24.0
sg839
I120
sg840
g7
(g8
(I0
tp857
g10
tp858
Rp859
(I1
(I3
tp860
g847
I00
S'\xaa\n\xf0\xccd\xc7.\xc0\xae\xcfe3}\x8cJ\xc0\x9a\xf9\xd8Cq\x08 \xc0'
p861
tp862
bsg852
S'Cell[2].axon[127]'
p863
sI120
I93
tp864
a(F2.137036589521033
S'Cell[0].dend[10] syn_ = new ExpSid(0.5)'
p865
I0
(dp866
S'seg'
p867
F0.5
sS'hostfrom'
p868
F25.0
sS'gid'
p869
I121
sS'coords'
p870
g7
(g8
(I0
tp871
g10
tp872
Rp873
(I1
(I3
tp874
g14
(S'f8'
p875
I0
I1
tp876
Rp877
(I3
S'<'
p878
NNNI-1
I-1
I0
tp879
bI00
S'\x00\x00\x00\xc0\xf5\xa8\x14\xc0\x00\x00\x00\x10\xae\xe76@\x00\x00\x00 33-\xc0'
p880
tp881
bsS'secnames'
p882
S'Cell[2].axon[4]'
p883
sI121
I45
tp884
a(F1.755287568497695
S'Cell[3].dend[27] syn_ = new FastInhib(0.833333333333)'
p885
I3
(dp886
g867
F0.7222222222222223
sg868
F25.0
sg869
I121
sg870
g7
(g8
(I0
tp887
g10
tp888
Rp889
(I1
(I3
tp890
g877
I00
S'"H\xd5\xcf\xf5\x14A@d\xe2T\xd2\x17\xa5i@\x0exC\xf7F\xa70@'
p891
tp892
bsg882
S'Cell[2].axon[30]'
p893
sI121
I189
tp894
a(F2.1917269458508306
S'Cell[0].dend[6] syn_ = new ExpSid(0.3)'
p895
I0
(dp896
g867
F0.7
sg868
F25.0
sg869
I121
sg870
g7
(g8
(I0
tp897
g10
tp898
Rp899
(I1
(I3
tp900
g877
I00
S' \xbc\xe1b\xf8]F\xc0\xeb<d\xc8\xfb8Q@\xae\x1e\xa3#L\x1c2@'
p901
tp902
bsg882
S'Cell[2].axon[131]'
p903
sI121
I45
tp904
a(F1.9656231055516358
S'Cell[1].dend[37] syn_ = new FastInhib(0.5)'
p905
I1
(dp906
g867
F0.5
sg868
F25.0
sg869
I121
sg870
g7
(g8
(I0
tp907
g10
tp908
Rp909
(I1
(I3
tp910
g877
I00
S'\x00\x00\x00\xd0\xcc<L\xc0\x00\x00\x00\xe8z\x940@\x00\x00\x00\x10\xd7c6\xc0'
p911
tp912
bsg882
S'Cell[2].axon[155]'
p913
sI121
I93
tp914
a(F1.4286375206849156
S'Cell[3].dend[0] syn_ = new FastInhib(0.5)'
p915
I3
(dp916
S'seg'
p917
F0.5
sS'hostfrom'
p918
F26.0
sS'gid'
p919
I26
sS'coords'
p920
g7
(g8
(I0
tp921
g10
tp922
Rp923
(I1
(I3
tp924
g14
(S'f8'
p925
I0
I1
tp926
Rp927
(I3
S'<'
p928
NNNI-1
I-1
I0
tp929
bI00
S'\xf3KR\xbc\xdc\x0b+@\xac?\xab\x9b$\x930\xc0\xd5\xf9w\xeb\x18\x0e0@'
p930
tp931
bsS'secnames'
p932
S'Cell[0].axon[2]'
p933
sI26
I189
tp934
a(F1.600578760595287
S'Cell[1].dend[27] syn_ = new FastInhib(0.1)'
p935
I1
(dp936
g917
F0.5
sg918
F26.0
sg919
I26
sg920
g7
(g8
(I0
tp937
g10
tp938
Rp939
(I1
(I3
tp940
g927
I00
S">E\x88\x17\xe3:\x06\xc0\xf6\xa4O\r\xe0\xf5=\xc0\x92'\xe2\xd24\xe6\x1d\xc0"
p941
tp942
bsg932
S'Cell[0].axon[75]'
p943
sI26
I93
tp944
a(F1.8679707618948305
S'Cell[3].dend[8] syn_ = new FastInhib(0.5)'
p945
I3
(dp946
S'seg'
p947
F0.16666666666666666
sS'hostfrom'
p948
F27.0
sS'gid'
p949
I171
sS'coords'
p950
g7
(g8
(I0
tp951
g10
tp952
Rp953
(I1
(I3
tp954
g14
(S'f8'
p955
I0
I1
tp956
Rp957
(I3
S'<'
p958
NNNI-1
I-1
I0
tp959
bI00
S'F\xc9Y\xb7\xc3\xd5\n@\xa0\x02\xe5\x99b\x88V@\xd2\xa9\xdc\xd7\x96\xc6"@'
p960
tp961
bsS'secnames'
p962
S'Cell[3].axon[84]'
p963
sI171
I189
tp964
a(F1.6184777125715464
S'Cell[1].dend[20] syn_ = new FastInhib(0.166666666667)'
p965
I1
(dp966
S'seg'
p967
F0.5
sS'hostfrom'
p968
F30.0
sS'gid'
p969
I126
sS'coords'
p970
g7
(g8
(I0
tp971
g10
tp972
Rp973
(I1
(I3
tp974
g14
(S'f8'
p975
I0
I1
tp976
Rp977
(I3
S'<'
p978
NNNI-1
I-1
I0
tp979
bI00
S'\xdd\x99\xb2\x05\xd0\x9b-\xc0X\x05\x8b\xf85{5@\xf1G\xb5\xc6d\x002\xc0'
p980
tp981
bsS'secnames'
p982
S'Cell[2].axon[34]'
p983
sI126
I93
tp984
a(F2.4900967513225667
S'Cell[0].dend[12] syn_ = new AmpaNmda(0.166666666667)'
p985
I0
(dp986
g967
F0.16666666666666666
sg968
F30.0
sg969
I126
sg970
g7
(g8
(I0
tp987
g10
tp988
Rp989
(I1
(I3
tp990
g977
I00
S'\xd2K\xe2\xde\x17\xed.\xc0\x96\xa5fF\xe9\xfc*\xc0_\xfe\xf8\xba~L3\xc0'
p991
tp992
bsg982
S'Cell[2].axon[39]'
p993
sI126
I45
tp994
a(F2.031843690097641
S'Cell[0].apic[8] syn_ = new AmpaNmda(0.5)'
p995
I0
(dp996
g967
F0.5
sg968
F30.0
sg969
I126
sg970
g7
(g8
(I0
tp997
g10
tp998
Rp999
(I1
(I3
tp1000
g977
I00
S'`\x8a\x04Q\x98\x92!@\xaa"\xf3\xa8\xa0\xe5Q@z\xfc2+l\xc8:\xc0'
p1001
tp1002
bsg982
S'Cell[2].axon[54]'
p1003
sI126
I45
tp1004
a(F2.2627183231833667
S'Cell[1].dend[37] syn_ = new FastInhib(0.3)'
p1005
I1
(dp1006
g967
F0.8333333333333333
sg968
F30.0
sg969
I174
sg970
g7
(g8
(I0
tp1007
g10
tp1008
Rp1009
(I1
(I3
tp1010
g977
I00
S'\xa2\r\xe5@Ar=\xc0\xfe\x9f\x99\xc9\x02B3@\xb6\x9d=\xe1\x7f5/\xc0'
p1011
tp1012
bsg982
S'Cell[3].axon[84]'
p1013
sI174
I93
tp1014
a(F1.4295508132795205
S'Cell[1].dend[3] syn_ = new FastInhib(0.1)'
p1015
I1
(dp1016
S'seg'
p1017
F0.5
sS'hostfrom'
p1018
F33.0
sS'gid'
p1019
I129
sS'coords'
p1020
g7
(g8
(I0
tp1021
g10
tp1022
Rp1023
(I1
(I3
tp1024
g14
(S'f8'
p1025
I0
I1
tp1026
Rp1027
(I3
S'<'
p1028
NNNI-1
I-1
I0
tp1029
bI00
S'\xef\xeaj\xe8L\xeb\x0b@\x9aA1\xac\x07kF@ESc\xf7J\xf1 \xc0'
p1030
tp1031
bsS'secnames'
p1032
S'Cell[2].axon[1]'
p1033
sI129
I93
tp1034
a(F1.117122587614898
S'Cell[0].apic[6] syn_ = new AmpaNmda(0.166666666667)'
p1035
I0
(dp1036
S'seg'
p1037
F0.30000000000000004
sS'hostfrom'
p1038
F34.0
sS'gid'
p1039
I82
sS'coords'
p1040
g7
(g8
(I0
tp1041
g10
tp1042
Rp1043
(I1
(I3
tp1044
g14
(S'f8'
p1045
I0
I1
tp1046
Rp1047
(I3
S'<'
p1048
NNNI-1
I-1
I0
tp1049
bI00
S'\xf6N\xfb\x17\xe3-\x03@\x1c\xb7\x92\xc8\xb4\xa2X@\x8aC>\xa5\x07\xb2/\xc0'
p1050
tp1051
bsS'secnames'
p1052
S'Cell[1].axon[78]'
p1053
sI82
I45
tp1054
a(F1.8953169388173456
S'Cell[1].dend[24] syn_ = new FastInhib(0.5)'
p1055
I1
(dp1056
g1037
F0.5
sg1038
F34.0
sg1039
I82
sg1040
g7
(g8
(I0
tp1057
g10
tp1058
Rp1059
(I1
(I3
tp1060
g1047
I00
S"\xdd\xfc\x9d\x00~\x80\x10@XX\xa2\x9c:\xdb'@\x13\xed\xd48\xc0\xfb \xc0"
p1061
tp1062
bsg1052
S'Cell[1].axon[132]'
p1063
sI82
I93
tp1064
a(F2.4265968522634918
S'Cell[1].dend[36] syn_ = new FastInhib(0.5)'
p1065
I1
g1056
I82
I93
tp1066
a(F1.9945762728012166
S'Cell[1].dend[1] syn_ = new FastInhib(0.5)'
p1067
I1
(dp1068
g1037
F0.40909090909090906
sg1038
F34.0
sg1039
I82
sg1040
g7
(g8
(I0
tp1069
g10
tp1070
Rp1071
(I1
(I3
tp1072
g1047
I00
S'5\xf6\xad\xee\xf7\x98\x02\xc0\xf9\xa7\xdd\x16zDA@\x10ZW9E\x08B\xc0'
p1073
tp1074
bsg1052
S'Cell[1].axon[264]'
p1075
sI82
I93
tp1076
a(F2.3327865769955856
S'Cell[0].dend[18] syn_ = new ExpSid(0.166666666667)'
p1077
I0
(dp1078
S'seg'
p1079
F0.8999999999999999
sS'hostfrom'
p1080
F35.0
sS'gid'
p1081
I179
sS'coords'
p1082
g7
(g8
(I0
tp1083
g10
tp1084
Rp1085
(I1
(I3
tp1086
g14
(S'f8'
p1087
I0
I1
tp1088
Rp1089
(I3
S'<'
p1090
NNNI-1
I-1
I0
tp1091
bI00
S'xB\xc0\xffq\xb97\xc0\x10{\x7f\xc0\xe8\xd9%@LC-\xf7A\xa7\x04@'
p1092
tp1093
bsS'secnames'
p1094
S'Cell[3].axon[33]'
p1095
sI179
I45
tp1096
a(F2.0247101902844884
S'Cell[1].dend[37] syn_ = new FastInhib(0.3)'
p1097
I1
(dp1098
S'seg'
p1099
F0.05555555555555555
sS'hostfrom'
p1100
F36.0
sS'gid'
p1101
I84
sS'coords'
p1102
g7
(g8
(I0
tp1103
g10
tp1104
Rp1105
(I1
(I3
tp1106
g14
(S'f8'
p1107
I0
I1
tp1108
Rp1109
(I3
S'<'
p1110
NNNI-1
I-1
I0
tp1111
bI00
S'\n\x89\x1aV#5@\xc0\xeeJ\xb4\x8e\x00\xb61@k\x1c\xc2"!\xe80\xc0'
p1112
tp1113
bsS'secnames'
p1114
S'Cell[1].axon[434]'
p1115
sI84
I93
tp1116
a(F1.6972246967326858
S'Cell[3].dend[57] syn_ = new FastInhib(0.5)'
p1117
I3
(dp1118
g1099
F0.5
sg1100
F36.0
sg1101
I180
sg1102
g7
(g8
(I0
tp1119
g10
tp1120
Rp1121
(I1
(I3
tp1122
g1109
I00
S'\xfc\x02\xf2\x96\xff\xda\r@\xbc\xcc\xe2\xd9.ER\xc0D\xe2\xc90\xe0@\x11@'
p1123
tp1124
bsg1114
S'Cell[3].axon[1]'
p1125
sI180
I189
tp1126
a(F1.4085880452564825
S'Cell[2].dend[17] syn_ = new FastInhib(0.5)'
p1127
I2
(dp1128
g1099
F0.16666666666666666
sg1100
F36.0
sg1101
I180
sg1102
g7
(g8
(I0
tp1129
g10
tp1130
Rp1131
(I1
(I3
tp1132
g1109
I00
S'\xc7a\xcbu\xb6#>@\xa6\x1c\x9ak\x11\xf9.@<)\xbd0>\xeb.@'
p1133
tp1134
bsg1114
S'Cell[3].axon[195]'
p1135
sI180
I141
tp1136
a(F2.0163477114543813
S'Cell[3].dend[26] syn_ = new FastInhib(0.5)'
p1137
I3
(dp1138
g1099
F0.5
sg1100
F36.0
sg1101
I180
sg1102
g7
(g8
(I0
tp1139
g10
tp1140
Rp1141
(I1
(I3
tp1142
g1109
I00
S'\xa4A\xc7\x9f]\xebC@*\xef\x88\xb8\xd2\x96W@\xad\xc6\xc4\x02\xace3@'
p1143
tp1144
bsg1114
S'Cell[3].axon[210]'
p1145
sI180
I189
tp1146
a(F1.4850348749291566
S'Cell[2].dend[15] syn_ = new FastInhib(0.5)'
p1147
I2
(dp1148
g1099
F0.5
sg1100
F36.0
sg1101
I180
sg1102
g7
(g8
(I0
tp1149
g10
tp1150
Rp1151
(I1
(I3
tp1152
g1109
I00
S'\x00\x00\x00\x00\x00\xd0B@\x00\x00\x00 \x85+%\xc0\x00\x00\x00\xdc\xa3p\x00@'
p1153
tp1154
bsg1114
S'Cell[3].axon[292]'
p1155
sI180
I141
tp1156
a(F2.3997324298287004
S'Cell[1].dend[32] syn_ = new FastInhib(0.5)'
p1157
I1
(dp1158
S'seg'
p1159
F0.16666666666666666
sS'hostfrom'
p1160
F37.0
sS'gid'
p1161
I133
sS'coords'
p1162
g7
(g8
(I0
tp1163
g10
tp1164
Rp1165
(I1
(I3
tp1166
g14
(S'f8'
p1167
I0
I1
tp1168
Rp1169
(I3
S'<'
p1170
NNNI-1
I-1
I0
tp1171
bI00
S',\x89\xae\xa8\xbdH\x1b@2"(\x1eM\xd2K\xc0\xebHV\xb4\xd4\xd4\x13\xc0'
p1172
tp1173
bsS'secnames'
p1174
S'Cell[2].axon[87]'
p1175
sI133
I93
tp1176
a(F1.4443918206700868
S'Cell[3].dend[22] syn_ = new FastInhib(0.833333333333)'
p1177
I3
(dp1178
g1159
F0.8333333333333333
sg1160
F37.0
sg1161
I181
sg1162
g7
(g8
(I0
tp1179
g10
tp1180
Rp1181
(I1
(I3
tp1182
g1169
I00
S"\xee\xec\xd8\x0b(\xcfA@\xf9\xfb*e'\xc6b@%\xb9'\xea6\x10@@"
p1183
tp1184
bsg1174
S'Cell[3].axon[58]'
p1185
sI181
I189
tp1186
a(F1.8025743806411452
S'Cell[2].dend[3] syn_ = new FastInhib(0.5)'
p1187
I2
(dp1188
g1159
F0.16666666666666666
sg1160
F37.0
sg1161
I181
sg1162
g7
(g8
(I0
tp1189
g10
tp1190
Rp1191
(I1
(I3
tp1192
g1169
I00
S'\x04\t\x88\xd9\xc5\xc51@*\x95\x0f;X@"\xc0\x00\x00\x00`\xb8\x1e\xd5?'
p1193
tp1194
bsg1174
S'Cell[3].axon[158]'
p1195
sI181
I141
tp1196
a(F1.2838244242945096
S'Cell[3].dend[57] syn_ = new FastInhib(0.5)'
p1197
I3
(dp1198
g1159
F0.5
sg1160
F37.0
sg1161
I37
sg1162
g7
(g8
(I0
tp1199
g10
tp1200
Rp1201
(I1
(I3
tp1202
g1169
I00
S'\x85\xea\x85\xd0\x00\xe8\xf9?\x88.vA&\x0fR\xc0Q\xb1]\x98\x9d\x9e\x16@'
p1203
tp1204
bsg1174
S'Cell[0].axon[5]'
p1205
sI37
I189
tp1206
a(F1.3855350338024668
S'Cell[3].dend[15] syn_ = new FastInhib(0.5)'
p1207
I3
(dp1208
g1159
F0.16666666666666666
sg1160
F37.0
sg1161
I85
sg1162
g7
(g8
(I0
tp1209
g10
tp1210
Rp1211
(I1
(I3
tp1212
g1169
I00
S'\xc4\x88\xe7\xda\xe7\xec2@\x9d4\\\xae\xd7\xeb`@\xef:\x92e\xb2\x903@'
p1213
tp1214
bsg1174
S'Cell[1].axon[33]'
p1215
sI85
I189
tp1216
a(F1.6663303550722783
S'Cell[0].dend[5] syn_ = new ExpSid(0.166666666667)'
p1217
I0
(dp1218
g1159
F0.4473684210526316
sg1160
F37.0
sg1161
I85
sg1162
g7
(g8
(I0
tp1219
g10
tp1220
Rp1221
(I1
(I3
tp1222
g1169
I00
S'\x02\x02\xb8\x85\x1dm=\xc0v\xf6\xd5D\xd8.L@w\xaaR\x81\xa7\x92\x14@'
p1223
tp1224
bsg1174
S'Cell[1].axon[68]'
p1225
sI85
I45
tp1226
a(F1.7521751997727688
S'Cell[3].dend[7] syn_ = new FastInhib(0.833333333333)'
p1227
I3
(dp1228
S'seg'
p1229
F0.5
sS'hostfrom'
p1230
F38.0
sS'gid'
p1231
I182
sS'coords'
p1232
g7
(g8
(I0
tp1233
g10
tp1234
Rp1235
(I1
(I3
tp1236
g14
(S'f8'
p1237
I0
I1
tp1238
Rp1239
(I3
S'<'
p1240
NNNI-1
I-1
I0
tp1241
bI00
S'\x00\x00\x00\xb0p\xbd\x1d@\x00\x00\x000\\\xcfS@\x00\x00\x00033)@'
p1242
tp1243
bsS'secnames'
p1244
S'Cell[3].axon[301]'
p1245
sI182
I189
tp1246
a(F2.0150995553044724
S'Cell[1].dend[32] syn_ = new FastInhib(0.5)'
p1247
I1
(dp1248
g1229
F0.16666666666666666
sg1230
F38.0
sg1231
I182
sg1232
g7
(g8
(I0
tp1249
g10
tp1250
Rp1251
(I1
(I3
tp1252
g1239
I00
S'\x81\xef\x19\x7f\x1f\xdc!@h\xdaG\xbe\x807L\xc0Y\x01\x80\xbc\x16L\x16\xc0'
p1253
tp1254
bsg1244
S'Cell[3].axon[320]'
p1255
sI182
I93
tp1256
a(F1.8995556292969067
S'Cell[2].dend[18] syn_ = new FastInhib(0.1)'
p1257
I2
(dp1258
S'seg'
p1259
F0.5
sS'hostfrom'
p1260
F39.0
sS'gid'
p1261
I87
sS'coords'
p1262
g7
(g8
(I0
tp1263
g10
tp1264
Rp1265
(I1
(I3
tp1266
g14
(S'f8'
p1267
I0
I1
tp1268
Rp1269
(I3
S'<'
p1270
NNNI-1
I-1
I0
tp1271
bI00
S'\x00\x00\x00p\x14\x9eD@\x00\x00\x00pf\xa6)@\x00\x00\x00\x10\xd7\xe3%@'
p1272
tp1273
bsS'secnames'
p1274
S'Cell[1].axon[79]'
p1275
sI87
I141
tp1276
a(F2.4807313628008916
S'Cell[2].dend[18] syn_ = new FastInhib(0.1)'
p1277
I2
(dp1278
g1259
F0.5
sg1260
F39.0
sg1261
I87
sg1262
g7
(g8
(I0
tp1279
g10
tp1280
Rp1281
(I1
(I3
tp1282
g1269
I00
S'\x00\x00\x00\xc0\xf5\xf8D@\x00\x00\x00@\n\xd7+@\x00\x00\x00 \x85\xeb#@'
p1283
tp1284
bsg1274
S'Cell[1].axon[81]'
p1285
sI87
I141
tp1286
a(F1.249816994178804
S'Cell[1].dend[3] syn_ = new FastInhib(0.3)'
p1287
I1
(dp1288
g1259
F0.8333333333333333
sg1260
F39.0
sg1261
I183
sg1262
g7
(g8
(I0
tp1289
g10
tp1290
Rp1291
(I1
(I3
tp1292
g1269
I00
S'0\xfb\x8c\x98\xa8V\x04\xc0\xaa\xd5\x84\xac5\xb8Q@\x00\x00\x00\x80\x14\xae\x1c\xc0'
p1293
tp1294
bsg1274
S'Cell[3].axon[0]'
p1295
sI183
I93
tp1296
a(F1.7141222147917392
S'Cell[0].apic[7] syn_ = new ExpSid(0.166666666667)'
p1297
I0
(dp1298
g1259
F0.5
sg1260
F39.0
sg1261
I183
sg1262
g7
(g8
(I0
tp1299
g10
tp1300
Rp1301
(I1
(I3
tp1302
g1269
I00
S'\x00\x00\x00\xe8zT \xc0\x00\x00\x00\xf0QxU@\x00\x00\x00\xd0\xa30)\xc0'
p1303
tp1304
bsg1274
S'Cell[3].axon[122]'
p1305
sI183
I45
tp1306
a(F1.8152033410353796
S'Cell[0].dend[0] syn_ = new AmpaNmda(0.5)'
p1307
I0
(dp1308
S'seg'
p1309
F0.7
sS'hostfrom'
p1310
F40.0
sS'gid'
p1311
I88
sS'coords'
p1312
g7
(g8
(I0
tp1313
g10
tp1314
Rp1315
(I1
(I3
tp1316
g14
(S'f8'
p1317
I0
I1
tp1318
Rp1319
(I3
S'<'
p1320
NNNI-1
I-1
I0
tp1321
bI00
S'\xf0\xb1\xfbnK\xa1#\xc0\xd9HK\x14\xa4\xcbN@^\xe7Pj\xe6\xab%@'
p1322
tp1323
bsS'secnames'
p1324
S'Cell[1].axon[99]'
p1325
sI88
I45
tp1326
a(F2.171245800637739
S'Cell[2].dend[1] syn_ = new FastInhib(0.5)'
p1327
I2
(dp1328
g1309
F0.5
sg1310
F40.0
sg1311
I88
sg1312
g7
(g8
(I0
tp1329
g10
tp1330
Rp1331
(I1
(I3
tp1332
g1319
I00
S'WA\xb3\x06\xe3\xb7+\xc0\x06\xb2\xefOt*4@\x00\x00\x00\xe0z\xd4?\xc0'
p1333
tp1334
bsg1324
S'Cell[1].axon[222]'
p1335
sI88
I141
tp1336
a(F2.4088171642470386
S'Cell[0].dend[0] syn_ = new AmpaNmda(0.5)'
p1337
I0
(dp1338
g1309
F0.5
sg1310
F40.0
sg1311
I88
sg1312
g7
(g8
(I0
tp1339
g10
tp1340
Rp1341
(I1
(I3
tp1342
g1319
I00
S'\x0fo\x17\nA\\#\xc0\x0c\xde_A\xc7\xdbN@\xe0\x02\x7f\xcf\xdaD(@'
p1343
tp1344
bsg1324
S'Cell[1].axon[326]'
p1345
sI88
I45
tp1346
a(F2.2637400516970128
S'Cell[2].dend[13] syn_ = new FastInhib(0.5)'
p1347
I2
(dp1348
g1309
F0.9285714285714284
sg1310
F40.0
sg1311
I136
sg1312
g7
(g8
(I0
tp1349
g10
tp1350
Rp1351
(I1
(I3
tp1352
g1319
I00
S'\xe8\rS\xcb:\x0e(@>%\xb0\xbc3\xddE\xc0\xa0\x00qSo\x04J\xc0'
p1353
tp1354
bsg1324
S'Cell[2].axon[6]'
p1355
sI136
I141
tp1356
a(F2.00155147554549
S'Cell[3].dend[7] syn_ = new FastInhib(0.166666666667)'
p1357
I3
(dp1358
g1309
F0.30000000000000004
sg1310
F40.0
sg1311
I184
sg1312
g7
(g8
(I0
tp1359
g10
tp1360
Rp1361
(I1
(I3
tp1362
g1319
I00
S'\x8a\x9f#\xfa\x11\xe11@\x1aw\xa0\x0f\xf7\x10K@\xadO\x10\x91Z\x032@'
p1363
tp1364
bsg1324
S'Cell[3].axon[28]'
p1365
sI184
I189
tp1366
a(F1.8676728653613468
S'Cell[0].dend[26] syn_ = new ExpSid(0.5)'
p1367
I0
(dp1368
S'seg'
p1369
F0.5
sS'hostfrom'
p1370
F41.0
sS'gid'
p1371
I185
sS'coords'
p1372
g7
(g8
(I0
tp1373
g10
tp1374
Rp1375
(I1
(I3
tp1376
g14
(S'f8'
p1377
I0
I1
tp1378
Rp1379
(I3
S'<'
p1380
NNNI-1
I-1
I0
tp1381
bI00
S'\x8e^)\xb4x\xabG@\x02n\rRq\xe8D@\x00\x00\x00\xc0\xf5\xa85\xc0'
p1382
tp1383
bsS'secnames'
p1384
S'Cell[3].axon[93]'
p1385
sI185
I45
tp1386
a(F2.405527127215641
S'Cell[1].dend[38] syn_ = new FastInhib(0.5)'
p1387
I1
(dp1388
g1369
F0.5
sg1370
F41.0
sg1371
I185
sg1372
g7
(g8
(I0
tp1389
g10
tp1390
Rp1391
(I1
(I3
tp1392
g1379
I00
S'z\xce8\x95\x19\x98\x0e\xc0\xba\x11\xe8\x9d\x85\xc5&@\x00\x00\x00\x80\xc2u \xc0'
p1393
tp1394
bsg1384
S'Cell[3].axon[216]'
p1395
sI185
I93
tp1396
a(F1.6524374757806706
S'Cell[0].apic[1] syn_ = new ExpSid(0.5)'
p1397
I0
(dp1398
g1369
F0.5
sg1370
F41.0
sg1371
I89
sg1372
g7
(g8
(I0
tp1399
g10
tp1400
Rp1401
(I1
(I3
tp1402
g1379
I00
S'<\xe7\x93\xc2\xb5\xfc\xf2?\xd2\x9b\xb2\x1f\x8b\xd9T@\x00\x00\x00\xa0Ga#\xc0'
p1403
tp1404
bsg1384
S'Cell[1].axon[94]'
p1405
sI89
I45
tp1406
a(F2.239549830701073
S'Cell[1].dend[27] syn_ = new FastInhib(0.1)'
p1407
I1
(dp1408
S'seg'
p1409
F0.7
sS'hostfrom'
p1410
F42.0
sS'gid'
p1411
I90
sS'coords'
p1412
g7
(g8
(I0
tp1413
g10
tp1414
Rp1415
(I1
(I3
tp1416
g14
(S'f8'
p1417
I0
I1
tp1418
Rp1419
(I3
S'<'
p1420
NNNI-1
I-1
I0
tp1421
bI00
S"\x7f9\xcf\x1f\x86\x08\x11\xc0\xf0\xaf'}\x86\r>\xc0>\xb0\x07<\x9e\xa8\x1e\xc0"
p1422
tp1423
bsS'secnames'
p1424
S'Cell[1].axon[126]'
p1425
sI90
I93
tp1426
a(F2.2449255806684083
S'Cell[0].dend[17] syn_ = new AmpaNmda(0.5)'
p1427
I0
(dp1428
g1409
F0.1
sg1410
F42.0
sg1411
I138
sg1412
g7
(g8
(I0
tp1429
g10
tp1430
Rp1431
(I1
(I3
tp1432
g1419
I00
S'\xa9\x1c\xcc(v\x07!\xc0\xect&\xe2\xfb\xb7@@f\x98\x9f+90\xf7?'
p1433
tp1434
bsg1424
S'Cell[2].axon[0]'
p1435
sI138
I45
tp1436
a(F1.8829011279353738
S'Cell[3].dend[61] syn_ = new FastInhib(0.166666666667)'
p1437
I3
(dp1438
g1409
F0.16666666666666666
sg1410
F42.0
sg1411
I186
sg1412
g7
(g8
(I0
tp1439
g10
tp1440
Rp1441
(I1
(I3
tp1442
g1419
I00
S'\xfe\x96\x96\x00<\xa2)\xc0Rx\xecN\xed\xf8Y\xc0#\xab\xd2jmC\x11@'
p1443
tp1444
bsg1424
S'Cell[3].axon[121]'
p1445
sI186
I189
tp1446
a(F0.527610078690971
S'Cell[1].dend[37] syn_ = new FastInhib(0.3)'
p1447
I1
(dp1448
S'seg'
p1449
F0.5
sS'hostfrom'
p1450
F43.0
sS'gid'
p1451
I187
sS'coords'
p1452
g7
(g8
(I0
tp1453
g10
tp1454
Rp1455
(I1
(I3
tp1456
g14
(S'f8'
p1457
I0
I1
tp1458
Rp1459
(I3
S'<'
p1460
NNNI-1
I-1
I0
tp1461
bI00
S'\x00\x00\x00\xf0(\\?\xc0\x00\x00\x00\xe0Q\x981@\x00\x00\x00`\x8f\x02.\xc0'
p1462
tp1463
bsS'secnames'
p1464
S'Cell[3].axon[211]'
p1465
sI187
I93
tp1466
a(F2.4379797710648137
S'Cell[1].dend[3] syn_ = new FastInhib(0.3)'
p1467
I1
(dp1468
S'seg'
p1469
F0.5
sS'hostfrom'
p1470
F44.0
sS'gid'
p1471
I188
sS'coords'
p1472
g7
(g8
(I0
tp1473
g10
tp1474
Rp1475
(I1
(I3
tp1476
g14
(S'f8'
p1477
I0
I1
tp1478
Rp1479
(I3
S'<'
p1480
NNNI-1
I-1
I0
tp1481
bI00
S'*V\xcer"c\xd4?\x8f\xf8<L\xdb\xdaQ@E \x15U\xbd\xa3"\xc0'
p1482
tp1483
bsS'secnames'
p1484
S'Cell[3].axon[44]'
p1485
sI188
I93
tp1486
a(F2.32788023302488
S'Cell[0].dend[3] syn_ = new AmpaNmda(0.3)'
p1487
I0
(dp1488
g1469
F0.5
sg1470
F44.0
sg1471
I188
sg1472
g7
(g8
(I0
tp1489
g10
tp1490
Rp1491
(I1
(I3
tp1492
g1479
I00
S'\xea\x14\x11\x01Y\xfbB\xc0u\x87K\xd7\xce\xce?@9&\xfc\x91\xc9)7@'
p1493
tp1494
bsg1484
S'Cell[3].axon[51]'
p1495
sI188
I45
tp1496
a(F2.347844640469232
S'Cell[0].apic[7] syn_ = new AmpaNmda(0.5)'
p1497
I0
(dp1498
g1469
F0.5
sg1470
F44.0
sg1471
I188
sg1472
g7
(g8
(I0
tp1499
g10
tp1500
Rp1501
(I1
(I3
tp1502
g1479
I00
S'I\xb3\x04\xc5:\xee1\xc0\x86I\x96\xaa<\xa5S@BO\x9e\xa1\xdc\xd97\xc0'
p1503
tp1504
bsg1484
S'Cell[3].axon[88]'
p1505
sI188
I45
tp1506
a(F1.980153796729532
S'Cell[1].dend[33] syn_ = new FastInhib(0.3)'
p1507
I1
(dp1508
g1469
F0.8333333333333333
sg1470
F44.0
sg1471
I44
sg1472
g7
(g8
(I0
tp1509
g10
tp1510
Rp1511
(I1
(I3
tp1512
g1479
I00
S'\xf5\\\xff[\xd3\xb73@\xa1\x16\xddk;\xe5_\xc0\xf3\x82\x873\x95\xc5+\xc0'
p1513
tp1514
bsg1484
S'Cell[0].axon[23]'
p1515
sI44
I93
tp1516
a(F1.260626094767795
S'Cell[1].dend[27] syn_ = new FastInhib(0.7)'
p1517
I1
(dp1518
S'seg'
p1519
F0.9285714285714284
sS'hostfrom'
p1520
F45.0
sS'gid'
p1521
I141
sS'coords'
p1522
g7
(g8
(I0
tp1523
g10
tp1524
Rp1525
(I1
(I3
tp1526
g14
(S'f8'
p1527
I0
I1
tp1528
Rp1529
(I3
S'<'
p1530
NNNI-1
I-1
I0
tp1531
bI00
S'\x11>\xc6p\xc4\x08,\xc0B\xf7o\x14\xf3\x05\\\xc0\x1ez[-\xb3\xb2(\xc0'
p1532
tp1533
bsS'secnames'
p1534
S'Cell[2].axon[514]'
p1535
sI141
I93
tp1536
a(F1.6044356407598794
S'Cell[0].dend[23] syn_ = new ExpSid(0.5)'
p1537
I0
(dp1538
g1519
F0.16666666666666666
sg1520
F45.0
sg1521
I141
sg1522
g7
(g8
(I0
tp1539
g10
tp1540
Rp1541
(I1
(I3
tp1542
g1529
I00
S'\xf9\x89\x8b\x05i\xdeK@i+\xcd\xae\xfcL @t\xd2w`\xd1%6\xc0'
p1543
tp1544
bsg1534
S'Cell[2].axon[535]'
p1545
sI141
I45
tp1546
a(F2.031275411004598
S'Cell[0].dend[25] syn_ = new ExpSid(0.166666666667)'
p1547
I0
(dp1548
g1519
F0.16666666666666666
sg1520
F45.0
sg1521
I189
sg1522
g7
(g8
(I0
tp1549
g10
tp1550
Rp1551
(I1
(I3
tp1552
g1529
I00
S'\xfc\x82@\xf1n\x0fG@\xc1\xa3\x81\xa1t\xd1A@\x9a\x02\x11\xeciv$\xc0'
p1553
tp1554
bsg1534
S'Cell[3].axon[71]'
p1555
sI189
I45
tp1556
a(F2.463328585084323
S'Cell[2].dend[12] syn_ = new FastInhib(0.5)'
p1557
I2
(dp1558
g1519
F0.22727272727272727
sg1520
F45.0
sg1521
I189
sg1522
g7
(g8
(I0
tp1559
g10
tp1560
Rp1561
(I1
(I3
tp1562
g1529
I00
S'\xb8|\x06\x81\xc7\xde5@/\xdf_o\x97>,\xc0+\xd74\xd9\x13\xa19\xc0'
p1563
tp1564
bsg1534
S'Cell[3].axon[88]'
p1565
sI189
I141
tp1566
a(F1.8342929166277762
S'Cell[1].dend[1] syn_ = new FastInhib(0.166666666667)'
p1567
I1
(dp1568
g1519
F0.8333333333333333
sg1520
F45.0
sg1521
I189
sg1522
g7
(g8
(I0
tp1569
g10
tp1570
Rp1571
(I1
(I3
tp1572
g1529
I00
S'\x10\xe1\x85\xa8\x0b\x1f\xf7?c\xadq\xf4\xd4\x94@@\x00\x00\x00\x80\x14.5\xc0'
p1573
tp1574
bsg1534
S'Cell[3].axon[97]'
p1575
sI189
I93
tp1576
a(F1.1541764654459379
S'Cell[0].dend[6] syn_ = new ExpSid(0.5)'
p1577
I0
(dp1578
S'seg'
p1579
F0.8333333333333333
sS'hostfrom'
p1580
F47.0
sS'gid'
p1581
I143
sS'coords'
p1582
g7
(g8
(I0
tp1583
g10
tp1584
Rp1585
(I1
(I3
tp1586
g14
(S'f8'
p1587
I0
I1
tp1588
Rp1589
(I3
S'<'
p1590
NNNI-1
I-1
I0
tp1591
bI00
S'\xbbZ\xb3\x17\x9e\xefO\xc0(\x07\xd7Q0\xd4S@\xc7\xf0D>\x12\x992@'
p1592
tp1593
bsS'secnames'
p1594
S'Cell[2].axon[54]'
p1595
sI143
I45
tp1596
a(F2.3573708317089284
S'Cell[0].apic[6] syn_ = new ExpSid(0.166666666667)'
p1597
I0
(dp1598
g1579
F0.07142857142857142
sg1580
F47.0
sg1581
I143
sg1582
g7
(g8
(I0
tp1599
g10
tp1600
Rp1601
(I1
(I3
tp1602
g1589
I00
S'R8\x0bS`\x9b\t@\xc0\x87\xa9\xf6\x84\xfbX@\xe8s\xa7\xc0\x86\x0c-\xc0'
p1603
tp1604
bsg1594
S'Cell[2].axon[140]'
p1605
sI143
I45
tp1606
a(F2.2692199558040422
S'Cell[0].dend[8] syn_ = new ExpSid(0.5)'
p1607
I0
(dp1608
g1579
F0.5
sg1580
F47.0
sg1581
I143
sg1582
g7
(g8
(I0
tp1609
g10
tp1610
Rp1611
(I1
(I3
tp1612
g1589
I00
S'\x9a\xa1u\xb88\x81\x00\xc0\xfc\x05\x06W\x17\xd9@@\x95\xd7\x01\x12\x8c\xab\x0c\xc0'
p1613
tp1614
bsg1594
S'Cell[2].axon[162]'
p1615
sI143
I45
tp1616
a.