(lp0
(F1.4538447287691394
S'Cell[2].apic[12] syn_ = new FastInhib(0.5)'
p1
I2
(dp2
S'seg'
p3
F0.5
sS'hostfrom'
p4
F1.0
sS'gid'
p5
I1
sS'coords'
p6
cnumpy.core.multiarray
_reconstruct
p7
(cnumpy
ndarray
p8
(I0
tp9
S'b'
p10
tp11
Rp12
(I1
(I3
tp13
cnumpy
dtype
p14
(S'f8'
p15
I0
I1
tp16
Rp17
(I3
S'<'
p18
NNNI-1
I-1
I0
tp19
bI00
S'\xf1B\x86?\x8a\x01P@\xcc\xad\x90\x9e\xf6\xa2h\xc0\x00\x00\x00\xa0\x99\x99\x1f@'
p20
tp21
bsS'secnames'
p22
S'Cell[0].axon[53]'
p23
sI1
I135
tp24
a(F1.520837784619182
S'Cell[0].apic[10] syn_ = new ExpSid(0.5)'
p25
I0
(dp26
g3
F0.30000000000000004
sg4
F1.0
sg5
I97
sg6
g7
(g8
(I0
tp27
g10
tp28
Rp29
(I1
(I3
tp30
g17
I00
S'\xc8?.\xc9x\xeeR\xc0\x94\x8ft"\x9d\xccD@\n\x90~m\x8a\xca=\xc0'
p31
tp32
bsg22
S'Cell[2].axon[5]'
p33
sI97
I39
tp34
a(F1.2235744391681518
S'Cell[0].apic[11] syn_ = new ExpSid(0.166666666667)'
p35
I0
g26
I97
I39
tp36
a(F2.2558974296064354
S'Cell[2].dend[7] syn_ = new FastInhib(0.5)'
p37
I2
(dp38
S'seg'
p39
F0.5
sS'hostfrom'
p40
F2.0
sS'gid'
p41
I98
sS'coords'
p42
g7
(g8
(I0
tp43
g10
tp44
Rp45
(I1
(I3
tp46
g14
(S'f8'
p47
I0
I1
tp48
Rp49
(I3
S'<'
p50
NNNI-1
I-1
I0
tp51
bI00
S'^\xed\xd8\xb0(\x95!\xc0\xc4\x10\xe7\x1c\x93\xb8E@\x80T\xa3\x82\x06\xfb6\xc0'
p52
tp53
bsS'secnames'
p54
S'Cell[2].axon[300]'
p55
sI98
I135
tp56
a(F0.7392006782484059
S'Cell[0].apic[1] syn_ = new AmpaNmda(0.166666666667)'
p57
I0
(dp58
g39
F0.5
sg40
F2.0
sg41
I98
sg42
g7
(g8
(I0
tp59
g10
tp60
Rp61
(I1
(I3
tp62
g49
I00
S"^\xd3q'\xa1\x92\x04@\xcf<\x80\x8b\x9b\x00/@B4\xa5}~X\x12\xc0"
p63
tp64
bsg54
S'Cell[2].axon[301]'
p65
sI98
I39
tp66
a(F2.1929985975658974
S'Cell[0].apic[8] syn_ = new AmpaNmda(0.5)'
p67
I0
(dp68
g39
F0.8333333333333333
sg40
F2.0
sg41
I98
sg42
g7
(g8
(I0
tp69
g10
tp70
Rp71
(I1
(I3
tp72
g49
I00
S'\x9d\xc2\xdd\xc9\xbaj/@/\xb27\xc7\x02\xd8C@\x00\x00\x00\xa0\x99\x19.\xc0'
p73
tp74
bsg54
S'Cell[2].axon[401]'
p75
sI98
I39
tp76
a(F2.138468760279176
S'Cell[1].apic[1] syn_ = new FastInhib(0.166666666667)'
p77
I1
(dp78
g39
F0.8333333333333333
sg40
F2.0
sg41
I98
sg42
g7
(g8
(I0
tp79
g10
tp80
Rp81
(I1
(I3
tp82
g49
I00
S'_O\x0b{O\xe3@@\x17(\x95\xa7\xb4\xe8@\xc0\x00\x00\x00\x00\x00@4\xc0'
p83
tp84
bsg54
S'Cell[2].axon[404]'
p85
sI98
I87
tp86
a(F1.5899032705446976
S'Cell[3].dend[36] syn_ = new FastInhib(0.166666666667)'
p87
I3
(dp88
g39
F0.5
sg40
F2.0
sg41
I98
sg42
g7
(g8
(I0
tp89
g10
tp90
Rp91
(I1
(I3
tp92
g49
I00
S'\x9e\xb3M\x0b\xb5/&\xc0;\xcf\x94\x85\xa2?A@\x00\x00\x00 \x85\xab8\xc0'
p93
tp94
bsg54
S'Cell[2].axon[448]'
p95
sI98
I183
tp96
a(F2.451445057279012
S'Cell[2].dend[7] syn_ = new FastInhib(0.166666666667)'
p97
I2
(dp98
g39
F0.16666666666666666
sg40
F2.0
sg41
I146
sg42
g7
(g8
(I0
tp99
g10
tp100
Rp101
(I1
(I3
tp102
g49
I00
S'\xb8\xd1\x1f\x8a\xd8\xf0\xd2\xbf%\x81\xc3\xd2\xde\xc8B@\x9a:J\xa9\x98g(\xc0'
p103
tp104
bsg54
S'Cell[3].axon[177]'
p105
sI146
I135
tp106
a(F2.2306138077813866
S'Cell[2].dend[0] syn_ = new FastInhib(0.5)'
p107
I2
(dp108
g39
F0.5
sg40
F2.0
sg41
I146
sg42
g7
(g8
(I0
tp109
g10
tp110
Rp111
(I1
(I3
tp112
g49
I00
S'\xd3EF\x83\x9b\xceA@\x8c\xd0V\x01$\xbb2@\x00\x00\x00\xa0\x99\x99/\xc0'
p113
tp114
bsg54
S'Cell[3].axon[181]'
p115
sI146
I135
tp116
a(F2.2558974296064354
S'Cell[2].dend[7] syn_ = new FastInhib(0.5)'
p117
I2
(dp118
S'seg'
p119
F0.5
sS'hostfrom'
p120
F3.0
sS'gid'
p121
I99
sS'coords'
p122
g7
(g8
(I0
tp123
g10
tp124
Rp125
(I1
(I3
tp126
g14
(S'f8'
p127
I0
I1
tp128
Rp129
(I3
S'<'
p130
NNNI-1
I-1
I0
tp131
bI00
S'^\xed\xd8\xb0(\x95!\xc0\xc4\x10\xe7\x1c\x93\xb8E@\x80T\xa3\x82\x06\xfb6\xc0'
p132
tp133
bsS'secnames'
p134
S'Cell[2].axon[300]'
p135
sI99
I135
tp136
a(F0.7392006782484059
S'Cell[0].apic[1] syn_ = new ExpSid(0.166666666667)'
p137
I0
(dp138
g119
F0.5
sg120
F3.0
sg121
I99
sg122
g7
(g8
(I0
tp139
g10
tp140
Rp141
(I1
(I3
tp142
g129
I00
S"^\xd3q'\xa1\x92\x04@\xcf<\x80\x8b\x9b\x00/@B4\xa5}~X\x12\xc0"
p143
tp144
bsg134
S'Cell[2].axon[301]'
p145
sI99
I39
tp146
a(F2.1929985975658974
S'Cell[0].apic[8] syn_ = new ExpSid(0.5)'
p147
I0
(dp148
g119
F0.8333333333333333
sg120
F3.0
sg121
I99
sg122
g7
(g8
(I0
tp149
g10
tp150
Rp151
(I1
(I3
tp152
g129
I00
S'\x9d\xc2\xdd\xc9\xbaj/@/\xb27\xc7\x02\xd8C@\x00\x00\x00\xa0\x99\x19.\xc0'
p153
tp154
bsg134
S'Cell[2].axon[401]'
p155
sI99
I39
tp156
a(F2.138468760279176
S'Cell[1].apic[1] syn_ = new FastInhib(0.166666666667)'
p157
I1
(dp158
g119
F0.8333333333333333
sg120
F3.0
sg121
I99
sg122
g7
(g8
(I0
tp159
g10
tp160
Rp161
(I1
(I3
tp162
g129
I00
S'_O\x0b{O\xe3@@\x17(\x95\xa7\xb4\xe8@\xc0\x00\x00\x00\x00\x00@4\xc0'
p163
tp164
bsg134
S'Cell[2].axon[404]'
p165
sI99
I87
tp166
a(F1.5899032705446976
S'Cell[3].dend[36] syn_ = new FastInhib(0.166666666667)'
p167
I3
(dp168
g119
F0.5
sg120
F3.0
sg121
I99
sg122
g7
(g8
(I0
tp169
g10
tp170
Rp171
(I1
(I3
tp172
g129
I00
S'\x9e\xb3M\x0b\xb5/&\xc0;\xcf\x94\x85\xa2?A@\x00\x00\x00 \x85\xab8\xc0'
p173
tp174
bsg134
S'Cell[2].axon[448]'
p175
sI99
I183
tp176
a(F2.4502529839578164
S'Cell[1].dend[20] syn_ = new FastInhib(0.5)'
p177
I1
(dp178
g119
F0.30000000000000004
sg120
F3.0
sg121
I51
sg122
g7
(g8
(I0
tp179
g10
tp180
Rp181
(I1
(I3
tp182
g129
I00
S'A\xbb\x17+\xa4/W@z\x81\xe0\x91\xebwE\xc0\xd2\x9a&\xf6\xf2\xaeA\xc0'
p183
tp184
bsg134
S'Cell[1].axon[3]'
p185
sI51
I87
tp186
a(F2.401259811011221
S'Cell[0].dend[1] syn_ = new ExpSid(0.166666666667)'
p187
I0
(dp188
g119
F0.5
sg120
F3.0
sg121
I147
sg122
g7
(g8
(I0
tp189
g10
tp190
Rp191
(I1
(I3
tp192
g129
I00
S'\x00\x00\x00\x00)\\\x14\xc0\x00\x00\x00\xa0p\xbd-\xc0\x00\x00\x00\xe0z\x14\x02@'
p193
tp194
bsg134
S'Cell[3].soma[0]'
p195
sI147
I39
tp196
a(F1.354600264737582
S'Cell[1].dend[17] syn_ = new FastInhib(0.166666666667)'
p197
I1
(dp198
S'seg'
p199
F0.7
sS'hostfrom'
p200
F5.0
sS'gid'
p201
I149
sS'coords'
p202
g7
(g8
(I0
tp203
g10
tp204
Rp205
(I1
(I3
tp206
g14
(S'f8'
p207
I0
I1
tp208
Rp209
(I3
S'<'
p210
NNNI-1
I-1
I0
tp211
bI00
S'\xdb\x1e7\xe3\x95\t<@[E\xb2\x1b\xfe\xf6+@\xe9o\x9c(\xbf\xaa\x17@'
p212
tp213
bsS'secnames'
p214
S'Cell[3].axon[24]'
p215
sI149
I87
tp216
a(F1.4892491838396384
S'Cell[3].dend[47] syn_ = new FastInhib(0.5)'
p217
I3
(dp218
g199
F0.5
sg200
F5.0
sg201
I5
sg202
g7
(g8
(I0
tp219
g10
tp220
Rp221
(I1
(I3
tp222
g209
I00
S'\x94,\x13"\xd6\xcd>@_X\x9e\xaf\xcckD@@b\xfd\x7f1`C\xc0'
p223
tp224
bsg214
S'Cell[0].axon[96]'
p225
sI5
I183
tp226
a(F1.6391310932858119
S'Cell[3].apic[36] syn_ = new FastInhib(0.833333333333)'
p227
I3
(dp228
S'seg'
p229
F0.16666666666666666
sS'hostfrom'
p230
F6.0
sS'gid'
p231
I102
sS'coords'
p232
g7
(g8
(I0
tp233
g10
tp234
Rp235
(I1
(I3
tp236
g14
(S'f8'
p237
I0
I1
tp238
Rp239
(I3
S'<'
p240
NNNI-1
I-1
I0
tp241
bI00
S'\xfb\x85-c\xe7\x100\xc0|\xda\xd7N\xa7\xd3}\xc0\xdcF0}k\x177@'
p242
tp243
bsS'secnames'
p244
S'Cell[2].axon[142]'
p245
sI102
I183
tp246
a(F1.5048029588374021
S'Cell[2].dend[1] syn_ = new FastInhib(0.5)'
p247
I2
(dp248
S'seg'
p249
F0.5
sS'hostfrom'
p250
F7.0
sS'gid'
p251
I103
sS'coords'
p252
g7
(g8
(I0
tp253
g10
tp254
Rp255
(I1
(I3
tp256
g14
(S'f8'
p257
I0
I1
tp258
Rp259
(I3
S'<'
p260
NNNI-1
I-1
I0
tp261
bI00
S'\x80\r\x9d0n\xc7B@\xb6?\xf3\x89!\xbb8@\x00\x00\x00\xc0\xcc\xcc%\xc0'
p262
tp263
bsS'secnames'
p264
S'Cell[2].axon[11]'
p265
sI103
I135
tp266
a(F2.164802314483052
S'Cell[1].dend[9] syn_ = new FastInhib(0.166666666667)'
p267
I1
(dp268
g249
F0.30000000000000004
sg250
F7.0
sg251
I103
sg252
g7
(g8
(I0
tp269
g10
tp270
Rp271
(I1
(I3
tp272
g259
I00
S'\x8c\xc6b\xc8Z\xb1M@\xe1RW\x90\xecQ7@\x0b\x1e\xd2\x9d\xe1\xde\x1a\xc0'
p273
tp274
bsg264
S'Cell[2].axon[348]'
p275
sI103
I87
tp276
a(F1.8661228195938888
S'Cell[3].apic[12] syn_ = new FastInhib(0.166666666667)'
p277
I3
(dp278
g249
F0.8333333333333333
sg250
F7.0
sg251
I151
sg252
g7
(g8
(I0
tp279
g10
tp280
Rp281
(I1
(I3
tp282
g259
I00
S'\xa0\xe6\x10\nz\xa80\xc0l\x03F\xfa\x14\xa4M\xc0\xf7\x97\xe4\xb0\x02\x84)\xc0'
p283
tp284
bsg264
S'Cell[3].axon[121]'
p285
sI151
I183
tp286
a(F1.4054607103000065
S'Cell[2].dend[2] syn_ = new FastInhib(0.5)'
p287
I2
(dp288
S'seg'
p289
F0.16666666666666666
sS'hostfrom'
p290
F8.0
sS'gid'
p291
I152
sS'coords'
p292
g7
(g8
(I0
tp293
g10
tp294
Rp295
(I1
(I3
tp296
g14
(S'f8'
p297
I0
I1
tp298
Rp299
(I3
S'<'
p300
NNNI-1
I-1
I0
tp301
bI00
S'\x06h\x9b\xda\xe1\x14D@k\xe1\x86\x1d\x84\xa7@@NY\x8aQ\xf1\xad\x03\xc0'
p302
tp303
bsS'secnames'
p304
S'Cell[3].axon[0]'
p305
sI152
I135
tp306
a(F1.678276118065823
S'Cell[0].dend[21] syn_ = new AmpaNmda(0.166666666667)'
p307
I0
(dp308
g289
F0.5
sg290
F8.0
sg291
I152
sg292
g7
(g8
(I0
tp309
g10
tp310
Rp311
(I1
(I3
tp312
g299
I00
S'\x8cc\xdf\x81\xf7\xf78@JR\x90g\x17\xe1E\xc0\x00\x00\x00\xe0Qx0@'
p313
tp314
bsg304
S'Cell[3].axon[338]'
p315
sI152
I39
tp316
a(F1.91641029324292
S'Cell[1].dend[0] syn_ = new FastInhib(0.5)'
p317
I1
(dp318
g289
F0.8999999999999999
sg290
F8.0
sg291
I152
sg292
g7
(g8
(I0
tp319
g10
tp320
Rp321
(I1
(I3
tp322
g299
I00
S'p\x0b\xac\x06\x969I@2p\xe9#\xfc\xda*@Z\x90\x0f\x9b\xc7\x8b1\xc0'
p323
tp324
bsg304
S'Cell[3].axon[342]'
p325
sI152
I87
tp326
a(F2.027520375374422
S'Cell[1].apic[1] syn_ = new FastInhib(0.166666666667)'
p327
I1
(dp328
g289
F0.8333333333333333
sg290
F8.0
sg291
I104
sg292
g7
(g8
(I0
tp329
g10
tp330
Rp331
(I1
(I3
tp332
g299
I00
S'c\xb8\x19\x94h\xe3@@\x8b|\xa1fz\xabB\xc0\\\xcc7\x85\xa3Q5\xc0'
p333
tp334
bsg304
S'Cell[2].axon[104]'
p335
sI104
I87
tp336
a(F2.379552927339876
S'Cell[2].dend[7] syn_ = new FastInhib(0.166666666667)'
p337
I2
(dp338
g289
F0.16666666666666666
sg290
F8.0
sg291
I104
sg292
g7
(g8
(I0
tp339
g10
tp340
Rp341
(I1
(I3
tp342
g299
I00
S';\x96W\xa3@\xe5\x03@\xca/9`r\x9eB@\xe3\x95\xb5\xe2\xb80(\xc0'
p343
tp344
bsg304
S'Cell[2].axon[126]'
p345
sI104
I135
tp346
a(F2.041637867023776
S'Cell[1].dend[8] syn_ = new FastInhib(0.833333333333)'
p347
I1
(dp348
S'seg'
p349
F0.5
sS'hostfrom'
p350
F9.0
sS'gid'
p351
I153
sS'coords'
p352
g7
(g8
(I0
tp353
g10
tp354
Rp355
(I1
(I3
tp356
g14
(S'f8'
p357
I0
I1
tp358
Rp359
(I3
S'<'
p360
NNNI-1
I-1
I0
tp361
bI00
S'\xef\xd3\x92\x98WVP@v\x80\x1ek\xb5xB@\xb4$\x17V\x99\x818@'
p362
tp363
bsS'secnames'
p364
S'Cell[3].axon[54]'
p365
sI153
I87
tp366
a(F1.6683070423794866
S'Cell[0].dend[16] syn_ = new ExpSid(0.166666666667)'
p367
I0
(dp368
g349
F0.8333333333333333
sg350
F9.0
sg351
I105
sg352
g7
(g8
(I0
tp369
g10
tp370
Rp371
(I1
(I3
tp372
g359
I00
S"\x85\xd9\x00\x0b\x94'7\xc0\xcb\x05\xa2\xc6\x13?O\xc0\xaa==\xea~-H\xc0"
p373
tp374
bsg364
S'Cell[2].axon[77]'
p375
sI105
I39
tp376
a(F1.8958999162009733
S'Cell[3].dend[36] syn_ = new FastInhib(0.5)'
p377
I3
(dp378
S'seg'
p379
F0.8333333333333333
sS'hostfrom'
p380
F10.0
sS'gid'
p381
I10
sS'coords'
p382
g7
(g8
(I0
tp383
g10
tp384
Rp385
(I1
(I3
tp386
g14
(S'f8'
p387
I0
I1
tp388
Rp389
(I3
S'<'
p390
NNNI-1
I-1
I0
tp391
bI00
S'\xd1\xf0\x9b\xf5\xd1[:\xc0p\xdc\xde\xe5\x84\xd8K@\xce\xb3\xfee\xfe\x9cD\xc0'
p392
tp393
bsS'secnames'
p394
S'Cell[0].axon[17]'
p395
sI10
I183
tp396
a(F0.7728332425603773
S'Cell[0].dend[7] syn_ = new AmpaNmda(0.5)'
p397
I0
(dp398
g379
F0.07142857142857142
sg380
F10.0
sg381
I106
sg382
g7
(g8
(I0
tp399
g10
tp400
Rp401
(I1
(I3
tp402
g389
I00
S'P\xed\xbbF\x8e\xd8\xe9\xbf\x8f\x18l\x1da\x866\xc0|\xcd\x964\x9674\xc0'
p403
tp404
bsg394
S'Cell[2].axon[131]'
p405
sI106
I39
tp406
a(F1.2889945327190893
S'Cell[1].dend[16] syn_ = new FastInhib(0.5)'
p407
I1
(dp408
g379
F0.5
sg380
F10.0
sg381
I106
sg382
g7
(g8
(I0
tp409
g10
tp410
Rp411
(I1
(I3
tp412
g389
I00
S"\xe2\xde\xd5\x1a{\xa75@\x1b-\xd6QlZ\x0e@\xa8v,\x0b\xc1\xfc'@"
p413
tp414
bsg394
S'Cell[2].axon[190]'
p415
sI106
I87
tp416
a(F0.8880002859206947
S'Cell[3].apic[11] syn_ = new FastInhib(0.5)'
p417
I3
(dp418
g379
F0.5
sg380
F10.0
sg381
I106
sg382
g7
(g8
(I0
tp419
g10
tp420
Rp421
(I1
(I3
tp422
g389
I00
S"\xbd\x12\xccO\x1c\xb1'\xc0]\xa6l\xdc\xc1\xd0H\xc0\x84\x829\xa2K&\x00\xc0"
p423
tp424
bsg394
S'Cell[2].axon[264]'
p425
sI106
I183
tp426
a(F0.6023553387462274
S'Cell[3].dend[23] syn_ = new FastInhib(0.5)'
p427
I3
(dp428
g379
F0.16666666666666666
sg380
F10.0
sg381
I106
sg382
g7
(g8
(I0
tp429
g10
tp430
Rp431
(I1
(I3
tp432
g389
I00
S'\x94\xf3\xecJ??#\xc0\x92?\xafN\x1b\x888@\x9am\x86l\xa0H@\xc0'
p433
tp434
bsg394
S'Cell[2].axon[305]'
p435
sI106
I183
tp436
a(F2.1622717768659494
S'Cell[1].dend[23] syn_ = new FastInhib(0.166666666667)'
p437
I1
(dp438
g379
F0.5
sg380
F10.0
sg381
I106
sg382
g7
(g8
(I0
tp439
g10
tp440
Rp441
(I1
(I3
tp442
g389
I00
S'\xf0\x03W\xf7\xec\xc93@\x8c\x1c\x11.\\N)\xc0\x95^\xca5\xba\xf0I\xc0'
p443
tp444
bsg394
S'Cell[2].axon[330]'
p445
sI106
I87
tp446
a(F1.6417061999453455
S'Cell[0].dend[0] syn_ = new AmpaNmda(0.5)'
p447
I0
(dp448
g379
F0.5
sg380
F10.0
sg381
I58
sg382
g7
(g8
(I0
tp449
g10
tp450
Rp451
(I1
(I3
tp452
g389
I00
S'#\xa7\xee-\xa1V\x17@\xd2\xf4J\xe5\x85!,\xc0H\x00\xf0\xc2@7\x0e\xc0'
p453
tp454
bsg394
S'Cell[1].axon[8]'
p455
sI58
I39
tp456
a(F1.0057815718202467
S'Cell[3].dend[48] syn_ = new FastInhib(0.5)'
p457
I3
(dp458
S'seg'
p459
F0.16666666666666666
sS'hostfrom'
p460
F11.0
sS'gid'
p461
I155
sS'coords'
p462
g7
(g8
(I0
tp463
g10
tp464
Rp465
(I1
(I3
tp466
g14
(S'f8'
p467
I0
I1
tp468
Rp469
(I3
S'<'
p470
NNNI-1
I-1
I0
tp471
bI00
S'\x9e>ic\xcb\xcc#\xc0\x8c\xb3\xd8}>\xbf\x16\xc0\x00\x00\x00\xa0G\xe1\x12@'
p472
tp473
bsS'secnames'
p474
S'Cell[3].axon[157]'
p475
sI155
I183
tp476
a(F2.2742383686429273
S'Cell[3].dend[33] syn_ = new FastInhib(0.833333333333)'
p477
I3
(dp478
g459
F0.5
sg460
F11.0
sg461
I155
sg462
g7
(g8
(I0
tp479
g10
tp480
Rp481
(I1
(I3
tp482
g469
I00
S'3\x81\xcc\x93\xf5>S\xc0<\x85$\xc4R\x00@@BT\x88\x7f\x1c\xe6U\xc0'
p483
tp484
bsg474
S'Cell[3].axon[211]'
p485
sI155
I183
tp486
a(F0.8905496629930169
S'Cell[3].apic[7] syn_ = new FastInhib(0.166666666667)'
p487
I3
(dp488
g459
F0.5
sg460
F11.0
sg461
I155
sg462
g7
(g8
(I0
tp489
g10
tp490
Rp491
(I1
(I3
tp492
g469
I00
S'u\x9f:y\x98R\xe0\xbf\xd5v\x1c\xa9(E@\xc0\xfaQ\xf3[\x8dF\x06@'
p493
tp494
bsg474
S'Cell[3].axon[220]'
p495
sI155
I183
tp496
a(F1.8655854322021883
S'Cell[3].dend[9] syn_ = new FastInhib(0.5)'
p497
I3
(dp498
g459
F0.16666666666666666
sg460
F11.0
sg461
I155
sg462
g7
(g8
(I0
tp499
g10
tp500
Rp501
(I1
(I3
tp502
g469
I00
S'zD\xf8ib\xd8M\xc0$\xe1\xcf\x00h\xbdR@\xf4\xd5I\x96\x05\x97;\xc0'
p503
tp504
bsg474
S'Cell[3].axon[277]'
p505
sI155
I183
tp506
a(F1.8188796475931153
S'Cell[3].apic[13] syn_ = new FastInhib(0.166666666667)'
p507
I3
(dp508
S'seg'
p509
F0.5
sS'hostfrom'
p510
F13.0
sS'gid'
p511
I157
sS'coords'
p512
g7
(g8
(I0
tp513
g10
tp514
Rp515
(I1
(I3
tp516
g14
(S'f8'
p517
I0
I1
tp518
Rp519
(I3
S'<'
p520
NNNI-1
I-1
I0
tp521
bI00
S'g\x92g\x91\xfb\xc5.\xc0\xae\x89\x82\xbc\xbewO\xc0D*\xd7\x95\xa2\xfa)\xc0'
p522
tp523
bsS'secnames'
p524
S'Cell[3].axon[0]'
p525
sI157
I183
tp526
a(F1.99418619199383
S'Cell[1].dend[8] syn_ = new FastInhib(0.166666666667)'
p527
I1
(dp528
g509
F0.5
sg510
F13.0
sg511
I109
sg512
g7
(g8
(I0
tp529
g10
tp530
Rp531
(I1
(I3
tp532
g519
I00
S'H\xf0\x01U6\xe0K@>4o\xd2\xb1\x1e8@\xfb\x95`\x9cH}\x15\xc0'
p533
tp534
bsg524
S'Cell[2].axon[131]'
p535
sI109
I87
tp536
a(F0.8012642753770501
S'Cell[3].dend[12] syn_ = new FastInhib(0.5)'
p537
I3
(dp538
g509
F0.16666666666666666
sg510
F13.0
sg511
I109
sg512
g7
(g8
(I0
tp539
g10
tp540
Rp541
(I1
(I3
tp542
g519
I00
S'\x9c\x8a\xa9f\xa77\x1d\xc0c\x9e^\x91\xf7\xa7=@\xfe/\xe3\t@\xb6(@'
p543
tp544
bsg524
S'Cell[2].axon[241]'
p545
sI109
I183
tp546
a(F2.3198655748041292
S'Cell[1].apic[1] syn_ = new FastInhib(0.833333333333)'
p547
I1
(dp548
g509
F0.5
sg510
F13.0
sg511
I61
sg512
g7
(g8
(I0
tp549
g10
tp550
Rp551
(I1
(I3
tp552
g519
I00
S"}\xef5\x14\xbf\xb1+\xc0\x17\xac\xeb\xe8\xd0\x1fQ\xc0\xcb'\x02\x08\xf7\xfc*\xc0"
p553
tp554
bsg524
S'Cell[1].axon[61]'
p555
sI61
I87
tp556
a(F2.455450000876199
S'Cell[0].apic[8] syn_ = new AmpaNmda(0.5)'
p557
I0
(dp558
S'seg'
p559
F0.30000000000000004
sS'hostfrom'
p560
F14.0
sS'gid'
p561
I110
sS'coords'
p562
g7
(g8
(I0
tp563
g10
tp564
Rp565
(I1
(I3
tp566
g14
(S'f8'
p567
I0
I1
tp568
Rp569
(I3
S'<'
p570
NNNI-1
I-1
I0
tp571
bI00
S'\x07\x99tx\xf2l.@cu\x17\xea\xa2NC@\xb6\xd3\xe2\x08s_.\xc0'
p572
tp573
bsS'secnames'
p574
S'Cell[2].axon[29]'
p575
sI110
I39
tp576
a(F1.6659560605881116
S'Cell[2].dend[15] syn_ = new FastInhib(0.5)'
p577
I2
(dp578
g559
F0.8999999999999999
sg560
F14.0
sg561
I110
sg562
g7
(g8
(I0
tp579
g10
tp580
Rp581
(I1
(I3
tp582
g569
I00
S'3\xb90?\x16\xa4P@]6>\x86\xadqK\xc0\x00\x00\x00@\xe1:=\xc0'
p583
tp584
bsg574
S'Cell[2].axon[32]'
p585
sI110
I135
tp586
a(F1.7425115564204212
S'Cell[2].dend[3] syn_ = new FastInhib(0.5)'
p587
I2
(dp588
g559
F0.8333333333333333
sg560
F14.0
sg561
I110
sg562
g7
(g8
(I0
tp589
g10
tp590
Rp591
(I1
(I3
tp592
g569
I00
S'\xf6vk\x11\x91=I@O\x847\xb1\x8c,E@s!\xce_S\xfc!@'
p593
tp594
bsg574
S'Cell[2].axon[89]'
p595
sI110
I135
tp596
a(F1.967874180275708
S'Cell[1].dend[4] syn_ = new FastInhib(0.166666666667)'
p597
I1
(dp598
g559
F0.16666666666666666
sg560
F14.0
sg561
I110
sg562
g7
(g8
(I0
tp599
g10
tp600
Rp601
(I1
(I3
tp602
g569
I00
S'|\xf3\xe7\x15\x07\xc8J@C\xa1\xef)G{I@\x02\x07\xffN\x1b\x8c\x15\xc0'
p603
tp604
bsg574
S'Cell[2].axon[138]'
p605
sI110
I87
tp606
a(F2.377601157426179
S'Cell[1].dend[15] syn_ = new FastInhib(0.5)'
p607
I1
(dp608
S'seg'
p609
F0.5
sS'hostfrom'
p610
F15.0
sS'gid'
p611
I111
sS'coords'
p612
g7
(g8
(I0
tp613
g10
tp614
Rp615
(I1
(I3
tp616
g14
(S'f8'
p617
I0
I1
tp618
Rp619
(I3
S'<'
p620
NNNI-1
I-1
I0
tp621
bI00
S'\x00\x00\x00\xd0\xcc\xccA@\x00\x00\x00\x80\xebQ\xe0?\xff\xff\xff\x7f\xc2\xf5\x0c\xc0'
p622
tp623
bsS'secnames'
p624
S'Cell[2].soma[0]'
p625
sI111
I87
tp626
a(F2.1121036088592096
S'Cell[0].apic[13] syn_ = new ExpSid(0.833333333333)'
p627
I0
(dp628
g609
F0.8333333333333333
sg610
F15.0
sg611
I111
sg612
g7
(g8
(I0
tp629
g10
tp630
Rp631
(I1
(I3
tp632
g619
I00
S'a\x8a\x13O\x90YF@\x83\x18?\xd6\xdf\xf5R@\xecZ\xceXI6I\xc0'
p633
tp634
bsg624
S'Cell[2].axon[163]'
p635
sI111
I39
tp636
a(F2.272849378787189
S'Cell[3].dend[25] syn_ = new FastInhib(0.5)'
p637
I3
(dp638
g609
F0.8333333333333333
sg610
F15.0
sg611
I111
sg612
g7
(g8
(I0
tp639
g10
tp640
Rp641
(I1
(I3
tp642
g619
I00
S"\xd8\xf6\xba\x93\xb8\xfd5\xc0\xe5'\xf2-\xeb\x97E@2\xa1E\xcb\x89\x81M\xc0"
p643
tp644
bsg624
S'Cell[2].axon[267]'
p645
sI111
I183
tp646
a(F1.6984795111301452
S'Cell[2].dend[7] syn_ = new FastInhib(0.833333333333)'
p647
I2
(dp648
S'seg'
p649
F0.8999999999999999
sS'hostfrom'
p650
F17.0
sS'gid'
p651
I113
sS'coords'
p652
g7
(g8
(I0
tp653
g10
tp654
Rp655
(I1
(I3
tp656
g14
(S'f8'
p657
I0
I1
tp658
Rp659
(I3
S'<'
p660
NNNI-1
I-1
I0
tp661
bI00
S"\xf0\xe9\x08\xa0*D'\xc0\xe6yQ\xf9r$F@r\x8bh\xbd\xb6w7\xc0"
p662
tp663
bsS'secnames'
p664
S'Cell[2].axon[512]'
p665
sI113
I135
tp666
a(F2.45817051213147
S'Cell[2].dend[7] syn_ = new FastInhib(0.833333333333)'
p667
I2
(dp668
g649
F0.5
sg650
F17.0
sg651
I161
sg652
g7
(g8
(I0
tp669
g10
tp670
Rp671
(I1
(I3
tp672
g659
I00
S'?:`kR\xf0$\xc0\xbe\x080\x14c\xebG@\xb1\xa2r\xa4B\x927\xc0'
p673
tp674
bsg664
S'Cell[3].axon[49]'
p675
sI161
I135
tp676
a(F2.193840749495068
S'Cell[0].dend[4] syn_ = new AmpaNmda(0.833333333333)'
p677
I0
(dp678
S'seg'
p679
F0.5
sS'hostfrom'
p680
F18.0
sS'gid'
p681
I114
sS'coords'
p682
g7
(g8
(I0
tp683
g10
tp684
Rp685
(I1
(I3
tp686
g14
(S'f8'
p687
I0
I1
tp688
Rp689
(I3
S'<'
p690
NNNI-1
I-1
I0
tp691
bI00
S'tMlB\xd3\xeeD\xc0\x0f^g\x80J\xc2G\xc0\xa0\x84L8\xbfv3\xc0'
p692
tp693
bsS'secnames'
p694
S'Cell[2].axon[2]'
p695
sI114
I39
tp696
a(F2.048851234468578
S'Cell[3].apic[6] syn_ = new FastInhib(0.5)'
p697
I3
(dp698
g679
F0.30000000000000004
sg680
F18.0
sg681
I114
sg682
g7
(g8
(I0
tp699
g10
tp700
Rp701
(I1
(I3
tp702
g689
I00
S'r\xec\xc9\x16aV\x1e\xc0\x9fL\x13\xa9m\xa85\xc0\xcd\xde\xe1=\x90W\xf2?'
p703
tp704
bsg694
S'Cell[2].axon[79]'
p705
sI114
I183
tp706
a(F2.2948422095722996
S'Cell[1].dend[17] syn_ = new FastInhib(0.5)'
p707
I1
(dp708
g679
F0.5
sg680
F18.0
sg681
I162
sg682
g7
(g8
(I0
tp709
g10
tp710
Rp711
(I1
(I3
tp712
g689
I00
S'\xc6=b9w!:@\xa3\xe6\xbc,TOA@\x12\x8b\xc5GV\xb0\x12@'
p713
tp714
bsg694
S'Cell[3].axon[64]'
p715
sI162
I87
tp716
a(F2.3485299621912517
S'Cell[3].dend[13] syn_ = new FastInhib(0.5)'
p717
I3
(dp718
g679
F0.16666666666666666
sg680
F18.0
sg681
I162
sg682
g7
(g8
(I0
tp719
g10
tp720
Rp721
(I1
(I3
tp722
g689
I00
S'+\x855\xe5\xa5\xfc\x10\xc0+\xe0oF~\x15A@\x0c\xdc\xdas/\xda9@'
p723
tp724
bsg694
S'Cell[3].axon[185]'
p725
sI162
I183
tp726
a(F1.4777212903468515
S'Cell[3].apic[7] syn_ = new FastInhib(0.833333333333)'
p727
I3
(dp728
S'seg'
p729
F0.5
sS'hostfrom'
p730
F19.0
sS'gid'
p731
I67
sS'coords'
p732
g7
(g8
(I0
tp733
g10
tp734
Rp735
(I1
(I3
tp736
g14
(S'f8'
p737
I0
I1
tp738
Rp739
(I3
S'<'
p740
NNNI-1
I-1
I0
tp741
bI00
S"\xd4\x13r\x97\xf7.'@Jt\xb0\xb5\xdc\xaaJ\xc0\xff~\xfc}\xfc\xf1\x01\xc0"
p742
tp743
bsS'secnames'
p744
S'Cell[1].axon[2]'
p745
sI67
I183
tp746
a(F1.7312298898068919
S'Cell[0].dend[1] syn_ = new ExpSid(0.166666666667)'
p747
I0
(dp748
g729
F0.5
sg730
F19.0
sg731
I163
sg732
g7
(g8
(I0
tp749
g10
tp750
Rp751
(I1
(I3
tp752
g739
I00
S'\x00\x00\x00\xc0Q\xb8\x14\xc0\x00\x00\x00\xa0p=,\xc0\x00\x00\x00\x00\xd7\xa3\x0e@'
p753
tp754
bsg744
S'Cell[3].soma[0]'
p755
sI163
I39
tp756
a(F1.2499931327443952
S'Cell[3].apic[20] syn_ = new FastInhib(0.833333333333)'
p757
I3
(dp758
g729
F0.5
sg730
F19.0
sg731
I163
sg732
g7
(g8
(I0
tp759
g10
tp760
Rp761
(I1
(I3
tp762
g739
I00
S'\x00\x00\x00 \x85\xeb\x13\xc0\x00\x00\x0003Ca\xc0\x00\x00\x00\xd8z\x94\x19@'
p763
tp764
bsg744
S'Cell[3].axon[136]'
p765
sI163
I183
tp766
a(F1.1477564389711956
S'Cell[1].dend[23] syn_ = new FastInhib(0.166666666667)'
p767
I1
(dp768
S'seg'
p769
F0.05555555555555555
sS'hostfrom'
p770
F21.0
sS'gid'
p771
I165
sS'coords'
p772
g7
(g8
(I0
tp773
g10
tp774
Rp775
(I1
(I3
tp776
g14
(S'f8'
p777
I0
I1
tp778
Rp779
(I3
S'<'
p780
NNNI-1
I-1
I0
tp781
bI00
S'\x8e\xa5!&\xe0\xf91@u\x0e\x08\xef1\xd6#\xc0e\xc4\x96&\xc0\xfdI\xc0'
p782
tp783
bsS'secnames'
p784
S'Cell[3].axon[116]'
p785
sI165
I87
tp786
a(F1.9862128605568654
S'Cell[1].dend[20] syn_ = new FastInhib(0.166666666667)'
p787
I1
(dp788
g769
F0.045454545454545456
sg770
F21.0
sg771
I165
sg772
g7
(g8
(I0
tp789
g10
tp790
Rp791
(I1
(I3
tp792
g779
I00
S'\xdaAz0oHR@\xe9*r\tt\xaa=\xc0\xce[\xad?\xc0k@\xc0'
p793
tp794
bsg784
S'Cell[3].axon[158]'
p795
sI165
I87
tp796
a(F1.164630264346859
S'Cell[2].apic[6] syn_ = new FastInhib(0.166666666667)'
p797
I2
(dp798
g769
F0.5
sg770
F21.0
sg771
I165
sg772
g7
(g8
(I0
tp799
g10
tp800
Rp801
(I1
(I3
tp802
g779
I00
S'-\x8e\x11S\xe7\xd7>@\xfd/\x05\xfe(PI\xc0i\xcd\xcf\xe3\rv;@'
p803
tp804
bsg784
S'Cell[3].axon[233]'
p805
sI165
I135
tp806
a(F2.4204282584481533
S'Cell[1].apic[1] syn_ = new FastInhib(0.5)'
p807
I1
(dp808
g769
F0.16666666666666666
sg770
F21.0
sg771
I165
sg772
g7
(g8
(I0
tp809
g10
tp810
Rp811
(I1
(I3
tp812
g779
I00
S'\x83C\x86\x9d\x1c\xed$@\x8c\xc3\xd2\xfeF\x10K\xc0\x8e\xb3\x04\xa6\xa7\xae"\xc0'
p813
tp814
bsg784
S'Cell[3].axon[236]'
p815
sI165
I87
tp816
a(F2.3994785742383606
S'Cell[0].dend[25] syn_ = new ExpSid(0.166666666667)'
p817
I0
(dp818
g769
F0.16666666666666666
sg770
F21.0
sg771
I165
sg772
g7
(g8
(I0
tp819
g10
tp820
Rp821
(I1
(I3
tp822
g779
I00
S'b1\x0b\xa4\xb0\xf6A@\xaf\x92!\xe2\x1bSB\xc0\xfbV\xcf|%v8\xc0'
p823
tp824
bsg784
S'Cell[3].axon[282]'
p825
sI165
I39
tp826
a(F2.0158079854794058
S'Cell[2].dend[7] syn_ = new FastInhib(0.833333333333)'
p827
I2
(dp828
g769
F0.5
sg770
F21.0
sg771
I117
sg772
g7
(g8
(I0
tp829
g10
tp830
Rp831
(I1
(I3
tp832
g779
I00
S'\t\xb8\xf4kf\xf2(\xc0\x19MXg8\x95G@\x00\x00\x00\x80\xc2u9\xc0'
p833
tp834
bsg784
S'Cell[2].axon[12]'
p835
sI117
I135
tp836
a(F2.494845081866764
S'Cell[3].apic[24] syn_ = new FastInhib(0.1)'
p837
I3
(dp838
g769
F0.16666666666666666
sg770
F21.0
sg771
I69
sg772
g7
(g8
(I0
tp839
g10
tp840
Rp841
(I1
(I3
tp842
g779
I00
S'\xd4\x0e\xb4\x01\x89L\x11\xc0 \xebI\r\xed\xacc\xc0}\x84\x10\x05p`\x1e@'
p843
tp844
bsg784
S'Cell[1].axon[32]'
p845
sI69
I183
tp846
a(F0.7016812734338993
S'Cell[3].dend[6] syn_ = new FastInhib(0.5)'
p847
I3
(dp848
S'seg'
p849
F0.30000000000000004
sS'hostfrom'
p850
F22.0
sS'gid'
p851
I166
sS'coords'
p852
g7
(g8
(I0
tp853
g10
tp854
Rp855
(I1
(I3
tp856
g14
(S'f8'
p857
I0
I1
tp858
Rp859
(I3
S'<'
p860
NNNI-1
I-1
I0
tp861
bI00
S'\x9a\xf4\xf9\x10\xe0\xa5\x1e\xc0M\xfa\x99-$\x8e:@/0\xec:\xfc\x14%@'
p862
tp863
bsS'secnames'
p864
S'Cell[3].axon[300]'
p865
sI166
I183
tp866
a(F2.0270030559306083
S'Cell[2].dend[6] syn_ = new FastInhib(0.5)'
p867
I2
(dp868
S'seg'
p869
F0.16666666666666666
sS'hostfrom'
p870
F23.0
sS'gid'
p871
I167
sS'coords'
p872
g7
(g8
(I0
tp873
g10
tp874
Rp875
(I1
(I3
tp876
g14
(S'f8'
p877
I0
I1
tp878
Rp879
(I3
S'<'
p880
NNNI-1
I-1
I0
tp881
bI00
S'\xcdY\xe6\x8c\x120\x14\xc0\xdc\x12]\xea\xde\x94A@\x00\x00\x00\xe0\xa3\xf01\xc0'
p882
tp883
bsS'secnames'
p884
S'Cell[3].axon[167]'
p885
sI167
I135
tp886
a(F1.7863555279022
S'Cell[0].apic[9] syn_ = new ExpSid(0.166666666667)'
p887
I0
(dp888
g869
F0.5
sg870
F23.0
sg871
I167
sg872
g7
(g8
(I0
tp889
g10
tp890
Rp891
(I1
(I3
tp892
g879
I00
S'`\x96g\xda\x8d\x1c\xc7\xbf\xac\xdd\xc1Y&\x01E@\xd4d\xa8Y.\x194\xc0'
p893
tp894
bsg884
S'Cell[3].axon[167]'
p895
sI167
I39
tp896
a(F1.2048948131834751
S'Cell[0].dend[3] syn_ = new ExpSid(0.5)'
p897
I0
(dp898
g869
F0.7857142857142856
sg870
F23.0
sg871
I167
sg872
g7
(g8
(I0
tp899
g10
tp900
Rp901
(I1
(I3
tp902
g879
I00
S"Y'\xc7\x05\x7f\xf8I\xc0\xd4\x90#?\xa7\xe2E\xc0\xe18V\xe5\xa4\x90 \xc0"
p903
tp904
bsg884
S'Cell[3].axon[194]'
p905
sI167
I39
tp906
a(F1.7489338278898328
S'Cell[3].dend[0] syn_ = new FastInhib(0.5)'
p907
I3
(dp908
g869
F0.9545454545454547
sg870
F23.0
sg871
I23
sg872
g7
(g8
(I0
tp909
g10
tp910
Rp911
(I1
(I3
tp912
g879
I00
S'\x13/\x19\x04p\xc8\x11\xc0,\x8a\x98\x13\xbf\xd76@\xc8\x0c\x08\x86s\x9d\x14@'
p913
tp914
bsg884
S'Cell[0].axon[8]'
p915
sI23
I183
tp916
a(F2.3997818721702155
S'Cell[3].dend[11] syn_ = new FastInhib(0.833333333333)'
p917
I3
(dp918
S'seg'
p919
F0.5
sS'hostfrom'
p920
F24.0
sS'gid'
p921
I168
sS'coords'
p922
g7
(g8
(I0
tp923
g10
tp924
Rp925
(I1
(I3
tp926
g14
(S'f8'
p927
I0
I1
tp928
Rp929
(I3
S'<'
p930
NNNI-1
I-1
I0
tp931
bI00
S'\xc4:H\xfc\xa9RV\xc0\x8a\x08\xbe\xddF\x01^@\x00\x00\x00\xc0\xcc\xdcQ\xc0'
p932
tp933
bsS'secnames'
p934
S'Cell[3].axon[450]'
p935
sI168
I183
tp936
a(F2.1986830632284162
S'Cell[0].apic[0] syn_ = new AmpaNmda(0.5)'
p937
I0
(dp938
g919
F0.30000000000000004
sg920
F24.0
sg921
I168
sg922
g7
(g8
(I0
tp939
g10
tp940
Rp941
(I1
(I3
tp942
g929
I00
S'\\\x1eE\x97\x1eF/@\xec\x1c\x19}}"\xf9?\x86BV\x8c\xcc\x03\x05\xc0'
p943
tp944
bsg934
S'Cell[3].axon[591]'
p945
sI168
I39
tp946
a(F1.5635929733027407
S'Cell[0].apic[16] syn_ = new AmpaNmda(0.5)'
p947
I0
(dp948
S'seg'
p949
F0.30000000000000004
sS'hostfrom'
p950
F26.0
sS'gid'
p951
I26
sS'coords'
p952
g7
(g8
(I0
tp953
g10
tp954
Rp955
(I1
(I3
tp956
g14
(S'f8'
p957
I0
I1
tp958
Rp959
(I3
S'<'
p960
NNNI-1
I-1
I0
tp961
bI00
S'\x11\xe7\x0b\xb0\x00\xafB@*\xf7g\xbe\x08\xf1M@\xe6}\x8a\xcdk\xd55@'
p962
tp963
bsS'secnames'
p964
S'Cell[0].axon[6]'
p965
sI26
I39
tp966
a(F1.6499095470180436
S'Cell[0].dend[7] syn_ = new AmpaNmda(0.5)'
p967
I0
(dp968
g949
F0.1
sg950
F26.0
sg951
I26
sg952
g7
(g8
(I0
tp969
g10
tp970
Rp971
(I1
(I3
tp972
g959
I00
S'\xed\xe4\xea&\xc5\xbd\xc5\xbf2$\x01\xa6v\xf57\xc0p\x8c\x91r!l2\xc0'
p973
tp974
bsg964
S'Cell[0].axon[83]'
p975
sI26
I39
tp976
a(F0.7132206207620155
S'Cell[2].dend[1] syn_ = new FastInhib(0.5)'
p977
I2
(dp978
g949
F0.16666666666666666
sg950
F26.0
sg951
I170
sg952
g7
(g8
(I0
tp979
g10
tp980
Rp981
(I1
(I3
tp982
g959
I00
S"\xceI\x1e\x9d_0B@'\xc1\xcbh\xb7\xb97@\xa4I\xe1\x0c\xc7\x0e%\xc0"
p983
tp984
bsg964
S'Cell[3].axon[457]'
p985
sI170
I135
tp986
a(F1.9481685100389763
S'Cell[2].dend[4] syn_ = new FastInhib(0.5)'
p987
I2
g978
I170
I135
tp988
a(F1.590341511637375
S'Cell[3].dend[36] syn_ = new FastInhib(0.166666666667)'
p989
I3
(dp990
S'seg'
p991
F0.16666666666666666
sS'hostfrom'
p992
F27.0
sS'gid'
p993
I171
sS'coords'
p994
g7
(g8
(I0
tp995
g10
tp996
Rp997
(I1
(I3
tp998
g14
(S'f8'
p999
I0
I1
tp1000
Rp1001
(I3
S'<'
p1002
NNNI-1
I-1
I0
tp1003
bI00
S'&\xa8\xf4^#"(\xc0M0\xb6\xc1\xbbKA@\x00\x00\x00\xa0p\xbd:\xc0'
p1004
tp1005
bsS'secnames'
p1006
S'Cell[3].axon[45]'
p1007
sI171
I183
tp1008
a(F1.7785268319447465
S'Cell[3].apic[28] syn_ = new FastInhib(0.166666666667)'
p1009
I3
(dp1010
S'seg'
p1011
F0.7
sS'hostfrom'
p1012
F29.0
sS'gid'
p1013
I125
sS'coords'
p1014
g7
(g8
(I0
tp1015
g10
tp1016
Rp1017
(I1
(I3
tp1018
g14
(S'f8'
p1019
I0
I1
tp1020
Rp1021
(I3
S'<'
p1022
NNNI-1
I-1
I0
tp1023
bI00
S'^w\x02\xeb\xacq\x1c\xc0d\xee\xac\x98?\xfet\xc0z\xdeF\xa7\x1f\x90/@'
p1024
tp1025
bsS'secnames'
p1026
S'Cell[2].axon[55]'
p1027
sI125
I183
tp1028
a(F1.8104001830890453
S'Cell[3].dend[34] syn_ = new FastInhib(0.833333333333)'
p1029
I3
(dp1030
S'seg'
p1031
F0.5
sS'hostfrom'
p1032
F30.0
sS'gid'
p1033
I126
sS'coords'
p1034
g7
(g8
(I0
tp1035
g10
tp1036
Rp1037
(I1
(I3
tp1038
g14
(S'f8'
p1039
I0
I1
tp1040
Rp1041
(I3
S'<'
p1042
NNNI-1
I-1
I0
tp1043
bI00
S'\xfe\x9d\x15\xa7W\x87H\xc0id~\xdb\xc6ZD@\x19*\x9ciVkc\xc0'
p1044
tp1045
bsS'secnames'
p1046
S'Cell[2].axon[99]'
p1047
sI126
I183
tp1048
a(F2.457115499858837
S'Cell[0].dend[1] syn_ = new AmpaNmda(0.5)'
p1049
I0
(dp1050
g1031
F0.5
sg1032
F30.0
sg1033
I174
sg1034
g7
(g8
(I0
tp1051
g10
tp1052
Rp1053
(I1
(I3
tp1054
g1041
I00
S'\x0c\x0f\xe0\x8f\xcb\xe6=\xc0\xe1kz\xc2\xdf\x8e\x0c\xc0\x00\x00\x00\xa0p=\x08\xc0'
p1055
tp1056
bsg1046
S'Cell[3].axon[364]'
p1057
sI174
I39
tp1058
a(F2.204104210763472
S'Cell[0].apic[24] syn_ = new ExpSid(0.9)'
p1059
I0
(dp1060
S'seg'
p1061
F0.40909090909090906
sS'hostfrom'
p1062
F31.0
sS'gid'
p1063
I175
sS'coords'
p1064
g7
(g8
(I0
tp1065
g10
tp1066
Rp1067
(I1
(I3
tp1068
g14
(S'f8'
p1069
I0
I1
tp1070
Rp1071
(I3
S'<'
p1072
NNNI-1
I-1
I0
tp1073
bI00
S'\xbe\xc3,\xb2\t\xd58@7`8\xac\xe9\xf4r@\x1e\xda\xbf\x81\x1cqK\xc0'
p1074
tp1075
bsS'secnames'
p1076
S'Cell[3].axon[154]'
p1077
sI175
I39
tp1078
a(F1.4225407653304862
S'Cell[0].apic[19] syn_ = new ExpSid(0.5)'
p1079
I0
(dp1080
g1061
F0.5
sg1062
F31.0
sg1063
I175
sg1064
g7
(g8
(I0
tp1081
g10
tp1082
Rp1083
(I1
(I3
tp1084
g1071
I00
S'\x16\xe3w\x7f\xb5\xef @\xbe\x90\x0fW|\x1f^@\\\r\xcc\x88s\xc1 \xc0'
p1085
tp1086
bsg1076
S'Cell[3].axon[201]'
p1087
sI175
I39
tp1088
a(F2.1719248303624688
S'Cell[1].dend[22] syn_ = new FastInhib(0.166666666667)'
p1089
I1
(dp1090
g1061
F0.5
sg1062
F31.0
sg1063
I175
sg1064
g7
(g8
(I0
tp1091
g10
tp1092
Rp1093
(I1
(I3
tp1094
g1071
I00
S'\x0b\x8a\xedf\x10\x913@\xfc/\x94,\xea\x93\x1e\xc0jJ\x9a\x14\xdd\xf1H\xc0'
p1095
tp1096
bsg1076
S'Cell[3].axon[229]'
p1097
sI175
I87
tp1098
a(F2.266956616971687
S'Cell[2].apic[12] syn_ = new FastInhib(0.166666666667)'
p1099
I2
(dp1100
S'seg'
p1101
F0.5
sS'hostfrom'
p1102
F32.0
sS'gid'
p1103
I32
sS'coords'
p1104
g7
(g8
(I0
tp1105
g10
tp1106
Rp1107
(I1
(I3
tp1108
g14
(S'f8'
p1109
I0
I1
tp1110
Rp1111
(I3
S'<'
p1112
NNNI-1
I-1
I0
tp1113
bI00
S'\xfcl@z\xf7MJ@\xfc5\xeb\xd6\x07Ug\xc0\xff\x81\x94w#\xed0@'
p1114
tp1115
bsS'secnames'
p1116
S'Cell[0].axon[5]'
p1117
sI32
I135
tp1118
a(F1.8935234524191475
S'Cell[0].apic[16] syn_ = new ExpSid(0.5)'
p1119
I0
(dp1120
S'seg'
p1121
F0.5
sS'hostfrom'
p1122
F33.0
sS'gid'
p1123
I129
sS'coords'
p1124
g7
(g8
(I0
tp1125
g10
tp1126
Rp1127
(I1
(I3
tp1128
g14
(S'f8'
p1129
I0
I1
tp1130
Rp1131
(I3
S'<'
p1132
NNNI-1
I-1
I0
tp1133
bI00
S'\xc7\xb2\x85\x7f\x05\x11C@a\xed\xf4\x8a\xaaXN@.-\xa7\x19\x0e(7@'
p1134
tp1135
bsS'secnames'
p1136
S'Cell[2].axon[83]'
p1137
sI129
I39
tp1138
a(F2.045510975246437
S'Cell[0].apic[24] syn_ = new ExpSid(0.5)'
p1139
I0
(dp1140
g1121
F0.5
sg1122
F33.0
sg1123
I177
sg1124
g7
(g8
(I0
tp1141
g10
tp1142
Rp1143
(I1
(I3
tp1144
g1131
I00
S'\xc5\xa9\xf7\xbaT95@<.kr\x0ekp@\x00\x00\x00\x00\xd7\xc3@\xc0'
p1145
tp1146
bsg1136
S'Cell[3].axon[80]'
p1147
sI177
I39
tp1148
a(F2.439724118171307
S'Cell[1].dend[5] syn_ = new FastInhib(0.3)'
p1149
I1
(dp1150
g1121
F0.5
sg1122
F33.0
sg1123
I177
sg1124
g7
(g8
(I0
tp1151
g10
tp1152
Rp1153
(I1
(I3
tp1154
g1131
I00
S'\x02\xc9\x07\xe94\x99L@\x13\xf7\xa5-\xe0\x11\\@>}?\x19\x00\xb4!\xc0'
p1155
tp1156
bsg1136
S'Cell[3].axon[143]'
p1157
sI177
I87
tp1158
a(F1.8940495215557007
S'Cell[0].apic[1] syn_ = new ExpSid(0.166666666667)'
p1159
I0
(dp1160
g1121
F0.6428571428571428
sg1122
F33.0
sg1123
I81
sg1124
g7
(g8
(I0
tp1161
g10
tp1162
Rp1163
(I1
(I3
tp1164
g1131
I00
S'V\xba\xfc\xb8\x154\xf5?lB\\\x06|\xc41@\x86L\x07\xff\xf1\xa4\x13\xc0'
p1165
tp1166
bsg1136
S'Cell[1].axon[73]'
p1167
sI81
I39
tp1168
a(F2.2792297637597527
S'Cell[2].dend[13] syn_ = new FastInhib(0.5)'
p1169
I2
(dp1170
S'seg'
p1171
F0.16666666666666666
sS'hostfrom'
p1172
F34.0
sS'gid'
p1173
I178
sS'coords'
p1174
g7
(g8
(I0
tp1175
g10
tp1176
Rp1177
(I1
(I3
tp1178
g14
(S'f8'
p1179
I0
I1
tp1180
Rp1181
(I3
S'<'
p1182
NNNI-1
I-1
I0
tp1183
bI00
S'\xf2\xa7\xc5\xb8+\xf4E@\xb4\xdf\xe5,\xbb\xb4\x02\xc0{\x03\xa9\xe4\x15yE\xc0'
p1184
tp1185
bsS'secnames'
p1186
S'Cell[3].axon[98]'
p1187
sI178
I135
tp1188
a(F1.9659525357329473
S'Cell[0].apic[15] syn_ = new ExpSid(0.166666666667)'
p1189
I0
(dp1190
S'seg'
p1191
F0.8333333333333333
sS'hostfrom'
p1192
F35.0
sS'gid'
p1193
I179
sS'coords'
p1194
g7
(g8
(I0
tp1195
g10
tp1196
Rp1197
(I1
(I3
tp1198
g14
(S'f8'
p1199
I0
I1
tp1200
Rp1201
(I3
S'<'
p1202
NNNI-1
I-1
I0
tp1203
bI00
S'\x85\x19eh"\x191@J\xa6owgDT@\x90\xf3y\xa2\xf3\x93+\xc0'
p1204
tp1205
bsS'secnames'
p1206
S'Cell[3].axon[9]'
p1207
sI179
I39
tp1208
a(F1.702556886887157
S'Cell[3].dend[36] syn_ = new FastInhib(0.833333333333)'
p1209
I3
(dp1210
S'seg'
p1211
F0.3571428571428571
sS'hostfrom'
p1212
F36.0
sS'gid'
p1213
I84
sS'coords'
p1214
g7
(g8
(I0
tp1215
g10
tp1216
Rp1217
(I1
(I3
tp1218
g14
(S'f8'
p1219
I0
I1
tp1220
Rp1221
(I3
S'<'
p1222
NNNI-1
I-1
I0
tp1223
bI00
S'\x81\x10\xce\x078\x07C\xc0\xb8\x80\xb9\x8a\xca\x1cT@\xb6[\xea \x17oJ\xc0'
p1224
tp1225
bsS'secnames'
p1226
S'Cell[1].axon[260]'
p1227
sI84
I183
tp1228
a(F1.530104723392053
S'Cell[3].dend[39] syn_ = new FastInhib(0.5)'
p1229
I3
(dp1230
g1211
F0.8333333333333333
sg1212
F36.0
sg1213
I84
sg1214
g7
(g8
(I0
tp1231
g10
tp1232
Rp1233
(I1
(I3
tp1234
g1221
I00
S'\x00\x91\xd77y\xd8\x93?}c\xd9\xe1\x91\xac3@\xe2&\x95\x92\x7f\xaa5\xc0'
p1235
tp1236
bsg1226
S'Cell[1].axon[275]'
p1237
sI84
I183
tp1238
a(F1.334957245563121
S'Cell[0].apic[25] syn_ = new AmpaNmda(0.5)'
p1239
I0
(dp1240
g1211
F0.16666666666666666
sg1212
F36.0
sg1213
I84
sg1214
g7
(g8
(I0
tp1241
g10
tp1242
Rp1243
(I1
(I3
tp1244
g1221
I00
S'=\xa4\xddB\x12\x03+@\x9a\xf3\x07>\x13Kn@\x00\x00\x00\x00\xd7\xa3(\xc0'
p1245
tp1246
bsg1226
S'Cell[1].axon[351]'
p1247
sI84
I39
tp1248
a(F1.3031135598449877
S'Cell[3].dend[30] syn_ = new FastInhib(0.5)'
p1249
I3
(dp1250
g1211
F0.8999999999999999
sg1212
F36.0
sg1213
I84
sg1214
g7
(g8
(I0
tp1251
g10
tp1252
Rp1253
(I1
(I3
tp1254
g1221
I00
S'\xdd\x9em\x92\x16\xb9I\xc0\xf4\xc3\xd1lJ\xeeL@\x84\x1b-.\xb3\x1eT\xc0'
p1255
tp1256
bsg1226
S'Cell[1].axon[630]'
p1257
sI84
I183
tp1258
a(F1.802336565805896
S'Cell[3].apic[7] syn_ = new FastInhib(0.166666666667)'
p1259
I3
(dp1260
g1211
F0.5
sg1212
F36.0
sg1213
I180
sg1214
g7
(g8
(I0
tp1261
g10
tp1262
Rp1263
(I1
(I3
tp1264
g1221
I00
S'\xe5\xed@\xe6g^\xc6\xbf\xec\xef|M|\x91@\xc0-\xa0R\xa5\xb7\xbe\x10@'
p1265
tp1266
bsg1226
S'Cell[3].axon[70]'
p1267
sI180
I183
tp1268
a(F1.2414867698001961
S'Cell[2].dend[9] syn_ = new FastInhib(0.166666666667)'
p1269
I2
(dp1270
S'seg'
p1271
F0.16666666666666666
sS'hostfrom'
p1272
F37.0
sS'gid'
p1273
I133
sS'coords'
p1274
g7
(g8
(I0
tp1275
g10
tp1276
Rp1277
(I1
(I3
tp1278
g14
(S'f8'
p1279
I0
I1
tp1280
Rp1281
(I3
S'<'
p1282
NNNI-1
I-1
I0
tp1283
bI00
S'\xe4\xc7x\xa3\x12\xaaB@\xd183!\xa9sC@\x94f\xb8\xef\xe1.\xf7?'
p1284
tp1285
bsS'secnames'
p1286
S'Cell[2].axon[95]'
p1287
sI133
I135
tp1288
a(F2.1613166313996297
S'Cell[3].apic[14] syn_ = new FastInhib(0.5)'
p1289
I3
(dp1290
g1271
F0.5
sg1272
F37.0
sg1273
I133
sg1274
g7
(g8
(I0
tp1291
g10
tp1292
Rp1293
(I1
(I3
tp1294
g1281
I00
S'D\x86\xc6\x8bJ\xcd$\xc0\x8apoY\\\x8aJ\xc0 z\x98\xc2^\x94\xf4\xbf'
p1295
tp1296
bsg1286
S'Cell[2].axon[120]'
p1297
sI133
I183
tp1298
a(F1.4214201799526425
S'Cell[1].apic[0] syn_ = new FastInhib(0.5)'
p1299
I1
(dp1300
S'seg'
p1301
F0.30000000000000004
sS'hostfrom'
p1302
F38.0
sS'gid'
p1303
I182
sS'coords'
p1304
g7
(g8
(I0
tp1305
g10
tp1306
Rp1307
(I1
(I3
tp1308
g14
(S'f8'
p1309
I0
I1
tp1310
Rp1311
(I3
S'<'
p1312
NNNI-1
I-1
I0
tp1313
bI00
S'0|\x1f[\xc6\x8eG@\x1b\xc3\x1e\x13\x9d-6\xc0\x8c\xa9\x10\x0e4\xda:\xc0'
p1314
tp1315
bsS'secnames'
p1316
S'Cell[3].axon[218]'
p1317
sI182
I87
tp1318
a(F2.0522451079608435
S'Cell[1].apic[3] syn_ = new FastInhib(0.5)'
p1319
I1
(dp1320
g1301
F0.8333333333333333
sg1302
F38.0
sg1303
I182
sg1304
g7
(g8
(I0
tp1321
g10
tp1322
Rp1323
(I1
(I3
tp1324
g1311
I00
S'>\x8f1\xcd(\xb4J@\x00\xd8\xa2\x89]`4\xc0\x8d\x99+\x089\xce7\xc0'
p1325
tp1326
bsg1316
S'Cell[3].axon[402]'
p1327
sI182
I87
tp1328
a(F1.8346925936142284
S'Cell[2].dend[24] syn_ = new FastInhib(0.5)'
p1329
I2
(dp1330
g1301
F0.30000000000000004
sg1302
F38.0
sg1303
I86
sg1304
g7
(g8
(I0
tp1331
g10
tp1332
Rp1333
(I1
(I3
tp1334
g1311
I00
S'\x11\x11\x0b@\xe6\xa5Q@2\xff\x92\xfc\x90q\x14\xc0\xd6\x16\xf7\x12n\x1eR\xc0'
p1335
tp1336
bsg1316
S'Cell[1].axon[130]'
p1337
sI86
I135
tp1338
a(F1.9914388946615003
S'Cell[2].dend[11] syn_ = new FastInhib(0.166666666667)'
p1339
I2
(dp1340
S'seg'
p1341
F0.5
sS'hostfrom'
p1342
F39.0
sS'gid'
p1343
I87
sS'coords'
p1344
g7
(g8
(I0
tp1345
g10
tp1346
Rp1347
(I1
(I3
tp1348
g14
(S'f8'
p1349
I0
I1
tp1350
Rp1351
(I3
S'<'
p1352
NNNI-1
I-1
I0
tp1353
bI00
S'\xac\x8bE\xea\xab\x00E@\x0b\xf5\xa5\xf4tCF@\xe4\xa6\x8d\xd6F\xdb$@'
p1354
tp1355
bsS'secnames'
p1356
S'Cell[1].axon[83]'
p1357
sI87
I135
tp1358
a(F2.4633216705788326
S'Cell[1].dend[5] syn_ = new FastInhib(0.1)'
p1359
I1
(dp1360
g1341
F0.16666666666666666
sg1342
F39.0
sg1343
I135
sg1344
g7
(g8
(I0
tp1361
g10
tp1362
Rp1363
(I1
(I3
tp1364
g1351
I00
S'\xfci\xb2d\x9f#K@\xce\xbb%\xa6\x88eQ@0\xd82\xd4\xc4M)\xc0'
p1365
tp1366
bsg1356
S'Cell[2].axon[97]'
p1367
sI135
I87
tp1368
a(F1.403763484869139
S'Cell[0].apic[13] syn_ = new ExpSid(0.166666666667)'
p1369
I0
(dp1370
g1341
F0.5
sg1342
F39.0
sg1343
I183
sg1344
g7
(g8
(I0
tp1371
g10
tp1372
Rp1373
(I1
(I3
tp1374
g1351
I00
S'\x03\xd7:\xc8[\x8c0@\x8aS\xddD\xb5aQ@H\x89`m\x83T;\xc0'
p1375
tp1376
bsg1356
S'Cell[3].axon[56]'
p1377
sI183
I39
tp1378
a(F1.8858420449861157
S'Cell[3].dend[23] syn_ = new FastInhib(0.5)'
p1379
I3
(dp1380
S'seg'
p1381
F0.1
sS'hostfrom'
p1382
F40.0
sS'gid'
p1383
I88
sS'coords'
p1384
g7
(g8
(I0
tp1385
g10
tp1386
Rp1387
(I1
(I3
tp1388
g14
(S'f8'
p1389
I0
I1
tp1390
Rp1391
(I3
S'<'
p1392
NNNI-1
I-1
I0
tp1393
bI00
S'\x94^\xb6\ttj$\xc0\xdd\xee\xb4\x89\x1a\x107@\x1ej\xbf\xb5\xa4\xe9@\xc0'
p1394
tp1395
bsS'secnames'
p1396
S'Cell[1].axon[102]'
p1397
sI88
I183
tp1398
a(F2.1799080494397804
S'Cell[3].dend[45] syn_ = new FastInhib(0.5)'
p1399
I3
(dp1400
g1381
F0.1
sg1382
F40.0
sg1383
I88
sg1384
g7
(g8
(I0
tp1401
g10
tp1402
Rp1403
(I1
(I3
tp1404
g1391
I00
S'.=\xcay\x8c\x83A@\x03/\xdf\x12\x82\xcbO@\xca\x0f\x06p\xe2\xe6P\xc0'
p1405
tp1406
bsg1396
S'Cell[1].axon[110]'
p1407
sI88
I183
tp1408
a(F2.1451109741977765
S'Cell[3].apic[11] syn_ = new FastInhib(0.5)'
p1409
I3
(dp1410
g1381
F0.8333333333333333
sg1382
F40.0
sg1383
I88
sg1384
g7
(g8
(I0
tp1411
g10
tp1412
Rp1413
(I1
(I3
tp1414
g1391
I00
S'\xcaP\xc5\xb2Cj(\xc0\x10\xd6$\xac\x86\xcaH\xc0\xeb{:\xb3\xd6\xae\x0c\xc0'
p1415
tp1416
bsg1396
S'Cell[1].axon[157]'
p1417
sI88
I183
tp1418
a(F0.9672977544482975
S'Cell[0].apic[19] syn_ = new AmpaNmda(0.5)'
p1419
I0
(dp1420
g1381
F0.5
sg1382
F40.0
sg1383
I88
sg1384
g7
(g8
(I0
tp1421
g10
tp1422
Rp1423
(I1
(I3
tp1424
g1391
I00
S';%\x88\x86\x9f\xf9\x1e@\xf7(\xb6}\xf85^@l0\x9b\xb7\xc9\x1c\x1f\xc0'
p1425
tp1426
bsg1396
S'Cell[1].axon[193]'
p1427
sI88
I39
tp1428
a(F2.113360373170707
S'Cell[3].dend[7] syn_ = new FastInhib(0.166666666667)'
p1429
I3
(dp1430
g1381
F0.5
sg1382
F40.0
sg1383
I88
sg1384
g7
(g8
(I0
tp1431
g10
tp1432
Rp1433
(I1
(I3
tp1434
g1391
I00
S'\xb4\x08\xbb\x99-j#\xc08\xccb\xb7\x1f\x14A@\xef\x9d\xe1\x81\xf9M!@'
p1435
tp1436
bsg1396
S'Cell[1].axon[284]'
p1437
sI88
I183
tp1438
a(F1.5222944796961493
S'Cell[2].apic[16] syn_ = new FastInhib(0.5)'
p1439
I2
(dp1440
g1381
F0.7222222222222223
sg1382
F40.0
sg1383
I88
sg1384
g7
(g8
(I0
tp1441
g10
tp1442
Rp1443
(I1
(I3
tp1444
g1391
I00
S'\xcdK:H\x8a\rE@t\xc0}+K(o\xc0hJ\x01\xfa\xf3\xff>@'
p1445
tp1446
bsg1396
S'Cell[1].axon[306]'
p1447
sI88
I135
tp1448
a(F1.647232907788967
S'Cell[0].dend[28] syn_ = new AmpaNmda(0.3)'
p1449
I0
(dp1450
g1381
F0.16666666666666666
sg1382
F40.0
sg1383
I136
sg1384
g7
(g8
(I0
tp1451
g10
tp1452
Rp1453
(I1
(I3
tp1454
g1391
I00
S'\xae\x1e/-W2/@\x84\x82\xabH-RM\xc0\x8c\x96\x0e#T\x8aI\xc0'
p1455
tp1456
bsg1396
S'Cell[2].axon[12]'
p1457
sI136
I39
tp1458
a(F2.43599549655021
S'Cell[3].dend[6] syn_ = new FastInhib(0.5)'
p1459
I3
(dp1460
g1381
F0.5
sg1382
F40.0
sg1383
I184
sg1384
g7
(g8
(I0
tp1461
g10
tp1462
Rp1463
(I1
(I3
tp1464
g1391
I00
S'\xe7x\x0e\\\xb4\xcf\x1f\xc0\x825M\xf8\x1ft;@V?\xc8\xb7\x89\x12 @'
p1465
tp1466
bsg1396
S'Cell[3].axon[18]'
p1467
sI184
I183
tp1468
a(F1.1860626979645732
S'Cell[3].apic[0] syn_ = new FastInhib(0.5)'
p1469
I3
(dp1470
S'seg'
p1471
F0.8333333333333335
sS'hostfrom'
p1472
F41.0
sS'gid'
p1473
I137
sS'coords'
p1474
g7
(g8
(I0
tp1475
g10
tp1476
Rp1477
(I1
(I3
tp1478
g14
(S'f8'
p1479
I0
I1
tp1480
Rp1481
(I3
S'<'
p1482
NNNI-1
I-1
I0
tp1483
bI00
S'\x87\x06\xc4\x9c\xc6S\x13\xc0\x90\x8a\xd7\xc8\xd5M$\xc0=]\xd1\xc9\x18\xe4\x07@'
p1484
tp1485
bsS'secnames'
p1486
S'Cell[2].axon[4]'
p1487
sI137
I183
tp1488
a(F2.180142680609509
S'Cell[0].apic[12] syn_ = new ExpSid(0.5)'
p1489
I0
(dp1490
g1471
F0.5
sg1472
F41.0
sg1473
I185
sg1474
g7
(g8
(I0
tp1491
g10
tp1492
Rp1493
(I1
(I3
tp1494
g1481
I00
S'\x97\xc3\xd9\xdb\xaa\xf0&@\xd6r\xa98\x90\x1aK@\x00\x00\x00\xc0\xcc\xcc2\xc0'
p1495
tp1496
bsg1486
S'Cell[3].axon[208]'
p1497
sI185
I39
tp1498
a(F2.0156828818663355
S'Cell[2].dend[7] syn_ = new FastInhib(0.833333333333)'
p1499
I2
(dp1500
g1471
F0.5
sg1472
F41.0
sg1473
I185
sg1474
g7
(g8
(I0
tp1501
g10
tp1502
Rp1503
(I1
(I3
tp1504
g1481
I00
S'\x1e\x99a(\xa1\xa4(\xc0\xaff\x1c{B>G@\x01\x00\x00\xc0\xf5\xe89\xc0'
p1505
tp1506
bsg1486
S'Cell[3].axon[239]'
p1507
sI185
I135
tp1508
a(F1.8720964045501614
S'Cell[3].dend[29] syn_ = new FastInhib(0.5)'
p1509
I3
(dp1510
g1471
F0.3571428571428571
sg1472
F41.0
sg1473
I89
sg1474
g7
(g8
(I0
tp1511
g10
tp1512
Rp1513
(I1
(I3
tp1514
g1481
I00
S'&\x1fz\\\x97nF\xc0\x16]\x8dQBSL@\xa1r;p\xc2\nT\xc0'
p1515
tp1516
bsg1486
S'Cell[1].axon[48]'
p1517
sI89
I183
tp1518
a(F2.3046818499849557
S'Cell[1].dend[10] syn_ = new FastInhib(0.5)'
p1519
I1
(dp1520
g1471
F0.8333333333333333
sg1472
F41.0
sg1473
I89
sg1474
g7
(g8
(I0
tp1521
g10
tp1522
Rp1523
(I1
(I3
tp1524
g1481
I00
S'\xc5\x11\xbb.\xf2#U@,\xdc\x19F\x8b\x84D@\xb6\x14\xa5+\xcd\x8b;@'
p1525
tp1526
bsg1486
S'Cell[1].axon[165]'
p1527
sI89
I87
tp1528
a(F2.4621932606978962
S'Cell[0].dend[28] syn_ = new ExpSid(0.3)'
p1529
I0
(dp1530
g1471
F0.07142857142857142
sg1472
F41.0
sg1473
I89
sg1474
g7
(g8
(I0
tp1531
g10
tp1532
Rp1533
(I1
(I3
tp1534
g1481
I00
S'M\x16`7$D.@m\x96y\xfff\xb5M\xc0V\xbdj\xd8%!J\xc0'
p1535
tp1536
bsg1486
S'Cell[1].axon[172]'
p1537
sI89
I39
tp1538
a(F2.2347430644590776
S'Cell[3].dend[55] syn_ = new FastInhib(0.5)'
p1539
I3
(dp1540
S'seg'
p1541
F0.22727272727272727
sS'hostfrom'
p1542
F42.0
sS'gid'
p1543
I90
sS'coords'
p1544
g7
(g8
(I0
tp1545
g10
tp1546
Rp1547
(I1
(I3
tp1548
g14
(S'f8'
p1549
I0
I1
tp1550
Rp1551
(I3
S'<'
p1552
NNNI-1
I-1
I0
tp1553
bI00
S'\xae\x8b\x00<\xcc\xec:\xc0y\xd4"\x90\xdbbA\xc0\xf5\x84\xcc\x058\x8dO@'
p1554
tp1555
bsS'secnames'
p1556
S'Cell[1].axon[53]'
p1557
sI90
I183
tp1558
a(F2.4259766896022166
S'Cell[0].dend[21] syn_ = new AmpaNmda(0.5)'
p1559
I0
(dp1560
g1541
F0.16666666666666666
sg1542
F42.0
sg1543
I90
sg1544
g7
(g8
(I0
tp1561
g10
tp1562
Rp1563
(I1
(I3
tp1564
g1551
I00
S'\x00\x00\x00@\nW5@\x00\x00\x00\xa0G\xe1J\xc0\xf6\xf0\xe1\xd5f}3@'
p1565
tp1566
bsg1556
S'Cell[1].axon[135]'
p1567
sI90
I39
tp1568
a(F2.2542348293404357
S'Cell[3].apic[2] syn_ = new FastInhib(0.5)'
p1569
I3
(dp1570
S'seg'
p1571
F0.8333333333333333
sS'hostfrom'
p1572
F43.0
sS'gid'
p1573
I91
sS'coords'
p1574
g7
(g8
(I0
tp1575
g10
tp1576
Rp1577
(I1
(I3
tp1578
g14
(S'f8'
p1579
I0
I1
tp1580
Rp1581
(I3
S'<'
p1582
NNNI-1
I-1
I0
tp1583
bI00
S'n\xf6\xa9\x97\x1a\x873@\xa3\x1b\xb9\xe7\xce\xfaB\xc0\x02\xaf=\x03\xfe\n\x1c@'
p1584
tp1585
bsS'secnames'
p1586
S'Cell[1].axon[197]'
p1587
sI91
I183
tp1588
a(F2.212163610202595
S'Cell[1].dend[9] syn_ = new FastInhib(0.166666666667)'
p1589
I1
(dp1590
g1571
F0.5
sg1572
F43.0
sg1573
I91
sg1574
g7
(g8
(I0
tp1591
g10
tp1592
Rp1593
(I1
(I3
tp1594
g1581
I00
S'v\xccc\xb3\xcd4L@\xc8@w#\x19\xd25@\xe4$n\x88"\x11\x1f\xc0'
p1595
tp1596
bsg1586
S'Cell[1].axon[254]'
p1597
sI91
I87
tp1598
a(F1.0360009091565618
S'Cell[0].apic[4] syn_ = new ExpSid(0.5)'
p1599
I0
(dp1600
g1571
F0.5
sg1572
F43.0
sg1573
I187
sg1574
g7
(g8
(I0
tp1601
g10
tp1602
Rp1603
(I1
(I3
tp1604
g1581
I00
S'\x00\x00\x00`f&4@\x00\x00\x00`f&>@\x00\x00\x00 \xaeG\x1d\xc0'
p1605
tp1606
bsg1586
S'Cell[3].soma[0]'
p1607
sI187
I39
tp1608
a(F2.4502606930724493
S'Cell[0].apic[1] syn_ = new AmpaNmda(0.5)'
p1609
I0
(dp1610
S'seg'
p1611
F0.5
sS'hostfrom'
p1612
F44.0
sS'gid'
p1613
I188
sS'coords'
p1614
g7
(g8
(I0
tp1615
g10
tp1616
Rp1617
(I1
(I3
tp1618
g14
(S'f8'
p1619
I0
I1
tp1620
Rp1621
(I3
S'<'
p1622
NNNI-1
I-1
I0
tp1623
bI00
S'\xd5;=\xf7\xf92 \xc0\xed#*\xe14\x0b-@\xe6O\xd2\x90x\x0f2@'
p1624
tp1625
bsS'secnames'
p1626
S'Cell[3].axon[215]'
p1627
sI188
I39
tp1628
a(F1.9050403793274546
S'Cell[2].dend[18] syn_ = new FastInhib(0.833333333333)'
p1629
I2
(dp1630
S'seg'
p1631
F0.5
sS'hostfrom'
p1632
F45.0
sS'gid'
p1633
I141
sS'coords'
p1634
g7
(g8
(I0
tp1635
g10
tp1636
Rp1637
(I1
(I3
tp1638
g14
(S'f8'
p1639
I0
I1
tp1640
Rp1641
(I3
S'<'
p1642
NNNI-1
I-1
I0
tp1643
bI00
S'\xb4\x0f\x04 \xdb,S@\xa2S\x0fj\x9b\x8aR\xc0\xc4\xc9\x97#\xa4f)@'
p1644
tp1645
bsS'secnames'
p1646
S'Cell[2].axon[59]'
p1647
sI141
I135
tp1648
a(F1.5778990281537326
S'Cell[1].apic[2] syn_ = new FastInhib(0.166666666667)'
p1649
I1
(dp1650
g1631
F0.5
sg1632
F45.0
sg1633
I141
sg1634
g7
(g8
(I0
tp1651
g10
tp1652
Rp1653
(I1
(I3
tp1654
g1641
I00
S'1f\xd1C\x8f\x0fA@4\x13\xd7\xe8\xeew>\xc0\xec\xf8)\xd6\xf1;C\xc0'
p1655
tp1656
bsg1646
S'Cell[2].axon[509]'
p1657
sI141
I87
tp1658
a(F2.480482360216342
S'Cell[0].apic[12] syn_ = new ExpSid(0.5)'
p1659
I0
(dp1660
g1631
F0.5
sg1632
F45.0
sg1633
I93
sg1634
g7
(g8
(I0
tp1661
g10
tp1662
Rp1663
(I1
(I3
tp1664
g1641
I00
S',\xa1W\x92\xe7\xb2&@\xbe\xf1\x87\xa8\x80\x99J@\xf3K\xbb\xcb\xa6\xbf3\xc0'
p1665
tp1666
bsg1646
S'Cell[1].axon[0]'
p1667
sI93
I39
tp1668
a(F1.2351572841224814
S'Cell[0].apic[15] syn_ = new ExpSid(0.166666666667)'
p1669
I0
(dp1670
g1631
F0.5
sg1632
F45.0
sg1633
I93
sg1634
g7
(g8
(I0
tp1671
g10
tp1672
Rp1673
(I1
(I3
tp1674
g1641
I00
S'\x00\x00\x00\x00\xd7c1@\x00\x00\x00P\xb8VT@\x00\x00\x00p=J*\xc0'
p1675
tp1676
bsg1646
S'Cell[1].axon[44]'
p1677
sI93
I39
tp1678
a(F1.3383858389400713
S'Cell[3].dend[41] syn_ = new FastInhib(0.5)'
p1679
I3
(dp1680
S'seg'
p1681
F0.16666666666666666
sS'hostfrom'
p1682
F46.0
sS'gid'
p1683
I94
sS'coords'
p1684
g7
(g8
(I0
tp1685
g10
tp1686
Rp1687
(I1
(I3
tp1688
g14
(S'f8'
p1689
I0
I1
tp1690
Rp1691
(I3
S'<'
p1692
NNNI-1
I-1
I0
tp1693
bI00
S'?\x97,\x1fX\xfd%@#\xcezn+{=@\x06\x88\xf9g\xf1\x83A\xc0'
p1694
tp1695
bsS'secnames'
p1696
S'Cell[1].axon[240]'
p1697
sI94
I183
tp1698
a(F1.085761533021347
S'Cell[0].apic[4] syn_ = new ExpSid(0.5)'
p1699
I0
(dp1700
S'seg'
p1701
F0.5
sS'hostfrom'
p1702
F47.0
sS'gid'
p1703
I95
sS'coords'
p1704
g7
(g8
(I0
tp1705
g10
tp1706
Rp1707
(I1
(I3
tp1708
g14
(S'f8'
p1709
I0
I1
tp1710
Rp1711
(I3
S'<'
p1712
NNNI-1
I-1
I0
tp1713
bI00
S'i\xf6\x8b\xb7\xbb\x924@@\x02"\xf7\x14\\=@i\xb43S\xaf\x8c!\xc0'
p1714
tp1715
bsS'secnames'
p1716
S'Cell[1].axon[169]'
p1717
sI95
I39
tp1718
a(F1.4300046502553128
S'Cell[0].apic[3] syn_ = new ExpSid(0.5)'
p1719
I0
(dp1720
g1701
F0.8333333333333333
sg1702
F47.0
sg1703
I95
sg1704
g7
(g8
(I0
tp1721
g10
tp1722
Rp1723
(I1
(I3
tp1724
g1711
I00
S'0;\x97\x12\x96\x9d.@\x9cm\x8d\xe5i\xaa;@\x0f\x12\xe5\x7f\x92VC\xc0'
p1725
tp1726
bsg1716
S'Cell[1].axon[220]'
p1727
sI95
I39
tp1728
a(F1.0430731112244096
S'Cell[0].apic[8] syn_ = new ExpSid(0.5)'
p1729
I0
(dp1730
g1701
F0.5
sg1702
F47.0
sg1703
I143
sg1704
g7
(g8
(I0
tp1731
g10
tp1732
Rp1733
(I1
(I3
tp1734
g1711
I00
S'\xc8<\x91SE\xec.@\xa4\xd0yLz\xe7C@\xf5\\\x7f!\xd2X+\xc0'
p1735
tp1736
bsg1716
S'Cell[2].axon[199]'
p1737
sI143
I39
tp1738
a(F1.8933909884670004
S'Cell[0].apic[9] syn_ = new ExpSid(0.5)'
p1739
I0
(dp1740
g1701
F0.16666666666666666
sg1702
F47.0
sg1703
I143
sg1704
g7
(g8
(I0
tp1741
g10
tp1742
Rp1743
(I1
(I3
tp1744
g1711
I00
S'0\xd6\xaf\xe29e<\xc0\xc4\xb0\xea\xb6%\xd0F@\xdc\x0b\x8d\xc3\x07\x031\xc0'
p1745
tp1746
bsg1716
S'Cell[2].axon[228]'
p1747
sI143
I39
tp1748
a(F2.1439527228163224
S'Cell[2].dend[7] syn_ = new FastInhib(0.833333333333)'
p1749
I2
(dp1750
g1701
F0.5
sg1702
F47.0
sg1703
I143
sg1704
g7
(g8
(I0
tp1751
g10
tp1752
Rp1753
(I1
(I3
tp1754
g1711
I00
S'\x00\x00\x00\xc033%\xc0\x00\x00\x00\xc0\xcc\xccG@\x00\x00\x00\x80\x14\xee7\xc0'
p1755
tp1756
bsg1716
S'Cell[2].axon[229]'
p1757
sI143
I135
tp1758
a(F1.9817390371061505
S'Cell[3].dend[40] syn_ = new FastInhib(0.5)'
p1759
I3
(dp1760
g1701
F0.30000000000000004
sg1702
F47.0
sg1703
I143
sg1704
g7
(g8
(I0
tp1761
g10
tp1762
Rp1763
(I1
(I3
tp1764
g1711
I00
S'\xc6\x01\xa4\xe8l\xff#@:\xfe[\x97\xe4\xf82@\xefDOl\x9b\xc0B\xc0'
p1765
tp1766
bsg1716
S'Cell[2].axon[233]'
p1767
sI143
I183
tp1768
a.