(lp0
(F1.018822811995623
S'Cell[0].dend[21] syn_ = new ExpSid(0.5)'
p1
I0
(dp2
S'seg'
p3
F0.8333333333333333
sS'hostfrom'
p4
F1.0
sS'gid'
p5
I145
sS'coords'
p6
cnumpy.core.multiarray
_reconstruct
p7
(cnumpy
ndarray
p8
(I0
tp9
S'b'
p10
tp11
Rp12
(I1
(I3
tp13
cnumpy
dtype
p14
(S'f8'
p15
I0
I1
tp16
Rp17
(I3
S'<'
p18
NNNI-1
I-1
I0
tp19
bI00
S'\x81\x93\x1eo\x81\xd2O\xc0\xdc\x08RK\x85\x82#@*uJ\xa8\x19\x9dC\xc0'
p20
tp21
bsS'secnames'
p22
S'Cell[3].axon[23]'
p23
sI145
I37
tp24
a(F1.1512588481573938
S'Cell[0].dend[26] syn_ = new ExpSid(0.5)'
p25
I0
(dp26
g3
F0.16666666666666666
sg4
F1.0
sg5
I145
sg6
g7
(g8
(I0
tp27
g10
tp28
Rp29
(I1
(I3
tp30
g17
I00
S'\xdd\x11\xa2\xaf\xa5\x88d\xc0\x04\x0b\x9e\xc5d_:\xc0\xa2\x1f\xf0\xcf7\x92A\xc0'
p31
tp32
bsg22
S'Cell[3].axon[186]'
p33
sI145
I37
tp34
a(F0.6026007453872486
S'Cell[0].dend[27] syn_ = new ExpSid(0.5)'
p35
I0
g26
I145
I37
tp36
a(F1.8758992226100004
S'Cell[1].dend[48] syn_ = new FastInhib(0.833333333333)'
p37
I1
(dp38
g3
F0.5
sg4
F1.0
sg5
I97
sg6
g7
(g8
(I0
tp39
g10
tp40
Rp41
(I1
(I3
tp42
g17
I00
S'\xda\xb8A\xf4\x7f\x91Q@\x18\xe6Q\xdcNsL@\xb5\x11\x88\x88\xe7\xa6E\xc0'
p43
tp44
bsg22
S'Cell[2].axon[74]'
p45
sI97
I85
tp46
a(F0.47186975120519054
S'Cell[1].dend[35] syn_ = new FastInhib(0.1)'
p47
I1
(dp48
g3
F0.5
sg4
F1.0
sg5
I97
sg6
g7
(g8
(I0
tp49
g10
tp50
Rp51
(I1
(I3
tp52
g17
I00
S'\xa6Hk\xc8\xef\x8d@@\x085vx\x86`\xf4\xbfH\xaf"=\xf7e\x05@'
p53
tp54
bsg22
S'Cell[2].axon[105]'
p55
sI97
I85
tp56
a(F1.8531779650900722
S'Cell[2].dend[9] syn_ = new FastInhib(0.1)'
p57
I2
(dp58
S'seg'
p59
F0.5
sS'hostfrom'
p60
F2.0
sS'gid'
p61
I98
sS'coords'
p62
g7
(g8
(I0
tp63
g10
tp64
Rp65
(I1
(I3
tp66
g14
(S'f8'
p67
I0
I1
tp68
Rp69
(I3
S'<'
p70
NNNI-1
I-1
I0
tp71
bI00
S'\x04\x83Ez\x03;@\xc0^\xbb\xc7IT\xc1$@\x00\x00\x00\x00)\\\x1d@'
p72
tp73
bsS'secnames'
p74
S'Cell[2].axon[20]'
p75
sI98
I133
tp76
a(F1.2258477347946073
S'Cell[0].apic[11] syn_ = new AmpaNmda(0.1)'
p77
I0
(dp78
g59
F0.16666666666666666
sg60
F2.0
sg61
I98
sg62
g7
(g8
(I0
tp79
g10
tp80
Rp81
(I1
(I3
tp82
g69
I00
S'\xd5\x1ay\xf2rp\x10@\x9caO\xb6\xadQ[@\xa7\xf1\xa0\xea,\xa8\xf2\xbf'
p83
tp84
bsg74
S'Cell[2].axon[67]'
p85
sI98
I37
tp86
a(F2.0717254854847384
S'Cell[1].dend[56] syn_ = new FastInhib(0.5)'
p87
I1
(dp88
g59
F0.8333333333333333
sg60
F2.0
sg61
I98
sg62
g7
(g8
(I0
tp89
g10
tp90
Rp91
(I1
(I3
tp92
g69
I00
S'\xe6Z\x0f8\xd7SJ@)aY\x91\xcf\xa6U@\x92\xd8tV\xe1P:\xc0'
p93
tp94
bsg74
S'Cell[2].axon[71]'
p95
sI98
I85
tp96
a(F2.1216499983900925
S'Cell[0].dend[48] syn_ = new AmpaNmda(0.833333333333)'
p97
I0
(dp98
g59
F0.5
sg60
F2.0
sg61
I98
sg62
g7
(g8
(I0
tp99
g10
tp100
Rp101
(I1
(I3
tp102
g69
I00
S'\x96\x8e\xe7O\xf9I\\@\xef\x1fw\x0c\xcek\x12\xc0\x85\x8eA\x93\xf0\xd2\x04\xc0'
p103
tp104
bsg74
S'Cell[2].axon[157]'
p105
sI98
I37
tp106
a(F2.3658446175418266
S'Cell[0].dend[3] syn_ = new AmpaNmda(0.5)'
p107
I0
(dp108
g59
F0.8333333333333333
sg60
F2.0
sg61
I98
sg62
g7
(g8
(I0
tp109
g10
tp110
Rp111
(I1
(I3
tp112
g69
I00
S'l\x85\x9cd\xb5\x82.\xc0~\x8d\x02\xf2\x97\xb0,@5I\x88\xdf\x7fM7\xc0'
p113
tp114
bsg74
S'Cell[2].axon[304]'
p115
sI98
I37
tp116
a(F1.7232291143713825
S'Cell[1].dend[40] syn_ = new FastInhib(0.5)'
p117
I1
(dp118
g59
F0.8333333333333333
sg60
F2.0
sg61
I98
sg62
g7
(g8
(I0
tp119
g10
tp120
Rp121
(I1
(I3
tp122
g69
I00
S'\xea\x8b?b\x93\x9a;@\x14w \xc3\xa1,P@\x00\x00\x00 \xaeG\x05\xc0'
p123
tp124
bsg74
S'Cell[2].axon[400]'
p125
sI98
I85
tp126
a(F1.8722866081986782
S'Cell[2].dend[5] syn_ = new FastInhib(0.5)'
p127
I2
(dp128
g59
F0.5
sg60
F2.0
sg61
I98
sg62
g7
(g8
(I0
tp129
g10
tp130
Rp131
(I1
(I3
tp132
g69
I00
S'X_T\x01\x13,6\xc0\x9e\xb2\x026\x9a\x8c\n\xc0\xd8\xa3q\x13[4\x04@'
p133
tp134
bsg74
S'Cell[2].axon[470]'
p135
sI98
I133
tp136
a(F2.4692480255168645
S'Cell[0].dend[3] syn_ = new AmpaNmda(0.5)'
p137
I0
(dp138
g59
F0.5
sg60
F2.0
sg61
I98
sg62
g7
(g8
(I0
tp139
g10
tp140
Rp141
(I1
(I3
tp142
g69
I00
S'\x82\x88hc\x99\xc31\xc0Ws\x02_\r\xc3-@\x90\xa4\xb54\xe1\xb16\xc0'
p143
tp144
bsg74
S'Cell[2].axon[474]'
p145
sI98
I37
tp146
a(F2.3971820194946747
S'Cell[0].dend[2] syn_ = new AmpaNmda(0.3)'
p147
I0
(dp148
g59
F0.8333333333333333
sg60
F2.0
sg61
I146
sg62
g7
(g8
(I0
tp149
g10
tp150
Rp151
(I1
(I3
tp152
g69
I00
S"\x97q0\xb0\xee.=\xc0R\xed\xd1\xcaD\x0fV\xc0\x00\x00\x00@33'@"
p153
tp154
bsg74
S'Cell[3].axon[28]'
p155
sI146
I37
tp156
a(F1.8003605059042003
S'Cell[1].dend[22] syn_ = new FastInhib(0.611111111111)'
p157
I1
(dp158
g59
F0.16666666666666666
sg60
F2.0
sg61
I146
sg62
g7
(g8
(I0
tp159
g10
tp160
Rp161
(I1
(I3
tp162
g69
I00
S'\xd0\xfeKdL<\x10@v\xdfL\xf3 \xf0b\xc0\xccy\xec\x81\xe5\xf07@'
p163
tp164
bsg74
S'Cell[3].axon[119]'
p165
sI146
I85
tp166
a(F1.3810869301232156
S'Cell[0].apic[9] syn_ = new AmpaNmda(0.5)'
p167
I0
(dp168
g59
F0.16666666666666666
sg60
F2.0
sg61
I146
sg62
g7
(g8
(I0
tp169
g10
tp170
Rp171
(I1
(I3
tp172
g69
I00
S"\xe6\x05\x86\xd4\x85\xba\x1b\xc0\xcfwB';\xd6V@By;\x91]Q0\xc0"
p173
tp174
bsg74
S'Cell[3].axon[202]'
p175
sI146
I37
tp176
a(F1.8531779650900722
S'Cell[2].dend[9] syn_ = new FastInhib(0.1)'
p177
I2
(dp178
S'seg'
p179
F0.5
sS'hostfrom'
p180
F3.0
sS'gid'
p181
I99
sS'coords'
p182
g7
(g8
(I0
tp183
g10
tp184
Rp185
(I1
(I3
tp186
g14
(S'f8'
p187
I0
I1
tp188
Rp189
(I3
S'<'
p190
NNNI-1
I-1
I0
tp191
bI00
S'\x04\x83Ez\x03;@\xc0^\xbb\xc7IT\xc1$@\x00\x00\x00\x00)\\\x1d@'
p192
tp193
bsS'secnames'
p194
S'Cell[2].axon[20]'
p195
sI99
I133
tp196
a(F1.2258477347946073
S'Cell[0].apic[11] syn_ = new ExpSid(0.1)'
p197
I0
(dp198
g179
F0.16666666666666666
sg180
F3.0
sg181
I99
sg182
g7
(g8
(I0
tp199
g10
tp200
Rp201
(I1
(I3
tp202
g189
I00
S'\xd5\x1ay\xf2rp\x10@\x9caO\xb6\xadQ[@\xa7\xf1\xa0\xea,\xa8\xf2\xbf'
p203
tp204
bsg194
S'Cell[2].axon[67]'
p205
sI99
I37
tp206
a(F2.0717254854847384
S'Cell[1].dend[56] syn_ = new FastInhib(0.5)'
p207
I1
(dp208
g179
F0.8333333333333333
sg180
F3.0
sg181
I99
sg182
g7
(g8
(I0
tp209
g10
tp210
Rp211
(I1
(I3
tp212
g189
I00
S'\xe6Z\x0f8\xd7SJ@)aY\x91\xcf\xa6U@\x92\xd8tV\xe1P:\xc0'
p213
tp214
bsg194
S'Cell[2].axon[71]'
p215
sI99
I85
tp216
a(F2.1216499983900925
S'Cell[0].dend[48] syn_ = new ExpSid(0.833333333333)'
p217
I0
(dp218
g179
F0.5
sg180
F3.0
sg181
I99
sg182
g7
(g8
(I0
tp219
g10
tp220
Rp221
(I1
(I3
tp222
g189
I00
S'\x96\x8e\xe7O\xf9I\\@\xef\x1fw\x0c\xcek\x12\xc0\x85\x8eA\x93\xf0\xd2\x04\xc0'
p223
tp224
bsg194
S'Cell[2].axon[157]'
p225
sI99
I37
tp226
a(F2.3658446175418266
S'Cell[0].dend[3] syn_ = new ExpSid(0.5)'
p227
I0
(dp228
g179
F0.8333333333333333
sg180
F3.0
sg181
I99
sg182
g7
(g8
(I0
tp229
g10
tp230
Rp231
(I1
(I3
tp232
g189
I00
S'l\x85\x9cd\xb5\x82.\xc0~\x8d\x02\xf2\x97\xb0,@5I\x88\xdf\x7fM7\xc0'
p233
tp234
bsg194
S'Cell[2].axon[304]'
p235
sI99
I37
tp236
a(F1.7232291143713825
S'Cell[1].dend[40] syn_ = new FastInhib(0.5)'
p237
I1
(dp238
g179
F0.8333333333333333
sg180
F3.0
sg181
I99
sg182
g7
(g8
(I0
tp239
g10
tp240
Rp241
(I1
(I3
tp242
g189
I00
S'\xea\x8b?b\x93\x9a;@\x14w \xc3\xa1,P@\x00\x00\x00 \xaeG\x05\xc0'
p243
tp244
bsg194
S'Cell[2].axon[400]'
p245
sI99
I85
tp246
a(F1.8722866081986782
S'Cell[2].dend[5] syn_ = new FastInhib(0.5)'
p247
I2
(dp248
g179
F0.5
sg180
F3.0
sg181
I99
sg182
g7
(g8
(I0
tp249
g10
tp250
Rp251
(I1
(I3
tp252
g189
I00
S'X_T\x01\x13,6\xc0\x9e\xb2\x026\x9a\x8c\n\xc0\xd8\xa3q\x13[4\x04@'
p253
tp254
bsg194
S'Cell[2].axon[470]'
p255
sI99
I133
tp256
a(F2.4692480255168645
S'Cell[0].dend[3] syn_ = new ExpSid(0.5)'
p257
I0
(dp258
g179
F0.5
sg180
F3.0
sg181
I99
sg182
g7
(g8
(I0
tp259
g10
tp260
Rp261
(I1
(I3
tp262
g189
I00
S'\x82\x88hc\x99\xc31\xc0Ws\x02_\r\xc3-@\x90\xa4\xb54\xe1\xb16\xc0'
p263
tp264
bsg194
S'Cell[2].axon[474]'
p265
sI99
I37
tp266
a(F1.9331592871718357
S'Cell[1].dend[36] syn_ = new FastInhib(0.214285714286)'
p267
I1
(dp268
g179
F0.2777777777777778
sg180
F3.0
sg181
I51
sg182
g7
(g8
(I0
tp269
g10
tp270
Rp271
(I1
(I3
tp272
g189
I00
S'N\xc1&\xa1\xfe\xf1E@\x85\x9ciJ*\xaf\x12@\x00\x00\x00@\xe1\xba;\xc0'
p273
tp274
bsg194
S'Cell[1].axon[25]'
p275
sI51
I85
tp276
a(F2.314537301862991
S'Cell[0].dend[2] syn_ = new ExpSid(0.3)'
p277
I0
(dp278
g179
F0.7857142857142856
sg180
F3.0
sg181
I147
sg182
g7
(g8
(I0
tp279
g10
tp280
Rp281
(I1
(I3
tp282
g189
I00
S'\xfd\xa1\x88x\x03q:\xc0\xf2\x0e\xae^jaV\xc0\x94\xa2\\\x1f\x05\xfa,@'
p283
tp284
bsg194
S'Cell[3].axon[8]'
p285
sI147
I37
tp286
a(F1.5682340180426189
S'Cell[0].apic[66] syn_ = new ExpSid(0.5)'
p287
I0
(dp288
g179
F0.16666666666666666
sg180
F3.0
sg181
I147
sg182
g7
(g8
(I0
tp289
g10
tp290
Rp291
(I1
(I3
tp292
g189
I00
S'\xcdm\xa2H\x10\x05)\xc0H@\xb9\xf5\xe3\xfaT@*\x86\x83\x0cO\x8b\r\xc0'
p293
tp294
bsg194
S'Cell[3].axon[11]'
p295
sI147
I37
tp296
a(F2.034608610514825
S'Cell[3].dend[28] syn_ = new FastInhib(0.5)'
p297
I3
(dp298
S'seg'
p299
F0.1
sS'hostfrom'
p300
F4.0
sS'gid'
p301
I148
sS'coords'
p302
g7
(g8
(I0
tp303
g10
tp304
Rp305
(I1
(I3
tp306
g14
(S'f8'
p307
I0
I1
tp308
Rp309
(I3
S'<'
p310
NNNI-1
I-1
I0
tp311
bI00
S'\x86\x94\xc3\x14\x1e~I\xc0\xf5)\xd0j\x9b\xec\\\xc0\xd4]\x14V\x13J\xe5\xbf'
p312
tp313
bsS'secnames'
p314
S'Cell[3].axon[97]'
p315
sI148
I181
tp316
a(F1.4785777950524168
S'Cell[0].dend[47] syn_ = new AmpaNmda(0.5)'
p317
I0
(dp318
g299
F0.5
sg300
F4.0
sg301
I148
sg302
g7
(g8
(I0
tp319
g10
tp320
Rp321
(I1
(I3
tp322
g309
I00
S"K\x0f.\xfc\x1c\x9aK@y\x9f\xf6'\xea\x16\n\xc0\xd0\x9cb\xfdE\xd5\x1b\xc0"
p323
tp324
bsg314
S'Cell[3].axon[193]'
p325
sI148
I37
tp326
a(F2.060792582865083
S'Cell[1].dend[49] syn_ = new FastInhib(0.833333333333)'
p327
I1
(dp328
g299
F0.5
sg300
F4.0
sg301
I148
sg302
g7
(g8
(I0
tp329
g10
tp330
Rp331
(I1
(I3
tp332
g309
I00
S'\xb6\xd2s\x9b|\xd9T@\x12\xdb|,?\xf6P@\n\xe2\xad\x00\x19|V\xc0'
p333
tp334
bsg314
S'Cell[3].axon[196]'
p335
sI148
I85
tp336
a(F1.9119251018778713
S'Cell[1].dend[44] syn_ = new FastInhib(0.833333333333)'
p337
I1
(dp338
g299
F0.1
sg300
F4.0
sg301
I148
sg302
g7
(g8
(I0
tp339
g10
tp340
Rp341
(I1
(I3
tp342
g309
I00
S'\x8e%\xc2\x12S|D@<\x84\xca:&\xcbT@\\\xf6G\x94HDQ\xc0'
p343
tp344
bsg314
S'Cell[3].axon[257]'
p345
sI148
I85
tp346
a(F1.7462725310793152
S'Cell[1].dend[53] syn_ = new FastInhib(0.7)'
p347
I1
(dp348
g299
F0.16666666666666666
sg300
F4.0
sg301
I148
sg302
g7
(g8
(I0
tp349
g10
tp350
Rp351
(I1
(I3
tp352
g309
I00
S'[\xec-\x05\xff\x96I@\x8a\xb2\x82\xf8z\x89S@\x00\x00\x00\xc0\xf5\xa8D\xc0'
p353
tp354
bsg314
S'Cell[3].axon[276]'
p355
sI148
I85
tp356
a(F2.484354409291566
S'Cell[1].dend[4] syn_ = new FastInhib(0.5)'
p357
I1
(dp358
g299
F0.5
sg300
F4.0
sg301
I148
sg302
g7
(g8
(I0
tp359
g10
tp360
Rp361
(I1
(I3
tp362
g309
I00
S'y\xd4\x12\n\xa6\x01A@\xf0\xef\x9f\x81F:;\xc0\x00\x00\x00\xc0\xcc\xcc\x1f@'
p363
tp364
bsg314
S'Cell[3].axon[337]'
p365
sI148
I85
tp366
a(F2.2560219519183726
S'Cell[1].dend[38] syn_ = new FastInhib(0.928571428571)'
p367
I1
(dp368
g299
F0.9444444444444446
sg300
F4.0
sg301
I100
sg302
g7
(g8
(I0
tp369
g10
tp370
Rp371
(I1
(I3
tp372
g309
I00
S'm\x00\x95\x94!!S@\xa3\x8b\xdd\xc4Z\x13K\xc0\x01\x00\x00 \\\x8f+\xc0'
p373
tp374
bsg314
S'Cell[2].axon[10]'
p375
sI100
I85
tp376
a(F2.1968860039980815
S'Cell[3].dend[63] syn_ = new FastInhib(0.5)'
p377
I3
(dp378
S'seg'
p379
F0.22727272727272727
sS'hostfrom'
p380
F5.0
sS'gid'
p381
I5
sS'coords'
p382
g7
(g8
(I0
tp383
g10
tp384
Rp385
(I1
(I3
tp386
g14
(S'f8'
p387
I0
I1
tp388
Rp389
(I3
S'<'
p390
NNNI-1
I-1
I0
tp391
bI00
S"W\xf00'\xdc\xbcb@\xc8\xb3\x9bu\xd2p`@\xa4\xcd\x08B^\x7f \xc0"
p392
tp393
bsS'secnames'
p394
S'Cell[0].axon[50]'
p395
sI5
I181
tp396
a(F1.3048472882957418
S'Cell[0].dend[6] syn_ = new AmpaNmda(0.5)'
p397
I0
(dp398
S'seg'
p399
F0.5
sS'hostfrom'
p400
F6.0
sS'gid'
p401
I102
sS'coords'
p402
g7
(g8
(I0
tp403
g10
tp404
Rp405
(I1
(I3
tp406
g14
(S'f8'
p407
I0
I1
tp408
Rp409
(I3
S'<'
p410
NNNI-1
I-1
I0
tp411
bI00
S'\x00\x00\x00\x18\xae\xc7&\xc0\x00\x00\x00\x80=J3@\x00\x00\x00@\xe1z\x15@'
p412
tp413
bsS'secnames'
p414
S'Cell[2].soma[0]'
p415
sI102
I37
tp416
a(F2.4285493628893264
S'Cell[3].dend[10] syn_ = new FastInhib(0.3)'
p417
I3
(dp418
g399
F0.5
sg400
F6.0
sg401
I102
sg402
g7
(g8
(I0
tp419
g10
tp420
Rp421
(I1
(I3
tp422
g409
I00
S's\x9a\xae\xf8#\xd5"@KJ>\xccu\xdeE@\xe2vB\xd9\xaf\x174\xc0'
p423
tp424
bsg414
S'Cell[2].axon[21]'
p425
sI102
I181
tp426
a(F2.127808125193129
S'Cell[3].dend[32] syn_ = new FastInhib(0.5)'
p427
I3
(dp428
g399
F0.8333333333333333
sg400
F6.0
sg401
I102
sg402
g7
(g8
(I0
tp429
g10
tp430
Rp431
(I1
(I3
tp432
g409
I00
S'\\\xab"\xef\x0e\xabQ\xc0\xa5\xbd_\xf4>\xffd\xc0\xff\xff\xff?\n\xd7\x1c@'
p433
tp434
bsg414
S'Cell[2].axon[84]'
p435
sI102
I181
tp436
a(F2.3626756877653423
S'Cell[0].dend[35] syn_ = new ExpSid(0.166666666667)'
p437
I0
(dp438
S'seg'
p439
F0.5
sS'hostfrom'
p440
F7.0
sS'gid'
p441
I103
sS'coords'
p442
g7
(g8
(I0
tp443
g10
tp444
Rp445
(I1
(I3
tp446
g14
(S'f8'
p447
I0
I1
tp448
Rp449
(I3
S'<'
p450
NNNI-1
I-1
I0
tp451
bI00
S'\xa7d\x00\x97\x7f|A@V\xf4\xbbug\xb6\xf3?\x00\x00\x00\x00\xd7#&\xc0'
p452
tp453
bsS'secnames'
p454
S'Cell[2].axon[370]'
p455
sI103
I37
tp456
a(F2.067900209280163
S'Cell[0].dend[0] syn_ = new ExpSid(0.5)'
p457
I0
(dp458
g439
F0.8333333333333333
sg440
F7.0
sg441
I103
sg442
g7
(g8
(I0
tp459
g10
tp460
Rp461
(I1
(I3
tp462
g449
I00
S'.\xc3\xed\xa4\xb7a7\xc0\xc4@O(\\).\xc0\xe4\x87\xad\\uL\xdb?'
p463
tp464
bsg454
S'Cell[2].axon[444]'
p465
sI103
I37
tp466
a(F2.3345426012783705
S'Cell[2].dend[6] syn_ = new FastInhib(0.5)'
p467
I2
(dp468
g439
F0.5
sg440
F7.0
sg441
I151
sg442
g7
(g8
(I0
tp469
g10
tp470
Rp471
(I1
(I3
tp472
g449
I00
S'8\xdc\x9b~e\x82C\xc08\xdc\x9b\x9e\xea-@\xc0\x06X\xef\xed\x1e\xcd%@'
p473
tp474
bsg454
S'Cell[3].axon[82]'
p475
sI151
I133
tp476
a(F0.8468204873579824
S'Cell[0].apic[66] syn_ = new ExpSid(0.5)'
p477
I0
(dp478
g439
F0.5
sg440
F7.0
sg441
I151
sg442
g7
(g8
(I0
tp479
g10
tp480
Rp481
(I1
(I3
tp482
g449
I00
S't\x03\xe1\x8a\xad\xd0(\xc0\x00\x00\x00\xc0\xcc\x1cU@~\xa8\x89\xcb#\x0f\x11\xc0'
p483
tp484
bsg454
S'Cell[3].axon[91]'
p485
sI151
I37
tp486
a(F2.2753228536511108
S'Cell[1].dend[29] syn_ = new FastInhib(0.5)'
p487
I1
(dp488
g439
F0.5
sg440
F7.0
sg441
I151
sg442
g7
(g8
(I0
tp489
g10
tp490
Rp491
(I1
(I3
tp492
g449
I00
S'*m\xe9\xb7^Z3@\xb7a\x992\xfe6L\xc0&\xdd\x898\xd0\x06\x16@'
p493
tp494
bsg454
S'Cell[3].axon[115]'
p495
sI151
I85
tp496
a(F1.471460051004348
S'Cell[0].dend[4] syn_ = new ExpSid(0.166666666667)'
p497
I0
(dp498
g439
F0.49999999999999994
sg440
F7.0
sg441
I151
sg442
g7
(g8
(I0
tp499
g10
tp500
Rp501
(I1
(I3
tp502
g449
I00
S'\xc1ZG\xd7\xe8\x17:\xc0z\xdb\xeb\xfdVx8@\x00\x00\x00 \\\xcf<\xc0'
p503
tp504
bsg454
S'Cell[3].axon[253]'
p505
sI151
I37
tp506
a(F2.145373070641605
S'Cell[0].dend[5] syn_ = new AmpaNmda(0.833333333333)'
p507
I0
(dp508
S'seg'
p509
F0.16666666666666666
sS'hostfrom'
p510
F8.0
sS'gid'
p511
I152
sS'coords'
p512
g7
(g8
(I0
tp513
g10
tp514
Rp515
(I1
(I3
tp516
g14
(S'f8'
p517
I0
I1
tp518
Rp519
(I3
S'<'
p520
NNNI-1
I-1
I0
tp521
bI00
S'~U\x93\x9c\rhD\xc0\xc3\xfcU\xe7\x89\x01\x15\xc00L\xb7k\x0c8A\xc0'
p522
tp523
bsS'secnames'
p524
S'Cell[3].axon[521]'
p525
sI152
I37
tp526
a(F2.3700648686082264
S'Cell[0].apic[1] syn_ = new AmpaNmda(0.833333333333)'
p527
I0
(dp528
g509
F0.5
sg510
F8.0
sg511
I152
sg512
g7
(g8
(I0
tp529
g10
tp530
Rp531
(I1
(I3
tp532
g519
I00
S'\xc9\xa5\xc3\x8d\x7f\x0eP\xc0\x12\xeaH\xc77\xf8S@.\xa1\x07\x82\xca\xe6-\xc0'
p533
tp534
bsg524
S'Cell[3].axon[591]'
p535
sI152
I37
tp536
a(F1.0459667720846089
S'Cell[0].apic[0] syn_ = new AmpaNmda(0.5)'
p537
I0
(dp538
g509
F0.5
sg510
F8.0
sg511
I104
sg512
g7
(g8
(I0
tp539
g10
tp540
Rp541
(I1
(I3
tp542
g519
I00
S'\xee\x9a\xa4\x84\xdb{\n\xc0\xa3\xf2&\xe7\xa1[G@\x82\x17\x9a\xe7\xc9\x865\xc0'
p543
tp544
bsg524
S'Cell[2].axon[342]'
p545
sI104
I37
tp546
a(F1.3129061827998239
S'Cell[0].apic[24] syn_ = new AmpaNmda(0.5)'
p547
I0
(dp548
g509
F0.7
sg510
F8.0
sg511
I104
sg512
g7
(g8
(I0
tp549
g10
tp550
Rp551
(I1
(I3
tp552
g519
I00
S'\xe3\xf8\t\xf8\xbe\x868@\t\x12\x89\xb7\x83\xf5d@Pv-\xb5\xcb\xf8F\xc0'
p553
tp554
bsg524
S'Cell[2].axon[403]'
p555
sI104
I37
tp556
a(F1.4202448024679724
S'Cell[0].dend[20] syn_ = new ExpSid(0.166666666667)'
p557
I0
(dp558
S'seg'
p559
F0.5
sS'hostfrom'
p560
F9.0
sS'gid'
p561
I9
sS'coords'
p562
g7
(g8
(I0
tp563
g10
tp564
Rp565
(I1
(I3
tp566
g14
(S'f8'
p567
I0
I1
tp568
Rp569
(I3
S'<'
p570
NNNI-1
I-1
I0
tp571
bI00
S'\x00\x00\x00\xe8z\xd42\xc0\x00\x00\x00\xe0\xa3p\x1a@\x00\x00\x00\xe0\xa3\xf04\xc0'
p572
tp573
bsS'secnames'
p574
S'Cell[0].soma[0]'
p575
sI9
I37
tp576
a(F2.391134754385761
S'Cell[3].dend[4] syn_ = new FastInhib(0.5)'
p577
I3
(dp578
S'seg'
p579
F0.5
sS'hostfrom'
p580
F10.0
sS'gid'
p581
I10
sS'coords'
p582
g7
(g8
(I0
tp583
g10
tp584
Rp585
(I1
(I3
tp586
g14
(S'f8'
p587
I0
I1
tp588
Rp589
(I3
S'<'
p590
NNNI-1
I-1
I0
tp591
bI00
S"Y\xdaM\xe9h\x947@\x93\xc0U\x17wbS@i\xa0\xea\xbeEI'@"
p592
tp593
bsS'secnames'
p594
S'Cell[0].axon[1]'
p595
sI10
I181
tp596
a(F1.7020871300974802
S'Cell[2].dend[23] syn_ = new FastInhib(0.5)'
p597
I2
(dp598
g579
F0.16666666666666666
sg580
F10.0
sg581
I154
sg582
g7
(g8
(I0
tp599
g10
tp600
Rp601
(I1
(I3
tp602
g589
I00
S'\xfc\xc49\x83\x04\xc8\x17@\x06h\xefM\x8buS@\n\x14\\\xc3\xcb\xf96@'
p603
tp604
bsg594
S'Cell[3].axon[25]'
p605
sI154
I133
tp606
a(F2.245923940396029
S'Cell[1].dend[6] syn_ = new FastInhib(0.5)'
p607
I1
(dp608
S'seg'
p609
F0.6538461538461537
sS'hostfrom'
p610
F11.0
sS'gid'
p611
I155
sS'coords'
p612
g7
(g8
(I0
tp613
g10
tp614
Rp615
(I1
(I3
tp616
g14
(S'f8'
p617
I0
I1
tp618
Rp619
(I3
S'<'
p620
NNNI-1
I-1
I0
tp621
bI00
S'8:\x08\xdc\xe0~G@\x9e\xc1v\xc5\xac\xfdb\xc0\x00\x00\x00@3\xb33@'
p622
tp623
bsS'secnames'
p624
S'Cell[3].axon[188]'
p625
sI155
I85
tp626
a(F1.9459260672616818
S'Cell[0].dend[0] syn_ = new AmpaNmda(0.166666666667)'
p627
I0
(dp628
S'seg'
p629
F0.5
sS'hostfrom'
p630
F12.0
sS'gid'
p631
I108
sS'coords'
p632
g7
(g8
(I0
tp633
g10
tp634
Rp635
(I1
(I3
tp636
g14
(S'f8'
p637
I0
I1
tp638
Rp639
(I3
S'<'
p640
NNNI-1
I-1
I0
tp641
bI00
S'\x00\x00\x00\x80\xebQ0\xc0\x00\x00\x00 \xaeG\x14@\x00\x00\x00\xe0\xa3p\x13@'
p642
tp643
bsS'secnames'
p644
S'Cell[2].soma[0]'
p645
sI108
I37
tp646
a(F1.6801496258846733
S'Cell[0].dend[40] syn_ = new AmpaNmda(0.5)'
p647
I0
(dp648
g629
F0.16666666666666666
sg630
F12.0
sg631
I108
sg632
g7
(g8
(I0
tp649
g10
tp650
Rp651
(I1
(I3
tp652
g639
I00
S'\xb4\xd9\xc4\xe4\x94\xd4:@\x90>G\xd4\xab\xb4-\xc0\x00\x00\x00`\x8f\xc2,\xc0'
p653
tp654
bsg644
S'Cell[2].axon[21]'
p655
sI108
I37
tp656
a(F1.2568266112925386
S'Cell[0].apic[67] syn_ = new ExpSid(0.833333333333)'
p657
I0
(dp658
S'seg'
p659
F0.1
sS'hostfrom'
p660
F13.0
sS'gid'
p661
I109
sS'coords'
p662
g7
(g8
(I0
tp663
g10
tp664
Rp665
(I1
(I3
tp666
g14
(S'f8'
p667
I0
I1
tp668
Rp669
(I3
S'<'
p670
NNNI-1
I-1
I0
tp671
bI00
S"\x073\x94\xff\xa4^%@\xec\xe3\xde;\xcdUS@\xa7\xd0'\xb8\x08}(@"
p672
tp673
bsS'secnames'
p674
S'Cell[2].axon[4]'
p675
sI109
I37
tp676
a(F2.1789755680039122
S'Cell[2].dend[19] syn_ = new FastInhib(0.5)'
p677
I2
(dp678
g659
F0.5
sg660
F13.0
sg661
I109
sg662
g7
(g8
(I0
tp679
g10
tp680
Rp681
(I1
(I3
tp682
g669
I00
S'U\xbf]\x911\xc6%\xc0\xeb\xb7+^K\x04?@\x00\x00\x00 \xaeG-@'
p683
tp684
bsg674
S'Cell[2].axon[240]'
p685
sI109
I133
tp686
a(F1.098593157426003
S'Cell[0].dend[37] syn_ = new ExpSid(0.833333333333)'
p687
I0
(dp688
g659
F0.5
sg660
F13.0
sg661
I13
sg662
g7
(g8
(I0
tp689
g10
tp690
Rp691
(I1
(I3
tp692
g669
I00
S'\x00\x00\x00`\x8f\x02M@\x00\x00\x00 \xaeG8\xc0\x00\x00\x00`\x8f\xc2\x18\xc0'
p693
tp694
bsg674
S'Cell[0].soma[0]'
p695
sI13
I37
tp696
a(F2.2545736083193932
S'Cell[3].dend[8] syn_ = new FastInhib(0.5)'
p697
I3
(dp698
S'seg'
p699
F0.5
sS'hostfrom'
p700
F14.0
sS'gid'
p701
I110
sS'coords'
p702
g7
(g8
(I0
tp703
g10
tp704
Rp705
(I1
(I3
tp706
g14
(S'f8'
p707
I0
I1
tp708
Rp709
(I3
S'<'
p710
NNNI-1
I-1
I0
tp711
bI00
S'\xd8w\x07"\xcb\x97F@"\x12\xfd\xa8!M8@\x1c1\xd1\xe6\x9cB4@'
p712
tp713
bsS'secnames'
p714
S'Cell[2].axon[73]'
p715
sI110
I181
tp716
a(F2.106828183384387
S'Cell[3].dend[69] syn_ = new FastInhib(0.5)'
p717
I3
(dp718
S'seg'
p719
F0.5
sS'hostfrom'
p720
F15.0
sS'gid'
p721
I111
sS'coords'
p722
g7
(g8
(I0
tp723
g10
tp724
Rp725
(I1
(I3
tp726
g14
(S'f8'
p727
I0
I1
tp728
Rp729
(I3
S'<'
p730
NNNI-1
I-1
I0
tp731
bI00
S'.\xd5\xb9\xaa\x8b\x94<@\xa5\xfb\xbc\xc4f\xb5b@\x90\x97\xdc\xc5k,D\xc0'
p732
tp733
bsS'secnames'
p734
S'Cell[2].axon[12]'
p735
sI111
I181
tp736
a(F2.133259289716059
S'Cell[1].dend[39] syn_ = new FastInhib(0.5)'
p737
I1
(dp738
g719
F0.16666666666666666
sg720
F15.0
sg721
I111
sg722
g7
(g8
(I0
tp739
g10
tp740
Rp741
(I1
(I3
tp742
g729
I00
S'\xb91\x02Vh\x065@\xe8\x99+\x1b[%K@8\xf5Y\xa4\xf7\x18\x0e\xc0'
p743
tp744
bsg734
S'Cell[2].axon[158]'
p745
sI111
I85
tp746
a(F0.45674093921502984
S'Cell[0].apic[15] syn_ = new ExpSid(0.5)'
p747
I0
(dp748
g719
F0.30000000000000004
sg720
F15.0
sg721
I159
sg722
g7
(g8
(I0
tp749
g10
tp750
Rp751
(I1
(I3
tp752
g729
I00
S'\xd4G\xed\x7f\x7f\x98A@6\xa3,\x82Y\x1db@\x00\x00\x00\x00)\\1\xc0'
p753
tp754
bsg734
S'Cell[3].axon[23]'
p755
sI159
I37
tp756
a(F1.2694444510407832
S'Cell[1].dend[58] syn_ = new FastInhib(0.833333333333)'
p757
I1
(dp758
g719
F0.16666666666666666
sg720
F15.0
sg721
I159
sg722
g7
(g8
(I0
tp759
g10
tp760
Rp761
(I1
(I3
tp762
g729
I00
S'0\x00\x0c\xee5\x1c:\xc0`K\x8fV\xe9ZR@\r\x16\xe6\x89\xa1\x96K@'
p763
tp764
bsg734
S'Cell[3].axon[95]'
p765
sI159
I85
tp766
a(F2.2989199085228176
S'Cell[2].dend[22] syn_ = new FastInhib(0.5)'
p767
I2
(dp768
g719
F0.5
sg720
F15.0
sg721
I159
sg722
g7
(g8
(I0
tp769
g10
tp770
Rp771
(I1
(I3
tp772
g729
I00
S'\x16\xca\xa1\xd0\x8d\xec\x03\xc0\xe8\xa0+\xfd\x88\x18E@\xf9\xaan\x1e\x99\x81>@'
p773
tp774
bsg734
S'Cell[3].axon[288]'
p775
sI159
I133
tp776
a(F2.359187248828285
S'Cell[2].dend[28] syn_ = new FastInhib(0.833333333333)'
p777
I2
(dp778
g719
F0.30000000000000004
sg720
F15.0
sg721
I159
sg722
g7
(g8
(I0
tp779
g10
tp780
Rp781
(I1
(I3
tp782
g729
I00
S'+=N\xd8\xf7\r7\xc0\x11\xb5\x06\xa0\xcf\xf9Z@\x9caWd\x11\xd2%@'
p783
tp784
bsg734
S'Cell[3].axon[337]'
p785
sI159
I133
tp786
a(F2.158480573763125
S'Cell[1].dend[22] syn_ = new FastInhib(0.833333333333)'
p787
I1
(dp788
g719
F0.30000000000000004
sg720
F15.0
sg721
I15
sg722
g7
(g8
(I0
tp789
g10
tp790
Rp791
(I1
(I3
tp792
g729
I00
S'Z\xde\xdb\x04PK\x1c\xc0\xd3\xcf\xb1\x0e1\xb3h\xc0i\xb6\xacF\x04\x999@'
p793
tp794
bsg734
S'Cell[0].axon[21]'
p795
sI15
I85
tp796
a(F1.8929982780619004
S'Cell[3].dend[35] syn_ = new FastInhib(0.833333333333)'
p797
I3
(dp798
S'seg'
p799
F0.07142857142857142
sS'hostfrom'
p800
F16.0
sS'gid'
p801
I112
sS'coords'
p802
g7
(g8
(I0
tp803
g10
tp804
Rp805
(I1
(I3
tp806
g14
(S'f8'
p807
I0
I1
tp808
Rp809
(I3
S'<'
p810
NNNI-1
I-1
I0
tp811
bI00
S'\nE\xf0\xc25&I\xc0<\xa5\x92\x83\x8d\x05&@\x00\x00\x00@\n\x975\xc0'
p812
tp813
bsS'secnames'
p814
S'Cell[2].axon[201]'
p815
sI112
I181
tp816
a(F1.068802061796479
S'Cell[1].dend[5] syn_ = new FastInhib(0.5)'
p817
I1
(dp818
S'seg'
p819
F0.5
sS'hostfrom'
p820
F17.0
sS'gid'
p821
I113
sS'coords'
p822
g7
(g8
(I0
tp823
g10
tp824
Rp825
(I1
(I3
tp826
g14
(S'f8'
p827
I0
I1
tp828
Rp829
(I3
S'<'
p830
NNNI-1
I-1
I0
tp831
bI00
S'rK\xda*\xac\xbaC@\xc5\x1e\xe5\xe5\x90\x1bR\xc0\x85\xb6\x8bp2b#@'
p832
tp833
bsS'secnames'
p834
S'Cell[2].axon[122]'
p835
sI113
I85
tp836
a(F0.9146143186565684
S'Cell[1].dend[12] syn_ = new FastInhib(0.5)'
p837
I1
(dp838
g819
F0.5
sg820
F17.0
sg821
I113
sg822
g7
(g8
(I0
tp839
g10
tp840
Rp841
(I1
(I3
tp842
g829
I00
S'\xec"\xcaq(nK@\xf6\x8d\x07%jen\xc0b\xc2\x0e@\x16\xd2/@'
p843
tp844
bsg834
S'Cell[2].axon[307]'
p845
sI113
I85
tp846
a(F2.3029670809599527
S'Cell[0].dend[13] syn_ = new ExpSid(0.0714285714286)'
p847
I0
(dp848
g819
F0.30000000000000004
sg820
F17.0
sg821
I161
sg822
g7
(g8
(I0
tp849
g10
tp850
Rp851
(I1
(I3
tp852
g829
I00
S'\xff\xb0\x0f7-x<\xc0bk\xbe\xcd\xa0\x17<@\xa8\xa2P\x7f}\xaf4@'
p853
tp854
bsg834
S'Cell[3].axon[16]'
p855
sI161
I37
tp856
a(F0.6267939884526298
S'Cell[3].dend[42] syn_ = new FastInhib(0.5)'
p857
I3
(dp858
g819
F0.5
sg820
F17.0
sg821
I161
sg822
g7
(g8
(I0
tp859
g10
tp860
Rp861
(I1
(I3
tp862
g829
I00
S'\x02\xfa\xfe\x19\x9bQF\xc0 \xf3\xd3\x9d`\xf5@@\x00\x00\x00 \x85\xab5@'
p863
tp864
bsg834
S'Cell[3].axon[16]'
p865
sI161
I181
tp866
a(F1.8261552340314882
S'Cell[0].dend[53] syn_ = new ExpSid(0.5)'
p867
I0
(dp868
g819
F0.5
sg820
F17.0
sg821
I161
sg822
g7
(g8
(I0
tp869
g10
tp870
Rp871
(I1
(I3
tp872
g829
I00
S'R\xa2\xeb<iLA@\xc2\x8a\x82Q\xb6\x90C@>\x81[\x0c\xe7\xe1%\xc0'
p873
tp874
bsg834
S'Cell[3].axon[126]'
p875
sI161
I37
tp876
a(F1.8761823194342253
S'Cell[1].dend[59] syn_ = new FastInhib(0.357142857143)'
p877
I1
(dp878
g819
F0.5
sg820
F17.0
sg821
I161
sg822
g7
(g8
(I0
tp879
g10
tp880
Rp881
(I1
(I3
tp882
g829
I00
S'o\x16\x83\x80\xab\x150\xc0\xf0\x08\xfe9\xd5\xc7X@\x00\x00\x00\x00\x00\xe0C\xc0'
p883
tp884
bsg834
S'Cell[3].axon[233]'
p885
sI161
I85
tp886
a(F1.8150447504226737
S'Cell[0].dend[7] syn_ = new AmpaNmda(0.833333333333)'
p887
I0
(dp888
S'seg'
p889
F0.16666666666666666
sS'hostfrom'
p890
F18.0
sS'gid'
p891
I114
sS'coords'
p892
g7
(g8
(I0
tp893
g10
tp894
Rp895
(I1
(I3
tp896
g14
(S'f8'
p897
I0
I1
tp898
Rp899
(I3
S'<'
p900
NNNI-1
I-1
I0
tp901
bI00
S'/\x07\x94\xea\x13\x1dL\xc03\xc9r\xe9\xeb\xb6\xf6?\xcfe\x9f\x05\x04\xd72\xc0'
p902
tp903
bsS'secnames'
p904
S'Cell[2].axon[37]'
p905
sI114
I37
tp906
a(F1.9533755530644605
S'Cell[0].dend[7] syn_ = new AmpaNmda(0.833333333333)'
p907
I0
(dp908
g889
F0.16666666666666666
sg890
F18.0
sg891
I114
sg892
g7
(g8
(I0
tp909
g10
tp910
Rp911
(I1
(I3
tp912
g899
I00
S'\xd6\xe8\xf1\xf1b\xd8J\xc0@z\xc9\xe7c\x0c\x04@\x00\x00\x00\xe0Q\xb82\xc0'
p913
tp914
bsg904
S'Cell[2].axon[38]'
p915
sI114
I37
tp916
a(F1.8236480007993008
S'Cell[0].dend[7] syn_ = new AmpaNmda(0.5)'
p917
I0
(dp918
g889
F0.5
sg890
F18.0
sg891
I114
sg892
g7
(g8
(I0
tp919
g10
tp920
Rp921
(I1
(I3
tp922
g899
I00
S'\xbb\xa9\xac\x85\x8b\xc5C\xc0\x8b\xe4\xe3\x9d\x8b\x8a)@\x00\x00\x00@3\xb3+\xc0'
p923
tp924
bsg904
S'Cell[2].axon[78]'
p925
sI114
I37
tp926
a(F2.3219437574867645
S'Cell[3].dend[14] syn_ = new FastInhib(0.166666666667)'
p927
I3
(dp928
g889
F0.8333333333333333
sg890
F18.0
sg891
I162
sg892
g7
(g8
(I0
tp929
g10
tp930
Rp931
(I1
(I3
tp932
g899
I00
S'?\xce\xb1\xa4\xdf\x1f5@\x0e\x9d\xbf\xcfI\xe6=@\xd3\xbd\xcc\x0bn\x166@'
p933
tp934
bsg904
S'Cell[3].axon[64]'
p935
sI162
I181
tp936
a(F2.2559165136899075
S'Cell[1].dend[2] syn_ = new FastInhib(0.5)'
p937
I1
(dp938
g889
F0.07142857142857142
sg890
F18.0
sg891
I162
sg892
g7
(g8
(I0
tp939
g10
tp940
Rp941
(I1
(I3
tp942
g899
I00
S'|\xae\xd18\x8cb:@\xccZ9W\x92\x8e\x08@X\xb4\xbd\x11\xf9\xae\x17@'
p943
tp944
bsg904
S'Cell[3].axon[93]'
p945
sI162
I85
tp946
a(F2.426923186113511
S'Cell[0].apic[55] syn_ = new AmpaNmda(0.5)'
p947
I0
(dp948
g889
F0.16666666666666666
sg890
F18.0
sg891
I162
sg892
g7
(g8
(I0
tp949
g10
tp950
Rp951
(I1
(I3
tp952
g899
I00
S'\x1du\xf2\xf2\x81\xbb/@\xac8?z\x88*[@\xe7.x->dE\xc0'
p953
tp954
bsg904
S'Cell[3].axon[144]'
p955
sI162
I37
tp956
a(F1.4320668413778594
S'Cell[2].dend[20] syn_ = new FastInhib(0.5)'
p957
I2
(dp958
g889
F0.5
sg890
F18.0
sg891
I162
sg892
g7
(g8
(I0
tp959
g10
tp960
Rp961
(I1
(I3
tp962
g899
I00
S'!g>z\xfb\xc1\x1d\xc0X\x99/|\xb0\x18E@A\xed\x17f\x06\xc28@'
p963
tp964
bsg904
S'Cell[3].axon[185]'
p965
sI162
I133
tp966
a(F0.9995338053087536
S'Cell[1].dend[46] syn_ = new FastInhib(0.5)'
p967
I1
(dp968
g889
F0.5
sg890
F18.0
sg891
I162
sg892
g7
(g8
(I0
tp969
g10
tp970
Rp971
(I1
(I3
tp972
g899
I00
S'O\x03K\xfa\\\xc9C@\xd9]\xe0*\x00\xc0N@\x00\x00\x00\xa0\x99\x99\x18\xc0'
p973
tp974
bsg904
S'Cell[3].axon[209]'
p975
sI162
I85
tp976
a(F1.2698506261797282
S'Cell[1].dend[39] syn_ = new FastInhib(0.5)'
p977
I1
(dp978
S'seg'
p979
F0.5
sS'hostfrom'
p980
F19.0
sS'gid'
p981
I115
sS'coords'
p982
g7
(g8
(I0
tp983
g10
tp984
Rp985
(I1
(I3
tp986
g14
(S'f8'
p987
I0
I1
tp988
Rp989
(I3
S'<'
p990
NNNI-1
I-1
I0
tp991
bI00
S'e*A\x11ms6@X\xb5\x19\x19,\xf4J@~\x1be\xdd"\x85\t\xc0'
p992
tp993
bsS'secnames'
p994
S'Cell[2].axon[79]'
p995
sI115
I85
tp996
a(F1.6451451009931615
S'Cell[3].dend[57] syn_ = new FastInhib(0.5)'
p997
I3
(dp998
g979
F0.5
sg980
F19.0
sg981
I115
sg982
g7
(g8
(I0
tp999
g10
tp1000
Rp1001
(I1
(I3
tp1002
g989
I00
S'IT=\xb4}\xb3F@R\xabn\xf6\x85 a@\x00\x00\x00\xc0\xcc\x8c3@'
p1003
tp1004
bsg994
S'Cell[2].axon[150]'
p1005
sI115
I181
tp1006
a(F2.200714281251056
S'Cell[0].apic[31] syn_ = new ExpSid(0.9)'
p1007
I0
(dp1008
g979
F0.5
sg980
F19.0
sg981
I115
sg982
g7
(g8
(I0
tp1009
g10
tp1010
Rp1011
(I1
(I3
tp1012
g989
I00
S'\x00\x00\x00@\n\xff[\xc0\x00\x00\x00\xc0\xf5\xfce@\x00\x00\x00\xc0\xcc\xcc0@'
p1013
tp1014
bsg994
S'Cell[2].axon[182]'
p1015
sI115
I37
tp1016
a(F1.5563245351659112
S'Cell[1].dend[28] syn_ = new FastInhib(0.5)'
p1017
I1
(dp1018
S'seg'
p1019
F0.5
sS'hostfrom'
p1020
F20.0
sS'gid'
p1021
I68
sS'coords'
p1022
g7
(g8
(I0
tp1023
g10
tp1024
Rp1025
(I1
(I3
tp1026
g14
(S'f8'
p1027
I0
I1
tp1028
Rp1029
(I3
S'<'
p1030
NNNI-1
I-1
I0
tp1031
bI00
S'\x00\x00\x00\xe0p\xdd5@\x00\x00\x000\\O5\xc0\x00\x00\x00833\x10@'
p1032
tp1033
bsS'secnames'
p1034
S'Cell[1].axon[1]'
p1035
sI68
I85
tp1036
a(F1.0506296475276504
S'Cell[2].dend[3] syn_ = new FastInhib(0.166666666667)'
p1037
I2
(dp1038
g1019
F0.8333333333333333
sg1020
F20.0
sg1021
I68
sg1022
g7
(g8
(I0
tp1039
g10
tp1040
Rp1041
(I1
(I3
tp1042
g1029
I00
S'f\x85>\x15\xbf\'"\xc0\x1b\x9b8BJ\xdc\x05\xc0\x00\x00\x00\x00\x00\x00 @'
p1043
tp1044
bsg1034
S'Cell[1].axon[13]'
p1045
sI68
I133
tp1046
a(F1.9465058419882393
S'Cell[1].dend[29] syn_ = new FastInhib(0.166666666667)'
p1047
I1
(dp1048
g1019
F0.5
sg1020
F20.0
sg1021
I68
sg1022
g7
(g8
(I0
tp1049
g10
tp1050
Rp1051
(I1
(I3
tp1052
g1029
I00
S'\xfd\xb0\xfdm:\xff3@L\xc1M\\\xd3UE\xc0\x00\x00\x00\xc0\xcc\xcc\x1a@'
p1053
tp1054
bsg1034
S'Cell[1].axon[28]'
p1055
sI68
I85
tp1056
a(F2.210734170803699
S'Cell[0].dend[23] syn_ = new AmpaNmda(0.5)'
p1057
I0
(dp1058
g1019
F0.038461538461538464
sg1020
F20.0
sg1021
I68
sg1022
g7
(g8
(I0
tp1059
g10
tp1060
Rp1061
(I1
(I3
tp1062
g1029
I00
S'\xbe\xb0\xfb\xec-\x97Q\xc0l\xcc\xaf\x8c\xee%\x1e@:\xe1$\xdb\xe2VD\xc0'
p1063
tp1064
bsg1034
S'Cell[1].axon[32]'
p1065
sI68
I37
tp1066
a(F1.671169332322491
S'Cell[2].dend[34] syn_ = new FastInhib(0.5)'
p1067
I2
(dp1068
S'seg'
p1069
F0.5
sS'hostfrom'
p1070
F21.0
sS'gid'
p1071
I165
sS'coords'
p1072
g7
(g8
(I0
tp1073
g10
tp1074
Rp1075
(I1
(I3
tp1076
g14
(S'f8'
p1077
I0
I1
tp1078
Rp1079
(I3
S'<'
p1080
NNNI-1
I-1
I0
tp1081
bI00
S'\x9e\x9b/\xe3v\xdc+@\xb0\xcf#\xd7*\xca%@\x00\x00\x00`\xb8\x1e(\xc0'
p1082
tp1083
bsS'secnames'
p1084
S'Cell[3].axon[7]'
p1085
sI165
I133
tp1086
a(F1.767016293654415
S'Cell[0].dend[37] syn_ = new ExpSid(0.5)'
p1087
I0
(dp1088
g1069
F0.30000000000000004
sg1070
F21.0
sg1071
I165
sg1072
g7
(g8
(I0
tp1089
g10
tp1090
Rp1091
(I1
(I3
tp1092
g1079
I00
S'\x9b\x1c@\x1cK^H@\x97\x11T\x98W\x9e1\xc0\x00\x00\x00 \xaeG\x1a\xc0'
p1093
tp1094
bsg1084
S'Cell[3].axon[295]'
p1095
sI165
I37
tp1096
a(F1.9006658334305573
S'Cell[2].dend[41] syn_ = new FastInhib(0.166666666667)'
p1097
I2
(dp1098
g1069
F0.5
sg1070
F21.0
sg1071
I117
sg1072
g7
(g8
(I0
tp1099
g10
tp1100
Rp1101
(I1
(I3
tp1102
g1079
I00
S'\xda#\xc5BB\x8d"\xc0\xa1\x88\xa9\xbe\xcfE\x17@>\xb40@\x8bz4\xc0'
p1103
tp1104
bsg1084
S'Cell[2].axon[359]'
p1105
sI117
I133
tp1106
a(F2.271267680297163
S'Cell[3].dend[30] syn_ = new FastInhib(0.833333333333)'
p1107
I3
(dp1108
S'seg'
p1109
F0.8333333333333333
sS'hostfrom'
p1110
F22.0
sS'gid'
p1111
I118
sS'coords'
p1112
g7
(g8
(I0
tp1113
g10
tp1114
Rp1115
(I1
(I3
tp1116
g14
(S'f8'
p1117
I0
I1
tp1118
Rp1119
(I3
S'<'
p1120
NNNI-1
I-1
I0
tp1121
bI00
S'\x06\xcf\xac \xdd@P\xc0P>>\x03\x86Tc\xc0\x8bO\x89\xe3\xbdn\x1e\xc0'
p1122
tp1123
bsS'secnames'
p1124
S'Cell[2].axon[72]'
p1125
sI118
I181
tp1126
a(F1.3275355489585132
S'Cell[3].dend[82] syn_ = new FastInhib(0.5)'
p1127
I3
(dp1128
g1109
F0.8333333333333333
sg1110
F22.0
sg1111
I118
sg1112
g7
(g8
(I0
tp1129
g10
tp1130
Rp1131
(I1
(I3
tp1132
g1119
I00
S'p"\tdvIc@h\xb6\x8a\xdc\xb2?[\xc0\xb0T\x84vy]!\xc0'
p1133
tp1134
bsg1124
S'Cell[2].axon[102]'
p1135
sI118
I181
tp1136
a(F2.126037150534611
S'Cell[1].dend[20] syn_ = new FastInhib(0.5)'
p1137
I1
(dp1138
g1109
F0.5
sg1110
F22.0
sg1111
I118
sg1112
g7
(g8
(I0
tp1139
g10
tp1140
Rp1141
(I1
(I3
tp1142
g1119
I00
S'\xba\xc5Z$\xc0\x94\\@\xa0\x1b\x0b\xe6%\x94g\xc0\x99\xc29\xd6Ao;@'
p1143
tp1144
bsg1124
S'Cell[2].axon[474]'
p1145
sI118
I85
tp1146
a(F1.1745801772594124
S'Cell[1].dend[7] syn_ = new FastInhib(0.5)'
p1147
I1
(dp1148
g1109
F0.8333333333333333
sg1110
F22.0
sg1111
I118
sg1112
g7
(g8
(I0
tp1149
g10
tp1150
Rp1151
(I1
(I3
tp1152
g1119
I00
S'\x83~\xe9XL\xf0F@\x0e\xa8|B\xb1\xe1f\xc0\x00\x00\x00\x00\x00\x80:@'
p1153
tp1154
bsg1124
S'Cell[2].axon[486]'
p1155
sI118
I85
tp1156
a(F2.3470449401846314
S'Cell[1].dend[8] syn_ = new FastInhib(0.166666666667)'
p1157
I1
(dp1158
g1109
F0.5
sg1110
F22.0
sg1111
I118
sg1112
g7
(g8
(I0
tp1159
g10
tp1160
Rp1161
(I1
(I3
tp1162
g1119
I00
S'\xc6\xecG\xe9\x1d\xd2F@)\xcf\xe9\xb9\x9cXh\xc0\xa0\xcf\x1fe\xc3\xb0B@'
p1163
tp1164
bsg1124
S'Cell[2].axon[497]'
p1165
sI118
I85
tp1166
a(F1.7480951793741988
S'Cell[3].dend[30] syn_ = new FastInhib(0.833333333333)'
p1167
I3
(dp1168
g1109
F0.30000000000000004
sg1110
F22.0
sg1111
I70
sg1112
g7
(g8
(I0
tp1169
g10
tp1170
Rp1171
(I1
(I3
tp1172
g1119
I00
S'\x95R\n3X:P\xc0w#\x14\x94\x19xc\xc0\x01\x00\x00\xc0\xcc\xcc\x19\xc0'
p1173
tp1174
bsg1124
S'Cell[1].axon[25]'
p1175
sI70
I181
tp1176
a(F1.5377740528657036
S'Cell[0].apic[22] syn_ = new AmpaNmda(0.5)'
p1177
I0
(dp1178
g1109
F0.5
sg1110
F22.0
sg1111
I166
sg1112
g7
(g8
(I0
tp1179
g10
tp1180
Rp1181
(I1
(I3
tp1182
g1119
I00
S"\xc4\xde_\xfc\xc1G'\xc0y(\xa3\xa3m\xe1e@\x0e\x98M<\xec\xf9&\xc0"
p1183
tp1184
bsg1124
S'Cell[3].axon[39]'
p1185
sI166
I37
tp1186
a(F2.3411584817479945
S'Cell[0].dend[20] syn_ = new AmpaNmda(0.833333333333)'
p1187
I0
(dp1188
g1109
F0.7
sg1110
F22.0
sg1111
I166
sg1112
g7
(g8
(I0
tp1189
g10
tp1190
Rp1191
(I1
(I3
tp1192
g1119
I00
S'\x98\xae}\xe1\x1d\xd5J\xc0\x1a\x835\x8d\xe5\xd9&@\xce\x0f\x1fRp\x1bG\xc0'
p1193
tp1194
bsg1124
S'Cell[3].axon[107]'
p1195
sI166
I37
tp1196
a(F2.3800422615310413
S'Cell[1].dend[54] syn_ = new FastInhib(0.5)'
p1197
I1
(dp1198
g1109
F0.5
sg1110
F22.0
sg1111
I166
sg1112
g7
(g8
(I0
tp1199
g10
tp1200
Rp1201
(I1
(I3
tp1202
g1119
I00
S'.\x03\xc8\\\xb08M@\xeei\x93\xe5\xe0vS@\x13\xdc\x98\xee\xf3\xeb7\xc0'
p1203
tp1204
bsg1124
S'Cell[3].axon[212]'
p1205
sI166
I85
tp1206
a(F1.3069144063523568
S'Cell[3].dend[14] syn_ = new FastInhib(0.833333333333)'
p1207
I3
(dp1208
g1109
F0.16666666666666666
sg1110
F22.0
sg1111
I166
sg1112
g7
(g8
(I0
tp1209
g10
tp1210
Rp1211
(I1
(I3
tp1212
g1119
I00
S'\xe9\xd4\xf2\t^\xd1;@v1\x18!O&+\xc0\xb22B/U\xed,@'
p1213
tp1214
bsg1124
S'Cell[3].axon[308]'
p1215
sI166
I181
tp1216
a(F2.4095778852402527
S'Cell[1].dend[62] syn_ = new FastInhib(0.5)'
p1217
I1
(dp1218
S'seg'
p1219
F0.16666666666666666
sS'hostfrom'
p1220
F23.0
sS'gid'
p1221
I119
sS'coords'
p1222
g7
(g8
(I0
tp1223
g10
tp1224
Rp1225
(I1
(I3
tp1226
g14
(S'f8'
p1227
I0
I1
tp1228
Rp1229
(I3
S'<'
p1230
NNNI-1
I-1
I0
tp1231
bI00
S'X\\\x1a\xef\x14\x9cB@\xdbG\x92Hf\x0cX@\x8a:\xee\xde\x16\xfaD@'
p1232
tp1233
bsS'secnames'
p1234
S'Cell[2].axon[117]'
p1235
sI119
I85
tp1236
a(F2.131855510054098
S'Cell[2].dend[6] syn_ = new FastInhib(0.166666666667)'
p1237
I2
(dp1238
g1219
F0.16666666666666666
sg1220
F23.0
sg1221
I167
sg1222
g7
(g8
(I0
tp1239
g10
tp1240
Rp1241
(I1
(I3
tp1242
g1229
I00
S"\xba\xf9\x08\xb0\x0bX@\xc0&\xadd\xd1\xc8c4\xc0'\xd9\xed8\xcf\x8f%@"
p1243
tp1244
bsg1234
S'Cell[3].axon[1]'
p1245
sI167
I133
tp1246
a(F1.6885737214436851
S'Cell[0].dend[31] syn_ = new ExpSid(0.9)'
p1247
I0
(dp1248
g1219
F0.16666666666666666
sg1220
F23.0
sg1221
I167
sg1222
g7
(g8
(I0
tp1249
g10
tp1250
Rp1251
(I1
(I3
tp1252
g1229
I00
S'\xa9E\x16\xb0\xfdp=\xc0\x92\x86/.70Y\xc0\x00\x00\x00\xc0\xcc\xcc\x04\xc0'
p1253
tp1254
bsg1234
S'Cell[3].axon[162]'
p1255
sI167
I37
tp1256
a(F2.4919332779093573
S'Cell[0].dend[25] syn_ = new ExpSid(0.166666666667)'
p1257
I0
(dp1258
g1219
F0.8333333333333333
sg1220
F23.0
sg1221
I167
sg1222
g7
(g8
(I0
tp1259
g10
tp1260
Rp1261
(I1
(I3
tp1262
g1229
I00
S'\xbe\xb6\ny+\xa1X\xc0{\xf2H<\x9e\x90\x0b@9,\xd8\xb5\x9f\xefA\xc0'
p1263
tp1264
bsg1234
S'Cell[3].axon[178]'
p1265
sI167
I37
tp1266
a(F2.387841769777351
S'Cell[3].dend[68] syn_ = new FastInhib(0.214285714286)'
p1267
I3
(dp1268
g1219
F0.045454545454545456
sg1220
F23.0
sg1221
I23
sg1222
g7
(g8
(I0
tp1269
g10
tp1270
Rp1271
(I1
(I3
tp1272
g1229
I00
S'\x8a\xd7G\x8c\xdf\xbaF@u\xbb\xf74\xfa\x02g@xE\x0c\xf6\xed\xf3"\xc0'
p1273
tp1274
bsg1234
S'Cell[0].axon[2]'
p1275
sI23
I181
tp1276
a(F1.358618488660659
S'Cell[0].dend[43] syn_ = new AmpaNmda(0.5)'
p1277
I0
(dp1278
S'seg'
p1279
F0.5
sS'hostfrom'
p1280
F24.0
sS'gid'
p1281
I24
sS'coords'
p1282
g7
(g8
(I0
tp1283
g10
tp1284
Rp1285
(I1
(I3
tp1286
g14
(S'f8'
p1287
I0
I1
tp1288
Rp1289
(I3
S'<'
p1290
NNNI-1
I-1
I0
tp1291
bI00
S'\x00\x00\x00\xc0\xf5(5@\x00\x00\x00 \xae\xc7#@\x00\x00\x00 \xaeG\x1f\xc0'
p1292
tp1293
bsS'secnames'
p1294
S'Cell[0].soma[0]'
p1295
sI24
I37
tp1296
a(F1.8733055454943244
S'Cell[3].dend[6] syn_ = new FastInhib(0.5)'
p1297
I3
(dp1298
g1279
F0.03333333333333333
sg1280
F24.0
sg1281
I72
sg1282
g7
(g8
(I0
tp1299
g10
tp1300
Rp1301
(I1
(I3
tp1302
g1289
I00
S'\x8d\xdb\xf7\xb2g@4@,l\x05\xef\xdalF@\x00\x00\x00\x80\x14\xee4@'
p1303
tp1304
bsg1294
S'Cell[1].axon[3]'
p1305
sI72
I181
tp1306
a(F1.2569520024022347
S'Cell[1].dend[35] syn_ = new FastInhib(0.3)'
p1307
I1
(dp1308
g1279
F0.7
sg1280
F24.0
sg1281
I120
sg1282
g7
(g8
(I0
tp1309
g10
tp1310
Rp1311
(I1
(I3
tp1312
g1289
I00
S'\xc8p\xd2\x9aU\xaaG@8\xe8\xb3\xfa<\xb51\xc0\x80\xaa\x19rz#\x1f@'
p1313
tp1314
bsg1294
S'Cell[2].axon[29]'
p1315
sI120
I85
tp1316
a(F1.7726583851811126
S'Cell[2].dend[32] syn_ = new FastInhib(0.5)'
p1317
I2
(dp1318
g1279
F0.8333333333333333
sg1280
F24.0
sg1281
I120
sg1282
g7
(g8
(I0
tp1319
g10
tp1320
Rp1321
(I1
(I3
tp1322
g1289
I00
S'\xb4I2O\x17\xd84@\xe2\xba\xab\x08\xba\xa9\x1f\xc0(\x8d\x89\x8a\xf3k8\xc0'
p1323
tp1324
bsg1294
S'Cell[2].axon[45]'
p1325
sI120
I133
tp1326
a(F2.1909819299746105
S'Cell[3].dend[16] syn_ = new FastInhib(0.833333333333)'
p1327
I3
(dp1328
g1279
F0.5
sg1280
F24.0
sg1281
I120
sg1282
g7
(g8
(I0
tp1329
g10
tp1330
Rp1331
(I1
(I3
tp1332
g1289
I00
S'\x8b\xd6\xc0\x9a\x18[>@\x946\xa9B\x9csV\xc0\x9a\xbd7O\xcf\xcbQ\xc0'
p1333
tp1334
bsg1294
S'Cell[2].axon[223]'
p1335
sI120
I181
tp1336
a(F1.954881307246114
S'Cell[0].dend[2] syn_ = new AmpaNmda(0.7)'
p1337
I0
(dp1338
g1279
F0.7857142857142856
sg1280
F24.0
sg1281
I120
sg1282
g7
(g8
(I0
tp1339
g10
tp1340
Rp1341
(I1
(I3
tp1342
g1289
I00
S'\x05\x1d-\x05\xc1\x85F\xc0\x02\x14e\x7fu\x8a`\xc0\xae\xf8\xfc\x08M\x1a\x19\xc0'
p1343
tp1344
bsg1294
S'Cell[2].axon[263]'
p1345
sI120
I37
tp1346
a(F2.484436081857346
S'Cell[0].dend[5] syn_ = new ExpSid(0.166666666667)'
p1347
I0
(dp1348
S'seg'
p1349
F0.5
sS'hostfrom'
p1350
F25.0
sS'gid'
p1351
I121
sS'coords'
p1352
g7
(g8
(I0
tp1353
g10
tp1354
Rp1355
(I1
(I3
tp1356
g14
(S'f8'
p1357
I0
I1
tp1358
Rp1359
(I3
S'<'
p1360
NNNI-1
I-1
I0
tp1361
bI00
S'\x8c{\x81\x81\x8f\xf4;\xc0\xeb(gm\x81\xf3 @G\x00W\xba\xbb\xa92\xc0'
p1362
tp1363
bsS'secnames'
p1364
S'Cell[2].axon[143]'
p1365
sI121
I37
tp1366
a(F1.5529786644686516
S'Cell[3].dend[39] syn_ = new FastInhib(0.9)'
p1367
I3
(dp1368
g1349
F0.8999999999999999
sg1350
F25.0
sg1351
I121
sg1352
g7
(g8
(I0
tp1369
g10
tp1370
Rp1371
(I1
(I3
tp1372
g1359
I00
S'5\x13`\x16\x9a\xa0`\xc0\xfb\xcb\xe8|\x84\xb5\x1e\xc0\x00\x00\x00@33*\xc0'
p1373
tp1374
bsg1364
S'Cell[2].axon[159]'
p1375
sI121
I181
tp1376
a(F2.4308568106471715
S'Cell[2].dend[10] syn_ = new FastInhib(0.166666666667)'
p1377
I2
(dp1378
g1349
F0.5
sg1350
F25.0
sg1351
I121
sg1352
g7
(g8
(I0
tp1379
g10
tp1380
Rp1381
(I1
(I3
tp1382
g1359
I00
S'\xaf@X&DgB\xc0\xac\x8as3J\xfa3@\x12\x18\x00\xf3\xc7A\x15@'
p1383
tp1384
bsg1364
S'Cell[2].axon[194]'
p1385
sI121
I133
tp1386
a(F2.253113557331659
S'Cell[3].dend[22] syn_ = new FastInhib(0.833333333333)'
p1387
I3
(dp1388
g1349
F0.8333333333333333
sg1350
F25.0
sg1351
I169
sg1352
g7
(g8
(I0
tp1389
g10
tp1390
Rp1391
(I1
(I3
tp1392
g1359
I00
S'W$\x9c\x08\xb1:A\xc0(\x12\xb6|\xbd\rM\xc0\x00\x00\x00@33\x1f\xc0'
p1393
tp1394
bsg1364
S'Cell[3].axon[122]'
p1395
sI169
I181
tp1396
a(F2.0063867405062563
S'Cell[0].dend[2] syn_ = new ExpSid(0.5)'
p1397
I0
(dp1398
g1349
F0.5
sg1350
F25.0
sg1351
I169
sg1352
g7
(g8
(I0
tp1399
g10
tp1400
Rp1401
(I1
(I3
tp1402
g1359
I00
S'\x00\x00\x008\x85\x0b@\xc0\x00\x00\x00@\ng[\xc0\x00\x00\x00\x08\x00\x00\x00@'
p1403
tp1404
bsg1364
S'Cell[3].axon[183]'
p1405
sI169
I37
tp1406
a(F2.2326350859480355
S'Cell[1].dend[28] syn_ = new FastInhib(0.5)'
p1407
I1
(dp1408
g1349
F0.5
sg1350
F25.0
sg1351
I169
sg1352
g7
(g8
(I0
tp1409
g10
tp1410
Rp1411
(I1
(I3
tp1412
g1359
I00
S'\x00\x00\x00 \x8f\x026@\x00\x00\x0003S5\xc0\x00\x00\x00hff\x14@'
p1413
tp1414
bsg1364
S'Cell[3].axon[231]'
p1415
sI169
I85
tp1416
a(F1.6703559475219665
S'Cell[3].dend[6] syn_ = new FastInhib(0.833333333333)'
p1417
I3
(dp1418
S'seg'
p1419
F0.045454545454545456
sS'hostfrom'
p1420
F26.0
sS'gid'
p1421
I26
sS'coords'
p1422
g7
(g8
(I0
tp1423
g10
tp1424
Rp1425
(I1
(I3
tp1426
g14
(S'f8'
p1427
I0
I1
tp1428
Rp1429
(I3
S'<'
p1430
NNNI-1
I-1
I0
tp1431
bI00
S'f\xaeS\xdaC\xbf2@c\xd1\x96\x82\xfd\xffC@\xa5d\xdd\xfdU! @'
p1432
tp1433
bsS'secnames'
p1434
S'Cell[0].axon[7]'
p1435
sI26
I181
tp1436
a(F1.7925463156767767
S'Cell[0].dend[0] syn_ = new AmpaNmda(0.166666666667)'
p1437
I0
(dp1438
g1419
F0.16666666666666666
sg1420
F26.0
sg1421
I26
sg1422
g7
(g8
(I0
tp1439
g10
tp1440
Rp1441
(I1
(I3
tp1442
g1429
I00
S'\x96\xa8\x92\x93M\xd6/\xc0g\x8f0\x0b\n.\x14@\xe6\x80\x8fF\x80\xd7\x0e@'
p1443
tp1444
bsg1434
S'Cell[0].axon[73]'
p1445
sI26
I37
tp1446
a(F1.3603439168111215
S'Cell[0].dend[0] syn_ = new AmpaNmda(0.833333333333)'
p1447
I0
(dp1448
g1419
F0.8333333333333333
sg1420
F26.0
sg1421
I74
sg1422
g7
(g8
(I0
tp1449
g10
tp1450
Rp1451
(I1
(I3
tp1452
g1429
I00
S"\xe5\x84\n\xa4h\xfb=\xc0I\xd1'\x19]\x83@\xc0\x88\x02\xc0\xeeN\x9d#@"
p1453
tp1454
bsg1434
S'Cell[1].axon[0]'
p1455
sI74
I37
tp1456
a(F2.44874603938424
S'Cell[0].dend[55] syn_ = new AmpaNmda(0.5)'
p1457
I0
(dp1458
g1419
F0.8333333333333333
sg1420
F26.0
sg1421
I170
sg1422
g7
(g8
(I0
tp1459
g10
tp1460
Rp1461
(I1
(I3
tp1462
g1429
I00
S'\xb0\xaf\xbe\x94\xc1\x115@-\xd4\x04Y\xfc\xbb1@\xaa\xdb_\x02\xc7e\x11@'
p1463
tp1464
bsg1434
S'Cell[3].axon[458]'
p1465
sI170
I37
tp1466
a(F1.898284534358609
S'Cell[0].dend[30] syn_ = new ExpSid(0.833333333333)'
p1467
I0
(dp1468
S'seg'
p1469
F0.05555555555555555
sS'hostfrom'
p1470
F27.0
sS'gid'
p1471
I123
sS'coords'
p1472
g7
(g8
(I0
tp1473
g10
tp1474
Rp1475
(I1
(I3
tp1476
g14
(S'f8'
p1477
I0
I1
tp1478
Rp1479
(I3
S'<'
p1480
NNNI-1
I-1
I0
tp1481
bI00
S'RYo\xb6\xeb\x86`\xc0!K\x80(l\x1e@@\\\x8a\xff\xe0\xbc \x19@'
p1482
tp1483
bsS'secnames'
p1484
S'Cell[2].axon[50]'
p1485
sI123
I37
tp1486
a(F2.1977804898418514
S'Cell[2].dend[3] syn_ = new FastInhib(0.166666666667)'
p1487
I2
(dp1488
g1469
F0.30000000000000004
sg1470
F27.0
sg1471
I27
sg1472
g7
(g8
(I0
tp1489
g10
tp1490
Rp1491
(I1
(I3
tp1492
g1479
I00
S'X:y+\xd4}!\xc0\xf3o#?w\xce\xfb\xbf\xe9\xa8=\x87\xec\xff$@'
p1493
tp1494
bsg1484
S'Cell[0].axon[4]'
p1495
sI27
I133
tp1496
a(F1.3990781321451597
S'Cell[3].dend[83] syn_ = new FastInhib(0.1)'
p1497
I3
(dp1498
S'seg'
p1499
F0.8333333333333333
sS'hostfrom'
p1500
F28.0
sS'gid'
p1501
I76
sS'coords'
p1502
g7
(g8
(I0
tp1503
g10
tp1504
Rp1505
(I1
(I3
tp1506
g14
(S'f8'
p1507
I0
I1
tp1508
Rp1509
(I3
S'<'
p1510
NNNI-1
I-1
I0
tp1511
bI00
S'*\xb5s\x97\xb1\xb8d@SZ\x95~U\xf8W\xc0&>2?\x82y6\xc0'
p1512
tp1513
bsS'secnames'
p1514
S'Cell[1].axon[113]'
p1515
sI76
I181
tp1516
a(F2.4495016957491322
S'Cell[3].dend[35] syn_ = new FastInhib(0.833333333333)'
p1517
I3
(dp1518
g1499
F0.5
sg1500
F28.0
sg1501
I172
sg1502
g7
(g8
(I0
tp1519
g10
tp1520
Rp1521
(I1
(I3
tp1522
g1509
I00
S"\xe6]X\x07t?G\xc0\x18\xc1\xea\x0b\x04\xd7(@\xfc15M'W5\xc0"
p1523
tp1524
bsg1514
S'Cell[3].axon[65]'
p1525
sI172
I181
tp1526
a(F2.3210656873497517
S'Cell[0].dend[43] syn_ = new AmpaNmda(0.5)'
p1527
I0
(dp1528
g1499
F0.5
sg1500
F28.0
sg1501
I172
sg1502
g7
(g8
(I0
tp1529
g10
tp1530
Rp1531
(I1
(I3
tp1532
g1509
I00
S'\x00\x00\x00\x00\x00\xe04@\x00\x00\x00\xc0\xccL\x1f@\x00\x00\x00\x80\x14\xae\x1a\xc0'
p1533
tp1534
bsg1514
S'Cell[3].axon[86]'
p1535
sI172
I37
tp1536
a(F2.4641833928362677
S'Cell[1].dend[36] syn_ = new FastInhib(0.357142857143)'
p1537
I1
(dp1538
g1499
F0.5
sg1500
F28.0
sg1501
I172
sg1502
g7
(g8
(I0
tp1539
g10
tp1540
Rp1541
(I1
(I3
tp1542
g1509
I00
S'\xf1\xf6\xc2u\xd0\x9bG@\xee\x12\xc8\xcc\xf9D\x18\xc0U\x11\xb1d\x81.F\xc0'
p1543
tp1544
bsg1514
S'Cell[3].axon[102]'
p1545
sI172
I85
tp1546
a(F2.101218686971131
S'Cell[1].dend[6] syn_ = new FastInhib(0.166666666667)'
p1547
I1
(dp1548
g1499
F0.5
sg1500
F28.0
sg1501
I124
sg1502
g7
(g8
(I0
tp1549
g10
tp1550
Rp1551
(I1
(I3
tp1552
g1509
I00
S'\xbf\x15\xef\xe2\x15\xe9F@\xf5\xda\xedT\xca\x0e`\xc0{\x8c\xdd\xed\x8e\x04)@'
p1553
tp1554
bsg1514
S'Cell[2].axon[58]'
p1555
sI124
I85
tp1556
a(F2.060376436425949
S'Cell[2].dend[36] syn_ = new FastInhib(0.5)'
p1557
I2
(dp1558
S'seg'
p1559
F0.5
sS'hostfrom'
p1560
F29.0
sS'gid'
p1561
I125
sS'coords'
p1562
g7
(g8
(I0
tp1563
g10
tp1564
Rp1565
(I1
(I3
tp1566
g14
(S'f8'
p1567
I0
I1
tp1568
Rp1569
(I3
S'<'
p1570
NNNI-1
I-1
I0
tp1571
bI00
S'6\xfd\xa2G\x10LG@\xcd\x93\xa9\x12\xeeP\x11@g\xf8\xb4\xbc\xefl.\xc0'
p1572
tp1573
bsS'secnames'
p1574
S'Cell[2].axon[173]'
p1575
sI125
I133
tp1576
a(F2.262878112970942
S'Cell[0].apic[14] syn_ = new AmpaNmda(0.3)'
p1577
I0
(dp1578
S'seg'
p1579
F0.5
sS'hostfrom'
p1580
F30.0
sS'gid'
p1581
I126
sS'coords'
p1582
g7
(g8
(I0
tp1583
g10
tp1584
Rp1585
(I1
(I3
tp1586
g14
(S'f8'
p1587
I0
I1
tp1588
Rp1589
(I3
S'<'
p1590
NNNI-1
I-1
I0
tp1591
bI00
S'4\xabi\x81\x97\rP@2\x03\x9f#\xe7kc@\x00\x00\x00\xa0\x99\xd91\xc0'
p1592
tp1593
bsS'secnames'
p1594
S'Cell[2].axon[227]'
p1595
sI126
I37
tp1596
a(F2.0265850224499546
S'Cell[0].dend[13] syn_ = new AmpaNmda(0.0714285714286)'
p1597
I0
(dp1598
g1579
F0.8333333333333333
sg1580
F30.0
sg1581
I174
sg1582
g7
(g8
(I0
tp1599
g10
tp1600
Rp1601
(I1
(I3
tp1602
g1589
I00
S'dj\xf1\xe5\xf0\xac9\xc0\x9b\x93\x07\xa9\xcc\xc3;@zd\x17J+\xb22@'
p1603
tp1604
bsg1594
S'Cell[3].axon[241]'
p1605
sI174
I37
tp1606
a(F2.0453950945761976
S'Cell[1].dend[36] syn_ = new FastInhib(0.214285714286)'
p1607
I1
(dp1608
g1579
F0.5
sg1580
F30.0
sg1581
I174
sg1582
g7
(g8
(I0
tp1609
g10
tp1610
Rp1611
(I1
(I3
tp1612
g1589
I00
S'\xb9\x9a\xe7\xf6\x9f\xa9D@\xa0$\xf2\xaa\x04O\x14@<\xc8\x04\xb1$\x10>\xc0'
p1613
tp1614
bsg1594
S'Cell[3].axon[284]'
p1615
sI174
I85
tp1616
a(F2.4952393442812943
S'Cell[2].dend[7] syn_ = new FastInhib(0.166666666667)'
p1617
I2
(dp1618
g1579
F0.16666666666666666
sg1580
F30.0
sg1581
I174
sg1582
g7
(g8
(I0
tp1619
g10
tp1620
Rp1621
(I1
(I3
tp1622
g1589
I00
S'\x9cl\n\xeb\xd0\x10<\xc0\x81[:l\xaf\xef<\xc0\xf6\x15!(JW%@'
p1623
tp1624
bsg1594
S'Cell[3].axon[297]'
p1625
sI174
I133
tp1626
a(F1.6401257636419195
S'Cell[0].dend[8] syn_ = new AmpaNmda(0.833333333333)'
p1627
I0
(dp1628
g1579
F0.16666666666666666
sg1580
F30.0
sg1581
I174
sg1582
g7
(g8
(I0
tp1629
g10
tp1630
Rp1631
(I1
(I3
tp1632
g1589
I00
S'\x98\xbb\x1d\x18\xb3\x05T\xc0\r;`\xb2c1\x02\xc0\xc8\xf8T\xc2\xc1\x82\r\xc0'
p1633
tp1634
bsg1594
S'Cell[3].axon[394]'
p1635
sI174
I37
tp1636
a(F2.0330507968774434
S'Cell[0].dend[31] syn_ = new ExpSid(0.7)'
p1637
I0
(dp1638
S'seg'
p1639
F0.5
sS'hostfrom'
p1640
F31.0
sS'gid'
p1641
I175
sS'coords'
p1642
g7
(g8
(I0
tp1643
g10
tp1644
Rp1645
(I1
(I3
tp1646
g14
(S'f8'
p1647
I0
I1
tp1648
Rp1649
(I3
S'<'
p1650
NNNI-1
I-1
I0
tp1651
bI00
S'P\xf6\xfbP\x13l>\xc0\xe8\xd5\xbf\xad\xe6\x99R\xc0\xa2\xce\xf3\xf1\x9e\xb4\x18\xc0'
p1652
tp1653
bsS'secnames'
p1654
S'Cell[3].axon[220]'
p1655
sI175
I37
tp1656
a(F1.7989376528781769
S'Cell[2].dend[1] syn_ = new FastInhib(0.5)'
p1657
I2
(dp1658
S'seg'
p1659
F0.5
sS'hostfrom'
p1660
F33.0
sS'gid'
p1661
I129
sS'coords'
p1662
g7
(g8
(I0
tp1663
g10
tp1664
Rp1665
(I1
(I3
tp1666
g14
(S'f8'
p1667
I0
I1
tp1668
Rp1669
(I3
S'<'
p1670
NNNI-1
I-1
I0
tp1671
bI00
S"j]\xc1\x02\x7f\x81'\xc0f\x99\xe3\x1d\xa7\xe2(@>O|\xa8`v\x06\xc0"
p1672
tp1673
bsS'secnames'
p1674
S'Cell[2].axon[11]'
p1675
sI129
I133
tp1676
a(F2.417707016414868
S'Cell[1].dend[63] syn_ = new FastInhib(0.166666666667)'
p1677
I1
(dp1678
g1659
F0.5
sg1660
F33.0
sg1661
I177
sg1662
g7
(g8
(I0
tp1679
g10
tp1680
Rp1681
(I1
(I3
tp1682
g1669
I00
S't\xa8\xf7\xafOW1@\x96\xe7$F\xcc[O@YV>\xb9~Y\x05@'
p1683
tp1684
bsg1674
S'Cell[3].axon[35]'
p1685
sI177
I85
tp1686
a(F2.1069597727343954
S'Cell[2].dend[29] syn_ = new FastInhib(0.5)'
p1687
I2
(dp1688
g1659
F0.6428571428571428
sg1660
F33.0
sg1661
I81
sg1662
g7
(g8
(I0
tp1689
g10
tp1690
Rp1691
(I1
(I3
tp1692
g1669
I00
S'V\xba\xfc\xb8\x154\xf5?lB\\\x06|\xc41@\x86L\x07\xff\xf1\xa4\x13\xc0'
p1693
tp1694
bsg1674
S'Cell[1].axon[73]'
p1695
sI81
I133
tp1696
a(F1.7515834156131396
S'Cell[2].dend[30] syn_ = new FastInhib(0.5)'
p1697
I2
(dp1698
S'seg'
p1699
F0.5
sS'hostfrom'
p1700
F34.0
sS'gid'
p1701
I82
sS'coords'
p1702
g7
(g8
(I0
tp1703
g10
tp1704
Rp1705
(I1
(I3
tp1706
g14
(S'f8'
p1707
I0
I1
tp1708
Rp1709
(I3
S'<'
p1710
NNNI-1
I-1
I0
tp1711
bI00
S"\xdd\xfc\x9d\x00~\x80\x10@XX\xa2\x9c:\xdb'@\x13\xed\xd48\xc0\xfb \xc0"
p1712
tp1713
bsS'secnames'
p1714
S'Cell[1].axon[132]'
p1715
sI82
I133
tp1716
a(F2.1204096036993434
S'Cell[0].dend[31] syn_ = new AmpaNmda(0.5)'
p1717
I0
(dp1718
g1699
F0.5
sg1700
F34.0
sg1701
I130
sg1702
g7
(g8
(I0
tp1719
g10
tp1720
Rp1721
(I1
(I3
tp1722
g1709
I00
S'\x00\x00\x00\x80=\x8a>\xc0\x00\x00\x00\xa0\x99\tL\xc0\x00\x00\x00 \xae\xc7\x12\xc0'
p1723
tp1724
bsg1714
S'Cell[2].axon[40]'
p1725
sI130
I37
tp1726
a(F1.4425624050563142
S'Cell[0].apic[7] syn_ = new AmpaNmda(0.214285714286)'
p1727
I0
(dp1728
g1699
F0.5
sg1700
F34.0
sg1701
I178
sg1702
g7
(g8
(I0
tp1729
g10
tp1730
Rp1731
(I1
(I3
tp1732
g1709
I00
S'\xd4c\xdb\xc4\x15\x18*@\xe7\xae<Z\x08\xdbR@\x00\x00\x00 \x85+:@'
p1733
tp1734
bsg1714
S'Cell[3].axon[513]'
p1735
sI178
I37
tp1736
a(F0.17778535992582017
S'Cell[0].dend[11] syn_ = new ExpSid(0.166666666667)'
p1737
I0
(dp1738
S'seg'
p1739
F0.21428571428571427
sS'hostfrom'
p1740
F35.0
sS'gid'
p1741
I83
sS'coords'
p1742
g7
(g8
(I0
tp1743
g10
tp1744
Rp1745
(I1
(I3
tp1746
g14
(S'f8'
p1747
I0
I1
tp1748
Rp1749
(I3
S'<'
p1750
NNNI-1
I-1
I0
tp1751
bI00
S'\xcf\x98\xa4x\x18\x84Q\xc0\xf0\x83N?\x87\xc4\xf8?v\x17\xc4#\xb8_6\xc0'
p1752
tp1753
bsS'secnames'
p1754
S'Cell[1].axon[19]'
p1755
sI83
I37
tp1756
a(F2.38020208712094
S'Cell[1].dend[10] syn_ = new FastInhib(0.166666666667)'
p1757
I1
(dp1758
g1739
F0.5
sg1740
F35.0
sg1741
I83
sg1742
g7
(g8
(I0
tp1759
g10
tp1760
Rp1761
(I1
(I3
tp1762
g1749
I00
S'wk%h\xcd\xe2F@\xb4n\x0bT[Gg\xc0\xc8\xeb\xd9o!x3@'
p1763
tp1764
bsg1754
S'Cell[1].axon[134]'
p1765
sI83
I85
tp1766
a(F2.193315852221845
S'Cell[3].dend[69] syn_ = new FastInhib(0.9)'
p1767
I3
(dp1768
S'seg'
p1769
F0.5
sS'hostfrom'
p1770
F36.0
sS'gid'
p1771
I84
sS'coords'
p1772
g7
(g8
(I0
tp1773
g10
tp1774
Rp1775
(I1
(I3
tp1776
g14
(S'f8'
p1777
I0
I1
tp1778
Rp1779
(I3
S'<'
p1780
NNNI-1
I-1
I0
tp1781
bI00
S'\xee\x15\xa3\xaf\xc5\t(\xc0\x18\xbd\xc2!\xa7ub@\x00\x00\x00@3SP\xc0'
p1782
tp1783
bsS'secnames'
p1784
S'Cell[1].axon[210]'
p1785
sI84
I181
tp1786
a(F2.2188402059662566
S'Cell[0].dend[55] syn_ = new AmpaNmda(0.5)'
p1787
I0
(dp1788
g1769
F0.5
sg1770
F36.0
sg1771
I180
sg1772
g7
(g8
(I0
tp1789
g10
tp1790
Rp1791
(I1
(I3
tp1792
g1779
I00
S'\x1fXp\xeb\x1d\xfa7@\xcf\x0b\xf1\xfd\x06r2@1!oW\x9a;\x08@'
p1793
tp1794
bsg1784
S'Cell[3].axon[194]'
p1795
sI180
I37
tp1796
a(F2.278562390036222
S'Cell[0].dend[37] syn_ = new ExpSid(0.166666666667)'
p1797
I0
(dp1798
S'seg'
p1799
F0.8333333333333333
sS'hostfrom'
p1800
F37.0
sS'gid'
p1801
I133
sS'coords'
p1802
g7
(g8
(I0
tp1803
g10
tp1804
Rp1805
(I1
(I3
tp1806
g14
(S'f8'
p1807
I0
I1
tp1808
Rp1809
(I3
S'<'
p1810
NNNI-1
I-1
I0
tp1811
bI00
S'Hw\x9b,R\xacA@3\xcc\x94NG\xba \xc0F<\xd2\x0c\x87\xfe\r\xc0'
p1812
tp1813
bsS'secnames'
p1814
S'Cell[2].axon[92]'
p1815
sI133
I37
tp1816
a(F2.2413271102455483
S'Cell[1].dend[53] syn_ = new FastInhib(0.7)'
p1817
I1
(dp1818
S'seg'
p1819
F0.5
sS'hostfrom'
p1820
F38.0
sS'gid'
p1821
I182
sS'coords'
p1822
g7
(g8
(I0
tp1823
g10
tp1824
Rp1825
(I1
(I3
tp1826
g14
(S'f8'
p1827
I0
I1
tp1828
Rp1829
(I3
S'<'
p1830
NNNI-1
I-1
I0
tp1831
bI00
S'\x00\xd4\x11\x00n\xbfH@(\xb5\xb0>xYT@\xdb\xa7x\x9a\x01\xf2C\xc0'
p1832
tp1833
bsS'secnames'
p1834
S'Cell[3].axon[27]'
p1835
sI182
I85
tp1836
a(F1.875539736590978
S'Cell[0].dend[42] syn_ = new AmpaNmda(0.5)'
p1837
I0
(dp1838
g1819
F0.5
sg1820
F38.0
sg1821
I86
sg1822
g7
(g8
(I0
tp1839
g10
tp1840
Rp1841
(I1
(I3
tp1842
g1829
I00
S'\x00\x00\x00\xd0\xccL0@\x01\x00\x00\xe0Q8*@\x00\x00\x00 \\\x8f\x08\xc0'
p1843
tp1844
bsg1834
S'Cell[1].soma[0]'
p1845
sI86
I37
tp1846
a(F2.391707929487276
S'Cell[1].dend[41] syn_ = new FastInhib(0.1)'
p1847
I1
(dp1848
S'seg'
p1849
F0.3571428571428571
sS'hostfrom'
p1850
F39.0
sS'gid'
p1851
I183
sS'coords'
p1852
g7
(g8
(I0
tp1853
g10
tp1854
Rp1855
(I1
(I3
tp1856
g14
(S'f8'
p1857
I0
I1
tp1858
Rp1859
(I3
S'<'
p1860
NNNI-1
I-1
I0
tp1861
bI00
S'\xcf\x01\t#\x8e<<@X\xc0\xe2\xdc\xa02T@\x94\xbc\x0f\xe1\xc7\xa1 \xc0'
p1862
tp1863
bsS'secnames'
p1864
S'Cell[3].axon[74]'
p1865
sI183
I85
tp1866
a(F1.6346354560954794
S'Cell[3].dend[41] syn_ = new FastInhib(0.1)'
p1867
I3
(dp1868
g1849
F0.5
sg1850
F39.0
sg1851
I183
sg1852
g7
(g8
(I0
tp1869
g10
tp1870
Rp1871
(I1
(I3
tp1872
g1859
I00
S'\x7f\x02l\xe5\xb6qA\xc0\x8c]\x0b\xb8\'2I@&\x8a\x8d\x0b\x0e\xf5"@'
p1873
tp1874
bsg1864
S'Cell[3].axon[141]'
p1875
sI183
I181
tp1876
a(F1.908567532432368
S'Cell[0].dend[51] syn_ = new AmpaNmda(0.5)'
p1877
I0
(dp1878
S'seg'
p1879
F0.16666666666666666
sS'hostfrom'
p1880
F40.0
sS'gid'
p1881
I88
sS'coords'
p1882
g7
(g8
(I0
tp1883
g10
tp1884
Rp1885
(I1
(I3
tp1886
g14
(S'f8'
p1887
I0
I1
tp1888
Rp1889
(I3
S'<'
p1890
NNNI-1
I-1
I0
tp1891
bI00
S'\xcd\xba@ti(K@d\xb39X\xd5\xda(@\x10\xfe:\xdc\x90d5\xc0'
p1892
tp1893
bsS'secnames'
p1894
S'Cell[1].axon[173]'
p1895
sI88
I37
tp1896
a(F0.7447393269171095
S'Cell[0].dend[22] syn_ = new AmpaNmda(0.166666666667)'
p1897
I0
(dp1898
g1879
F0.8333333333333333
sg1880
F40.0
sg1881
I88
sg1882
g7
(g8
(I0
tp1899
g10
tp1900
Rp1901
(I1
(I3
tp1902
g1889
I00
S'\x0ee\xbc+\xa7@Q\xc0*\xa6\x8a\x9e\x9d\x9f\x01\xc04\x9e2\x07\xa77D\xc0'
p1903
tp1904
bsg1894
S'Cell[1].axon[230]'
p1905
sI88
I37
tp1906
a(F1.5319297269111427
S'Cell[0].apic[1] syn_ = new AmpaNmda(0.166666666667)'
p1907
I0
(dp1908
g1879
F0.30000000000000004
sg1880
F40.0
sg1881
I88
sg1882
g7
(g8
(I0
tp1909
g10
tp1910
Rp1911
(I1
(I3
tp1912
g1889
I00
S'\xf0\xba\xb7\xa1C>3\xc0\xd7\xbc\x8d\n\xa7\xddM@\xb8\xb2\\\t\xfa80\xc0'
p1913
tp1914
bsg1894
S'Cell[1].axon[252]'
p1915
sI88
I37
tp1916
a(F2.234160923658814
S'Cell[3].dend[38] syn_ = new FastInhib(0.5)'
p1917
I3
(dp1918
g1879
F0.8333333333333333
sg1880
F40.0
sg1881
I88
sg1882
g7
(g8
(I0
tp1919
g10
tp1920
Rp1921
(I1
(I3
tp1922
g1889
I00
S"'i\x03\xac\x1dmS\xc0\x1bw\x87\xd2\xa0\xb23@\x00\x00\x00 \x85\xeb\xe9?"
p1923
tp1924
bsg1894
S'Cell[1].axon[263]'
p1925
sI88
I181
tp1926
a(F2.3389246962806722
S'Cell[2].dend[33] syn_ = new FastInhib(0.5)'
p1927
I2
(dp1928
g1879
F0.7
sg1880
F40.0
sg1881
I136
sg1882
g7
(g8
(I0
tp1929
g10
tp1930
Rp1931
(I1
(I3
tp1932
g1889
I00
S'\xb6\xdc\x06\xb4\x96!4@\x8f\x7fW#?Q\x17\xc0V\xe6\\\xab\x83\xb99\xc0'
p1933
tp1934
bsg1894
S'Cell[2].axon[94]'
p1935
sI136
I133
tp1936
a(F2.472177911689678
S'Cell[0].apic[7] syn_ = new AmpaNmda(0.0714285714286)'
p1937
I0
(dp1938
g1879
F0.16666666666666666
sg1880
F40.0
sg1881
I184
sg1882
g7
(g8
(I0
tp1939
g10
tp1940
Rp1941
(I1
(I3
tp1942
g1889
I00
S'\xe5\x97\xe0\xa8\x0e\x1e\xf3\xbf\x0cu\xd4VG\xe1T@\xcdb\xa3,sO\x08@'
p1943
tp1944
bsg1894
S'Cell[3].axon[9]'
p1945
sI184
I37
tp1946
a(F1.0343960679812692
S'Cell[0].dend[54] syn_ = new ExpSid(0.9)'
p1947
I0
(dp1948
S'seg'
p1949
F0.8333333333333333
sS'hostfrom'
p1950
F41.0
sS'gid'
p1951
I41
sS'coords'
p1952
g7
(g8
(I0
tp1953
g10
tp1954
Rp1955
(I1
(I3
tp1956
g14
(S'f8'
p1957
I0
I1
tp1958
Rp1959
(I3
S'<'
p1960
NNNI-1
I-1
I0
tp1961
bI00
S'\xdf\x86\xae\x1eU\x10;@\xa7\xa7\xb2\x87*0Y\xc0\x88;ny=\xb1)\xc0'
p1962
tp1963
bsS'secnames'
p1964
S'Cell[0].axon[50]'
p1965
sI41
I37
tp1966
a(F0.735908034972001
S'Cell[0].apic[58] syn_ = new ExpSid(0.5)'
p1967
I0
(dp1968
g1949
F0.5
sg1950
F41.0
sg1951
I185
sg1952
g7
(g8
(I0
tp1969
g10
tp1970
Rp1971
(I1
(I3
tp1972
g1959
I00
S'\x00KM&CEI@\x06\x9f\xc4-|\x8aY@\x00\x00\x00\xe0\xa3\x90G\xc0'
p1973
tp1974
bsg1964
S'Cell[3].axon[47]'
p1975
sI185
I37
tp1976
a(F2.4321437904599756
S'Cell[0].dend[19] syn_ = new ExpSid(0.5)'
p1977
I0
(dp1978
g1949
F0.5
sg1950
F41.0
sg1951
I89
sg1952
g7
(g8
(I0
tp1979
g10
tp1980
Rp1981
(I1
(I3
tp1982
g1959
I00
S'\x00\x00\x00P\xb8\x1e.\xc0\x00\x00\x00\x80\x14\xae\x1c@\x00\x00\x00@\xe1z#\xc0'
p1983
tp1984
bsg1964
S'Cell[1].soma[0]'
p1985
sI89
I37
tp1986
a(F1.805356081452712
S'Cell[0].apic[67] syn_ = new ExpSid(0.5)'
p1987
I0
(dp1988
g1949
F0.5
sg1950
F41.0
sg1951
I89
sg1952
g7
(g8
(I0
tp1989
g10
tp1990
Rp1991
(I1
(I3
tp1992
g1959
I00
S"\xb5\xef'j\x0c\xfb!\xc0\xbf\xe1\xf8\x81^6N@td\n\x8d\xc2\xf9/@"
p1993
tp1994
bsg1964
S'Cell[1].axon[144]'
p1995
sI89
I37
tp1996
a(F1.0525480735094457
S'Cell[1].dend[29] syn_ = new FastInhib(0.833333333333)'
p1997
I1
(dp1998
g1949
F0.6111111111111112
sg1950
F41.0
sg1951
I89
sg1952
g7
(g8
(I0
tp1999
g10
tp2000
Rp2001
(I1
(I3
tp2002
g1959
I00
S'\xb1@\x04\xf10\xc85@{4\xc5B\xa9\xa6P\xc0\xee\xee|j\xdb\x11\x13@'
p2003
tp2004
bsg1964
S'Cell[1].axon[155]'
p2005
sI89
I85
tp2006
a(F1.8802009836960483
S'Cell[0].dend[45] syn_ = new ExpSid(0.5)'
p2007
I0
(dp2008
g1949
F0.8333333333333333
sg1950
F41.0
sg1951
I89
sg1952
g7
(g8
(I0
tp2009
g10
tp2010
Rp2011
(I1
(I3
tp2012
g1959
I00
S'p\xcd#\xb4\xcd\xe8B@V\x83\xed\xdc\x96\xce#@\x86\x05\x10\tc\xea0\xc0'
p2013
tp2014
bsg1964
S'Cell[1].axon[159]'
p2015
sI89
I37
tp2016
a(F2.1646185422471405
S'Cell[0].dend[46] syn_ = new ExpSid(0.5)'
p2017
I0
g2008
I89
I37
tp2018
a(F1.7025433844764655
S'Cell[2].dend[7] syn_ = new FastInhib(0.166666666667)'
p2019
I2
(dp2020
S'seg'
p2021
F0.5
sS'hostfrom'
p2022
F42.0
sS'gid'
p2023
I90
sS'coords'
p2024
g7
(g8
(I0
tp2025
g10
tp2026
Rp2027
(I1
(I3
tp2028
g14
(S'f8'
p2029
I0
I1
tp2030
Rp2031
(I3
S'<'
p2032
NNNI-1
I-1
I0
tp2033
bI00
S'\x90\xbb9\x01\x9d|>\xc0l\x9d\x1c\rF\xe6>\xc0\x04\xc9E\xdbDp)@'
p2034
tp2035
bsS'secnames'
p2036
S'Cell[1].axon[17]'
p2037
sI90
I133
tp2038
a(F2.2553022883110296
S'Cell[2].dend[7] syn_ = new FastInhib(0.833333333333)'
p2039
I2
(dp2040
g2021
F0.5
sg2022
F42.0
sg2023
I90
sg2024
g7
(g8
(I0
tp2041
g10
tp2042
Rp2043
(I1
(I3
tp2044
g2031
I00
S'VkV\xd8\xf2\xa2C\xc0\x93\xd0\xc7L\r\xc9U\xc0wD y\xf550@'
p2045
tp2046
bsg2036
S'Cell[1].axon[104]'
p2047
sI90
I133
tp2048
a(F1.8650961729114715
S'Cell[1].dend[58] syn_ = new FastInhib(0.833333333333)'
p2049
I1
(dp2050
g2021
F0.1
sg2022
F42.0
sg2023
I138
sg2024
g7
(g8
(I0
tp2051
g10
tp2052
Rp2053
(I1
(I3
tp2054
g2031
I00
S'\xdc\xf6$\xeb\xef\x17:\xc0\x1e\xaa\xf6\x19\xb38R@R&\xaf\x1a\x91\x1aK@'
p2055
tp2056
bsg2036
S'Cell[2].axon[23]'
p2057
sI138
I85
tp2058
a(F1.9880946235344037
S'Cell[3].dend[1] syn_ = new FastInhib(0.166666666667)'
p2059
I3
(dp2060
g2021
F0.8333333333333333
sg2022
F42.0
sg2023
I138
sg2024
g7
(g8
(I0
tp2061
g10
tp2062
Rp2063
(I1
(I3
tp2064
g2031
I00
S':\xd0\xc6\xd6Wd@@a\xec\xc1\x0b\xbfqS@Y\xbf\xe8\x94\xf4\xa6G@'
p2065
tp2066
bsg2036
S'Cell[2].axon[84]'
p2067
sI138
I181
tp2068
a(F2.390730716684597
S'Cell[2].dend[7] syn_ = new FastInhib(0.5)'
p2069
I2
(dp2070
g2021
F0.5
sg2022
F42.0
sg2023
I186
sg2024
g7
(g8
(I0
tp2071
g10
tp2072
Rp2073
(I1
(I3
tp2074
g2031
I00
S'\x15\xc2\x05?\xd8\x84B\xc0[\xec\xda\xfa\xf2\x1dM\xc0\xd0\x97\xe6\xb0]\x13"@'
p2075
tp2076
bsg2036
S'Cell[3].axon[123]'
p2077
sI186
I133
tp2078
a(F2.243828881464706
S'Cell[0].apic[19] syn_ = new ExpSid(0.5)'
p2079
I0
(dp2080
S'seg'
p2081
F0.5
sS'hostfrom'
p2082
F43.0
sS'gid'
p2083
I91
sS'coords'
p2084
g7
(g8
(I0
tp2085
g10
tp2086
Rp2087
(I1
(I3
tp2088
g14
(S'f8'
p2089
I0
I1
tp2090
Rp2091
(I3
S'<'
p2092
NNNI-1
I-1
I0
tp2093
bI00
S'x\x8c\x8c\xefv\xacX@\x89\x9f@\xbd\x86\xddX@2T\x1f^\x14-H\xc0'
p2094
tp2095
bsS'secnames'
p2096
S'Cell[1].axon[132]'
p2097
sI91
I37
tp2098
a(F2.229744713976076
S'Cell[0].apic[19] syn_ = new ExpSid(0.5)'
p2099
I0
(dp2100
g2081
F0.5
sg2082
F43.0
sg2083
I91
sg2084
g7
(g8
(I0
tp2101
g10
tp2102
Rp2103
(I1
(I3
tp2104
g2091
I00
S'<A\x00\xdf\xbb$Y@\xdacv\xb2%/Y@M\xee\xd9\xa0x0H\xc0'
p2105
tp2106
bsg2096
S'Cell[1].axon[133]'
p2107
sI91
I37
tp2108
a(F1.8862512425583409
S'Cell[0].apic[12] syn_ = new ExpSid(0.5)'
p2109
I0
(dp2110
g2081
F0.5
sg2082
F43.0
sg2083
I91
sg2084
g7
(g8
(I0
tp2111
g10
tp2112
Rp2113
(I1
(I3
tp2114
g2091
I00
S'\x80\x99\xdd\x18d\xe6\x1e\xc0\xb7\x17\xe88Q\xc2^@\x10\x94\xc6`\xdc\x8c\x12\xc0'
p2115
tp2116
bsg2096
S'Cell[1].axon[229]'
p2117
sI91
I37
tp2118
a(F2.4554444050222055
S'Cell[1].dend[53] syn_ = new FastInhib(0.9)'
p2119
I1
(dp2120
g2081
F0.5
sg2082
F43.0
sg2083
I91
sg2084
g7
(g8
(I0
tp2121
g10
tp2122
Rp2123
(I1
(I3
tp2124
g2091
I00
S'\xa8*Lc\x05\xdeH@u\xcai#N\xb6S@\x17\xdf?Y\xfa\xe9-\xc0'
p2125
tp2126
bsg2096
S'Cell[1].axon[329]'
p2127
sI91
I85
tp2128
a(F2.2457971027181185
S'Cell[3].dend[14] syn_ = new FastInhib(0.833333333333)'
p2129
I3
(dp2130
g2081
F0.8333333333333333
sg2082
F43.0
sg2083
I91
sg2084
g7
(g8
(I0
tp2131
g10
tp2132
Rp2133
(I1
(I3
tp2134
g2091
I00
S'dN: \x06\xd58@x\xbd\xa9V{7*\xc0\x00\x00\x00\x80\xeb\xd1*@'
p2135
tp2136
bsg2096
S'Cell[1].axon[435]'
p2137
sI91
I181
tp2138
a(F1.3726391134202556
S'Cell[0].dend[4] syn_ = new ExpSid(0.166666666667)'
p2139
I0
(dp2140
g2081
F0.5
sg2082
F43.0
sg2083
I139
sg2084
g7
(g8
(I0
tp2141
g10
tp2142
Rp2143
(I1
(I3
tp2144
g2091
I00
S'\xe0\xedO\xebD\x84:\xc0\xef\xaa\xa0\xeb\x93\x876@F\xb7\xca\x05\t\xd5;\xc0'
p2145
tp2146
bsg2096
S'Cell[2].axon[376]'
p2147
sI139
I37
tp2148
a(F2.102393234126389
S'Cell[3].dend[39] syn_ = new FastInhib(0.1)'
p2149
I3
(dp2150
g2081
F0.5
sg2082
F43.0
sg2083
I139
sg2084
g7
(g8
(I0
tp2151
g10
tp2152
Rp2153
(I1
(I3
tp2154
g2091
I00
S'"#\xca\x9a\xde\x82R\xc0%\xe8\xc4\x8f\x85O8@\x9c\xfaY\xdf<\x88\'\xc0'
p2155
tp2156
bsg2096
S'Cell[2].axon[399]'
p2157
sI139
I181
tp2158
a(F1.456726221676249
S'Cell[2].dend[30] syn_ = new FastInhib(0.5)'
p2159
I2
(dp2160
S'seg'
p2161
F0.5
sS'hostfrom'
p2162
F44.0
sS'gid'
p2163
I92
sS'coords'
p2164
g7
(g8
(I0
tp2165
g10
tp2166
Rp2167
(I1
(I3
tp2168
g14
(S'f8'
p2169
I0
I1
tp2170
Rp2171
(I3
S'<'
p2172
NNNI-1
I-1
I0
tp2173
bI00
S'\xef\xa9N\x9d\x84\xb2\x01@\xb8\xb6Fh0j*@s\x9d:\xc4\xd5b\x1f\xc0'
p2174
tp2175
bsS'secnames'
p2176
S'Cell[1].axon[210]'
p2177
sI92
I133
tp2178
a(F2.148899661905395
S'Cell[1].dend[54] syn_ = new FastInhib(0.833333333333)'
p2179
I1
(dp2180
g2161
F0.5
sg2162
F44.0
sg2163
I92
sg2164
g7
(g8
(I0
tp2181
g10
tp2182
Rp2183
(I1
(I3
tp2184
g2171
I00
S'\x8e\xd2\xbcP\x08HP@\x8a\xbf\x8c^\xd4\x1fS@\xa20GA\xce1F\xc0'
p2185
tp2186
bsg2176
S'Cell[1].axon[235]'
p2187
sI92
I85
tp2188
a(F2.2958170081252467
S'Cell[1].dend[59] syn_ = new FastInhib(0.0714285714286)'
p2189
I1
(dp2190
g2161
F0.5
sg2162
F44.0
sg2163
I188
sg2164
g7
(g8
(I0
tp2191
g10
tp2192
Rp2193
(I1
(I3
tp2194
g2171
I00
S'\xf2h\xaa\xeb\xdb$\x13@\xca\xb3\xbb\xf0\x03\x19M@H9\xc4\x9aX%\x1f\xc0'
p2195
tp2196
bsg2176
S'Cell[3].axon[46]'
p2197
sI188
I85
tp2198
a(F2.3995640608639457
S'Cell[2].dend[2] syn_ = new FastInhib(0.166666666667)'
p2199
I2
(dp2200
g2161
F0.16666666666666666
sg2162
F44.0
sg2163
I188
sg2164
g7
(g8
(I0
tp2201
g10
tp2202
Rp2203
(I1
(I3
tp2204
g2171
I00
S'\x9e_\xf4\rV\x12-\xc0\x89tO\xf4\xfd\xdc\x16@\xb1"\xca\x96\xb4\x99&@'
p2205
tp2206
bsg2176
S'Cell[3].axon[223]'
p2207
sI188
I133
tp2208
a(F2.046050158277655
S'Cell[2].dend[8] syn_ = new FastInhib(0.5)'
p2209
I2
(dp2210
g2161
F0.5
sg2162
F44.0
sg2163
I188
sg2164
g7
(g8
(I0
tp2211
g10
tp2212
Rp2213
(I1
(I3
tp2214
g2171
I00
S'\x00\x00\x00@3\xb31\xc0\xe7A\x04\x9ff\xab-@^\xb0\x17g\xc62\x1e@'
p2215
tp2216
bsg2176
S'Cell[3].axon[223]'
p2217
sI188
I133
tp2218
a(F2.1887330837934065
S'Cell[0].dend[13] syn_ = new AmpaNmda(0.785714285714)'
p2219
I0
(dp2220
g2161
F0.5
sg2162
F44.0
sg2163
I44
sg2164
g7
(g8
(I0
tp2221
g10
tp2222
Rp2223
(I1
(I3
tp2224
g2171
I00
S'\x00\x00\x00\xa0\x99}`\xc0\x00\x00\x00 \x85\xa3P@\x00\x00\x00\xa0p=?@'
p2225
tp2226
bsg2176
S'Cell[0].axon[15]'
p2227
sI44
I37
tp2228
a(F1.6435691666033019
S'Cell[0].dend[19] syn_ = new AmpaNmda(0.5)'
p2229
I0
(dp2230
g2161
F0.8333333333333333
sg2162
F44.0
sg2163
I44
sg2164
g7
(g8
(I0
tp2231
g10
tp2232
Rp2233
(I1
(I3
tp2234
g2171
I00
S'\xba&o\x80\xbd\xc5)\xc0F\xb2\x06\xe5/\x1c!@\n\xf6\xe6\x18C)\x1e\xc0'
p2235
tp2236
bsg2176
S'Cell[0].axon[17]'
p2237
sI44
I37
tp2238
a(F2.077276790833012
S'Cell[2].dend[36] syn_ = new FastInhib(0.166666666667)'
p2239
I2
(dp2240
S'seg'
p2241
F0.5
sS'hostfrom'
p2242
F45.0
sS'gid'
p2243
I141
sS'coords'
p2244
g7
(g8
(I0
tp2245
g10
tp2246
Rp2247
(I1
(I3
tp2248
g14
(S'f8'
p2249
I0
I1
tp2250
Rp2251
(I3
S'<'
p2252
NNNI-1
I-1
I0
tp2253
bI00
S':!+#2U;@X\xa4\xbe8\x18o\t@\x91L7@\x9d\xa6+\xc0'
p2254
tp2255
bsS'secnames'
p2256
S'Cell[2].axon[46]'
p2257
sI141
I133
tp2258
a(F2.0760900650752454
S'Cell[2].dend[34] syn_ = new FastInhib(0.5)'
p2259
I2
(dp2260
g2241
F0.5
sg2242
F45.0
sg2243
I141
sg2244
g7
(g8
(I0
tp2261
g10
tp2262
Rp2263
(I1
(I3
tp2264
g2251
I00
S'\xb8NU\xc8h\xef(@\xf94r\xe9\xbaJ"@\x94o\x03\xf8@Q)\xc0'
p2265
tp2266
bsg2256
S'Cell[2].axon[74]'
p2267
sI141
I133
tp2268
a(F1.5742122749291623
S'Cell[3].dend[22] syn_ = new FastInhib(0.166666666667)'
p2269
I3
(dp2270
g2241
F0.5
sg2242
F45.0
sg2243
I141
sg2244
g7
(g8
(I0
tp2271
g10
tp2272
Rp2273
(I1
(I3
tp2274
g2251
I00
S'\xf0\xdbF\xd1`\x8d9\xc0J\xd9(\xc8Rn6\xc0F>\x04\xa0U\xef\x12\xc0'
p2275
tp2276
bsg2256
S'Cell[2].axon[143]'
p2277
sI141
I181
tp2278
a(F2.2564292304336893
S'Cell[0].dend[35] syn_ = new ExpSid(0.833333333333)'
p2279
I0
(dp2280
g2241
F0.5
sg2242
F45.0
sg2243
I141
sg2244
g7
(g8
(I0
tp2281
g10
tp2282
Rp2283
(I1
(I3
tp2284
g2251
I00
S'\xdd\xf2\xb6[\xe6\x94L@$\xd0D\xf9\xbbR\xf9\xbf\x00\x00\x00@\n\xd7!\xc0'
p2285
tp2286
bsg2256
S'Cell[2].axon[477]'
p2287
sI141
I37
tp2288
a(F2.474285986181682
S'Cell[1].dend[35] syn_ = new FastInhib(0.3)'
p2289
I1
(dp2290
g2241
F0.5
sg2242
F45.0
sg2243
I141
sg2244
g7
(g8
(I0
tp2291
g10
tp2292
Rp2293
(I1
(I3
tp2294
g2251
I00
S'\x0f/\x0b\xabI\x90H@"x\x8f]3\x86/\xc0(J\x13\xc2\xc5\xce\x15@'
p2295
tp2296
bsg2256
S'Cell[2].axon[516]'
p2297
sI141
I85
tp2298
a(F2.1791233432466766
S'Cell[2].dend[29] syn_ = new FastInhib(0.5)'
p2299
I2
(dp2300
g2241
F0.8333333333333333
sg2242
F45.0
sg2243
I189
sg2244
g7
(g8
(I0
tp2301
g10
tp2302
Rp2303
(I1
(I3
tp2304
g2251
I00
S'\xfc\xbc\x90\xd1\x14@\xeb?\x1c\xfb\x8a\x12\x89\x9e/@\x00\x00\x00\x00)\\\x1b\xc0'
p2305
tp2306
bsg2256
S'Cell[3].axon[0]'
p2307
sI189
I133
tp2308
a(F2.4798313430926555
S'Cell[0].dend[52] syn_ = new ExpSid(0.5)'
p2309
I0
(dp2310
g2241
F0.16666666666666666
sg2242
F45.0
sg2243
I189
sg2244
g7
(g8
(I0
tp2311
g10
tp2312
Rp2313
(I1
(I3
tp2314
g2251
I00
S'|\xe0m\x01\xdfMQ@\x98\xe4\xda\x9d\x8a\x90\x1b@\x94\xd9I\xba\x81V:\xc0'
p2315
tp2316
bsg2256
S'Cell[3].axon[164]'
p2317
sI189
I37
tp2318
a(F2.260346654855908
S'Cell[1].dend[56] syn_ = new FastInhib(0.5)'
p2319
I1
(dp2320
g2241
F0.5
sg2242
F45.0
sg2243
I93
sg2244
g7
(g8
(I0
tp2321
g10
tp2322
Rp2323
(I1
(I3
tp2324
g2251
I00
S'.\x967\xb0\x00\xebH@\xfb\xc7z\xf3\xe2\x81U@\x00\x00\x00`\x8f\x02=\xc0'
p2325
tp2326
bsg2256
S'Cell[1].axon[236]'
p2327
sI93
I85
tp2328
a(F0.8532478320256648
S'Cell[1].dend[38] syn_ = new FastInhib(0.928571428571)'
p2329
I1
(dp2330
S'seg'
p2331
F0.5
sS'hostfrom'
p2332
F47.0
sS'gid'
p2333
I95
sS'coords'
p2334
g7
(g8
(I0
tp2335
g10
tp2336
Rp2337
(I1
(I3
tp2338
g14
(S'f8'
p2339
I0
I1
tp2340
Rp2341
(I3
S'<'
p2342
NNNI-1
I-1
I0
tp2343
bI00
S']M\x11\xcdp\x9dS@\x0b\x1f\x07\x06#\xc5K\xc0\xe9<\xb3\xae{\x84-\xc0'
p2344
tp2345
bsS'secnames'
p2346
S'Cell[1].axon[338]'
p2347
sI95
I85
tp2348
a(F2.32372789759489
S'Cell[1].dend[39] syn_ = new FastInhib(0.5)'
p2349
I1
(dp2350
g2331
F0.8999999999999999
sg2332
F47.0
sg2333
I143
sg2334
g7
(g8
(I0
tp2351
g10
tp2352
Rp2353
(I1
(I3
tp2354
g2341
I00
S'Dg\xb5\x93H\xce7@\x8f\x84qW\x84\xe6J@X\xde>\x80\x90\xa8\xf8\xbf'
p2355
tp2356
bsg2346
S'Cell[2].axon[84]'
p2357
sI143
I85
tp2358
a(F1.8614675879102105
S'Cell[3].dend[19] syn_ = new FastInhib(0.5)'
p2359
I3
(dp2360
g2331
F0.5
sg2332
F47.0
sg2333
I143
sg2334
g7
(g8
(I0
tp2361
g10
tp2362
Rp2363
(I1
(I3
tp2364
g2341
I00
S'"\xecr\x9e)\xea\x1e@\xd6\x0e\xf9)`u=@\x00\x00\x00\xc0\xf5\xa8"@'
p2365
tp2366
bsg2346
S'Cell[2].axon[115]'
p2367
sI143
I181
tp2368
a(F2.4074697356100834
S'Cell[1].dend[48] syn_ = new FastInhib(0.166666666667)'
p2369
I1
(dp2370
g2331
F0.21428571428571427
sg2332
F47.0
sg2333
I143
sg2334
g7
(g8
(I0
tp2371
g10
tp2372
Rp2373
(I1
(I3
tp2374
g2341
I00
S'\x99\xa2<\xd5\xa0\xd5I@\xda!o\xc26AM@\xaa\xf2G\xf4\x8d^\x14\xc0'
p2375
tp2376
bsg2346
S'Cell[2].axon[134]'
p2377
sI143
I85
tp2378
a(F1.9111612242287688
S'Cell[1].dend[40] syn_ = new FastInhib(0.5)'
p2379
I1
(dp2380
g2331
F0.5
sg2332
F47.0
sg2333
I143
sg2334
g7
(g8
(I0
tp2381
g10
tp2382
Rp2383
(I1
(I3
tp2384
g2341
I00
S'\xc5\xdc\xc6I\xea\xb1<@\\\xdbP\x82h\xdbP@mP\x8a\x11+\x8d\x05\xc0'
p2385
tp2386
bsg2346
S'Cell[2].axon[135]'
p2387
sI143
I85
tp2388
a(F1.5467715687035093
S'Cell[0].apic[9] syn_ = new ExpSid(0.5)'
p2389
I0
(dp2390
g2331
F0.5
sg2332
F47.0
sg2333
I143
sg2334
g7
(g8
(I0
tp2391
g10
tp2392
Rp2393
(I1
(I3
tp2394
g2341
I00
S'@\x9e\x01A\xb2k\x1a\xc0\xcd`\x9e\'8/V@H\xe0\xe0\xe5\xad"1\xc0'
p2395
tp2396
bsg2346
S'Cell[2].axon[136]'
p2397
sI143
I37
tp2398
a(F2.278105787301195
S'Cell[3].dend[83] syn_ = new FastInhib(0.9)'
p2399
I3
(dp2400
g2331
F0.5
sg2332
F47.0
sg2333
I143
sg2334
g7
(g8
(I0
tp2401
g10
tp2402
Rp2403
(I1
(I3
tp2404
g2341
I00
S'pt\xbf\xe6+Mk@O\xf7Td\xb7\x11A\xc0\x00\x00\x00\x00\xd7\xa3\x1a@'
p2405
tp2406
bsg2346
S'Cell[2].axon[220]'
p2407
sI143
I181
tp2408
a.