(lp0
(F2.159642471820724
S'Cell[2].dend[5] syn_ = new FastInhib(0.5)'
p1
I2
(dp2
S'seg'
p3
F0.07142857142857142
sS'hostfrom'
p4
F1.0
sS'gid'
p5
I145
sS'coords'
p6
cnumpy.core.multiarray
_reconstruct
p7
(cnumpy
ndarray
p8
(I0
tp9
S'b'
p10
tp11
Rp12
(I1
(I3
tp13
cnumpy
dtype
p14
(S'f8'
p15
I0
I1
tp16
Rp17
(I3
S'<'
p18
NNNI-1
I-1
I0
tp19
bI00
S'\xdd\xc8w.\x90\xbfU\xc0\xe1\x90\xe1\xddl\xc12@\x88\xf58\xb4\x80"\x18@'
p20
tp21
bsS'secnames'
p22
S'Cell[3].axon[57]'
p23
sI145
I102
tp24
a(F2.20974929928415
S'Cell[1].apic[46] syn_ = new ExpSid(0.5)'
p25
I1
(dp26
g3
F0.5
sg4
F1.0
sg5
I97
sg6
g7
(g8
(I0
tp27
g10
tp28
Rp29
(I1
(I3
tp30
g17
I00
S'\x86\xb3\xa2\xcd\x98WV@\xe3\\?\xdbZ\x125@7\x15\xf0\xdd\xee\x94@\xc0'
p31
tp32
bsg22
S'Cell[2].axon[197]'
p33
sI97
I54
tp34
a(F1.728022175259227
S'Cell[3].dend[16] syn_ = new FastInhib(0.5)'
p35
I3
(dp36
g3
F0.5
sg4
F1.0
sg5
I97
sg6
g7
(g8
(I0
tp37
g10
tp38
Rp39
(I1
(I3
tp40
g17
I00
S'\xc0_\xed,\xe1\x1f \xc0Tg\xef\xff\xcc[K@\xb2\x08\xe5\x12\xbd\xe6,@'
p41
tp42
bsg22
S'Cell[2].axon[220]'
p43
sI97
I150
tp44
a(F2.027309288511154
S'Cell[2].dend[16] syn_ = new FastInhib(0.166666666667)'
p45
I2
(dp46
S'seg'
p47
F0.5
sS'hostfrom'
p48
F2.0
sS'gid'
p49
I98
sS'coords'
p50
g7
(g8
(I0
tp51
g10
tp52
Rp53
(I1
(I3
tp54
g14
(S'f8'
p55
I0
I1
tp56
Rp57
(I3
S'<'
p58
NNNI-1
I-1
I0
tp59
bI00
S'\x1b\xde\x1a&@\x12,\xc0\xbc\x07:\xcaf`>@\x87\x81F.\xc4S\x19@'
p60
tp61
bsS'secnames'
p62
S'Cell[2].axon[17]'
p63
sI98
I102
tp64
a(F2.1015665214030603
S'Cell[0].dend[33] syn_ = new AmpaNmda(0.3)'
p65
I0
(dp66
g47
F0.8999999999999999
sg48
F2.0
sg49
I98
sg50
g7
(g8
(I0
tp67
g10
tp68
Rp69
(I1
(I3
tp70
g57
I00
S'\x00\x00\x00`\x8f\x82B\xc0f.\x83R88G\xc0\xfdSr39bL\xc0'
p71
tp72
bsg62
S'Cell[2].axon[228]'
p73
sI98
I6
tp74
a(F2.236767665078616
S'Cell[0].dend[38] syn_ = new AmpaNmda(0.833333333333)'
p75
I0
(dp76
g47
F0.8333333333333333
sg48
F2.0
sg49
I98
sg50
g7
(g8
(I0
tp77
g10
tp78
Rp79
(I1
(I3
tp80
g57
I00
S'\x1dy\x94T\xa6\x1aS\xc0\xac\xa8T\x17\x8f\x02N\xc0\xd2X\x93\xda>SJ\xc0'
p81
tp82
bsg62
S'Cell[2].axon[230]'
p83
sI98
I6
tp84
a(F2.4882770681583457
S'Cell[1].apic[72] syn_ = new AmpaNmda(0.388888888889)'
p85
I1
(dp86
g47
F0.5
sg48
F2.0
sg49
I98
sg50
g7
(g8
(I0
tp87
g10
tp88
Rp89
(I1
(I3
tp90
g57
I00
S'\xf7fY\x12\xf1r\x16\xc0#\x8d6\xe5\xae\xbb\\@\x00\x00\x00\xe0z\x94&\xc0'
p91
tp92
bsg62
S'Cell[2].axon[434]'
p93
sI98
I54
tp94
a(F1.992231826674265
S'Cell[2].dend[33] syn_ = new FastInhib(0.5)'
p95
I2
(dp96
g47
F0.8333333333333333
sg48
F2.0
sg49
I98
sg50
g7
(g8
(I0
tp97
g10
tp98
Rp99
(I1
(I3
tp100
g57
I00
S'\x00\x00\x00\xe0Q\xb8!\xc0~\x14\xe2\xf9(\xe7P\xc0\x986c@\xd3\xfd"@'
p101
tp102
bsg62
S'Cell[2].axon[466]'
p103
sI98
I102
tp104
a(F2.4856252349607972
S'Cell[1].dend[9] syn_ = new AmpaNmda(0.5)'
p105
I1
(dp106
g47
F0.8333333333333333
sg48
F2.0
sg49
I146
sg50
g7
(g8
(I0
tp107
g10
tp108
Rp109
(I1
(I3
tp110
g57
I00
S'/\xc1HHT\x0fS@\xe5\x13U\x99\xf5(\x13\xc0\x00\x00\x00@33\xfb\xbf'
p111
tp112
bsg62
S'Cell[3].axon[227]'
p113
sI146
I54
tp114
a(F2.027309288511154
S'Cell[2].dend[16] syn_ = new FastInhib(0.166666666667)'
p115
I2
(dp116
S'seg'
p117
F0.5
sS'hostfrom'
p118
F3.0
sS'gid'
p119
I99
sS'coords'
p120
g7
(g8
(I0
tp121
g10
tp122
Rp123
(I1
(I3
tp124
g14
(S'f8'
p125
I0
I1
tp126
Rp127
(I3
S'<'
p128
NNNI-1
I-1
I0
tp129
bI00
S'\x1b\xde\x1a&@\x12,\xc0\xbc\x07:\xcaf`>@\x87\x81F.\xc4S\x19@'
p130
tp131
bsS'secnames'
p132
S'Cell[2].axon[17]'
p133
sI99
I102
tp134
a(F2.1015665214030603
S'Cell[0].dend[33] syn_ = new ExpSid(0.3)'
p135
I0
(dp136
g117
F0.8999999999999999
sg118
F3.0
sg119
I99
sg120
g7
(g8
(I0
tp137
g10
tp138
Rp139
(I1
(I3
tp140
g127
I00
S'\x00\x00\x00`\x8f\x82B\xc0f.\x83R88G\xc0\xfdSr39bL\xc0'
p141
tp142
bsg132
S'Cell[2].axon[228]'
p143
sI99
I6
tp144
a(F2.236767665078616
S'Cell[0].dend[38] syn_ = new ExpSid(0.833333333333)'
p145
I0
(dp146
g117
F0.8333333333333333
sg118
F3.0
sg119
I99
sg120
g7
(g8
(I0
tp147
g10
tp148
Rp149
(I1
(I3
tp150
g127
I00
S'\x1dy\x94T\xa6\x1aS\xc0\xac\xa8T\x17\x8f\x02N\xc0\xd2X\x93\xda>SJ\xc0'
p151
tp152
bsg132
S'Cell[2].axon[230]'
p153
sI99
I6
tp154
a(F2.4882770681583457
S'Cell[1].apic[72] syn_ = new ExpSid(0.388888888889)'
p155
I1
(dp156
g117
F0.5
sg118
F3.0
sg119
I99
sg120
g7
(g8
(I0
tp157
g10
tp158
Rp159
(I1
(I3
tp160
g127
I00
S'\xf7fY\x12\xf1r\x16\xc0#\x8d6\xe5\xae\xbb\\@\x00\x00\x00\xe0z\x94&\xc0'
p161
tp162
bsg132
S'Cell[2].axon[434]'
p163
sI99
I54
tp164
a(F1.992231826674265
S'Cell[2].dend[33] syn_ = new FastInhib(0.5)'
p165
I2
(dp166
g117
F0.8333333333333333
sg118
F3.0
sg119
I99
sg120
g7
(g8
(I0
tp167
g10
tp168
Rp169
(I1
(I3
tp170
g127
I00
S'\x00\x00\x00\xe0Q\xb8!\xc0~\x14\xe2\xf9(\xe7P\xc0\x986c@\xd3\xfd"@'
p171
tp172
bsg132
S'Cell[2].axon[466]'
p173
sI99
I102
tp174
a(F1.3085630188865591
S'Cell[1].dend[6] syn_ = new ExpSid(0.5)'
p175
I1
(dp176
g117
F0.5
sg118
F3.0
sg119
I3
sg120
g7
(g8
(I0
tp177
g10
tp178
Rp179
(I1
(I3
tp180
g127
I00
S'\x00\x00\x00\xf0Q\xb8#@\x01\x00\x00 \xae\x875\xc0\x00\x00\x00@\n\xd7-@'
p181
tp182
bsg132
S'Cell[0].soma[0]'
p183
sI3
I54
tp184
a(F2.2624580322058305
S'Cell[2].dend[40] syn_ = new FastInhib(0.166666666667)'
p185
I2
(dp186
g117
F0.42307692307692313
sg118
F3.0
sg119
I3
sg120
g7
(g8
(I0
tp187
g10
tp188
Rp189
(I1
(I3
tp190
g127
I00
S'_\xe3\xce\xfd\xa3\xa2"@\xec\xb8]\x020TS@\x00\x00\x00\xa0\x99\x991@'
p191
tp192
bsg132
S'Cell[0].axon[5]'
p193
sI3
I102
tp194
a(F2.351198588321814
S'Cell[2].dend[21] syn_ = new FastInhib(0.3)'
p195
I2
(dp196
g117
F0.21428571428571427
sg118
F3.0
sg119
I147
sg120
g7
(g8
(I0
tp197
g10
tp198
Rp199
(I1
(I3
tp200
g127
I00
S'\xd1\xb5t\x8c\xea$<\xc0\xf9*OPL\tW@\x1b\xc6\x84EG\xc6 \xc0'
p201
tp202
bsg132
S'Cell[3].axon[94]'
p203
sI147
I102
tp204
a(F1.8183584126517824
S'Cell[0].dend[52] syn_ = new AmpaNmda(0.642857142857)'
p205
I0
(dp206
S'seg'
p207
F0.16666666666666666
sS'hostfrom'
p208
F4.0
sS'gid'
p209
I148
sS'coords'
p210
g7
(g8
(I0
tp211
g10
tp212
Rp213
(I1
(I3
tp214
g14
(S'f8'
p215
I0
I1
tp216
Rp217
(I3
S'<'
p218
NNNI-1
I-1
I0
tp219
bI00
S'\x01s`\x18\xf2\xfd3@#\xd8\xf5\x0eY\xd9a\xc0\x00\x00\x00\xa0p}5\xc0'
p220
tp221
bsS'secnames'
p222
S'Cell[3].axon[117]'
p223
sI148
I6
tp224
a(F1.9996548504462694
S'Cell[0].apic[30] syn_ = new AmpaNmda(0.5)'
p225
I0
(dp226
g207
F0.7
sg208
F4.0
sg209
I148
sg210
g7
(g8
(I0
tp227
g10
tp228
Rp229
(I1
(I3
tp230
g217
I00
S'/w\xb4X\xe8E\x19\xc0\xc3\x02XO\xb4\x0fY@jS4/\xff$U\xc0'
p231
tp232
bsg222
S'Cell[3].axon[257]'
p233
sI148
I6
tp234
a(F1.3180174271286655
S'Cell[3].dend[1] syn_ = new FastInhib(0.5)'
p235
I3
(dp236
S'seg'
p237
F0.16666666666666666
sS'hostfrom'
p238
F5.0
sS'gid'
p239
I149
sS'coords'
p240
g7
(g8
(I0
tp241
g10
tp242
Rp243
(I1
(I3
tp244
g14
(S'f8'
p245
I0
I1
tp246
Rp247
(I3
S'<'
p248
NNNI-1
I-1
I0
tp249
bI00
S'\x92\x02\r\xba\xe2\xde\x02\xc0\xec\xc3K\xb9\xaf\x086@\x0e]\xd2\xec\xfd\xff\x1b@'
p250
tp251
bsS'secnames'
p252
S'Cell[3].axon[12]'
p253
sI149
I150
tp254
a(F1.6148561220373814
S'Cell[3].dend[2] syn_ = new FastInhib(0.5)'
p255
I3
g236
I149
I150
tp256
a(F1.4434062924182494
S'Cell[2].dend[1] syn_ = new FastInhib(0.5)'
p257
I2
(dp258
g237
F0.5
sg238
F5.0
sg239
I149
sg240
g7
(g8
(I0
tp259
g10
tp260
Rp261
(I1
(I3
tp262
g247
I00
S'\xea\x93\x12a\x8e[4\xc0\x00\xdb\x9c\x04\x90=;@\xc6\x17\xe3\xe7\x8f\x84\x14@'
p263
tp264
bsg252
S'Cell[3].axon[13]'
p265
sI149
I102
tp266
a(F2.4219877954120235
S'Cell[3].dend[0] syn_ = new FastInhib(0.5)'
p267
I3
(dp268
g237
F0.16666666666666666
sg238
F5.0
sg239
I5
sg240
g7
(g8
(I0
tp269
g10
tp270
Rp271
(I1
(I3
tp272
g247
I00
S'\x1c,\xb9\x90D\xa3A@(\xc1\xc9\xa2\x86\xcaI@\x00\x00\x00`\x8fBC\xc0'
p273
tp274
bsg252
S'Cell[0].axon[77]'
p275
sI5
I150
tp276
a(F1.5979689214507744
S'Cell[0].dend[57] syn_ = new AmpaNmda(0.166666666667)'
p277
I0
(dp278
S'seg'
p279
F0.7
sS'hostfrom'
p280
F6.0
sS'gid'
p281
I150
sS'coords'
p282
g7
(g8
(I0
tp283
g10
tp284
Rp285
(I1
(I3
tp286
g14
(S'f8'
p287
I0
I1
tp288
Rp289
(I3
S'<'
p290
NNNI-1
I-1
I0
tp291
bI00
S']\xa3\xd5\x02\xe2w<@\x96\xf8\x95*\xe2\x10a\xc0\x00\x00\x00\x80\x14\xee>\xc0'
p292
tp293
bsS'secnames'
p294
S'Cell[3].axon[115]'
p295
sI150
I6
tp296
a(F1.816423623881351
S'Cell[0].dend[75] syn_ = new ExpSid(0.5)'
p297
I0
(dp298
S'seg'
p299
F0.7
sS'hostfrom'
p300
F7.0
sS'gid'
p301
I103
sS'coords'
p302
g7
(g8
(I0
tp303
g10
tp304
Rp305
(I1
(I3
tp306
g14
(S'f8'
p307
I0
I1
tp308
Rp309
(I3
S'<'
p310
NNNI-1
I-1
I0
tp311
bI00
S'n\xbe;U\x9f\xf29@\x1d[AQ\xf12*\xc0\xb4\x83\x8d\xbd\xe1|\x1a\xc0'
p312
tp313
bsS'secnames'
p314
S'Cell[2].axon[8]'
p315
sI103
I6
tp316
a(F0.6096982618975947
S'Cell[2].dend[21] syn_ = new FastInhib(0.5)'
p317
I2
(dp318
g299
F0.5
sg300
F7.0
sg301
I103
sg302
g7
(g8
(I0
tp319
g10
tp320
Rp321
(I1
(I3
tp322
g309
I00
S'ho\xc8\x17}SH\xc0\xf7\xaa\xe3\x8ff\x88X@`\xd9DE\xd6\\1\xc0'
p323
tp324
bsg314
S'Cell[2].axon[181]'
p325
sI103
I102
tp326
a(F1.7242144105588255
S'Cell[2].dend[43] syn_ = new FastInhib(0.5)'
p327
I2
(dp328
g299
F0.8333333333333333
sg300
F7.0
sg301
I103
sg302
g7
(g8
(I0
tp329
g10
tp330
Rp331
(I1
(I3
tp332
g309
I00
S'\x0f\xcc\xa2{\x16\x86\x0e@#\x83\x06i\x0e;\xf0?\x00\x00\x00`\x8f\xc2\x01@'
p333
tp334
bsg314
S'Cell[2].axon[262]'
p335
sI103
I102
tp336
a(F2.440681112781632
S'Cell[1].dend[8] syn_ = new ExpSid(0.5)'
p337
I1
(dp338
g299
F0.5
sg300
F7.0
sg301
I103
sg302
g7
(g8
(I0
tp339
g10
tp340
Rp341
(I1
(I3
tp342
g309
I00
S'\xbew"\xb0}\x95W@\xc2\xa1\xc6\xc9\x15\xfe/\xc0\xf8\xa6\xa5\xf6>\x95+\xc0'
p343
tp344
bsg314
S'Cell[2].axon[354]'
p345
sI103
I54
tp346
a(F2.3516349447192564
S'Cell[0].dend[49] syn_ = new ExpSid(0.5)'
p347
I0
(dp348
g299
F0.16666666666666666
sg300
F7.0
sg301
I151
sg302
g7
(g8
(I0
tp349
g10
tp350
Rp351
(I1
(I3
tp352
g309
I00
S'[!\x16\xa1\xfc\x90%\xc0\xccq\xda\xbb,\x1aI\xc0\x13X\xccF\xdd\xf18\xc0'
p353
tp354
bsg314
S'Cell[3].axon[13]'
p355
sI151
I6
tp356
a(F2.4780894427201408
S'Cell[2].dend[21] syn_ = new FastInhib(0.5)'
p357
I2
(dp358
g299
F0.8999999999999999
sg300
F7.0
sg301
I151
sg302
g7
(g8
(I0
tp359
g10
tp360
Rp361
(I1
(I3
tp362
g309
I00
S'\xc2\xdbX\xee\x16\x1cI\xc0Pt\xc15VxX@g\xfe\x8b\x08\xd2\xa22\xc0'
p363
tp364
bsg314
S'Cell[3].axon[94]'
p365
sI151
I102
tp366
a(F2.348438996890794
S'Cell[2].dend[58] syn_ = new FastInhib(0.1)'
p367
I2
(dp368
g299
F0.5
sg300
F7.0
sg301
I151
sg302
g7
(g8
(I0
tp369
g10
tp370
Rp371
(I1
(I3
tp372
g309
I00
S'y\xb1\x83f\xc8\x91-@e\xb9\x93\xfe\xd0tC\xc0\x00\x00\x00 \xaeG\xd1\xbf'
p373
tp374
bsg314
S'Cell[3].axon[99]'
p375
sI151
I102
tp376
a(F1.2515186262613291
S'Cell[0].dend[58] syn_ = new ExpSid(0.9)'
p377
I0
(dp378
g299
F0.07142857142857142
sg300
F7.0
sg301
I151
sg302
g7
(g8
(I0
tp379
g10
tp380
Rp381
(I1
(I3
tp382
g309
I00
S'bU\xb9lGx\xf3\xbf\xd4\xcfif\xd9\x7f_\xc0\xacx\xf4,X\xe1>\xc0'
p383
tp384
bsg314
S'Cell[3].axon[214]'
p385
sI151
I6
tp386
a(F1.4552516730784513
S'Cell[0].dend[67] syn_ = new ExpSid(0.5)'
p387
I0
(dp388
g299
F0.8333333333333333
sg300
F7.0
sg301
I151
sg302
g7
(g8
(I0
tp389
g10
tp390
Rp391
(I1
(I3
tp392
g309
I00
S'\xc0F\xa9^\xfa\x8b\x18@\xa4j\x91\xb4\xe2\x89+\xc0\x96`\x95\xbb\xc2X"\xc0'
p393
tp394
bsg314
S'Cell[3].axon[217]'
p395
sI151
I6
tp396
a(F1.7941935023602658
S'Cell[0].dend[74] syn_ = new AmpaNmda(0.7)'
p397
I0
(dp398
S'seg'
p399
F0.5
sS'hostfrom'
p400
F8.0
sS'gid'
p401
I152
sS'coords'
p402
g7
(g8
(I0
tp403
g10
tp404
Rp405
(I1
(I3
tp406
g14
(S'f8'
p407
I0
I1
tp408
Rp409
(I3
S'<'
p410
NNNI-1
I-1
I0
tp411
bI00
S'~\xbbwrk[W@\x8e\xa5\xc9Z\xa7\t$@\x00\x00\x00\xc0\xf5(\xcc?'
p412
tp413
bsS'secnames'
p414
S'Cell[3].axon[465]'
p415
sI152
I6
tp416
a(F1.5076477073011803
S'Cell[0].dend[73] syn_ = new AmpaNmda(0.5)'
p417
I0
(dp418
g399
F0.5
sg400
F8.0
sg401
I152
sg402
g7
(g8
(I0
tp419
g10
tp420
Rp421
(I1
(I3
tp422
g409
I00
S'\x07\xcb\x9f\xdb\xc7\xe0.@\x8f\x052\x05\x19F%\xc0\x12h\xae\xf3F\x99\x1b\xc0'
p423
tp424
bsg414
S'Cell[3].axon[523]'
p425
sI152
I6
tp426
a(F1.3597586939166701
S'Cell[1].dend[10] syn_ = new AmpaNmda(0.1)'
p427
I1
(dp428
g399
F0.1
sg400
F8.0
sg401
I104
sg402
g7
(g8
(I0
tp429
g10
tp430
Rp431
(I1
(I3
tp432
g409
I00
S'h\x9fh3\x0f\xc1T@\xbe6\x8e\xd5C\x94(\xc0s\x16\x1cF\xfeE\xd2?'
p433
tp434
bsg414
S'Cell[2].axon[92]'
p435
sI104
I54
tp436
a(F1.0769177250440423
S'Cell[2].dend[51] syn_ = new FastInhib(0.166666666667)'
p437
I2
(dp438
g399
F0.5
sg400
F8.0
sg401
I104
sg402
g7
(g8
(I0
tp439
g10
tp440
Rp441
(I1
(I3
tp442
g409
I00
S'\xdem\xf0\xe3\xbcI,@\x0c\xbe\xfa\xba\xb0\x0bH\xc0Y\x9b\x1f\xce\xa35\x1f@'
p443
tp444
bsg414
S'Cell[2].axon[120]'
p445
sI104
I102
tp446
a(F2.0940652921003613
S'Cell[2].dend[22] syn_ = new FastInhib(0.3)'
p447
I2
(dp448
g399
F0.5
sg400
F8.0
sg401
I104
sg402
g7
(g8
(I0
tp449
g10
tp450
Rp451
(I1
(I3
tp452
g409
I00
S'\xec\x1f\xad!\x8f\x88-@\xd0\xfbT\xa8G\x9aU@\x96\xc3\x87E\x0c\xa91\xc0'
p453
tp454
bsg414
S'Cell[2].axon[130]'
p455
sI104
I102
tp456
a(F2.264814627764548
S'Cell[1].apic[4] syn_ = new AmpaNmda(0.166666666667)'
p457
I1
(dp458
g399
F0.7
sg400
F8.0
sg401
I104
sg402
g7
(g8
(I0
tp459
g10
tp460
Rp461
(I1
(I3
tp462
g409
I00
S'\xaf\x02\xf2 \xd5\xd3R@>@\xda\xb0\x1b\tI@\xa2\xcf\x9fR\xef\x00>\xc0'
p463
tp464
bsg414
S'Cell[2].axon[237]'
p465
sI104
I54
tp466
a(F1.428761880855956
S'Cell[1].dend[2] syn_ = new AmpaNmda(0.5)'
p467
I1
(dp468
g399
F0.16666666666666666
sg400
F8.0
sg401
I104
sg402
g7
(g8
(I0
tp469
g10
tp470
Rp471
(I1
(I3
tp472
g409
I00
S'\xa9\xfa{f\x13eG@wj\xc9[\x97\xb1\x1b\xc0*\xdd0H\n~\x15@'
p473
tp474
bsg414
S'Cell[2].axon[261]'
p475
sI104
I54
tp476
a(F2.307664396351961
S'Cell[1].dend[8] syn_ = new AmpaNmda(0.833333333333)'
p477
I1
(dp478
g399
F0.5
sg400
F8.0
sg401
I104
sg402
g7
(g8
(I0
tp479
g10
tp480
Rp481
(I1
(I3
tp482
g409
I00
S'\x00\x00\x00\x00\x00\xf0Z@\x00\x00\x00\x10\xd7\xa3>\xc0\x00\x00\x00\xf8\xff\xbf)\xc0'
p483
tp484
bsg414
S'Cell[2].axon[326]'
p485
sI104
I54
tp486
a(F0.4526388064404844
S'Cell[1].dend[26] syn_ = new AmpaNmda(0.5)'
p487
I1
(dp488
g399
F0.5
sg400
F8.0
sg401
I104
sg402
g7
(g8
(I0
tp489
g10
tp490
Rp491
(I1
(I3
tp492
g409
I00
S'z@\xab\xac\xe9\x07\x07\xc0\x94\xbc\xae\xf1\xf6\xb8K@\x9f"2\xfe\x18=@\xc0'
p493
tp494
bsg414
S'Cell[2].axon[351]'
p495
sI104
I54
tp496
a(F1.510984915237359
S'Cell[2].dend[40] syn_ = new FastInhib(0.833333333333)'
p497
I2
(dp498
g399
F0.5
sg400
F8.0
sg401
I104
sg402
g7
(g8
(I0
tp499
g10
tp500
Rp501
(I1
(I3
tp502
g409
I00
S'\xfe\x08\xb3\xcd\xc9\x00\n@Y\t\x04\xa6\x11bY@\x80`\xe6t4l(@'
p503
tp504
bsg414
S'Cell[2].axon[433]'
p505
sI104
I102
tp506
a(F1.8366438750443572
S'Cell[1].dend[9] syn_ = new ExpSid(0.5)'
p507
I1
(dp508
S'seg'
p509
F0.5
sS'hostfrom'
p510
F9.0
sS'gid'
p511
I153
sS'coords'
p512
g7
(g8
(I0
tp513
g10
tp514
Rp515
(I1
(I3
tp516
g14
(S'f8'
p517
I0
I1
tp518
Rp519
(I3
S'<'
p520
NNNI-1
I-1
I0
tp521
bI00
S'\x89\xce\xdaC)\x01S@\xf3\xa8T\x04\x93\x10\x0c\xc0"M\xd0HS\xd6\x05\xc0'
p522
tp523
bsS'secnames'
p524
S'Cell[3].axon[137]'
p525
sI153
I54
tp526
a(F2.3104749089260426
S'Cell[0].apic[61] syn_ = new ExpSid(0.5)'
p527
I0
(dp528
g509
F0.8999999999999999
sg510
F9.0
sg511
I105
sg512
g7
(g8
(I0
tp529
g10
tp530
Rp531
(I1
(I3
tp532
g519
I00
S'\xcadbfn\xc7.\xc0"k\x9b k\xe8k@\xd1\x0f~L9\xa4P\xc0'
p533
tp534
bsg524
S'Cell[2].axon[52]'
p535
sI105
I6
tp536
a(F1.867959765766303
S'Cell[0].dend[52] syn_ = new ExpSid(0.214285714286)'
p537
I0
(dp538
g509
F0.16666666666666666
sg510
F9.0
sg511
I105
sg512
g7
(g8
(I0
tp539
g10
tp540
Rp541
(I1
(I3
tp542
g519
I00
S'BhR\x00\x9a|\x15@\x97\xf8\xab\xa3^NN\xc0\x15l\x86\xa5\xc7\x084\xc0'
p543
tp544
bsg524
S'Cell[2].axon[62]'
p545
sI105
I6
tp546
a(F2.1384912730171153
S'Cell[0].dend[57] syn_ = new ExpSid(0.166666666667)'
p547
I0
(dp548
g509
F0.30000000000000004
sg510
F9.0
sg511
I105
sg512
g7
(g8
(I0
tp549
g10
tp550
Rp551
(I1
(I3
tp552
g519
I00
S'r\x8f\xd2\xb0\xc2-=@\xe9p\xe2\x13\xe2\x0ea\xc0\xae\xf4\x9aL7i@\xc0'
p553
tp554
bsg524
S'Cell[2].axon[115]'
p555
sI105
I6
tp556
a(F0.7542438116791189
S'Cell[0].dend[48] syn_ = new ExpSid(0.1)'
p557
I0
(dp558
g509
F0.5
sg510
F9.0
sg511
I57
sg512
g7
(g8
(I0
tp559
g10
tp560
Rp561
(I1
(I3
tp562
g519
I00
S'{\x98\xda\x0f\xeev>\xc0\xaf\x8c\x0eA$\xecV\xc0\x02"\x8a\xb54#3\xc0'
p563
tp564
bsg524
S'Cell[1].axon[8]'
p565
sI57
I6
tp566
a(F2.2111953277656666
S'Cell[2].dend[14] syn_ = new FastInhib(0.5)'
p567
I2
(dp568
S'seg'
p569
F0.7
sS'hostfrom'
p570
F10.0
sS'gid'
p571
I106
sS'coords'
p572
g7
(g8
(I0
tp573
g10
tp574
Rp575
(I1
(I3
tp576
g14
(S'f8'
p577
I0
I1
tp578
Rp579
(I3
S'<'
p580
NNNI-1
I-1
I0
tp581
bI00
S'\xeb*\x84]\x7f}1\xc0\xb4\x0f\xd3Z\xb3\xdcJ@\xa6~\xa9\x82\xa07)@'
p582
tp583
bsS'secnames'
p584
S'Cell[2].axon[78]'
p585
sI106
I102
tp586
a(F1.9092813008945424
S'Cell[2].dend[13] syn_ = new FastInhib(0.5)'
p587
I2
(dp588
g569
F0.5
sg570
F10.0
sg571
I106
sg572
g7
(g8
(I0
tp589
g10
tp590
Rp591
(I1
(I3
tp592
g579
I00
S"\xf1\xee\xbd\x15N^2\xc0\xe43\x86<A\xe3H@\x00\x00\x00\x80\xebQ'@"
p593
tp594
bsg584
S'Cell[2].axon[126]'
p595
sI106
I102
tp596
a(F1.3889981304582815
S'Cell[2].dend[26] syn_ = new FastInhib(0.5)'
p597
I2
(dp598
g569
F0.5
sg570
F10.0
sg571
I106
sg572
g7
(g8
(I0
tp599
g10
tp600
Rp601
(I1
(I3
tp602
g579
I00
S'D>!;\xc7\xa0?\xc0\x1d\xc9\x1d\x1e2V4\xc0\x00\x00\x00\x00\x00\x00-@'
p603
tp604
bsg584
S'Cell[2].axon[174]'
p605
sI106
I102
tp606
a(F2.284431511092096
S'Cell[0].dend[44] syn_ = new AmpaNmda(0.1)'
p607
I0
(dp608
g569
F0.8333333333333333
sg570
F10.0
sg571
I106
sg572
g7
(g8
(I0
tp609
g10
tp610
Rp611
(I1
(I3
tp612
g579
I00
S'VP@\x86\x06\x07V\xc0\xc28c\r\x85\x03V\xc0Z\\\xbf/\xc4\xbeK\xc0'
p613
tp614
bsg584
S'Cell[2].axon[262]'
p615
sI106
I6
tp616
a(F1.5136517323301513
S'Cell[2].dend[59] syn_ = new FastInhib(0.833333333333)'
p617
I2
(dp618
g569
F0.8333333333333333
sg570
F10.0
sg571
I58
sg572
g7
(g8
(I0
tp619
g10
tp620
Rp621
(I1
(I3
tp622
g579
I00
S'{\x16\xb2\x95\x9bm5@\xbaQ\xf802\xd5\x19@%\x16\xc6\xd2\x17z\x02\xc0'
p623
tp624
bsg584
S'Cell[1].axon[34]'
p625
sI58
I102
tp626
a(F0.9529718373651217
S'Cell[1].apic[62] syn_ = new ExpSid(0.5)'
p627
I1
(dp628
S'seg'
p629
F0.16666666666666666
sS'hostfrom'
p630
F11.0
sS'gid'
p631
I107
sS'coords'
p632
g7
(g8
(I0
tp633
g10
tp634
Rp635
(I1
(I3
tp636
g14
(S'f8'
p637
I0
I1
tp638
Rp639
(I3
S'<'
p640
NNNI-1
I-1
I0
tp641
bI00
S'L\xe7bP\x1a\xcfe@w\x0f\xeb\x91\x95\xa9W@\xc8\x1b\x88\xc9\x95^&@'
p642
tp643
bsS'secnames'
p644
S'Cell[2].axon[59]'
p645
sI107
I54
tp646
a(F2.048195535682278
S'Cell[2].dend[39] syn_ = new FastInhib(0.166666666667)'
p647
I2
(dp648
g629
F0.16666666666666666
sg630
F11.0
sg631
I155
sg632
g7
(g8
(I0
tp649
g10
tp650
Rp651
(I1
(I3
tp652
g639
I00
S'k\xea\x86\x1b\xf7\xc6\xdc\xbf\xf9"\xd1y9q?@\x00\x00\x00\xc0\xf5(\x1c@'
p653
tp654
bsg644
S'Cell[3].axon[181]'
p655
sI155
I102
tp656
a(F1.8817152394522008
S'Cell[0].dend[45] syn_ = new ExpSid(0.7)'
p657
I0
(dp658
g629
F0.49999999999999994
sg630
F11.0
sg631
I155
sg632
g7
(g8
(I0
tp659
g10
tp660
Rp661
(I1
(I3
tp662
g639
I00
S'\x8e3\x99F\x83\xc2Z\xc0\x8c\xb5$\xe6\xc8\xfda\xc0l\xbc\xe7\x1e\xf7\xf6K\xc0'
p663
tp664
bsg644
S'Cell[3].axon[193]'
p665
sI155
I6
tp666
a(F1.8242044959584154
S'Cell[0].dend[28] syn_ = new ExpSid(0.3)'
p667
I0
(dp668
S'seg'
p669
F0.8333333333333333
sS'hostfrom'
p670
F13.0
sS'gid'
p671
I157
sS'coords'
p672
g7
(g8
(I0
tp673
g10
tp674
Rp675
(I1
(I3
tp676
g14
(S'f8'
p677
I0
I1
tp678
Rp679
(I3
S'<'
p680
NNNI-1
I-1
I0
tp681
bI00
S'\x8en\x0e\r\xc1\x87S\xc0}d\x81\xa4;\x90E\xc0\x00\x00\x00`\xb8\x1eS\xc0'
p682
tp683
bsS'secnames'
p684
S'Cell[3].axon[10]'
p685
sI157
I6
tp686
a(F1.8674742201915764
S'Cell[0].dend[9] syn_ = new ExpSid(0.166666666667)'
p687
I0
(dp688
g669
F0.8333333333333333
sg670
F13.0
sg671
I157
sg672
g7
(g8
(I0
tp689
g10
tp690
Rp691
(I1
(I3
tp692
g679
I00
S'e;\x15\xc4\xee\x9cW\xc0\x82\xc5\x99\x12\xfd\x7f)\xc0\x10\xffG\xa6.\xcaV\xc0'
p693
tp694
bsg684
S'Cell[3].axon[12]'
p695
sI157
I6
tp696
a(F0.9643735270198946
S'Cell[0].dend[12] syn_ = new ExpSid(0.166666666667)'
p697
I0
g688
I157
I6
tp698
a(F2.1793214992623744
S'Cell[0].apic[3] syn_ = new ExpSid(0.3)'
p699
I0
(dp700
g669
F0.8333333333333335
sg670
F13.0
sg671
I157
sg672
g7
(g8
(I0
tp701
g10
tp702
Rp703
(I1
(I3
tp704
g679
I00
S'1\xea\x95\xcc]\xa9R\xc04B_$9e<@\x84#\xb3jO\xa9Y\xc0'
p705
tp706
bsg684
S'Cell[3].axon[25]'
p707
sI157
I6
tp708
a(F1.23395330810439
S'Cell[0].dend[33] syn_ = new ExpSid(0.3)'
p709
I0
(dp710
g669
F0.8999999999999999
sg670
F13.0
sg671
I157
sg672
g7
(g8
(I0
tp711
g10
tp712
Rp713
(I1
(I3
tp714
g679
I00
S'\x08/|\xf8w\xa5C\xc0\x12\xbf~\x8a\x1d!F\xc0>\ty\xb9\x8e\x1aL\xc0'
p715
tp716
bsg684
S'Cell[3].axon[223]'
p717
sI157
I6
tp718
a(F1.6338771245800507
S'Cell[1].dend[15] syn_ = new ExpSid(0.5)'
p719
I1
(dp720
g669
F0.5
sg670
F13.0
sg671
I109
sg672
g7
(g8
(I0
tp721
g10
tp722
Rp723
(I1
(I3
tp724
g679
I00
S'\x9aN\x1a9=\x1aI@ \x03\xbcH\xd8\xe0K@o\xb1\xcaK\x93Y5@'
p725
tp726
bsg684
S'Cell[2].axon[78]'
p727
sI109
I54
tp728
a(F0.740160252641889
S'Cell[1].dend[7] syn_ = new ExpSid(0.5)'
p729
I1
(dp730
g669
F0.16666666666666666
sg670
F13.0
sg671
I109
sg672
g7
(g8
(I0
tp731
g10
tp732
Rp733
(I1
(I3
tp734
g679
I00
S'\xb1Q\xbe\xab\xc6\x05R@\x11H\xd1\xb0\x89\xcb\x02@\xa3.\x8b/K\xfc\xf0\xbf'
p735
tp736
bsg684
S'Cell[2].axon[143]'
p737
sI109
I54
tp738
a(F1.1051706464894062
S'Cell[1].dend[22] syn_ = new ExpSid(0.7)'
p739
I1
(dp740
g669
F0.5
sg670
F13.0
sg671
I109
sg672
g7
(g8
(I0
tp741
g10
tp742
Rp743
(I1
(I3
tp744
g679
I00
S'\xd6\xe6j\xbf\xc7I\x10\xc0\x955\xf7\x00\xa7\xb5N@>\x08\x9b\x8a\xc8\xb32@'
p745
tp746
bsg684
S'Cell[2].axon[153]'
p747
sI109
I54
tp748
a(F2.288920367526833
S'Cell[0].dend[69] syn_ = new ExpSid(0.5)'
p749
I0
(dp750
g669
F0.045454545454545456
sg670
F13.0
sg671
I13
sg672
g7
(g8
(I0
tp751
g10
tp752
Rp753
(I1
(I3
tp754
g679
I00
S's\xf844f-O@\xe5+\xd3\x8cn\xafP\xc0\xaf\xcd\xd1T\x12\x180\xc0'
p755
tp756
bsg684
S'Cell[0].axon[3]'
p757
sI13
I6
tp758
a(F2.4750181901794766
S'Cell[0].dend[70] syn_ = new AmpaNmda(0.5)'
p759
I0
(dp760
S'seg'
p761
F0.5
sS'hostfrom'
p762
F14.0
sS'gid'
p763
I110
sS'coords'
p764
g7
(g8
(I0
tp765
g10
tp766
Rp767
(I1
(I3
tp768
g14
(S'f8'
p769
I0
I1
tp770
Rp771
(I3
S'<'
p772
NNNI-1
I-1
I0
tp773
bI00
S'w\x11\x8f\xe8"?@@\x9f\xf2\xc1)\xf4\x8b8\xc0v,*i\xf5\x9f#\xc0'
p774
tp775
bsS'secnames'
p776
S'Cell[2].axon[10]'
p777
sI110
I6
tp778
a(F2.0608477130623117
S'Cell[1].apic[23] syn_ = new AmpaNmda(0.166666666667)'
p779
I1
(dp780
g761
F0.5
sg762
F14.0
sg763
I110
sg764
g7
(g8
(I0
tp781
g10
tp782
Rp783
(I1
(I3
tp784
g771
I00
S'\xac\xbe]\x1f\x1efT@\xbc\x9d\x12v\xa7\xa8D@\xc4Z\x06G\xb1\x92B\xc0'
p785
tp786
bsg776
S'Cell[2].axon[18]'
p787
sI110
I54
tp788
a(F1.9517352929178422
S'Cell[3].dend[10] syn_ = new FastInhib(0.833333333333)'
p789
I3
(dp790
g761
F0.16666666666666666
sg762
F14.0
sg763
I110
sg764
g7
(g8
(I0
tp791
g10
tp792
Rp793
(I1
(I3
tp794
g771
I00
S'\x00T^\xc7\x19{B@\xb8\xb3\xa3\xb2\x18wK\xc0\x00\x00\x00\x00\x00\x005\xc0'
p795
tp796
bsg776
S'Cell[2].axon[38]'
p797
sI110
I150
tp798
a(F1.924315288121852
S'Cell[1].dend[29] syn_ = new AmpaNmda(0.5)'
p799
I1
(dp800
g761
F0.5
sg762
F14.0
sg763
I110
sg764
g7
(g8
(I0
tp801
g10
tp802
Rp803
(I1
(I3
tp804
g771
I00
S',z\x90|__F@\xcf)\x10\xe4n!0@\xa0\xd3s0$\xbc\x01@'
p805
tp806
bsg776
S'Cell[2].axon[70]'
p807
sI110
I54
tp808
a(F2.3896095693144113
S'Cell[3].dend[6] syn_ = new FastInhib(0.0714285714286)'
p809
I3
(dp810
g761
F0.8333333333333333
sg762
F14.0
sg763
I110
sg764
g7
(g8
(I0
tp811
g10
tp812
Rp813
(I1
(I3
tp814
g771
I00
S'n\x9cc\x1c\xfdA\xf0?;[^\n\xbb\xa8?\xc0\x00\x00\x00\xe0Qx2@'
p815
tp816
bsg776
S'Cell[2].axon[80]'
p817
sI110
I150
tp818
a(F2.3380897418305913
S'Cell[3].dend[20] syn_ = new FastInhib(0.5)'
p819
I3
(dp820
S'seg'
p821
F0.8333333333333333
sS'hostfrom'
p822
F15.0
sS'gid'
p823
I159
sS'coords'
p824
g7
(g8
(I0
tp825
g10
tp826
Rp827
(I1
(I3
tp828
g14
(S'f8'
p829
I0
I1
tp830
Rp831
(I3
S'<'
p832
NNNI-1
I-1
I0
tp833
bI00
S'\xc6\xff\xc6L\x1d\xaa)\xc0\x0c\x02\xc0\x9b\xb2\xa7C@\x00\x00\x00\xc0\x1e\x85-\xc0'
p834
tp835
bsS'secnames'
p836
S'Cell[3].axon[35]'
p837
sI159
I150
tp838
a(F1.9417889075414596
S'Cell[2].dend[46] syn_ = new FastInhib(0.166666666667)'
p839
I2
(dp840
S'seg'
p841
F0.8333333333333333
sS'hostfrom'
p842
F16.0
sS'gid'
p843
I160
sS'coords'
p844
g7
(g8
(I0
tp845
g10
tp846
Rp847
(I1
(I3
tp848
g14
(S'f8'
p849
I0
I1
tp850
Rp851
(I3
S'<'
p852
NNNI-1
I-1
I0
tp853
bI00
S'b\xe1/\xa0I\x16=@\xfc\x87_\x18]:\x04@\x00\x00\x00`ff\n\xc0'
p854
tp855
bsS'secnames'
p856
S'Cell[3].axon[138]'
p857
sI160
I102
tp858
a(F1.2577679295857225
S'Cell[2].dend[60] syn_ = new FastInhib(0.5)'
p859
I2
(dp860
g841
F0.16666666666666666
sg842
F16.0
sg843
I112
sg844
g7
(g8
(I0
tp861
g10
tp862
Rp863
(I1
(I3
tp864
g851
I00
S'\t-\xbbV\xd5\x94\x10@\x88\x1e@\xe7\xec\xe7)\xc0\x1f\x87\xd0q\xa7\xee\x13@'
p865
tp866
bsg856
S'Cell[2].axon[10]'
p867
sI112
I102
tp868
a(F1.581947178774163
S'Cell[2].dend[22] syn_ = new FastInhib(0.1)'
p869
I2
(dp870
g841
F0.5
sg842
F16.0
sg843
I112
sg844
g7
(g8
(I0
tp871
g10
tp872
Rp873
(I1
(I3
tp874
g851
I00
S'\xd3\x88\xa7\xd0%\x9d\x12@\xa9@\xbb\r\x9e\xf3Q@\x90\x82cO\xdbl\x0c\xc0'
p875
tp876
bsg856
S'Cell[2].axon[208]'
p877
sI112
I102
tp878
a(F2.1551417181468544
S'Cell[0].dend[67] syn_ = new ExpSid(0.5)'
p879
I0
(dp880
S'seg'
p881
F0.5
sS'hostfrom'
p882
F17.0
sS'gid'
p883
I113
sS'coords'
p884
g7
(g8
(I0
tp885
g10
tp886
Rp887
(I1
(I3
tp888
g14
(S'f8'
p889
I0
I1
tp890
Rp891
(I3
S'<'
p892
NNNI-1
I-1
I0
tp893
bI00
S'\xb2\xc1EA\x8d\x02\x1b@l\xca\xa8#^@)\xc0\x97\xe1e\x1e,\xfc$\xc0'
p894
tp895
bsS'secnames'
p896
S'Cell[2].axon[510]'
p897
sI113
I6
tp898
a(F1.4109350363261781
S'Cell[2].dend[51] syn_ = new FastInhib(0.166666666667)'
p899
I2
(dp900
g881
F0.5
sg882
F17.0
sg883
I113
sg884
g7
(g8
(I0
tp901
g10
tp902
Rp903
(I1
(I3
tp904
g891
I00
S'\xd5[riD\x88+@\x96\xcb\xca\x93P\xccG\xc0\xf0us\xca-\xac"@'
p905
tp906
bsg896
S'Cell[2].axon[514]'
p907
sI113
I102
tp908
a(F2.067404100829696
S'Cell[2].dend[39] syn_ = new FastInhib(0.833333333333)'
p909
I2
(dp910
g881
F0.5
sg882
F17.0
sg883
I161
sg884
g7
(g8
(I0
tp911
g10
tp912
Rp913
(I1
(I3
tp914
g891
I00
S'\xffQ\xcbR\x1b\xad#@`\xd5\x14\x91\x8a\x06O@\xc0\xdf\x10t\xac>0@'
p915
tp916
bsg896
S'Cell[3].axon[9]'
p917
sI161
I102
tp918
a(F2.496740109535378
S'Cell[2].dend[22] syn_ = new FastInhib(0.5)'
p919
I2
(dp920
g881
F0.8333333333333333
sg882
F17.0
sg883
I161
sg884
g7
(g8
(I0
tp921
g10
tp922
Rp923
(I1
(I3
tp924
g891
I00
S'\x9f\xcc\x96n\xd30=@\xbc\xf0*\x1eYWU@\x8e\x9bd\xa23)@\xc0'
p925
tp926
bsg896
S'Cell[3].axon[224]'
p927
sI161
I102
tp928
a(F1.9365113788520307
S'Cell[2].dend[10] syn_ = new FastInhib(0.833333333333)'
p929
I2
(dp930
S'seg'
p931
F0.2692307692307693
sS'hostfrom'
p932
F18.0
sS'gid'
p933
I114
sS'coords'
p934
g7
(g8
(I0
tp935
g10
tp936
Rp937
(I1
(I3
tp938
g14
(S'f8'
p939
I0
I1
tp940
Rp941
(I3
S'<'
p942
NNNI-1
I-1
I0
tp943
bI00
S'\x94\x06Y\x99l3\\\xc08\xc6\x82?\xe8#H@\xe2\xcc\xa0\xf3\xb4X,\xc0'
p944
tp945
bsS'secnames'
p946
S'Cell[2].axon[39]'
p947
sI114
I102
tp948
a(F2.0137030780941223
S'Cell[2].dend[46] syn_ = new FastInhib(0.5)'
p949
I2
(dp950
g931
F0.5
sg932
F18.0
sg933
I66
sg934
g7
(g8
(I0
tp951
g10
tp952
Rp953
(I1
(I3
tp954
g941
I00
S'\x00\x00\x00p=\xeaB@\x00\x00\x00\x80\xc2\xf5&@\x00\x00\x00\x00\x00\x00\xf0\xbf'
p955
tp956
bsg946
S'Cell[1].soma[0]'
p957
sI66
I102
tp958
a(F2.2345641683416835
S'Cell[2].dend[41] syn_ = new FastInhib(0.833333333333)'
p959
I2
(dp960
S'seg'
p961
F0.16666666666666666
sS'hostfrom'
p962
F19.0
sS'gid'
p963
I115
sS'coords'
p964
g7
(g8
(I0
tp965
g10
tp966
Rp967
(I1
(I3
tp968
g14
(S'f8'
p969
I0
I1
tp970
Rp971
(I3
S'<'
p972
NNNI-1
I-1
I0
tp973
bI00
S'\x1c@9\xa7\xaf&1@l\x92\xa6#e\x97]@\x00\x00\x00 \\\x0f7@'
p974
tp975
bsS'secnames'
p976
S'Cell[2].axon[177]'
p977
sI115
I102
tp978
a(F1.9107477167246592
S'Cell[2].dend[40] syn_ = new FastInhib(0.5)'
p979
I2
(dp980
g961
F0.30000000000000004
sg962
F19.0
sg963
I115
sg964
g7
(g8
(I0
tp981
g10
tp982
Rp983
(I1
(I3
tp984
g971
I00
S'\xa3K\x15\x07\xaa[\x11@Gs\xb3\xcc+@V@k\x7fr\xe5M\xf8/@'
p985
tp986
bsg976
S'Cell[2].axon[249]'
p987
sI115
I102
tp988
a(F0.818472904436353
S'Cell[2].dend[36] syn_ = new FastInhib(0.5)'
p989
I2
(dp990
g961
F0.5
sg962
F19.0
sg963
I163
sg964
g7
(g8
(I0
tp991
g10
tp992
Rp993
(I1
(I3
tp994
g971
I00
S'j\xfc=y\xf3\xf6D\xc0\xdf8y\x0e\x07*T\xc0\x9c?\xd0\xf0\xe6\xca\x07@'
p995
tp996
bsg976
S'Cell[3].axon[7]'
p997
sI163
I102
tp998
a(F2.394676747659801
S'Cell[1].dend[6] syn_ = new AmpaNmda(0.166666666667)'
p999
I1
(dp1000
S'seg'
p1001
F0.8333333333333333
sS'hostfrom'
p1002
F20.0
sS'gid'
p1003
I68
sS'coords'
p1004
g7
(g8
(I0
tp1005
g10
tp1006
Rp1007
(I1
(I3
tp1008
g14
(S'f8'
p1009
I0
I1
tp1010
Rp1011
(I3
S'<'
p1012
NNNI-1
I-1
I0
tp1013
bI00
S"'\xbd\xae\x11*\x11<@\nL\x90?\x07\x89)\xc0\x00\x00\x00\x00\x00\x00\x10@"
p1014
tp1015
bsS'secnames'
p1016
S'Cell[1].axon[0]'
p1017
sI68
I54
tp1018
a(F2.2826250495956972
S'Cell[1].dend[17] syn_ = new AmpaNmda(0.5)'
p1019
I1
(dp1020
g1001
F0.8333333333333333
sg1002
F20.0
sg1003
I68
sg1004
g7
(g8
(I0
tp1021
g10
tp1022
Rp1023
(I1
(I3
tp1024
g1011
I00
S'\x04\xd4\xa3\x94Y\x98I@\x02\x02|\x9c\xe0KP@~\xd3\xbb\xc8\xa9r:@'
p1025
tp1026
bsg1016
S'Cell[1].axon[5]'
p1027
sI68
I54
tp1028
a(F2.339055245731709
S'Cell[2].dend[21] syn_ = new FastInhib(0.9)'
p1029
I2
(dp1030
g1001
F0.5
sg1002
F20.0
sg1003
I116
sg1004
g7
(g8
(I0
tp1031
g10
tp1032
Rp1033
(I1
(I3
tp1034
g1011
I00
S'\xaaE\xc7d\x0f\x04V\xc0(\x848\xb7\x039Z@\xdf\xb5\x1c\x06\x8b\x06D\xc0'
p1035
tp1036
bsg1016
S'Cell[2].axon[20]'
p1037
sI116
I102
tp1038
a(F2.23404186690133
S'Cell[0].dend[38] syn_ = new AmpaNmda(0.166666666667)'
p1039
I0
(dp1040
g1001
F0.42307692307692313
sg1002
F20.0
sg1003
I116
sg1004
g7
(g8
(I0
tp1041
g10
tp1042
Rp1043
(I1
(I3
tp1044
g1011
I00
S'\x15\xe9\x85\xa3\xecrK\xc0\x80E\xbb?\xc3\xdcC\xc0\xeaS\x95\xe0\xfdJE\xc0'
p1045
tp1046
bsg1016
S'Cell[2].axon[85]'
p1047
sI116
I6
tp1048
a(F2.491042693224893
S'Cell[0].dend[60] syn_ = new ExpSid(0.5)'
p1049
I0
(dp1050
S'seg'
p1051
F0.5
sS'hostfrom'
p1052
F21.0
sS'gid'
p1053
I165
sS'coords'
p1054
g7
(g8
(I0
tp1055
g10
tp1056
Rp1057
(I1
(I3
tp1058
g14
(S'f8'
p1059
I0
I1
tp1060
Rp1061
(I3
S'<'
p1062
NNNI-1
I-1
I0
tp1063
bI00
S'\x00\x00\x00\xb0\x1eE<@\x00\x00\x00\xc0\xf5\xa8E\xc0\x00\x00\x00 \x85k6\xc0'
p1064
tp1065
bsS'secnames'
p1066
S'Cell[3].axon[150]'
p1067
sI165
I6
tp1068
a(F2.3237867543718784
S'Cell[2].dend[33] syn_ = new FastInhib(0.3)'
p1069
I2
(dp1070
g1051
F0.16666666666666666
sg1052
F21.0
sg1053
I165
sg1054
g7
(g8
(I0
tp1071
g10
tp1072
Rp1073
(I1
(I3
tp1074
g1061
I00
S'T\x0c\x82\xffi@#\xc0\xf9\x9a\xf3\xeb7\xb5F\xc0\x9b\x0c\xc9}\xd1\x87"@'
p1075
tp1076
bsg1066
S'Cell[3].axon[230]'
p1077
sI165
I102
tp1078
a(F2.427741359309162
S'Cell[3].dend[19] syn_ = new FastInhib(0.5)'
p1079
I3
(dp1080
g1051
F0.5
sg1052
F21.0
sg1053
I117
sg1054
g7
(g8
(I0
tp1081
g10
tp1082
Rp1083
(I1
(I3
tp1084
g1061
I00
S'\t\xb8\xf4kf\xf2(\xc0\x19MXg8\x95G@\x00\x00\x00\x80\xc2u9\xc0'
p1085
tp1086
bsg1066
S'Cell[2].axon[12]'
p1087
sI117
I150
tp1088
a(F2.3100239974080523
S'Cell[1].dend[11] syn_ = new ExpSid(0.166666666667)'
p1089
I1
(dp1090
g1051
F0.5
sg1052
F21.0
sg1053
I117
sg1054
g7
(g8
(I0
tp1091
g10
tp1092
Rp1093
(I1
(I3
tp1094
g1061
I00
S'\xbe \x8b&oMT@\xae#\xc3\xe6\xd0\x17\x18\xc0\xa5\x81\xb8\x88\xe0\xbc\x13\xc0'
p1095
tp1096
bsg1066
S'Cell[2].axon[27]'
p1097
sI117
I54
tp1098
a(F2.2575687575259207
S'Cell[1].dend[27] syn_ = new ExpSid(0.5)'
p1099
I1
(dp1100
g1051
F0.5
sg1052
F21.0
sg1053
I117
sg1054
g7
(g8
(I0
tp1101
g10
tp1102
Rp1103
(I1
(I3
tp1104
g1061
I00
S'\x00\x00\x00 \x85k\x13@\x00\x00\x00p=JH@\x00\x00\x00\x80\xc2u9\xc0'
p1105
tp1106
bsg1066
S'Cell[2].axon[278]'
p1107
sI117
I54
tp1108
a(F2.096262780433454
S'Cell[0].dend[74] syn_ = new ExpSid(0.3)'
p1109
I0
(dp1110
g1051
F0.5
sg1052
F21.0
sg1053
I21
sg1054
g7
(g8
(I0
tp1111
g10
tp1112
Rp1113
(I1
(I3
tp1114
g1061
I00
S'\x00\x00\x00\xc0\xf5\xc8J@\x00\x00\x00\xa0p=\x02\xc0\x00\x00\x00\xc0\x1e\x85\x15\xc0'
p1115
tp1116
bsg1066
S'Cell[0].soma[0]'
p1117
sI21
I6
tp1118
a(F2.3390341435561868
S'Cell[0].dend[72] syn_ = new ExpSid(0.833333333333)'
p1119
I0
(dp1120
g1051
F0.5
sg1052
F21.0
sg1053
I21
sg1054
g7
(g8
(I0
tp1121
g10
tp1122
Rp1123
(I1
(I3
tp1124
g1061
I00
S'\x98\xaa\xea\xc9t\x81S@\x05\xa1\xa7\xeb|SG\xc0\x18\xf3\xe4\xeb\x1e\xd3\r@'
p1125
tp1126
bsg1066
S'Cell[0].axon[3]'
p1127
sI21
I6
tp1128
a(F1.1311530949822426
S'Cell[2].dend[28] syn_ = new FastInhib(0.5)'
p1129
I2
(dp1130
g1051
F0.30000000000000004
sg1052
F21.0
sg1053
I69
sg1054
g7
(g8
(I0
tp1131
g10
tp1132
Rp1133
(I1
(I3
tp1134
g1061
I00
S'H\x82\xa3\xfe?.E\xc0\xd1\xbdq\x8a\x88\xa4_\xc0\x00\x00\x00\xc0\x1e\x85&@'
p1135
tp1136
bsg1066
S'Cell[1].axon[21]'
p1137
sI69
I102
tp1138
a(F1.5980913700952806
S'Cell[1].dend[23] syn_ = new AmpaNmda(0.5)'
p1139
I1
(dp1140
S'seg'
p1141
F0.5
sS'hostfrom'
p1142
F22.0
sS'gid'
p1143
I166
sS'coords'
p1144
g7
(g8
(I0
tp1145
g10
tp1146
Rp1147
(I1
(I3
tp1148
g14
(S'f8'
p1149
I0
I1
tp1150
Rp1151
(I3
S'<'
p1152
NNNI-1
I-1
I0
tp1153
bI00
S'z\xcb2<\x88\xbdH@\xa1S\r\x89q\xbe&@ \x98\xb1\x8dd\x0e\xf7?'
p1154
tp1155
bsS'secnames'
p1156
S'Cell[3].axon[293]'
p1157
sI166
I54
tp1158
a(F1.7131554545893501
S'Cell[3].dend[0] syn_ = new FastInhib(0.833333333333)'
p1159
I3
(dp1160
g1141
F0.49999999999999994
sg1142
F22.0
sg1143
I166
sg1144
g7
(g8
(I0
tp1161
g10
tp1162
Rp1163
(I1
(I3
tp1164
g1151
I00
S'2\xa8\x18\xb6\xcf\x05H@\xe8\xa1\x07\xaa\xc4\xb5K@&\xf4G\x02\xd5\x1fN\xc0'
p1165
tp1166
bsg1156
S'Cell[3].axon[297]'
p1167
sI166
I150
tp1168
a(F2.1703589517049386
S'Cell[0].dend[73] syn_ = new AmpaNmda(0.5)'
p1169
I0
(dp1170
S'seg'
p1171
F0.1
sS'hostfrom'
p1172
F24.0
sS'gid'
p1173
I24
sS'coords'
p1174
g7
(g8
(I0
tp1175
g10
tp1176
Rp1177
(I1
(I3
tp1178
g14
(S'f8'
p1179
I0
I1
tp1180
Rp1181
(I3
S'<'
p1182
NNNI-1
I-1
I0
tp1183
bI00
S'\x06v&\x06\x88\x17+@\xfc\xcb&&9\xcb%\xc0\x00\x00\x00\xe0Q\xb8#\xc0'
p1184
tp1185
bsS'secnames'
p1186
S'Cell[0].axon[0]'
p1187
sI24
I6
tp1188
a(F2.069307918613234
S'Cell[2].dend[48] syn_ = new FastInhib(0.5)'
p1189
I2
(dp1190
g1171
F0.8333333333333333
sg1172
F24.0
sg1173
I72
sg1174
g7
(g8
(I0
tp1191
g10
tp1192
Rp1193
(I1
(I3
tp1194
g1181
I00
S'\x8c\x87\x9e\xf6\n\x9a\x15@\x84g\x8a\x9c\x1a\x08L\xc0\xde\xd7M\xf1\x8e*\x11@'
p1195
tp1196
bsg1186
S'Cell[1].axon[64]'
p1197
sI72
I102
tp1198
a(F1.538977815161358
S'Cell[0].dend[43] syn_ = new AmpaNmda(0.3)'
p1199
I0
(dp1200
g1171
F0.5
sg1172
F24.0
sg1173
I168
sg1174
g7
(g8
(I0
tp1201
g10
tp1202
Rp1203
(I1
(I3
tp1204
g1181
I00
S'\xfc\xc2v\xb1N\xa4Z\xc0Z\x16\x8d\xae\xa5!Z\xc0\x00\x00\x00\xc0\xcc\xdcQ\xc0'
p1205
tp1206
bsg1186
S'Cell[3].axon[63]'
p1207
sI168
I6
tp1208
a(F1.0492327043978045
S'Cell[0].dend[4] syn_ = new AmpaNmda(0.5)'
p1209
I0
(dp1210
g1171
F0.5
sg1172
F24.0
sg1173
I168
sg1174
g7
(g8
(I0
tp1211
g10
tp1212
Rp1213
(I1
(I3
tp1214
g1181
I00
S'\x1f\xe2CI\xf1\xe1D\xc0\x84\r\xc2\xb4\x05\r*\xc0\x00\x00\x00\xc0\xcc\xdcQ\xc0'
p1215
tp1216
bsg1186
S'Cell[3].axon[94]'
p1217
sI168
I6
tp1218
a(F1.3139104229679108
S'Cell[0].dend[3] syn_ = new AmpaNmda(0.9)'
p1219
I0
(dp1220
g1171
F0.16666666666666666
sg1172
F24.0
sg1173
I168
sg1174
g7
(g8
(I0
tp1221
g10
tp1222
Rp1223
(I1
(I3
tp1224
g1181
I00
S'r\t]\xac\xfb\xbeT\xc0\xe1I\xeb\x9aU\x8aU@\x00\x00\x00\xc0\xcc\xdcQ\xc0'
p1225
tp1226
bsg1186
S'Cell[3].axon[134]'
p1227
sI168
I6
tp1228
a(F0.7886859329577574
S'Cell[0].dend[1] syn_ = new AmpaNmda(0.166666666667)'
p1229
I0
(dp1230
g1171
F0.5
sg1172
F24.0
sg1173
I168
sg1174
g7
(g8
(I0
tp1231
g10
tp1232
Rp1233
(I1
(I3
tp1234
g1181
I00
S'n\xe8M\x92\x9e\xb7B\xc0\xf6\xd8\xcc\xe7\x7f\x19#\xc0\x00\x00\x00\xc0\xcc\xdcQ\xc0'
p1235
tp1236
bsg1186
S'Cell[3].axon[276]'
p1237
sI168
I6
tp1238
a(F1.3065655122046587
S'Cell[0].dend[28] syn_ = new AmpaNmda(0.1)'
p1239
I0
(dp1240
g1171
F0.16666666666666666
sg1172
F24.0
sg1173
I168
sg1174
g7
(g8
(I0
tp1241
g10
tp1242
Rp1243
(I1
(I3
tp1244
g1181
I00
S'_A\t\xd8dkJ\xc0p\x11\x18\x11\x82\x9a:\xc0\x00\x00\x00\xc0\xcc\xdcQ\xc0'
p1245
tp1246
bsg1186
S'Cell[3].axon[365]'
p1247
sI168
I6
tp1248
a(F2.365670010635644
S'Cell[0].dend[25] syn_ = new AmpaNmda(0.5)'
p1249
I0
(dp1250
g1171
F0.07142857142857142
sg1172
F24.0
sg1173
I168
sg1174
g7
(g8
(I0
tp1251
g10
tp1252
Rp1253
(I1
(I3
tp1254
g1181
I00
S'\x00\x12<\t\xc4KU\xc0\x8c\xa5\xcbS\xf7\xd0%\xc0\x00\x00\x00\xc0\xcc\xdcQ\xc0'
p1255
tp1256
bsg1186
S'Cell[3].axon[551]'
p1257
sI168
I6
tp1258
a(F1.2051959942741262
S'Cell[0].dend[69] syn_ = new ExpSid(0.3)'
p1259
I0
(dp1260
S'seg'
p1261
F0.5
sS'hostfrom'
p1262
F25.0
sS'gid'
p1263
I25
sS'coords'
p1264
g7
(g8
(I0
tp1265
g10
tp1266
Rp1267
(I1
(I3
tp1268
g14
(S'f8'
p1269
I0
I1
tp1270
Rp1271
(I3
S'<'
p1272
NNNI-1
I-1
I0
tp1273
bI00
S'\xcc\xf7\x1a`U\xd2F@Q\xe9\x08\xe3\x1f]F\xc0\x00\x00\x00\xa0\x99\x99-\xc0'
p1274
tp1275
bsS'secnames'
p1276
S'Cell[0].axon[0]'
p1277
sI25
I6
tp1278
a(F1.7918978138464692
S'Cell[2].dend[38] syn_ = new FastInhib(0.5)'
p1279
I2
(dp1280
g1261
F0.8333333333333333
sg1262
F25.0
sg1263
I169
sg1264
g7
(g8
(I0
tp1281
g10
tp1282
Rp1283
(I1
(I3
tp1284
g1271
I00
S'\xf3\xf0\x91\xdf\xee\xc4G\xc0\x0bs\xb0\x92Q\x19a\xc0\x00\x00\x00\x80=\xca;\xc0'
p1285
tp1286
bsg1276
S'Cell[3].axon[118]'
p1287
sI169
I102
tp1288
a(F1.7866640348962333
S'Cell[2].dend[58] syn_ = new FastInhib(0.3)'
p1289
I2
(dp1290
S'seg'
p1291
F0.16666666666666666
sS'hostfrom'
p1292
F26.0
sS'gid'
p1293
I26
sS'coords'
p1294
g7
(g8
(I0
tp1295
g10
tp1296
Rp1297
(I1
(I3
tp1298
g14
(S'f8'
p1299
I0
I1
tp1300
Rp1301
(I3
S'<'
p1302
NNNI-1
I-1
I0
tp1303
bI00
S'j&\x0f\x14\xcbv%@\xf0;\x1b\x1a4OK\xc0\xdbm\x0cN\xa1\xb6\xfd?'
p1304
tp1305
bsS'secnames'
p1306
S'Cell[0].axon[55]'
p1307
sI26
I102
tp1308
a(F2.083653838093943
S'Cell[1].apic[33] syn_ = new AmpaNmda(0.833333333333)'
p1309
I1
(dp1310
g1291
F0.7
sg1292
F26.0
sg1293
I26
sg1294
g7
(g8
(I0
tp1311
g10
tp1312
Rp1313
(I1
(I3
tp1314
g1301
I00
S'\xc3\x01BH\x95Pa@\nb\x03\x91\x8cyT\xc01\xeb\xe5\xff\xc4:c\xc0'
p1315
tp1316
bsg1306
S'Cell[0].axon[79]'
p1317
sI26
I54
tp1318
a(F2.228053449064072
S'Cell[0].apic[69] syn_ = new AmpaNmda(0.166666666667)'
p1319
I0
(dp1320
g1291
F0.5
sg1292
F26.0
sg1293
I170
sg1294
g7
(g8
(I0
tp1321
g10
tp1322
Rp1323
(I1
(I3
tp1324
g1301
I00
S';\x83w\x1a\xbd\x13%\xc0\xebW\r\x9d\xd71j@O\n7F\xce1R\xc0'
p1325
tp1326
bsg1306
S'Cell[3].axon[394]'
p1327
sI170
I6
tp1328
a(F2.310084026827367
S'Cell[1].apic[71] syn_ = new ExpSid(0.5)'
p1329
I1
(dp1330
S'seg'
p1331
F0.3888888888888889
sS'hostfrom'
p1332
F27.0
sS'gid'
p1333
I75
sS'coords'
p1334
g7
(g8
(I0
tp1335
g10
tp1336
Rp1337
(I1
(I3
tp1338
g14
(S'f8'
p1339
I0
I1
tp1340
Rp1341
(I3
S'<'
p1342
NNNI-1
I-1
I0
tp1343
bI00
S'\x9d\xc4\xe2\xdc\x08\xebJ@\x18\xc13\xe7L\xcfJ@-B\r\x82\xcc\xe3\x11\xc0'
p1344
tp1345
bsS'secnames'
p1346
S'Cell[1].axon[2]'
p1347
sI75
I54
tp1348
a(F1.8086373209556073
S'Cell[1].dend[3] syn_ = new ExpSid(0.833333333333)'
p1349
I1
(dp1350
g1331
F0.16666666666666666
sg1332
F27.0
sg1333
I75
sg1334
g7
(g8
(I0
tp1351
g10
tp1352
Rp1353
(I1
(I3
tp1354
g1341
I00
S'\x88\xca\xe2\x06\x7f\xc6<@\xa5\xc1TmeNO\xc0\x00\x00\x00`\x8fB*@'
p1355
tp1356
bsg1346
S'Cell[1].axon[20]'
p1357
sI75
I54
tp1358
a(F1.8382991749647803
S'Cell[0].dend[48] syn_ = new ExpSid(0.3)'
p1359
I0
(dp1360
g1331
F0.8999999999999999
sg1332
F27.0
sg1333
I75
sg1334
g7
(g8
(I0
tp1361
g10
tp1362
Rp1363
(I1
(I3
tp1364
g1341
I00
S'\xb4\xe3F^\x8a\x16H\xc0$\xaa\xb5\x01\x83\x1f^\xc0\x8d\xeb\xb9\x98\xc7x1\xc0'
p1365
tp1366
bsg1346
S'Cell[1].axon[23]'
p1367
sI75
I6
tp1368
a(F1.447462239462235
S'Cell[3].dend[10] syn_ = new FastInhib(0.833333333333)'
p1369
I3
(dp1370
g1331
F0.8999999999999999
sg1332
F27.0
sg1333
I171
sg1334
g7
(g8
(I0
tp1371
g10
tp1372
Rp1373
(I1
(I3
tp1374
g1341
I00
S'^P\xdf\xe5\xe6\xc0A@\x06\x91@\r\xe3\x87L\xc0w\xb2\xb5\xec\xdf\xa25\xc0'
p1375
tp1376
bsg1346
S'Cell[3].axon[30]'
p1377
sI171
I150
tp1378
a(F2.111457293581997
S'Cell[1].apic[73] syn_ = new ExpSid(0.833333333333)'
p1379
I1
(dp1380
g1331
F0.5
sg1332
F27.0
sg1333
I171
sg1334
g7
(g8
(I0
tp1381
g10
tp1382
Rp1383
(I1
(I3
tp1384
g1341
I00
S'6\x18\x00\x03UD4@@\x95Bw\xc4\xcdS@\x00\x00\x00 \x85\xeb\x10@'
p1385
tp1386
bsg1346
S'Cell[3].axon[60]'
p1387
sI171
I54
tp1388
a(F1.9643813799614869
S'Cell[2].dend[21] syn_ = new FastInhib(0.3)'
p1389
I2
(dp1390
S'seg'
p1391
F0.5
sS'hostfrom'
p1392
F28.0
sS'gid'
p1393
I172
sS'coords'
p1394
g7
(g8
(I0
tp1395
g10
tp1396
Rp1397
(I1
(I3
tp1398
g14
(S'f8'
p1399
I0
I1
tp1400
Rp1401
(I3
S'<'
p1402
NNNI-1
I-1
I0
tp1403
bI00
S'\xf4\xfe\xabq\x9br<\xc0i\x12E\x88\xad\x9aW@\xc4\xf6\xe76B\xe0#\xc0'
p1404
tp1405
bsS'secnames'
p1406
S'Cell[3].axon[4]'
p1407
sI172
I102
tp1408
a(F1.37490106650862
S'Cell[2].dend[54] syn_ = new FastInhib(0.5)'
p1409
I2
(dp1410
g1391
F0.5
sg1392
F28.0
sg1393
I28
sg1394
g7
(g8
(I0
tp1411
g10
tp1412
Rp1413
(I1
(I3
tp1414
g1401
I00
S'\xf1f\xe9B\xa3-5@:\x88\x89r\xd8\xd84@\x00\x00\x00 \x85\xeb!@'
p1415
tp1416
bsg1406
S'Cell[0].axon[0]'
p1417
sI28
I102
tp1418
a(F2.185873021921821
S'Cell[1].dend[29] syn_ = new ExpSid(0.5)'
p1419
I1
(dp1420
S'seg'
p1421
F0.16666666666666666
sS'hostfrom'
p1422
F29.0
sS'gid'
p1423
I77
sS'coords'
p1424
g7
(g8
(I0
tp1425
g10
tp1426
Rp1427
(I1
(I3
tp1428
g14
(S'f8'
p1429
I0
I1
tp1430
Rp1431
(I3
S'<'
p1432
NNNI-1
I-1
I0
tp1433
bI00
S'.W\xa7J\xb5\xdeE@\xeed\xf39h5-@\x059p]\x06\t\xe3\xbf'
p1434
tp1435
bsS'secnames'
p1436
S'Cell[1].axon[0]'
p1437
sI77
I54
tp1438
a(F0.838507221633335
S'Cell[1].apic[35] syn_ = new AmpaNmda(0.5)'
p1439
I1
(dp1440
S'seg'
p1441
F0.16666666666666666
sS'hostfrom'
p1442
F30.0
sS'gid'
p1443
I126
sS'coords'
p1444
g7
(g8
(I0
tp1445
g10
tp1446
Rp1447
(I1
(I3
tp1448
g14
(S'f8'
p1449
I0
I1
tp1450
Rp1451
(I3
S'<'
p1452
NNNI-1
I-1
I0
tp1453
bI00
S'h\xbd/Va\xacW@\xd3e\xb1\xcem7B@\xd2\xc3O\x83.\xa8d\xc0'
p1454
tp1455
bsS'secnames'
p1456
S'Cell[2].axon[158]'
p1457
sI126
I54
tp1458
a(F2.4979169268424415
S'Cell[1].apic[71] syn_ = new AmpaNmda(0.833333333333)'
p1459
I1
(dp1460
g1441
F0.7
sg1442
F30.0
sg1443
I126
sg1444
g7
(g8
(I0
tp1461
g10
tp1462
Rp1463
(I1
(I3
tp1464
g1451
I00
S'Y\xdeo\x03i\xf8H@\nT\x804\x8d\xdeP@}\x0f\xfau\x05d\x19\xc0'
p1465
tp1466
bsg1456
S'Cell[2].axon[176]'
p1467
sI126
I54
tp1468
a(F2.176575767600802
S'Cell[0].dend[49] syn_ = new AmpaNmda(0.3)'
p1469
I0
(dp1470
g1441
F0.16666666666666666
sg1442
F30.0
sg1443
I30
sg1444
g7
(g8
(I0
tp1471
g10
tp1472
Rp1473
(I1
(I3
tp1474
g1451
I00
S'C#K\xf9 \x0e%\xc0\xcc\x19\x92\x16\x8f"D\xc0\xb0 _\t&\x1f/\xc0'
p1475
tp1476
bsg1456
S'Cell[0].axon[0]'
p1477
sI30
I6
tp1478
a(F1.3758695391347122
S'Cell[0].dend[49] syn_ = new AmpaNmda(0.9)'
p1479
I0
(dp1480
g1441
F0.49999999999999994
sg1442
F30.0
sg1443
I174
sg1444
g7
(g8
(I0
tp1481
g10
tp1482
Rp1483
(I1
(I3
tp1484
g1451
I00
S'\xfcK1p\xe4{@\xc0\xbe\x918>+\x7fP\xc0Ra\xfb\xb5\xd6\xad5\xc0'
p1485
tp1486
bsg1456
S'Cell[3].axon[82]'
p1487
sI174
I6
tp1488
a(F2.4552684390844033
S'Cell[1].apic[50] syn_ = new AmpaNmda(0.166666666667)'
p1489
I1
(dp1490
g1441
F0.5
sg1442
F30.0
sg1443
I174
sg1444
g7
(g8
(I0
tp1491
g10
tp1492
Rp1493
(I1
(I3
tp1494
g1451
I00
S'\xc59\xe5P\x17\xa5X@#\x9c\xbc\xe8\x97\x86C@\x92\xe4\x01i\xc46\x03\xc0'
p1495
tp1496
bsg1456
S'Cell[3].axon[281]'
p1497
sI174
I54
tp1498
a(F1.6470277031573977
S'Cell[2].dend[36] syn_ = new FastInhib(0.1)'
p1499
I2
(dp1500
g1441
F0.16666666666666666
sg1442
F30.0
sg1443
I174
sg1444
g7
(g8
(I0
tp1501
g10
tp1502
Rp1503
(I1
(I3
tp1504
g1451
I00
S'\x9cl\n\xeb\xd0\x10<\xc0\x81[:l\xaf\xef<\xc0\xf6\x15!(JW%@'
p1505
tp1506
bsg1456
S'Cell[3].axon[297]'
p1507
sI174
I102
tp1508
a(F2.3941499163932103
S'Cell[2].dend[14] syn_ = new FastInhib(0.5)'
p1509
I2
(dp1510
g1441
F0.5
sg1442
F30.0
sg1443
I174
sg1444
g7
(g8
(I0
tp1511
g10
tp1512
Rp1513
(I1
(I3
tp1514
g1451
I00
S'<m\x01v\xfd}/\xc0Z\xe3\xb5\xd8\xecEI@\xdaVq\x14\xb3\xcb#@'
p1515
tp1516
bsg1456
S'Cell[3].axon[370]'
p1517
sI174
I102
tp1518
a(F2.0010287926924617
S'Cell[1].apic[39] syn_ = new ExpSid(0.5)'
p1519
I1
(dp1520
S'seg'
p1521
F0.30000000000000004
sS'hostfrom'
p1522
F31.0
sS'gid'
p1523
I127
sS'coords'
p1524
g7
(g8
(I0
tp1525
g10
tp1526
Rp1527
(I1
(I3
tp1528
g14
(S'f8'
p1529
I0
I1
tp1530
Rp1531
(I3
S'<'
p1532
NNNI-1
I-1
I0
tp1533
bI00
S'F\xd41\xf6c\xcbX@\xb76+\x91\xc9[>@\x00\x00\x00\xa0\x99\xb9A\xc0'
p1534
tp1535
bsS'secnames'
p1536
S'Cell[2].axon[12]'
p1537
sI127
I54
tp1538
a(F2.4172296005836333
S'Cell[2].dend[58] syn_ = new FastInhib(0.7)'
p1539
I2
(dp1540
g1521
F0.5
sg1522
F31.0
sg1523
I175
sg1524
g7
(g8
(I0
tp1541
g10
tp1542
Rp1543
(I1
(I3
tp1544
g1531
I00
S'\xe2\xfa\x17\x87\xdc$\xf7?`\x98\xe0\x11{NV\xc0\xa7i\x7fo\x8a\xc4\x07\xc0'
p1545
tp1546
bsg1536
S'Cell[3].axon[118]'
p1547
sI175
I102
tp1548
a(F2.228520059281332
S'Cell[1].dend[10] syn_ = new AmpaNmda(0.1)'
p1549
I1
(dp1550
S'seg'
p1551
F0.8333333333333333
sS'hostfrom'
p1552
F32.0
sS'gid'
p1553
I176
sS'coords'
p1554
g7
(g8
(I0
tp1555
g10
tp1556
Rp1557
(I1
(I3
tp1558
g14
(S'f8'
p1559
I0
I1
tp1560
Rp1561
(I3
S'<'
p1562
NNNI-1
I-1
I0
tp1563
bI00
S'\xaa\x97{d\xb9\x03U@\xf6\x81\x91\xb89o%\xc0X\xe6\xc7{\xe2\xad\x03\xc0'
p1564
tp1565
bsS'secnames'
p1566
S'Cell[3].axon[114]'
p1567
sI176
I54
tp1568
a(F1.340284342840103
S'Cell[2].dend[39] syn_ = new FastInhib(0.5)'
p1569
I2
(dp1570
g1551
F0.16666666666666666
sg1552
F32.0
sg1553
I176
sg1554
g7
(g8
(I0
tp1571
g10
tp1572
Rp1573
(I1
(I3
tp1574
g1561
I00
S'\x92c1\x86z\x90\x1c@\\\xce\xcb<=OG@z\xd7\xae\x0f\xfc\x1d&@'
p1575
tp1576
bsg1566
S'Cell[3].axon[126]'
p1577
sI176
I102
tp1578
a(F1.2034652483416912
S'Cell[1].dend[28] syn_ = new ExpSid(0.833333333333)'
p1579
I1
(dp1580
S'seg'
p1581
F0.5
sS'hostfrom'
p1582
F33.0
sS'gid'
p1583
I129
sS'coords'
p1584
g7
(g8
(I0
tp1585
g10
tp1586
Rp1587
(I1
(I3
tp1588
g14
(S'f8'
p1589
I0
I1
tp1590
Rp1591
(I3
S'<'
p1592
NNNI-1
I-1
I0
tp1593
bI00
S'\xd3\x004\x8fG\x8e-@\x02k\xbb\xb24BL@\xac\x96\xa5\xd3P\x8a5@'
p1594
tp1595
bsS'secnames'
p1596
S'Cell[2].axon[70]'
p1597
sI129
I54
tp1598
a(F2.0280189871637035
S'Cell[0].dend[33] syn_ = new ExpSid(0.9)'
p1599
I0
(dp1600
g1581
F0.4333333333333333
sg1582
F33.0
sg1583
I33
sg1584
g7
(g8
(I0
tp1601
g10
tp1602
Rp1603
(I1
(I3
tp1604
g1591
I00
S'\xb2\xbdC\x10\xe0\x81E\xc0\x9e\xf2t@ \xb2Y\xc0t\xfc/\x1d\x89\xb7M\xc0'
p1605
tp1606
bsg1596
S'Cell[0].axon[30]'
p1607
sI33
I6
tp1608
a(F2.1042990808375355
S'Cell[2].dend[19] syn_ = new FastInhib(0.5)'
p1609
I2
(dp1610
S'seg'
p1611
F0.5
sS'hostfrom'
p1612
F34.0
sS'gid'
p1613
I82
sS'coords'
p1614
g7
(g8
(I0
tp1615
g10
tp1616
Rp1617
(I1
(I3
tp1618
g14
(S'f8'
p1619
I0
I1
tp1620
Rp1621
(I3
S'<'
p1622
NNNI-1
I-1
I0
tp1623
bI00
S'\x05\xfb=\xf2\x98\xaeQ@l\xaf\n\rt\x03]@\x00\x00\x00\x00\x00\x00%\xc0'
p1624
tp1625
bsS'secnames'
p1626
S'Cell[1].axon[5]'
p1627
sI82
I102
tp1628
a(F1.9259492614107279
S'Cell[2].dend[22] syn_ = new FastInhib(0.3)'
p1629
I2
(dp1630
g1611
F0.5
sg1612
F34.0
sg1613
I82
sg1614
g7
(g8
(I0
tp1631
g10
tp1632
Rp1633
(I1
(I3
tp1634
g1621
I00
S'a\xfe\x05\xa3B\x041@\xa8\x11@x\xad\xb6U@\x00\x00\x00@3\xb30\xc0'
p1635
tp1636
bsg1626
S'Cell[1].axon[78]'
p1637
sI82
I102
tp1638
a(F2.3646674178983056
S'Cell[0].apic[79] syn_ = new AmpaNmda(0.1)'
p1639
I0
(dp1640
g1611
F0.5
sg1612
F34.0
sg1613
I178
sg1614
g7
(g8
(I0
tp1641
g10
tp1642
Rp1643
(I1
(I3
tp1644
g1621
I00
S't\xb7\\\xb8F\xed/@\xb0a1\xe9i\xb5s@\xe5\xe7\xbd[a\xf0H\xc0'
p1645
tp1646
bsg1626
S'Cell[3].axon[406]'
p1647
sI178
I6
tp1648
a(F2.0818560533676393
S'Cell[2].dend[43] syn_ = new FastInhib(0.5)'
p1649
I2
(dp1650
S'seg'
p1651
F0.5
sS'hostfrom'
p1652
F35.0
sS'gid'
p1653
I83
sS'coords'
p1654
g7
(g8
(I0
tp1655
g10
tp1656
Rp1657
(I1
(I3
tp1658
g14
(S'f8'
p1659
I0
I1
tp1660
Rp1661
(I3
S'<'
p1662
NNNI-1
I-1
I0
tp1663
bI00
S'\x00\x00\x00\xb0\xb4G\x11@\x00\x00\x00\xa0G\xe1\xea\xbf\x00\x00\x00`\xb8\x1e\xed\xbf'
p1664
tp1665
bsS'secnames'
p1666
S'Cell[1].soma[0]'
p1667
sI83
I102
tp1668
a(F2.0839774488542426
S'Cell[3].dend[21] syn_ = new FastInhib(0.166666666667)'
p1669
I3
(dp1670
g1651
F0.5
sg1652
F35.0
sg1653
I83
sg1654
g7
(g8
(I0
tp1671
g10
tp1672
Rp1673
(I1
(I3
tp1674
g1661
I00
S'\x129\xe0\xceE\xc9>\xc0\xf8\x02\xc6\x1f__A@\x1cYr\x06\xb5\xdf@\xc0'
p1675
tp1676
bsg1666
S'Cell[1].axon[17]'
p1677
sI83
I150
tp1678
a(F1.5856246692248352
S'Cell[0].dend[52] syn_ = new ExpSid(0.642857142857)'
p1679
I0
(dp1680
g1651
F0.7
sg1652
F35.0
sg1653
I83
sg1654
g7
(g8
(I0
tp1681
g10
tp1682
Rp1683
(I1
(I3
tp1684
g1661
I00
S'-\xbaJ=\xcdH4@\xec\x0c\x04\x90\xe6\xc3a\xc0\x8a\x81\xde\xe8\x80\x1b6\xc0'
p1685
tp1686
bsg1666
S'Cell[1].axon[223]'
p1687
sI83
I6
tp1688
a(F2.4840527752575206
S'Cell[0].dend[46] syn_ = new ExpSid(0.833333333333)'
p1689
I0
(dp1690
g1651
F0.5
sg1652
F35.0
sg1653
I83
sg1654
g7
(g8
(I0
tp1691
g10
tp1692
Rp1693
(I1
(I3
tp1694
g1661
I00
S'z\x0e\xaa\x17\x83\x0c?\xc0H\xe0\x11\xb5\x957R\xc0aT6?Kp1\xc0'
p1695
tp1696
bsg1666
S'Cell[1].axon[262]'
p1697
sI83
I6
tp1698
a(F1.7619959373382348
S'Cell[1].dend[2] syn_ = new ExpSid(0.5)'
p1699
I1
(dp1700
g1651
F0.16666666666666666
sg1652
F35.0
sg1653
I35
sg1654
g7
(g8
(I0
tp1701
g10
tp1702
Rp1703
(I1
(I3
tp1704
g1661
I00
S' \x9b\x8cwv+G@R\xd3>0E\x0c\x1e\xc0\x00\x00\x00\x00\x00\x00\x10@'
p1705
tp1706
bsg1666
S'Cell[0].axon[0]'
p1707
sI35
I54
tp1708
a(F1.2020345153792693
S'Cell[2].dend[51] syn_ = new FastInhib(0.166666666667)'
p1709
I2
(dp1710
g1651
F0.8333333333333333
sg1652
F35.0
sg1653
I35
sg1654
g7
(g8
(I0
tp1711
g10
tp1712
Rp1713
(I1
(I3
tp1714
g1661
I00
S'\x0c\xf5{ejv*@\xa4LK\x9eH$H\xc0\xb0k\xae.\xea\x8d @'
p1715
tp1716
bsg1666
S'Cell[0].axon[1]'
p1717
sI35
I102
tp1718
a(F1.3656296561416048
S'Cell[1].apic[60] syn_ = new ExpSid(0.5)'
p1719
I1
(dp1720
g1651
F0.5
sg1652
F35.0
sg1653
I179
sg1654
g7
(g8
(I0
tp1721
g10
tp1722
Rp1723
(I1
(I3
tp1724
g1661
I00
S'\x00\x00\x00@\xe1rc@\x00\x00\x00\x90\xc2]T@\x00\x00\x00\x10\xd7\xa3#@'
p1725
tp1726
bsg1666
S'Cell[3].axon[186]'
p1727
sI179
I54
tp1728
a(F0.677953527892871
S'Cell[0].apic[51] syn_ = new AmpaNmda(0.7)'
p1729
I0
(dp1730
S'seg'
p1731
F0.30000000000000004
sS'hostfrom'
p1732
F36.0
sS'gid'
p1733
I84
sS'coords'
p1734
g7
(g8
(I0
tp1735
g10
tp1736
Rp1737
(I1
(I3
tp1738
g14
(S'f8'
p1739
I0
I1
tp1740
Rp1741
(I3
S'<'
p1742
NNNI-1
I-1
I0
tp1743
bI00
S'(\x8c\x02!\xdeGP\xc0\xef\xdc\xab\x14\\\rh@\xea4\x02<Y\x83S\xc0'
p1744
tp1745
bsS'secnames'
p1746
S'Cell[1].axon[25]'
p1747
sI84
I6
tp1748
a(F2.2261374092588797
S'Cell[3].dend[22] syn_ = new FastInhib(0.5)'
p1749
I3
(dp1750
g1731
F0.49999999999999994
sg1732
F36.0
sg1733
I84
sg1734
g7
(g8
(I0
tp1751
g10
tp1752
Rp1753
(I1
(I3
tp1754
g1741
I00
S'\xe6\xd4NF&\rB\xc0\xd6\x08Z\xc3\xed\xeeO@\xcc2\x9d$\xd5\x01L\xc0'
p1755
tp1756
bsg1746
S'Cell[1].axon[260]'
p1757
sI84
I150
tp1758
a(F2.1592784252491564
S'Cell[2].dend[21] syn_ = new FastInhib(0.3)'
p1759
I2
(dp1760
g1731
F0.5
sg1732
F36.0
sg1733
I84
sg1734
g7
(g8
(I0
tp1761
g10
tp1762
Rp1763
(I1
(I3
tp1764
g1741
I00
S'y\x84j\xc0\x1b\x13=\xc0\xb14\xf1\x9a\x8f\xe9V@,\x0f\xe5]\xfb\xdf&\xc0'
p1765
tp1766
bsg1746
S'Cell[1].axon[431]'
p1767
sI84
I102
tp1768
a(F1.7126692692927536
S'Cell[2].dend[12] syn_ = new FastInhib(0.5)'
p1769
I2
(dp1770
g1731
F0.16666666666666666
sg1732
F36.0
sg1733
I84
sg1734
g7
(g8
(I0
tp1771
g10
tp1772
Rp1773
(I1
(I3
tp1774
g1741
I00
S"\x16\xa7\xe7\xf2F*0\xc0\x0er#\xb5\xc2\x07G@\xf4\xb6Y!\xc6\xaa'@"
p1775
tp1776
bsg1746
S'Cell[1].axon[485]'
p1777
sI84
I102
tp1778
a(F1.381327258360818
S'Cell[1].apic[75] syn_ = new AmpaNmda(0.7)'
p1779
I1
(dp1780
g1731
F0.30000000000000004
sg1732
F36.0
sg1733
I84
sg1734
g7
(g8
(I0
tp1781
g10
tp1782
Rp1783
(I1
(I3
tp1784
g1741
I00
S'\xdd\xd8#\xf3\x81\\;@\xa2\xcb\xa6\x1eiM\\@\xcd\x90"7)\x1b\x0c\xc0'
p1785
tp1786
bsg1746
S'Cell[1].axon[497]'
p1787
sI84
I54
tp1788
a(F1.5435250298431171
S'Cell[2].dend[22] syn_ = new FastInhib(0.5)'
p1789
I2
(dp1790
g1731
F0.8333333333333333
sg1732
F36.0
sg1733
I132
sg1734
g7
(g8
(I0
tp1791
g10
tp1792
Rp1793
(I1
(I3
tp1794
g1741
I00
S'\xf7\xae\xcer\x165;@\xb8af\xe7\r\x1aU@\x00\x00\x00\x00\x00\x80A\xc0'
p1795
tp1796
bsg1746
S'Cell[2].axon[155]'
p1797
sI132
I102
tp1798
a(F0.9629320706102252
S'Cell[0].dend[29] syn_ = new AmpaNmda(0.5)'
p1799
I0
(dp1800
g1731
F0.6428571428571428
sg1732
F36.0
sg1733
I180
sg1734
g7
(g8
(I0
tp1801
g10
tp1802
Rp1803
(I1
(I3
tp1804
g1741
I00
S'"\x0e\xa0A\xc5\xcfB\xc0\x90eV0g30\xc0F\xeb\xd3\xeb \xf5H\xc0'
p1805
tp1806
bsg1746
S'Cell[3].axon[29]'
p1807
sI180
I6
tp1808
a(F2.341690512509785
S'Cell[0].dend[49] syn_ = new AmpaNmda(0.3)'
p1809
I0
(dp1810
g1731
F0.16666666666666666
sg1732
F36.0
sg1733
I180
sg1734
g7
(g8
(I0
tp1811
g10
tp1812
Rp1813
(I1
(I3
tp1814
g1741
I00
S'\xae\x0e\xfd\xa5\xcb\xba*\xc0u6\xc5)\x8a\xadC\xc0\x00\x00\x00\x80\x14n2\xc0'
p1815
tp1816
bsg1746
S'Cell[3].axon[59]'
p1817
sI180
I6
tp1818
a(F2.2856887062135303
S'Cell[1].dend[33] syn_ = new AmpaNmda(0.5)'
p1819
I1
(dp1820
g1731
F0.1
sg1732
F36.0
sg1733
I180
sg1734
g7
(g8
(I0
tp1821
g10
tp1822
Rp1823
(I1
(I3
tp1824
g1741
I00
S"\xa0\xebw\xb53\xf0(@\x12\xe2\xe3\x91G#'\xc0\x00\x00\x00\x00\x00\x00\x00@"
p1825
tp1826
bsg1746
S'Cell[3].axon[122]'
p1827
sI180
I54
tp1828
a(F2.0152310685803605
S'Cell[0].dend[52] syn_ = new AmpaNmda(0.642857142857)'
p1829
I0
(dp1830
g1731
F0.8333333333333333
sg1732
F36.0
sg1733
I180
sg1734
g7
(g8
(I0
tp1831
g10
tp1832
Rp1833
(I1
(I3
tp1834
g1741
I00
S'\x1c\xfba\x8c\x94o2@\xacW\x8c/\x17\xeea\xc0\xa47\xaa4*X5\xc0'
p1835
tp1836
bsg1746
S'Cell[3].axon[253]'
p1837
sI180
I6
tp1838
a(F2.2770076878764915
S'Cell[2].dend[30] syn_ = new FastInhib(0.214285714286)'
p1839
I2
(dp1840
g1731
F0.5
sg1732
F36.0
sg1733
I180
sg1734
g7
(g8
(I0
tp1841
g10
tp1842
Rp1843
(I1
(I3
tp1844
g1741
I00
S'\x9a\x9f \x87\xdf\xc1M\xc0;8q\xa8(\xf4C\xc0\x00\x00\x00`\x8f\xc23@'
p1845
tp1846
bsg1746
S'Cell[3].axon[277]'
p1847
sI180
I102
tp1848
a(F2.468466318034982
S'Cell[0].dend[66] syn_ = new ExpSid(0.3)'
p1849
I0
(dp1850
S'seg'
p1851
F0.5
sS'hostfrom'
p1852
F37.0
sS'gid'
p1853
I133
sS'coords'
p1854
g7
(g8
(I0
tp1855
g10
tp1856
Rp1857
(I1
(I3
tp1858
g14
(S'f8'
p1859
I0
I1
tp1860
Rp1861
(I3
S'<'
p1862
NNNI-1
I-1
I0
tp1863
bI00
S'6\x9a\x98\x1e11<@t>\x11ff65\xc0\xe2\xf1\xe0\xec\xa5V\x0f\xc0'
p1864
tp1865
bsS'secnames'
p1866
S'Cell[2].axon[89]'
p1867
sI133
I6
tp1868
a(F2.1515272303801325
S'Cell[0].dend[49] syn_ = new ExpSid(0.3)'
p1869
I0
(dp1870
g1851
F0.30000000000000004
sg1852
F37.0
sg1853
I133
sg1854
g7
(g8
(I0
tp1871
g10
tp1872
Rp1873
(I1
(I3
tp1874
g1861
I00
S"~m\xa9'\xc8\xc4*\xc0\xb4\x17\xb0\xfd\x0b%D\xc0\xd0\x8erB7{1\xc0"
p1875
tp1876
bsg1866
S'Cell[2].axon[119]'
p1877
sI133
I6
tp1878
a(F1.8301969462511642
S'Cell[2].dend[44] syn_ = new FastInhib(0.5)'
p1879
I2
(dp1880
g1851
F0.5
sg1852
F37.0
sg1853
I181
sg1854
g7
(g8
(I0
tp1881
g10
tp1882
Rp1883
(I1
(I3
tp1884
g1861
I00
S'C\xe6V\x80\xbf\x1f,@p\x83\x0f\xca\x1e\x08\x0f\xc0@5\t\xe6n*\x08\xc0'
p1885
tp1886
bsg1866
S'Cell[3].axon[157]'
p1887
sI181
I102
tp1888
a(F2.33547586657201
S'Cell[0].dend[50] syn_ = new ExpSid(0.5)'
p1889
I0
(dp1890
g1851
F0.16666666666666666
sg1852
F37.0
sg1853
I85
sg1854
g7
(g8
(I0
tp1891
g10
tp1892
Rp1893
(I1
(I3
tp1894
g1861
I00
S"5\xac\xf7:\xfd\xf9B\xc0KsZ\x8ds\xafQ\xc0\x9aG'd,\x1c1\xc0"
p1895
tp1896
bsg1866
S'Cell[1].axon[232]'
p1897
sI85
I6
tp1898
a(F2.278934755301866
S'Cell[1].apic[20] syn_ = new AmpaNmda(0.5)'
p1899
I1
(dp1900
S'seg'
p1901
F0.16666666666666666
sS'hostfrom'
p1902
F38.0
sS'gid'
p1903
I182
sS'coords'
p1904
g7
(g8
(I0
tp1905
g10
tp1906
Rp1907
(I1
(I3
tp1908
g14
(S'f8'
p1909
I0
I1
tp1910
Rp1911
(I3
S'<'
p1912
NNNI-1
I-1
I0
tp1913
bI00
S'\x80 \xbb\xfaq+D\xc0\xf8\x0e\xb7\xdf\x8bg*@\x19%u\x13\xfc\xefT\xc0'
p1914
tp1915
bsS'secnames'
p1916
S'Cell[3].axon[126]'
p1917
sI182
I54
tp1918
a(F1.174486337977616
S'Cell[0].dend[28] syn_ = new AmpaNmda(0.3)'
p1919
I0
(dp1920
g1901
F0.13636363636363635
sg1902
F38.0
sg1903
I182
sg1904
g7
(g8
(I0
tp1921
g10
tp1922
Rp1923
(I1
(I3
tp1924
g1911
I00
S'\x1aO\xac$\xa4JS\xc0\xc4\x99\x08\xa8\xc1\x99E\xc0\xec\xe0.\xb6\x0e\xa2R\xc0'
p1925
tp1926
bsg1916
S'Cell[3].axon[135]'
p1927
sI182
I6
tp1928
a(F2.379454290223959
S'Cell[0].dend[43] syn_ = new AmpaNmda(0.7)'
p1929
I0
(dp1930
g1901
F0.5909090909090909
sg1902
F38.0
sg1903
I182
sg1904
g7
(g8
(I0
tp1931
g10
tp1932
Rp1933
(I1
(I3
tp1934
g1911
I00
S'\xdckz\xbaj\x18`\xc0\xe8,\xb1\xce4\xada\xc0\x12^\xd9t\x8f\xedM\xc0'
p1935
tp1936
bsg1916
S'Cell[3].axon[135]'
p1937
sI182
I6
tp1938
a(F1.5798747290765516
S'Cell[1].dend[1] syn_ = new ExpSid(0.833333333333)'
p1939
I1
(dp1940
S'seg'
p1941
F0.8333333333333333
sS'hostfrom'
p1942
F39.0
sS'gid'
p1943
I87
sS'coords'
p1944
g7
(g8
(I0
tp1945
g10
tp1946
Rp1947
(I1
(I3
tp1948
g14
(S'f8'
p1949
I0
I1
tp1950
Rp1951
(I3
S'<'
p1952
NNNI-1
I-1
I0
tp1953
bI00
S'2\xee\xe7\xe4\x04\x19J@Kp\x85\xd2\x0e\x9dC\xc0\x12\xcark[\xbe,\xc0'
p1954
tp1955
bsS'secnames'
p1956
S'Cell[1].axon[42]'
p1957
sI87
I54
tp1958
a(F1.6066925747448766
S'Cell[1].dend[31] syn_ = new ExpSid(0.166666666667)'
p1959
I1
(dp1960
g1941
F0.8999999999999999
sg1942
F39.0
sg1943
I87
sg1944
g7
(g8
(I0
tp1961
g10
tp1962
Rp1963
(I1
(I3
tp1964
g1951
I00
S'\xfe\x85\x05\x00k!4\xc0@#u<lK6@PE\xf1\x8c\x04W\x08\xc0'
p1965
tp1966
bsg1956
S'Cell[1].axon[80]'
p1967
sI87
I54
tp1968
a(F1.8840040386326269
S'Cell[0].apic[28] syn_ = new ExpSid(0.833333333333)'
p1969
I0
(dp1970
g1941
F0.5
sg1942
F39.0
sg1943
I135
sg1944
g7
(g8
(I0
tp1971
g10
tp1972
Rp1973
(I1
(I3
tp1974
g1951
I00
S"\xeb;>\xe3\xa0\xb1@@\x84'\xe9&\xdbZ`@\x00\x00\x00\xc0\xf5hN\xc0"
p1975
tp1976
bsg1956
S'Cell[2].axon[127]'
p1977
sI135
I6
tp1978
a(F1.50105109687012
S'Cell[2].dend[42] syn_ = new FastInhib(0.5)'
p1979
I2
(dp1980
g1941
F0.5
sg1942
F39.0
sg1943
I183
sg1944
g7
(g8
(I0
tp1981
g10
tp1982
Rp1983
(I1
(I3
tp1984
g1951
I00
S'\x00\x00\x00\x00\x00\x00\x12\xc0\x00\x00\x00`\x8fB"@\x00\x00\x00 \x85\xeb\x10@'
p1985
tp1986
bsg1956
S'Cell[3].soma[0]'
p1987
sI183
I102
tp1988
a(F1.5857721514093883
S'Cell[0].dend[76] syn_ = new ExpSid(0.5)'
p1989
I0
(dp1990
g1941
F0.30000000000000004
sg1942
F39.0
sg1943
I183
sg1944
g7
(g8
(I0
tp1991
g10
tp1992
Rp1993
(I1
(I3
tp1994
g1951
I00
S'\xa2\x9bTh\x99\xbf<@\x9c\xacgB\xd7\xfd @\x06\x95\x00\x0b\x18\xc4\xf9?'
p1995
tp1996
bsg1956
S'Cell[3].axon[58]'
p1997
sI183
I6
tp1998
a(F2.2138923762535003
S'Cell[0].dend[56] syn_ = new ExpSid(0.3)'
p1999
I0
(dp2000
g1941
F0.5
sg1942
F39.0
sg1943
I183
sg1944
g7
(g8
(I0
tp2001
g10
tp2002
Rp2003
(I1
(I3
tp2004
g1951
I00
S'\xde\xdb\xc9\xe7\xd2\xa7E@zw\x1cg\xd2\xacd\xc0\xab\x14v*\xd5\xac=\xc0'
p2005
tp2006
bsg1956
S'Cell[3].axon[68]'
p2007
sI183
I6
tp2008
a(F0.9976237980134369
S'Cell[2].dend[22] syn_ = new FastInhib(0.1)'
p2009
I2
(dp2010
g1941
F0.30000000000000004
sg1942
F39.0
sg1943
I183
sg1944
g7
(g8
(I0
tp2011
g10
tp2012
Rp2013
(I1
(I3
tp2014
g1951
I00
S'\xe6\x1a=\xa8\xa25\x13@\xe8\x9fF8LqQ@\xbf\x8c\xd2\xbe\x80\xee\x12\xc0'
p2015
tp2016
bsg1956
S'Cell[3].axon[189]'
p2017
sI183
I102
tp2018
a(F1.3616373072497234
S'Cell[0].dend[52] syn_ = new AmpaNmda(0.0714285714286)'
p2019
I0
(dp2020
S'seg'
p2021
F0.22727272727272727
sS'hostfrom'
p2022
F40.0
sS'gid'
p2023
I40
sS'coords'
p2024
g7
(g8
(I0
tp2025
g10
tp2026
Rp2027
(I1
(I3
tp2028
g14
(S'f8'
p2029
I0
I1
tp2030
Rp2031
(I3
S'<'
p2032
NNNI-1
I-1
I0
tp2033
bI00
S'\xf1\xed\xd9\xee\xc49\x11\xc0\x87\x00\xa3\xe8\xdf\xdaB\xc0\x90\xc5n\xde\tI6\xc0'
p2034
tp2035
bsS'secnames'
p2036
S'Cell[0].axon[16]'
p2037
sI40
I6
tp2038
a(F1.6806095868898623
S'Cell[0].apic[66] syn_ = new AmpaNmda(0.1)'
p2039
I0
(dp2040
g2021
F0.30000000000000004
sg2022
F40.0
sg2023
I40
sg2024
g7
(g8
(I0
tp2041
g10
tp2042
Rp2043
(I1
(I3
tp2044
g2031
I00
S'K\xf2\x1a\xe29\xba=\xc0\x96\xe7\x9dQQ\xebk@)\xcc\xca\xe8"\xd9M\xc0'
p2045
tp2046
bsg2036
S'Cell[0].axon[19]'
p2047
sI40
I6
tp2048
a(F0.396573753512443
S'Cell[1].dend[14] syn_ = new AmpaNmda(0.5)'
p2049
I1
(dp2050
g2021
F0.7
sg2022
F40.0
sg2023
I88
sg2024
g7
(g8
(I0
tp2051
g10
tp2052
Rp2053
(I1
(I3
tp2054
g2031
I00
S'O\xf6\xcc\xa6\x1a\x82K@\x0e\xac\xa5R\xde\xdaG@\x9d-k+!\x8b0@'
p2055
tp2056
bsg2036
S'Cell[1].axon[150]'
p2057
sI88
I54
tp2058
a(F0.6688410881753867
S'Cell[2].dend[5] syn_ = new FastInhib(0.833333333333)'
p2059
I2
(dp2060
g2021
F0.16666666666666666
sg2022
F40.0
sg2023
I88
sg2024
g7
(g8
(I0
tp2061
g10
tp2062
Rp2063
(I1
(I3
tp2064
g2031
I00
S'r\xca\xeb\xfb\x8e=W\xc0&\xdepZ\xf2\xba\x1f@\x00\x00\x00\xc0\xf5(\xec\xbf'
p2065
tp2066
bsg2036
S'Cell[1].axon[267]'
p2067
sI88
I102
tp2068
a(F2.0489555631094114
S'Cell[2].dend[40] syn_ = new FastInhib(0.833333333333)'
p2069
I2
(dp2070
g2021
F0.8999999999999999
sg2022
F40.0
sg2023
I136
sg2024
g7
(g8
(I0
tp2071
g10
tp2072
Rp2073
(I1
(I3
tp2074
g2031
I00
S'\xd2\xde\xc3Q{\x04\x0e@;\x86\xc9a\xf0\x9cX@\xb0\xe1\xbb\xb1\xbd\x08)@'
p2075
tp2076
bsg2036
S'Cell[2].axon[27]'
p2077
sI136
I102
tp2078
a(F2.4494760961198834
S'Cell[0].dend[23] syn_ = new AmpaNmda(0.5)'
p2079
I0
(dp2080
g2021
F0.5
sg2022
F40.0
sg2023
I136
sg2024
g7
(g8
(I0
tp2081
g10
tp2082
Rp2083
(I1
(I3
tp2084
g2031
I00
S'(\x92*,\xea\x08?\xc0R`T\xe2\x87*+\xc0\x17\x9df\x86\x1bhG\xc0'
p2085
tp2086
bsg2036
S'Cell[2].axon[93]'
p2087
sI136
I6
tp2088
a(F2.0442016393597595
S'Cell[0].dend[3] syn_ = new ExpSid(0.7)'
p2089
I0
(dp2090
S'seg'
p2091
F0.5
sS'hostfrom'
p2092
F41.0
sS'gid'
p2093
I185
sS'coords'
p2094
g7
(g8
(I0
tp2095
g10
tp2096
Rp2097
(I1
(I3
tp2098
g14
(S'f8'
p2099
I0
I1
tp2100
Rp2101
(I3
S'<'
p2102
NNNI-1
I-1
I0
tp2103
bI00
S'\xe8\xafE\x9e\xfa\x9cQ\xc0z\xf6~\x8a\x8e\x05Q@\x00\x00\x00\xe0\xa3\x10R\xc0'
p2104
tp2105
bsS'secnames'
p2106
S'Cell[3].axon[148]'
p2107
sI185
I6
tp2108
a(F1.9150634223413197
S'Cell[2].dend[21] syn_ = new FastInhib(0.3)'
p2109
I2
(dp2110
g2091
F0.5
sg2092
F41.0
sg2093
I185
sg2094
g7
(g8
(I0
tp2111
g10
tp2112
Rp2113
(I1
(I3
tp2114
g2101
I00
S'\x00\x00\x00P\x8f\xc2:\xc0\x00\x00\x00\xa0\x99YW@\x00\x00\x00\x80\x14n(\xc0'
p2115
tp2116
bsg2106
S'Cell[3].axon[204]'
p2117
sI185
I102
tp2118
a(F1.610259509689717
S'Cell[1].apic[40] syn_ = new ExpSid(0.5)'
p2119
I1
(dp2120
g2091
F0.5
sg2092
F41.0
sg2093
I185
sg2094
g7
(g8
(I0
tp2121
g10
tp2122
Rp2123
(I1
(I3
tp2124
g2101
I00
S'\x96\xbd\xdb\xae!"^@\x82\xc4\xc8\x06\x9dw*@\xc0k\xb5z\x9c\xbfN\xc0'
p2125
tp2126
bsg2106
S'Cell[3].axon[215]'
p2127
sI185
I54
tp2128
a(F1.6326835084737215
S'Cell[0].dend[13] syn_ = new ExpSid(0.5)'
p2129
I0
(dp2130
g2091
F0.49999999999999994
sg2092
F41.0
sg2093
I89
sg2094
g7
(g8
(I0
tp2131
g10
tp2132
Rp2133
(I1
(I3
tp2134
g2101
I00
S'\x83\x9f\x15j\xa0\x9cW\xc0K\x0bqf\xad|2\xc0E\x96 \xb8\xca\x98U\xc0'
p2135
tp2136
bsg2106
S'Cell[1].axon[15]'
p2137
sI89
I6
tp2138
a(F1.7011511167266475
S'Cell[2].dend[5] syn_ = new FastInhib(0.5)'
p2139
I2
(dp2140
g2091
F0.16666666666666666
sg2092
F41.0
sg2093
I89
sg2094
g7
(g8
(I0
tp2141
g10
tp2142
Rp2143
(I1
(I3
tp2144
g2101
I00
S'.\x92>:\xb2\xa0V\xc0\xf4\xf1\x1bcGb2@\xbb\x19\x9d\x98S\x10\x1e@'
p2145
tp2146
bsg2106
S'Cell[1].axon[114]'
p2147
sI89
I102
tp2148
a(F2.2986490856654083
S'Cell[2].dend[36] syn_ = new FastInhib(0.1)'
p2149
I2
(dp2150
S'seg'
p2151
F0.5
sS'hostfrom'
p2152
F42.0
sS'gid'
p2153
I90
sS'coords'
p2154
g7
(g8
(I0
tp2155
g10
tp2156
Rp2157
(I1
(I3
tp2158
g14
(S'f8'
p2159
I0
I1
tp2160
Rp2161
(I3
S'<'
p2162
NNNI-1
I-1
I0
tp2163
bI00
S'\x90\xbb9\x01\x9d|>\xc0l\x9d\x1c\rF\xe6>\xc0\x04\xc9E\xdbDp)@'
p2164
tp2165
bsS'secnames'
p2166
S'Cell[1].axon[17]'
p2167
sI90
I102
tp2168
a(F2.1780628578563297
S'Cell[0].dend[61] syn_ = new AmpaNmda(0.833333333333)'
p2169
I0
(dp2170
g2151
F0.3571428571428571
sg2152
F42.0
sg2153
I90
sg2154
g7
(g8
(I0
tp2171
g10
tp2172
Rp2173
(I1
(I3
tp2174
g2161
I00
S'\x02m\x95\xb9R\xa6J@PS\xc4f/tD\xc0\x96zM\x8d\x8cH5\xc0'
p2175
tp2176
bsg2166
S'Cell[1].axon[241]'
p2177
sI90
I6
tp2178
a(F1.9411217330134303
S'Cell[0].apic[27] syn_ = new ExpSid(0.5)'
p2179
I0
(dp2180
S'seg'
p2181
F0.5
sS'hostfrom'
p2182
F43.0
sS'gid'
p2183
I91
sS'coords'
p2184
g7
(g8
(I0
tp2185
g10
tp2186
Rp2187
(I1
(I3
tp2188
g14
(S'f8'
p2189
I0
I1
tp2190
Rp2191
(I3
S'<'
p2192
NNNI-1
I-1
I0
tp2193
bI00
S'\xe5\xa0\xae\xb9R\xf9\x1a\xc0\x06\xec\x8ek\x874X@\xe1[\x8c{\xe8NV\xc0'
p2194
tp2195
bsS'secnames'
p2196
S'Cell[1].axon[21]'
p2197
sI91
I6
tp2198
a(F2.0310082652808767
S'Cell[2].dend[54] syn_ = new FastInhib(0.5)'
p2199
I2
(dp2200
g2181
F0.16666666666666666
sg2182
F43.0
sg2183
I91
sg2184
g7
(g8
(I0
tp2201
g10
tp2202
Rp2203
(I1
(I3
tp2204
g2191
I00
S'\xbe\x9f/\xa5\x90\x9b4@\x0e\xaaE\x1f\xc5\x7f5@\x00\x00\x00\xe0z\x14\x1b@'
p2205
tp2206
bsg2196
S'Cell[1].axon[197]'
p2207
sI91
I102
tp2208
a(F1.9192403957145843
S'Cell[1].apic[75] syn_ = new ExpSid(0.1)'
p2209
I1
(dp2210
g2181
F0.5
sg2182
F43.0
sg2183
I91
sg2184
g7
(g8
(I0
tp2211
g10
tp2212
Rp2213
(I1
(I3
tp2214
g2191
I00
S'X\xb4\x9dm\x00\xfdO@\xe3\x9c\xfcZ\x8d(N@\xff\xff\xff?\xe1z\xd4\xbf'
p2215
tp2216
bsg2196
S'Cell[1].axon[247]'
p2217
sI91
I54
tp2218
a(F1.0832110583085959
S'Cell[1].apic[56] syn_ = new ExpSid(0.5)'
p2219
I1
(dp2220
g2181
F0.8333333333333333
sg2182
F43.0
sg2183
I91
sg2184
g7
(g8
(I0
tp2221
g10
tp2222
Rp2223
(I1
(I3
tp2224
g2191
I00
S'?V\x0c\x19\x9b\xa1Y@E)\x93\x82\xa0\xb3S@sY\xaa\x06R^%@'
p2225
tp2226
bsg2196
S'Cell[1].axon[259]'
p2227
sI91
I54
tp2228
a(F1.2249764569350274
S'Cell[0].dend[3] syn_ = new ExpSid(0.5)'
p2229
I0
(dp2230
g2181
F0.8999999999999999
sg2182
F43.0
sg2183
I91
sg2184
g7
(g8
(I0
tp2231
g10
tp2232
Rp2233
(I1
(I3
tp2234
g2191
I00
S'\x8a\x9e)\xa5\xd9RP\xc0\xadO\xd9\x92\x98uH@\x00\x00\x00`\xb8\xbeR\xc0'
p2235
tp2236
bsg2196
S'Cell[1].axon[516]'
p2237
sI91
I6
tp2238
a(F1.198597310953639
S'Cell[1].dend[10] syn_ = new ExpSid(0.9)'
p2239
I1
(dp2240
g2181
F0.16666666666666666
sg2182
F43.0
sg2183
I139
sg2184
g7
(g8
(I0
tp2241
g10
tp2242
Rp2243
(I1
(I3
tp2244
g2191
I00
S'\xee\x8c\xd59p\xabX@d\x1c+\x0bt\x1eR\xc0\t\xfe|\xc6\xdbh/\xc0'
p2245
tp2246
bsg2196
S'Cell[2].axon[239]'
p2247
sI139
I54
tp2248
a(F2.2186858264023837
S'Cell[0].apic[6] syn_ = new ExpSid(0.5)'
p2249
I0
(dp2250
g2181
F0.8333333333333333
sg2182
F43.0
sg2183
I139
sg2184
g7
(g8
(I0
tp2251
g10
tp2252
Rp2253
(I1
(I3
tp2254
g2191
I00
S'\xae\xad`\xeap\xf9:\xc0\x9c\x8a\x94q_\xb5;@J\xdau\x15\x98\xcdX\xc0'
p2255
tp2256
bsg2196
S'Cell[2].axon[303]'
p2257
sI139
I6
tp2258
a(F1.901137235743174
S'Cell[3].dend[10] syn_ = new FastInhib(0.5)'
p2259
I3
(dp2260
g2181
F0.5
sg2182
F43.0
sg2183
I187
sg2184
g7
(g8
(I0
tp2261
g10
tp2262
Rp2263
(I1
(I3
tp2264
g2191
I00
S'\xe0\x85\xe6\xb0\x99\x9d9@\x80\x1e\xf2%\x06\x18@\xc0\xa5\xc1\xae8\x0e\x85"\xc0'
p2265
tp2266
bsg2196
S'Cell[3].axon[57]'
p2267
sI187
I150
tp2268
a(F0.7271133645365675
S'Cell[1].apic[76] syn_ = new ExpSid(0.166666666667)'
p2269
I1
(dp2270
g2181
F0.8333333333333333
sg2182
F43.0
sg2183
I187
sg2184
g7
(g8
(I0
tp2271
g10
tp2272
Rp2273
(I1
(I3
tp2274
g2191
I00
S'\xa0\x8ez\x003XQ@&e\xc9Iu\x81K@\xff\xff\xff\x9fp=\xfe\xbf'
p2275
tp2276
bsg2196
S'Cell[3].axon[111]'
p2277
sI187
I54
tp2278
a(F1.7974028735790855
S'Cell[1].apic[60] syn_ = new ExpSid(0.5)'
p2279
I1
(dp2280
g2181
F0.8999999999999999
sg2182
F43.0
sg2183
I187
sg2184
g7
(g8
(I0
tp2281
g10
tp2282
Rp2283
(I1
(I3
tp2284
g2191
I00
S't\x96s\x15\xc1Oc@\xcex\x015#(T@\xa8\x00\xc1\xcacS\x1c@'
p2285
tp2286
bsg2196
S'Cell[3].axon[162]'
p2287
sI187
I54
tp2288
a(F1.4496361677580214
S'Cell[0].dend[56] syn_ = new AmpaNmda(0.7)'
p2289
I0
(dp2290
S'seg'
p2291
F0.5
sS'hostfrom'
p2292
F44.0
sS'gid'
p2293
I92
sS'coords'
p2294
g7
(g8
(I0
tp2295
g10
tp2296
Rp2297
(I1
(I3
tp2298
g14
(S'f8'
p2299
I0
I1
tp2300
Rp2301
(I3
S'<'
p2302
NNNI-1
I-1
I0
tp2303
bI00
S'\x00\x00\x00`f\xa6O@\x00\x00\x00 \x85;j\xc0\x00\x00\x00\xb8\x1e\x05@\xc0'
p2304
tp2305
bsS'secnames'
p2306
S'Cell[1].axon[52]'
p2307
sI92
I6
tp2308
a(F1.487650530209988
S'Cell[1].apic[41] syn_ = new AmpaNmda(0.5)'
p2309
I1
(dp2310
g2291
F0.3571428571428571
sg2292
F44.0
sg2293
I92
sg2294
g7
(g8
(I0
tp2311
g10
tp2312
Rp2313
(I1
(I3
tp2314
g2301
I00
S'>\x06;q\xd4\x97\\@\x9b>D\x11\x06W>@\xf3\xfbk\x93\t\x05D\xc0'
p2315
tp2316
bsg2306
S'Cell[1].axon[110]'
p2317
sI92
I54
tp2318
a(F2.3287146866171167
S'Cell[1].apic[24] syn_ = new AmpaNmda(0.5)'
p2319
I1
(dp2320
g2291
F0.16666666666666666
sg2292
F44.0
sg2293
I92
sg2294
g7
(g8
(I0
tp2321
g10
tp2322
Rp2323
(I1
(I3
tp2324
g2301
I00
S'\x9c\xaf\x94D\xa3qU@(\xc98\x81\xfd\xeb\xd4\xbf\xb2i\xf5\x7f0\xddZ\xc0'
p2325
tp2326
bsg2306
S'Cell[1].axon[177]'
p2327
sI92
I54
tp2328
a(F1.772386036576101
S'Cell[2].dend[0] syn_ = new FastInhib(0.5)'
p2329
I2
(dp2330
g2291
F0.5
sg2292
F44.0
sg2293
I188
sg2294
g7
(g8
(I0
tp2331
g10
tp2332
Rp2333
(I1
(I3
tp2334
g2301
I00
S'\x1dd\x9f8o\x930\xc0\\\x18\x10\xff9\xd78@\x00\x00\x00\x00)\\\x10@'
p2335
tp2336
bsg2306
S'Cell[3].axon[19]'
p2337
sI188
I102
tp2338
a(F1.529878965632299
S'Cell[3].dend[10] syn_ = new FastInhib(0.166666666667)'
p2339
I3
(dp2340
g2291
F0.30000000000000004
sg2292
F44.0
sg2293
I188
sg2294
g7
(g8
(I0
tp2341
g10
tp2342
Rp2343
(I1
(I3
tp2344
g2301
I00
S'V\xa9\xeek\x8b\xd6+@\xce\xe6\x1db\xd5-\x18\xc0H\xd3\x9b\x14\xf7.\x1b@'
p2345
tp2346
bsg2306
S'Cell[3].axon[66]'
p2347
sI188
I150
tp2348
a(F1.7855254565308187
S'Cell[0].apic[33] syn_ = new AmpaNmda(0.5)'
p2349
I0
(dp2350
g2291
F0.5
sg2292
F44.0
sg2293
I188
sg2294
g7
(g8
(I0
tp2351
g10
tp2352
Rp2353
(I1
(I3
tp2354
g2301
I00
S'\x05\xf2t\xef\x88\xd76\xc0\xe5/\xcb\xe1\x93\xfa\\@M#\xec\xa5m\x1eW\xc0'
p2355
tp2356
bsg2306
S'Cell[3].axon[74]'
p2357
sI188
I6
tp2358
a(F2.4300833002590947
S'Cell[1].dend[30] syn_ = new AmpaNmda(0.833333333333)'
p2359
I1
(dp2360
g2291
F0.5
sg2292
F44.0
sg2293
I188
sg2294
g7
(g8
(I0
tp2361
g10
tp2362
Rp2363
(I1
(I3
tp2364
g2301
I00
S'X\x082D\xa3X\x19\xc0\xb2?\xbf\xf0\xd1\x105@d\x1e\xc2f\x9a\x0b\x07\xc0'
p2365
tp2366
bsg2306
S'Cell[3].axon[128]'
p2367
sI188
I54
tp2368
a(F1.7827665594876074
S'Cell[0].dend[22] syn_ = new AmpaNmda(0.5)'
p2369
I0
(dp2370
g2291
F0.5
sg2292
F44.0
sg2293
I188
sg2294
g7
(g8
(I0
tp2371
g10
tp2372
Rp2373
(I1
(I3
tp2374
g2301
I00
S'<\x88*\x8fd}X\xc0T;\x8f\xc00\x8f4@?!\n\xe7Q7U\xc0'
p2375
tp2376
bsg2306
S'Cell[3].axon[177]'
p2377
sI188
I6
tp2378
a(F1.9447857625609273
S'Cell[2].dend[27] syn_ = new FastInhib(0.166666666667)'
p2379
I2
(dp2380
g2291
F0.8333333333333333
sg2292
F44.0
sg2293
I188
sg2294
g7
(g8
(I0
tp2381
g10
tp2382
Rp2383
(I1
(I3
tp2384
g2301
I00
S'h\x85\x01\x15\x02\x10B\xc0\x12C&\x8e\x9f\x05A\xc0\x0cJ\x8be\x9b\xdc0@'
p2385
tp2386
bsg2306
S'Cell[3].axon[216]'
p2387
sI188
I102
tp2388
a(F1.0132830555982326
S'Cell[0].dend[68] syn_ = new ExpSid(0.5)'
p2389
I0
(dp2390
S'seg'
p2391
F0.5
sS'hostfrom'
p2392
F45.0
sS'gid'
p2393
I141
sS'coords'
p2394
g7
(g8
(I0
tp2395
g10
tp2396
Rp2397
(I1
(I3
tp2398
g14
(S'f8'
p2399
I0
I1
tp2400
Rp2401
(I3
S'<'
p2402
NNNI-1
I-1
I0
tp2403
bI00
S'\xe3\xd0\x1b\xed\xb4\xd6*@\xaa\xddmF\xbf\xe7,\xc0\xb8\x9dE\xa2\xe7\x9f)\xc0'
p2404
tp2405
bsS'secnames'
p2406
S'Cell[2].axon[11]'
p2407
sI141
I6
tp2408
a(F2.1942661538724297
S'Cell[0].dend[74] syn_ = new ExpSid(0.3)'
p2409
I0
(dp2410
g2391
F0.8333333333333333
sg2392
F45.0
sg2393
I141
sg2394
g7
(g8
(I0
tp2411
g10
tp2412
Rp2413
(I1
(I3
tp2414
g2401
I00
S'B\xd5.j\x84\xd9H@\x10t\xbfe\xe2\x0f\xf8\xbf\x00\x00\x00\xa0\x99\x99\x18\xc0'
p2415
tp2416
bsg2406
S'Cell[2].axon[61]'
p2417
sI141
I6
tp2418
a(F1.3879843561514635
S'Cell[0].dend[53] syn_ = new ExpSid(0.5)'
p2419
I0
(dp2420
g2391
F0.5
sg2392
F45.0
sg2393
I141
sg2394
g7
(g8
(I0
tp2421
g10
tp2422
Rp2423
(I1
(I3
tp2424
g2401
I00
S'\x00\x00\x00P\xb8\x1e\xe1?\x00\x00\x00\x00)\xdc>\xc0\x00\x00\x00\xe0\xa3p6\xc0'
p2425
tp2426
bsg2406
S'Cell[2].axon[145]'
p2427
sI141
I6
tp2428
a(F2.4800689546588766
S'Cell[2].dend[37] syn_ = new FastInhib(0.5)'
p2429
I2
(dp2430
g2391
F0.5
sg2392
F45.0
sg2393
I141
sg2394
g7
(g8
(I0
tp2431
g10
tp2432
Rp2433
(I1
(I3
tp2434
g2401
I00
S'g\x96\xc4|\xdc^F\xc0\xe2\x90\x94c\xa8\xd9b\xc0\xff\xff\xff\xff\xff\xbf5\xc0'
p2435
tp2436
bsg2406
S'Cell[2].axon[199]'
p2437
sI141
I102
tp2438
a(F2.040694176401062
S'Cell[1].apic[4] syn_ = new ExpSid(0.833333333333)'
p2439
I1
(dp2440
g2391
F0.5
sg2392
F45.0
sg2393
I141
sg2394
g7
(g8
(I0
tp2441
g10
tp2442
Rp2443
(I1
(I3
tp2444
g2401
I00
S'\xcec\x99e|*@@?\xca\xa2\x19 \x04K@\x00\x00\x00@33Q\xc0'
p2445
tp2446
bsg2406
S'Cell[2].axon[332]'
p2447
sI141
I54
tp2448
a(F2.050819272252045
S'Cell[1].dend[11] syn_ = new AmpaNmda(0.166666666667)'
p2449
I1
(dp2450
S'seg'
p2451
F0.30000000000000004
sS'hostfrom'
p2452
F46.0
sS'gid'
p2453
I94
sS'coords'
p2454
g7
(g8
(I0
tp2455
g10
tp2456
Rp2457
(I1
(I3
tp2458
g14
(S'f8'
p2459
I0
I1
tp2460
Rp2461
(I3
S'<'
p2462
NNNI-1
I-1
I0
tp2463
bI00
S"\x07(\xaf\x8aV'U@6N\x84aM\x9e\x17\xc0=\xacA\xb3]N\x1e\xc0"
p2464
tp2465
bsS'secnames'
p2466
S'Cell[1].axon[89]'
p2467
sI94
I54
tp2468
a(F2.2973812169530996
S'Cell[2].dend[24] syn_ = new FastInhib(0.5)'
p2469
I2
(dp2470
g2451
F0.5
sg2452
F46.0
sg2453
I94
sg2454
g7
(g8
(I0
tp2471
g10
tp2472
Rp2473
(I1
(I3
tp2474
g2461
I00
S'\x00\x00\x00\x10\xd7\xb3B\xc0\x00\x00\x00\x00ff\xc6?\x00\x00\x00p=\xca-@'
p2475
tp2476
bsg2466
S'Cell[1].axon[220]'
p2477
sI94
I102
tp2478
a(F0.7874266473739788
S'Cell[2].dend[22] syn_ = new FastInhib(0.9)'
p2479
I2
(dp2480
g2451
F0.5
sg2452
F46.0
sg2453
I94
sg2454
g7
(g8
(I0
tp2481
g10
tp2482
Rp2483
(I1
(I3
tp2484
g2461
I00
S'Z\xd4\x86\xda\xd5\xb5P@\xad\xc5\xb0\xa2\xbb\xc3T@r\xd3\x82\xb6\x1fqL\xc0'
p2485
tp2486
bsg2466
S'Cell[1].axon[294]'
p2487
sI94
I102
tp2488
a(F0.9729162419835873
S'Cell[2].dend[18] syn_ = new FastInhib(0.166666666667)'
p2489
I2
(dp2490
g2451
F0.5
sg2452
F46.0
sg2453
I142
sg2454
g7
(g8
(I0
tp2491
g10
tp2492
Rp2493
(I1
(I3
tp2494
g2461
I00
S'\x90\xb8a\xc3\x96\xc4)@\x0e\x15z\x90UKT@\xe7\xca\xe0\x03H<\xfe\xbf'
p2495
tp2496
bsg2466
S'Cell[2].axon[28]'
p2497
sI142
I102
tp2498
a(F2.490070665850736
S'Cell[3].dend[2] syn_ = new FastInhib(0.5)'
p2499
I3
(dp2500
S'seg'
p2501
F0.5
sS'hostfrom'
p2502
F47.0
sS'gid'
p2503
I95
sS'coords'
p2504
g7
(g8
(I0
tp2505
g10
tp2506
Rp2507
(I1
(I3
tp2508
g14
(S'f8'
p2509
I0
I1
tp2510
Rp2511
(I3
S'<'
p2512
NNNI-1
I-1
I0
tp2513
bI00
S'\xac\x91\xcb\x05\xf6\x98\x11\xc0v\r\xd5\xa3\xf2l3@\xd4\x08\x0c=\xab\x97\x18@'
p2514
tp2515
bsS'secnames'
p2516
S'Cell[1].axon[168]'
p2517
sI95
I150
tp2518
a(F1.7006070423736597
S'Cell[1].dend[30] syn_ = new ExpSid(0.166666666667)'
p2519
I1
(dp2520
g2501
F0.5
sg2502
F47.0
sg2503
I95
sg2504
g7
(g8
(I0
tp2521
g10
tp2522
Rp2523
(I1
(I3
tp2524
g2511
I00
S'\x01d\x93|\xdaw@@\x8c>\x1c\x13\x02\x1d2@\xa2nd\xdc\x8f5\x06@'
p2525
tp2526
bsg2516
S'Cell[1].axon[174]'
p2527
sI95
I54
tp2528
a(F1.7052390742259804
S'Cell[0].apic[55] syn_ = new ExpSid(0.7)'
p2529
I0
(dp2530
g2501
F0.5
sg2502
F47.0
sg2503
I95
sg2504
g7
(g8
(I0
tp2531
g10
tp2532
Rp2533
(I1
(I3
tp2534
g2511
I00
S'S\x87ZLO\x07X@,\x8d\xe69\x9f\xdba@d\xdf\xabIZ.O\xc0'
p2535
tp2536
bsg2516
S'Cell[1].axon[291]'
p2537
sI95
I6
tp2538
a(F1.9672089277671636
S'Cell[1].apic[55] syn_ = new ExpSid(0.5)'
p2539
I1
(dp2540
g2501
F0.5
sg2502
F47.0
sg2503
I143
sg2504
g7
(g8
(I0
tp2541
g10
tp2542
Rp2543
(I1
(I3
tp2544
g2511
I00
S'o\x98\x90\x1a\x8e\xfeX@Lj\xc6,\x0f\xb7E@\x00\x00\x00\xc0\xf5(\x04\xc0'
p2545
tp2546
bsg2516
S'Cell[2].axon[176]'
p2547
sI143
I54
tp2548
a.