(lp0
(F2.0850273855598136
S'Cell[1].dend[23] syn_ = new FastInhib(0.833333333333)'
p1
I1
(dp2
S'seg'
p3
F0.1
sS'hostfrom'
p4
F2.0
sS'gid'
p5
I98
sS'coords'
p6
cnumpy.core.multiarray
_reconstruct
p7
(cnumpy
ndarray
p8
(I0
tp9
S'b'
p10
tp11
Rp12
(I1
(I3
tp13
cnumpy
dtype
p14
(S'f8'
p15
I0
I1
tp16
Rp17
(I3
S'<'
p18
NNNI-1
I-1
I0
tp19
bI00
S'd\xe1~h\x12\x06I@C\x9d\x99\xbb\xa7\xf4F@\x9d\xde\xb5(\x9cc\x1f\xc0'
p20
tp21
bsS'secnames'
p22
S'Cell[2].axon[187]'
p23
sI98
I83
tp24
a(F0.4501783877312812
S'Cell[0].apic[4] syn_ = new AmpaNmda(0.833333333333)'
p25
I0
(dp26
g3
F0.8333333333333333
sg4
F2.0
sg5
I98
sg6
g7
(g8
(I0
tp27
g10
tp28
Rp29
(I1
(I3
tp30
g17
I00
S'r4L\x00\x84\x01T@8\xb6\xbaU{\x8aX@OIO\x16@`\x17@'
p31
tp32
bsg22
S'Cell[2].axon[411]'
p33
sI98
I35
tp34
a(F2.0850273855598136
S'Cell[1].dend[23] syn_ = new FastInhib(0.833333333333)'
p35
I1
(dp36
S'seg'
p37
F0.1
sS'hostfrom'
p38
F3.0
sS'gid'
p39
I99
sS'coords'
p40
g7
(g8
(I0
tp41
g10
tp42
Rp43
(I1
(I3
tp44
g14
(S'f8'
p45
I0
I1
tp46
Rp47
(I3
S'<'
p48
NNNI-1
I-1
I0
tp49
bI00
S'd\xe1~h\x12\x06I@C\x9d\x99\xbb\xa7\xf4F@\x9d\xde\xb5(\x9cc\x1f\xc0'
p50
tp51
bsS'secnames'
p52
S'Cell[2].axon[187]'
p53
sI99
I83
tp54
a(F0.4501783877312812
S'Cell[0].apic[4] syn_ = new ExpSid(0.833333333333)'
p55
I0
(dp56
g37
F0.8333333333333333
sg38
F3.0
sg39
I99
sg40
g7
(g8
(I0
tp57
g10
tp58
Rp59
(I1
(I3
tp60
g47
I00
S'r4L\x00\x84\x01T@8\xb6\xbaU{\x8aX@OIO\x16@`\x17@'
p61
tp62
bsg52
S'Cell[2].axon[411]'
p63
sI99
I35
tp64
a(F1.9770681575467182
S'Cell[3].dend[16] syn_ = new FastInhib(0.166666666667)'
p65
I3
(dp66
S'seg'
p67
F0.1
sS'hostfrom'
p68
F4.0
sS'gid'
p69
I148
sS'coords'
p70
g7
(g8
(I0
tp71
g10
tp72
Rp73
(I1
(I3
tp74
g14
(S'f8'
p75
I0
I1
tp76
Rp77
(I3
S'<'
p78
NNNI-1
I-1
I0
tp79
bI00
S'\x0c\xa76G\x95\xc9Z@\\\x147.\xb22P\xc0\x98\xdd\xear}sA@'
p80
tp81
bsS'secnames'
p82
S'Cell[3].axon[21]'
p83
sI148
I179
tp84
a(F1.6445633236166286
S'Cell[0].dend[18] syn_ = new AmpaNmda(0.5)'
p85
I0
(dp86
g67
F0.16666666666666666
sg68
F4.0
sg69
I148
sg70
g7
(g8
(I0
tp87
g10
tp88
Rp89
(I1
(I3
tp90
g77
I00
S'\xe6U\xc9\xcb\x99\xbbN@(%*.\x07\x19+@`r\x06\xa3qE\xcd?'
p91
tp92
bsg82
S'Cell[3].axon[332]'
p93
sI148
I35
tp94
a(F2.4837767709542486
S'Cell[0].dend[10] syn_ = new AmpaNmda(0.5)'
p95
I0
(dp96
g67
F0.30000000000000004
sg68
F4.0
sg69
I148
sg70
g7
(g8
(I0
tp97
g10
tp98
Rp99
(I1
(I3
tp100
g77
I00
S'Q\xcbW\xbb\xe5\xc44@r\xb8\xa1\x15\xcf\xe4 @\xf1G#h\x91I @'
p101
tp102
bsg82
S'Cell[3].axon[338]'
p103
sI148
I35
tp104
a(F1.7543964701167187
S'Cell[0].apic[24] syn_ = new ExpSid(0.5)'
p105
I0
(dp106
S'seg'
p107
F0.40909090909090906
sS'hostfrom'
p108
F5.0
sS'gid'
p109
I5
sS'coords'
p110
g7
(g8
(I0
tp111
g10
tp112
Rp113
(I1
(I3
tp114
g14
(S'f8'
p115
I0
I1
tp116
Rp117
(I3
S'<'
p118
NNNI-1
I-1
I0
tp119
bI00
S'\xe4x\xad\x11\x8fi<@Z\x11L{U\xe3E@\x87V\x11\x91h\xf8D@'
p120
tp121
bsS'secnames'
p122
S'Cell[0].axon[16]'
p123
sI5
I35
tp124
a(F2.200030808260216
S'Cell[0].dend[11] syn_ = new ExpSid(0.5)'
p125
I0
(dp126
S'seg'
p127
F0.07142857142857142
sS'hostfrom'
p128
F7.0
sS'gid'
p129
I103
sS'coords'
p130
g7
(g8
(I0
tp131
g10
tp132
Rp133
(I1
(I3
tp134
g14
(S'f8'
p135
I0
I1
tp136
Rp137
(I3
S'<'
p138
NNNI-1
I-1
I0
tp139
bI00
S'3\x8eOJ?y \xc0L\x9a\x95$\xebc:@\x00\x00\x00\x00)\x1c6\xc0'
p140
tp141
bsS'secnames'
p142
S'Cell[2].axon[144]'
p143
sI103
I35
tp144
a(F2.3127377768532162
S'Cell[0].apic[18] syn_ = new ExpSid(0.5)'
p145
I0
(dp146
g127
F0.1
sg128
F7.0
sg129
I103
sg130
g7
(g8
(I0
tp147
g10
tp148
Rp149
(I1
(I3
tp150
g137
I00
S'.\t$-n\xf0V@\xefK\xa5?\xff\xe0H@\xefBo\xa4\x97\xc0/@'
p151
tp152
bsg142
S'Cell[2].axon[347]'
p153
sI103
I35
tp154
a(F1.6100701735634269
S'Cell[1].dend[9] syn_ = new FastInhib(0.0714285714286)'
p155
I1
(dp156
g127
F0.5
sg128
F7.0
sg129
I103
sg130
g7
(g8
(I0
tp157
g10
tp158
Rp159
(I1
(I3
tp160
g137
I00
S'\xb4\x80<\x05\xab\xbc&\xc0L\xa1\xcd\xd4\x0e\xcd@\xc0\x00\x00\x00\x80=\n#\xc0'
p161
tp162
bsg142
S'Cell[2].axon[369]'
p163
sI103
I83
tp164
a(F2.3052714742690097
S'Cell[3].dend[58] syn_ = new FastInhib(0.833333333333)'
p165
I3
(dp166
g127
F0.16666666666666666
sg128
F7.0
sg129
I151
sg130
g7
(g8
(I0
tp167
g10
tp168
Rp169
(I1
(I3
tp170
g137
I00
S'\xc5\xf7pk\xbd;\xf2\xbf\xd2a\xc91DEA\xc0\xdbJ\xfb \x9d\x1eG\xc0'
p171
tp172
bsg142
S'Cell[3].axon[43]'
p173
sI151
I179
tp174
a(F2.155364106984141
S'Cell[1].dend[21] syn_ = new FastInhib(0.166666666667)'
p175
I1
(dp176
g127
F0.5
sg128
F7.0
sg129
I151
sg130
g7
(g8
(I0
tp177
g10
tp178
Rp179
(I1
(I3
tp180
g137
I00
S'!{\xec\x85x\xf9@\xc0\xf8\xc7\x85\x93\xc3\xf0=\xc0\\MN\x1fi\xc87\xc0'
p181
tp182
bsg142
S'Cell[3].axon[127]'
p183
sI151
I83
tp184
a(F1.851750449733095
S'Cell[0].dend[20] syn_ = new ExpSid(0.3)'
p185
I0
(dp186
g127
F0.16666666666666666
sg128
F7.0
sg129
I151
sg130
g7
(g8
(I0
tp187
g10
tp188
Rp189
(I1
(I3
tp190
g137
I00
S'\xac\x0b"\xf1<ZR@\xbe\x0b\xa7\xccZn\xf3?\xc8\xb0A3\x9b}A\xc0'
p191
tp192
bsg142
S'Cell[3].axon[186]'
p193
sI151
I35
tp194
a(F0.8576915289659405
S'Cell[1].dend[2] syn_ = new FastInhib(0.166666666667)'
p195
I1
(dp196
S'seg'
p197
F0.16666666666666666
sS'hostfrom'
p198
F8.0
sS'gid'
p199
I152
sS'coords'
p200
g7
(g8
(I0
tp201
g10
tp202
Rp203
(I1
(I3
tp204
g14
(S'f8'
p205
I0
I1
tp206
Rp207
(I3
S'<'
p208
NNNI-1
I-1
I0
tp209
bI00
S'8\xdc\xeb{\xba2&\xc0\xaa\x8d\t\x07\xba\xf43\xc0[\xf9F\xa2|\x7f\x14\xc0'
p210
tp211
bsS'secnames'
p212
S'Cell[3].axon[520]'
p213
sI152
I83
tp214
a(F1.6661835559308817
S'Cell[1].dend[5] syn_ = new FastInhib(0.0714285714286)'
p215
I1
(dp216
g197
F0.16666666666666666
sg198
F8.0
sg199
I104
sg200
g7
(g8
(I0
tp217
g10
tp218
Rp219
(I1
(I3
tp220
g207
I00
S"\xb0=XYD\x98'\xc0\xcaE\xe3\xc5hQB\xc0\x00\x00\x00\xe0Q\xb8\xce\xbf"
p221
tp222
bsg212
S'Cell[2].axon[233]'
p223
sI104
I83
tp224
a(F1.10491277102689
S'Cell[0].apic[2] syn_ = new AmpaNmda(0.5)'
p225
I0
(dp226
g197
F0.8333333333333333
sg198
F8.0
sg199
I104
sg200
g7
(g8
(I0
tp227
g10
tp228
Rp229
(I1
(I3
tp230
g207
I00
S'K\x04W~\xac\xb0H@\xd9]in\x99\xd7B@W\x86\xc6\x83\xad~4@'
p231
tp232
bsg212
S'Cell[2].axon[296]'
p233
sI104
I35
tp234
a(F1.8712434712817914
S'Cell[0].apic[0] syn_ = new ExpSid(0.5)'
p235
I0
(dp236
S'seg'
p237
F0.5
sS'hostfrom'
p238
F9.0
sS'gid'
p239
I153
sS'coords'
p240
g7
(g8
(I0
tp241
g10
tp242
Rp243
(I1
(I3
tp244
g14
(S'f8'
p245
I0
I1
tp246
Rp247
(I3
S'<'
p248
NNNI-1
I-1
I0
tp249
bI00
S']#[$\xa7\x9cG@\x86\x13\xc2\xdc\x16\xb39@\xcfsj-k\xe0(@'
p250
tp251
bsS'secnames'
p252
S'Cell[3].axon[6]'
p253
sI153
I35
tp254
a(F1.798498870408869
S'Cell[1].dend[14] syn_ = new FastInhib(0.166666666667)'
p255
I1
(dp256
g237
F0.8333333333333333
sg238
F9.0
sg239
I105
sg240
g7
(g8
(I0
tp257
g10
tp258
Rp259
(I1
(I3
tp260
g247
I00
S'\x0cF3\x15\xcdr!\xc0h9\x18\xda\xb3\xbd]\xc0\xd57\x8fao$\x15\xc0'
p261
tp262
bsg252
S'Cell[2].axon[163]'
p263
sI105
I83
tp264
a(F2.4206691852176876
S'Cell[0].dend[10] syn_ = new AmpaNmda(0.5)'
p265
I0
(dp266
S'seg'
p267
F0.5
sS'hostfrom'
p268
F10.0
sS'gid'
p269
I10
sS'coords'
p270
g7
(g8
(I0
tp271
g10
tp272
Rp273
(I1
(I3
tp274
g14
(S'f8'
p275
I0
I1
tp276
Rp277
(I3
S'<'
p278
NNNI-1
I-1
I0
tp279
bI00
S"\x00\x00\x00 \x85\xab2@\x00\x00\x00\x80\xc2\xf5'@\x00\x00\x00 \\\x8f\x1d@"
p280
tp281
bsS'secnames'
p282
S'Cell[0].soma[0]'
p283
sI10
I35
tp284
a(F2.3438558966771983
S'Cell[1].dend[37] syn_ = new FastInhib(0.5)'
p285
I1
(dp286
g267
F0.5
sg268
F10.0
sg269
I106
sg270
g7
(g8
(I0
tp287
g10
tp288
Rp289
(I1
(I3
tp290
g277
I00
S'\x18\xf4\x82\xc3z\xc1\x1f@\x95\xf7\xf3z\x08\xe7I\xc0\x1e\x03)\xc3\xe1-9\xc0'
p291
tp292
bsg282
S'Cell[2].axon[200]'
p293
sI106
I83
tp294
a(F2.029815179943669
S'Cell[1].dend[5] syn_ = new FastInhib(0.642857142857)'
p295
I1
(dp296
S'seg'
p297
F0.8333333333333333
sS'hostfrom'
p298
F12.0
sS'gid'
p299
I108
sS'coords'
p300
g7
(g8
(I0
tp301
g10
tp302
Rp303
(I1
(I3
tp304
g14
(S'f8'
p305
I0
I1
tp306
Rp307
(I3
S'<'
p308
NNNI-1
I-1
I0
tp309
bI00
S'\x92\xa8+;x\x0cS\xc0\xef\xb5I\xae\xd3\xfc]\xc0\x00\x00\x00 \x85k<\xc0'
p310
tp311
bsS'secnames'
p312
S'Cell[2].axon[364]'
p313
sI108
I83
tp314
a(F2.080937018373537
S'Cell[3].dend[57] syn_ = new FastInhib(0.5)'
p315
I3
(dp316
S'seg'
p317
F0.5
sS'hostfrom'
p318
F13.0
sS'gid'
p319
I61
sS'coords'
p320
g7
(g8
(I0
tp321
g10
tp322
Rp323
(I1
(I3
tp324
g14
(S'f8'
p325
I0
I1
tp326
Rp327
(I3
S'<'
p328
NNNI-1
I-1
I0
tp329
bI00
S'\xb2\xf9\x14\xf5\xa0\xf57@V\x888\x1fsM2\xc0R`\xa7\xe6\x8a\t5\xc0'
p330
tp331
bsS'secnames'
p332
S'Cell[1].axon[38]'
p333
sI61
I179
tp334
a(F1.7969604064170372
S'Cell[1].dend[23] syn_ = new FastInhib(0.166666666667)'
p335
I1
(dp336
g317
F0.8999999999999999
sg318
F13.0
sg319
I61
sg320
g7
(g8
(I0
tp337
g10
tp338
Rp339
(I1
(I3
tp340
g327
I00
S'\xa9\xe8\xa3\x84\xf6\x9e=@\x13\x83^\x06\xfb\xd1,@\x99\xee~\xc7\x04\x19)\xc0'
p341
tp342
bsg332
S'Cell[1].axon[38]'
p343
sI61
I83
tp344
a(F1.7030377403238173
S'Cell[1].dend[10] syn_ = new FastInhib(0.5)'
p345
I1
(dp346
S'seg'
p347
F0.5
sS'hostfrom'
p348
F14.0
sS'gid'
p349
I110
sS'coords'
p350
g7
(g8
(I0
tp351
g10
tp352
Rp353
(I1
(I3
tp354
g14
(S'f8'
p355
I0
I1
tp356
Rp357
(I3
S'<'
p358
NNNI-1
I-1
I0
tp359
bI00
S'\xbe\xaf\x98\xcf\xe8\xba\xc2?\x13\x99\xe7\xad}o@\xc0\x00\x00\x00\x80\xc2\xf5\x1a\xc0'
p360
tp361
bsS'secnames'
p362
S'Cell[2].axon[1]'
p363
sI110
I83
tp364
a(F2.4867823826002224
S'Cell[3].dend[55] syn_ = new FastInhib(0.5)'
p365
I3
(dp366
g347
F0.5
sg348
F14.0
sg349
I110
sg350
g7
(g8
(I0
tp367
g10
tp368
Rp369
(I1
(I3
tp370
g357
I00
S'\x89\xa2myC2O@\xc9\xfd\xfe\r\xf7J9\xc0\xda%!T"\x1a\x10@'
p371
tp372
bsg362
S'Cell[2].axon[131]'
p373
sI110
I179
tp374
a(F1.106373045793915
S'Cell[3].dend[58] syn_ = new FastInhib(0.166666666667)'
p375
I3
(dp376
S'seg'
p377
F0.7
sS'hostfrom'
p378
F15.0
sS'gid'
p379
I159
sS'coords'
p380
g7
(g8
(I0
tp381
g10
tp382
Rp383
(I1
(I3
tp384
g14
(S'f8'
p385
I0
I1
tp386
Rp387
(I3
S'<'
p388
NNNI-1
I-1
I0
tp389
bI00
S'\x7f8\xc1\xc8\x0c\xb0\x10@W\xb2\xb4\xf4\xb2|>\xc0@\xaf0\xaf\x17\xf89\xc0'
p390
tp391
bsS'secnames'
p392
S'Cell[3].axon[80]'
p393
sI159
I179
tp394
a(F1.1254629760071677
S'Cell[1].dend[22] syn_ = new FastInhib(0.5)'
p395
I1
(dp396
S'seg'
p397
F0.5
sS'hostfrom'
p398
F16.0
sS'gid'
p399
I112
sS'coords'
p400
g7
(g8
(I0
tp401
g10
tp402
Rp403
(I1
(I3
tp404
g14
(S'f8'
p405
I0
I1
tp406
Rp407
(I3
S'<'
p408
NNNI-1
I-1
I0
tp409
bI00
S'\xe6\xb9\x82\xac\r\xcc5@$l\xadN@r\x0e@\x00\x00\x00@\xe1\xfa(\xc0'
p410
tp411
bsS'secnames'
p412
S'Cell[2].axon[97]'
p413
sI112
I83
tp414
a(F1.9913314392397552
S'Cell[1].dend[1] syn_ = new FastInhib(0.5)'
p415
I1
(dp416
S'seg'
p417
F0.5
sS'hostfrom'
p418
F17.0
sS'gid'
p419
I113
sS'coords'
p420
g7
(g8
(I0
tp421
g10
tp422
Rp423
(I1
(I3
tp424
g14
(S'f8'
p425
I0
I1
tp426
Rp427
(I3
S'<'
p428
NNNI-1
I-1
I0
tp429
bI00
S'^\xad$\xe5l\xda\xf8\xbf\x98\xbdZ\xd7\xd0\xca2\xc0M\xde\x16\xc8\xe3\xcc\x13\xc0'
p430
tp431
bsS'secnames'
p432
S'Cell[2].axon[496]'
p433
sI113
I83
tp434
a(F2.4385591209997513
S'Cell[1].dend[38] syn_ = new FastInhib(0.0454545454545)'
p435
I1
(dp436
g417
F0.5
sg418
F17.0
sg419
I113
sg420
g7
(g8
(I0
tp437
g10
tp438
Rp439
(I1
(I3
tp440
g427
I00
S'\x92\xb3\xd4\xb9\xac|,@\xbbc\x85\x92\x88\xa7;\xc0\x81\xe5\xd8[\xb4\x9e0\xc0'
p441
tp442
bsg432
S'Cell[2].axon[498]'
p443
sI113
I83
tp444
a(F2.1804635714415834
S'Cell[1].dend[1] syn_ = new FastInhib(0.5)'
p445
I1
(dp446
g417
F0.5
sg418
F17.0
sg419
I113
sg420
g7
(g8
(I0
tp447
g10
tp448
Rp449
(I1
(I3
tp450
g427
I00
S'\xccy\x0f\x11.\x98\xb6\xbf\xe09\xb5\xd5\xb2\xe51\xc0\x00\x00\x00@\n\xd7\x1c\xc0'
p451
tp452
bsg432
S'Cell[2].axon[509]'
p453
sI113
I83
tp454
a(F2.351924264400275
S'Cell[1].dend[5] syn_ = new FastInhib(0.214285714286)'
p455
I1
(dp456
g417
F0.8999999999999999
sg418
F17.0
sg419
I161
sg420
g7
(g8
(I0
tp457
g10
tp458
Rp459
(I1
(I3
tp460
g427
I00
S'\xe0<\xdb\xfa\x0bJ@\xc0\x04\x9e\x14r\nvL\xc0\xac\x9e\xa4\xc8\x92<\xe5\xbf'
p461
tp462
bsg432
S'Cell[3].axon[21]'
p463
sI161
I83
tp464
a(F0.7089558698633691
S'Cell[1].dend[2] syn_ = new FastInhib(0.833333333333)'
p465
I1
(dp466
S'seg'
p467
F0.8333333333333333
sS'hostfrom'
p468
F18.0
sS'gid'
p469
I114
sS'coords'
p470
g7
(g8
(I0
tp471
g10
tp472
Rp473
(I1
(I3
tp474
g14
(S'f8'
p475
I0
I1
tp476
Rp477
(I3
S'<'
p478
NNNI-1
I-1
I0
tp479
bI00
S'\x80\xef\x15\xc3B\xc5:\xc0\xcc\xd0\x9c\xda\x05\xfb@\xc0\xe3\x9c\x1d\xf0\x19^!@'
p480
tp481
bsS'secnames'
p482
S'Cell[2].axon[65]'
p483
sI114
I83
tp484
a(F1.6216171202081626
S'Cell[0].dend[13] syn_ = new AmpaNmda(0.3)'
p485
I0
(dp486
g467
F0.5
sg468
F18.0
sg469
I114
sg470
g7
(g8
(I0
tp487
g10
tp488
Rp489
(I1
(I3
tp490
g477
I00
S'*\xe1b\x8del\x0b\xc0\x88\xac"\x1al\xee\x13\xc0\x00\x00\x00@\n\xd7\x03\xc0'
p491
tp492
bsg482
S'Cell[2].axon[79]'
p493
sI114
I35
tp494
a(F0.817307535143654
S'Cell[0].apic[1] syn_ = new AmpaNmda(0.5)'
p495
I0
(dp496
g467
F0.8333333333333333
sg468
F18.0
sg469
I162
sg470
g7
(g8
(I0
tp497
g10
tp498
Rp499
(I1
(I3
tp500
g477
I00
S'\xe1r|c\xaa\x0bH@+\xe3\xa0\x8f7C<@\xa8\xe3z\xd3\x8b\xc13@'
p501
tp502
bsg482
S'Cell[3].axon[66]'
p503
sI162
I35
tp504
a(F2.407354694211605
S'Cell[0].apic[19] syn_ = new AmpaNmda(0.1)'
p505
I0
(dp506
g467
F0.1
sg468
F18.0
sg469
I162
sg470
g7
(g8
(I0
tp507
g10
tp508
Rp509
(I1
(I3
tp510
g477
I00
S'\xc6\x12\x11\x86`\x9cL@\xd6\x9cW\xe0z)@@\xc9\x98\xc4\t\xc3y9@'
p511
tp512
bsg482
S'Cell[3].axon[67]'
p513
sI162
I35
tp514
a(F1.6958437617514013
S'Cell[1].dend[1] syn_ = new FastInhib(0.5)'
p515
I1
(dp516
S'seg'
p517
F0.30000000000000004
sS'hostfrom'
p518
F19.0
sS'gid'
p519
I19
sS'coords'
p520
g7
(g8
(I0
tp521
g10
tp522
Rp523
(I1
(I3
tp524
g14
(S'f8'
p525
I0
I1
tp526
Rp527
(I3
S'<'
p528
NNNI-1
I-1
I0
tp529
bI00
S'\xeb\x9a\xc0\xb9?P\xe4\xbf\x07]\x81\xdf\xcf\x1b5\xc0\xecA\xa1}3\xe8\x14\xc0'
p530
tp531
bsS'secnames'
p532
S'Cell[0].axon[0]'
p533
sI19
I83
tp534
a(F2.3262023799550047
S'Cell[1].dend[16] syn_ = new FastInhib(0.357142857143)'
p535
I1
(dp536
g517
F0.8333333333333333
sg518
F19.0
sg519
I163
sg520
g7
(g8
(I0
tp537
g10
tp538
Rp539
(I1
(I3
tp540
g527
I00
S'\xb0\x13\xf9\x90\x1eJ\x1b@\xd1_B\xf3\x01\x00d\xc0\xa2\xdd|\xce0\xbb\x05\xc0'
p541
tp542
bsg532
S'Cell[3].axon[135]'
p543
sI163
I83
tp544
a(F2.479752685411512
S'Cell[1].dend[10] syn_ = new FastInhib(0.5)'
p545
I1
(dp546
S'seg'
p547
F0.8333333333333333
sS'hostfrom'
p548
F20.0
sS'gid'
p549
I68
sS'coords'
p550
g7
(g8
(I0
tp551
g10
tp552
Rp553
(I1
(I3
tp554
g14
(S'f8'
p555
I0
I1
tp556
Rp557
(I3
S'<'
p558
NNNI-1
I-1
I0
tp559
bI00
S'\x00\x9b\xca_\xce\xe5\x8f\xbf7\x0bL\xcf\xf9\xc7A\xc0\x9ek\x91\x9b\xfbI\x1a\xc0'
p560
tp561
bsS'secnames'
p562
S'Cell[1].axon[29]'
p563
sI68
I83
tp564
a(F1.839178040286634
S'Cell[2].dend[17] syn_ = new FastInhib(0.166666666667)'
p565
I2
(dp566
S'seg'
p567
F0.8333333333333333
sS'hostfrom'
p568
F21.0
sS'gid'
p569
I165
sS'coords'
p570
g7
(g8
(I0
tp571
g10
tp572
Rp573
(I1
(I3
tp574
g14
(S'f8'
p575
I0
I1
tp576
Rp577
(I3
S'<'
p578
NNNI-1
I-1
I0
tp579
bI00
S"\xc1$'\x83R\xe6i@\xf6*\xbb\xcf5.4@\xdc\x17<c:\xfbD\xc0"
p580
tp581
bsS'secnames'
p582
S'Cell[3].axon[18]'
p583
sI165
I131
tp584
a(F1.8277584303054322
S'Cell[1].dend[10] syn_ = new FastInhib(0.5)'
p585
I1
(dp586
g567
F0.1
sg568
F21.0
sg569
I165
sg570
g7
(g8
(I0
tp587
g10
tp588
Rp589
(I1
(I3
tp590
g577
I00
S'2~\x82\xcf\x0e<\xf4?s\xa6#K\x97\xa6A\xc0\x00\x00\x00\xc0\x1e\x85\x13\xc0'
p591
tp592
bsg582
S'Cell[3].axon[296]'
p593
sI165
I83
tp594
a(F1.2464259128553945
S'Cell[3].dend[47] syn_ = new FastInhib(0.5)'
p595
I3
(dp596
g567
F0.5
sg568
F21.0
sg569
I117
sg570
g7
(g8
(I0
tp597
g10
tp598
Rp599
(I1
(I3
tp600
g577
I00
S'hRs6\xb8\x9b^@\xd1mk\xab\xe5\x98B@\x00\x00\x00\x80\xc2u9\xc0'
p601
tp602
bsg582
S'Cell[2].axon[370]'
p603
sI117
I179
tp604
a(F1.6057351887831541
S'Cell[2].dend[73] syn_ = new FastInhib(0.166666666667)'
p605
I2
(dp606
g567
F0.4333333333333333
sg568
F21.0
sg569
I21
sg570
g7
(g8
(I0
tp607
g10
tp608
Rp609
(I1
(I3
tp610
g577
I00
S'^\x9b\xf0?/\xf6f@\xb5\x9b-\x83O\xcb\\\xc0^\x90\xb9\x1a\xbc\xeeQ\xc0'
p611
tp612
bsg582
S'Cell[0].axon[20]'
p613
sI21
I131
tp614
a(F1.0157880206359016
S'Cell[1].dend[11] syn_ = new FastInhib(0.5)'
p615
I1
(dp616
g567
F0.05555555555555555
sg568
F21.0
sg569
I69
sg570
g7
(g8
(I0
tp617
g10
tp618
Rp619
(I1
(I3
tp620
g577
I00
S'X\x9ay\x87\xb2\xa6\xdc?0\xe0\x8e\xef\xde\xaeQ\xc0\xff\xff\xff\xbf\x1e\x85\x1f@'
p621
tp622
bsg582
S'Cell[1].axon[4]'
p623
sI69
I83
tp624
a(F1.754249415072927
S'Cell[1].dend[5] syn_ = new FastInhib(0.642857142857)'
p625
I1
(dp626
S'seg'
p627
F0.5
sS'hostfrom'
p628
F22.0
sS'gid'
p629
I118
sS'coords'
p630
g7
(g8
(I0
tp631
g10
tp632
Rp633
(I1
(I3
tp634
g14
(S'f8'
p635
I0
I1
tp636
Rp637
(I3
S'<'
p638
NNNI-1
I-1
I0
tp639
bI00
S'F\xd2\xff%\xbd\xd7R\xc0J\xbdx\x19AB]\xc0\x01\x94\xd5\xd7\x11\xa7;\xc0'
p640
tp641
bsS'secnames'
p642
S'Cell[2].axon[69]'
p643
sI118
I83
tp644
a(F1.7203821701194335
S'Cell[1].dend[14] syn_ = new FastInhib(0.833333333333)'
p645
I1
(dp646
S'seg'
p647
F0.2777777777777778
sS'hostfrom'
p648
F23.0
sS'gid'
p649
I71
sS'coords'
p650
g7
(g8
(I0
tp651
g10
tp652
Rp653
(I1
(I3
tp654
g14
(S'f8'
p655
I0
I1
tp656
Rp657
(I3
S'<'
p658
NNNI-1
I-1
I0
tp659
bI00
S'\x12MT\xb28\xce\xd3\xbf\xbdP\n\xb3\x86,c\xc0\xb2\t(\xb1U\xf6\x00@'
p660
tp661
bsS'secnames'
p662
S'Cell[1].axon[4]'
p663
sI71
I83
tp664
a(F1.6649658182392277
S'Cell[1].dend[3] syn_ = new FastInhib(0.5)'
p665
I1
(dp666
g647
F0.8333333333333333
sg648
F23.0
sg649
I167
sg650
g7
(g8
(I0
tp667
g10
tp668
Rp669
(I1
(I3
tp670
g657
I00
S'\x80\xe2\x9cT2o:\xc0-^2\xd4\x85&I\xc0\x0eRA\xbe^\x03-@'
p671
tp672
bsg662
S'Cell[3].axon[0]'
p673
sI167
I83
tp674
a(F1.2844738743009172
S'Cell[1].dend[18] syn_ = new FastInhib(0.5)'
p675
I1
(dp676
g647
F0.07142857142857142
sg648
F23.0
sg649
I167
sg650
g7
(g8
(I0
tp677
g10
tp678
Rp679
(I1
(I3
tp680
g657
I00
S'\xbdy\xdf\xb9\xcb\x8fE\xc0\xda\xd6\xaa\xd3\xcaAQ\xc0\x00\xa9A\xff\xf1\xf0@\xc0'
p681
tp682
bsg662
S'Cell[3].axon[27]'
p683
sI167
I83
tp684
a(F1.9736688183998174
S'Cell[1].dend[36] syn_ = new FastInhib(0.5)'
p685
I1
(dp686
S'seg'
p687
F0.1
sS'hostfrom'
p688
F24.0
sS'gid'
p689
I24
sS'coords'
p690
g7
(g8
(I0
tp691
g10
tp692
Rp693
(I1
(I3
tp694
g14
(S'f8'
p695
I0
I1
tp696
Rp697
(I3
S'<'
p698
NNNI-1
I-1
I0
tp699
bI00
S'\x06v&\x06\x88\x17+@\xfc\xcb&&9\xcb%\xc0\x00\x00\x00\xe0Q\xb8#\xc0'
p700
tp701
bsS'secnames'
p702
S'Cell[0].axon[0]'
p703
sI24
I83
tp704
a(F2.3959702949492927
S'Cell[0].dend[14] syn_ = new AmpaNmda(0.5)'
p705
I0
(dp706
g687
F0.5
sg688
F24.0
sg689
I72
sg690
g7
(g8
(I0
tp707
g10
tp708
Rp709
(I1
(I3
tp710
g697
I00
S'\x00\x00\x00\x80\xeb\xf1H@\x00\x00\x00\x80\xb8\x1e\xdd?\x00\x00\x00(\x85\xeb\xfb?'
p711
tp712
bsg702
S'Cell[1].soma[3]'
p713
sI72
I35
tp714
a(F1.2984750783113639
S'Cell[3].dend[35] syn_ = new FastInhib(0.5)'
p715
I3
(dp716
S'seg'
p717
F0.5
sS'hostfrom'
p718
F28.0
sS'gid'
p719
I172
sS'coords'
p720
g7
(g8
(I0
tp721
g10
tp722
Rp723
(I1
(I3
tp724
g14
(S'f8'
p725
I0
I1
tp726
Rp727
(I3
S'<'
p728
NNNI-1
I-1
I0
tp729
bI00
S'\x8b\xa8\xb1\x1bt\x9fT@\xc6O\x1e\xc4\x94p\x1e\xc0\xfa9.#r\x88\x0c@'
p730
tp731
bsS'secnames'
p732
S'Cell[3].axon[96]'
p733
sI172
I179
tp734
a(F1.6917815315316742
S'Cell[0].apic[16] syn_ = new ExpSid(0.5)'
p735
I0
(dp736
S'seg'
p737
F0.5
sS'hostfrom'
p738
F29.0
sS'gid'
p739
I77
sS'coords'
p740
g7
(g8
(I0
tp741
g10
tp742
Rp743
(I1
(I3
tp744
g14
(S'f8'
p745
I0
I1
tp746
Rp747
(I3
S'<'
p748
NNNI-1
I-1
I0
tp749
bI00
S"\x00\x00\x00\x10\xd7\xe3I@\x00\x00\x00\xa0\x99YC@\x00\x00\x00\xc0\x1e\x05'@"
p750
tp751
bsS'secnames'
p752
S'Cell[1].soma[0]'
p753
sI77
I35
tp754
a(F0.8509714633178039
S'Cell[3].dend[57] syn_ = new FastInhib(0.5)'
p755
I3
(dp756
S'seg'
p757
F0.16666666666666666
sS'hostfrom'
p758
F30.0
sS'gid'
p759
I126
sS'coords'
p760
g7
(g8
(I0
tp761
g10
tp762
Rp763
(I1
(I3
tp764
g14
(S'f8'
p765
I0
I1
tp766
Rp767
(I3
S'<'
p768
NNNI-1
I-1
I0
tp769
bI00
S'\xc69\xa3\x8fy\xdb6@\x0fc\xf5\x03\x06`2\xc0=tm\xb9\x1dx6\xc0'
p770
tp771
bsS'secnames'
p772
S'Cell[2].axon[4]'
p773
sI126
I179
tp774
a(F2.4140041955344156
S'Cell[3].dend[3] syn_ = new FastInhib(0.166666666667)'
p775
I3
(dp776
S'seg'
p777
F0.22727272727272727
sS'hostfrom'
p778
F31.0
sS'gid'
p779
I175
sS'coords'
p780
g7
(g8
(I0
tp781
g10
tp782
Rp783
(I1
(I3
tp784
g14
(S'f8'
p785
I0
I1
tp786
Rp787
(I3
S'<'
p788
NNNI-1
I-1
I0
tp789
bI00
S'$I|\xaf\xcdOW@\x18\x04,\x963\x9c^\xc0.\x9fs\xe8]\xc6H\xc0'
p790
tp791
bsS'secnames'
p792
S'Cell[3].axon[271]'
p793
sI175
I179
tp794
a(F2.0316935215795224
S'Cell[1].dend[31] syn_ = new FastInhib(0.833333333333)'
p795
I1
(dp796
S'seg'
p797
F0.8333333333333333
sS'hostfrom'
p798
F32.0
sS'gid'
p799
I32
sS'coords'
p800
g7
(g8
(I0
tp801
g10
tp802
Rp803
(I1
(I3
tp804
g14
(S'f8'
p805
I0
I1
tp806
Rp807
(I3
S'<'
p808
NNNI-1
I-1
I0
tp809
bI00
S'\xc0s8\xa3\xb8\x81V@\xf94c4\x1e\x08N\xc0\x0c\xbd(\x0b\xeb/=@'
p810
tp811
bsS'secnames'
p812
S'Cell[0].axon[35]'
p813
sI32
I83
tp814
a(F2.4604297617492885
S'Cell[1].dend[26] syn_ = new FastInhib(0.7)'
p815
I1
(dp816
g797
F0.5
sg798
F32.0
sg799
I176
sg800
g7
(g8
(I0
tp817
g10
tp818
Rp819
(I1
(I3
tp820
g807
I00
S'\xf89g\x19\x95\x15W@D\xf6\x80\x04\x83\x81M\xc0\x82\x19\xfc\xab\xa2\x1a*\xc0'
p821
tp822
bsg812
S'Cell[3].axon[55]'
p823
sI176
I83
tp824
a(F2.3248098649888966
S'Cell[1].dend[5] syn_ = new FastInhib(0.5)'
p825
I1
(dp826
S'seg'
p827
F0.16666666666666666
sS'hostfrom'
p828
F33.0
sS'gid'
p829
I81
sS'coords'
p830
g7
(g8
(I0
tp831
g10
tp832
Rp833
(I1
(I3
tp834
g14
(S'f8'
p835
I0
I1
tp836
Rp837
(I3
S'<'
p838
NNNI-1
I-1
I0
tp839
bI00
S'D\xf9T9\x8c\xceP\xc0\x99\xe0\xb8\xdc\x1b\x9aV\xc0\x00\x00\x00\xc0\x1e\xc52\xc0'
p840
tp841
bsS'secnames'
p842
S'Cell[1].axon[19]'
p843
sI81
I83
tp844
a(F2.093127373586564
S'Cell[0].dend[13] syn_ = new ExpSid(0.9)'
p845
I0
(dp846
S'seg'
p847
F0.16666666666666666
sS'hostfrom'
p848
F35.0
sS'gid'
p849
I83
sS'coords'
p850
g7
(g8
(I0
tp851
g10
tp852
Rp853
(I1
(I3
tp854
g14
(S'f8'
p855
I0
I1
tp856
Rp857
(I3
S'<'
p858
NNNI-1
I-1
I0
tp859
bI00
S'\xdd\xce\xba\xa6\x9fn@\xc0mw\xeay\x81\xdcC\xc0\x89|\xb0\xf6\x1a\xda@\xc0'
p860
tp861
bsS'secnames'
p862
S'Cell[1].axon[259]'
p863
sI83
I35
tp864
a(F1.8912273684561574
S'Cell[1].dend[12] syn_ = new FastInhib(0.5)'
p865
I1
(dp866
g847
F0.16666666666666666
sg848
F35.0
sg849
I35
sg850
g7
(g8
(I0
tp867
g10
tp868
Rp869
(I1
(I3
tp870
g857
I00
S'>\x80\xcd\xf8]\x1e \xc0\xde\xaa\x82\x04\x87zP\xc0\xd0\xa6\x83\xe0\xbbM\x02@'
p871
tp872
bsg862
S'Cell[0].axon[10]'
p873
sI35
I83
tp874
a(F1.9824240743880175
S'Cell[3].dend[53] syn_ = new FastInhib(0.5)'
p875
I3
(dp876
g847
F0.11538461538461539
sg848
F35.0
sg849
I35
sg850
g7
(g8
(I0
tp877
g10
tp878
Rp879
(I1
(I3
tp880
g857
I00
S'\xa8\x01\x15jx\xa5S@\xa8>\xf7\xe2\x1d\x92D\xc0#\xc1\x1f\x91\xb34\x10\xc0'
p881
tp882
bsg862
S'Cell[0].axon[16]'
p883
sI35
I179
tp884
a(F1.5568654814308496
S'Cell[0].apic[3] syn_ = new ExpSid(0.5)'
p885
I0
(dp886
g847
F0.5
sg848
F35.0
sg849
I179
sg850
g7
(g8
(I0
tp887
g10
tp888
Rp889
(I1
(I3
tp890
g857
I00
S'\xa8\xf9\x81D\t\x13H@x\xf4\xef\x0eV\x84G@\xbd\xb0t@\x98j%@'
p891
tp892
bsg862
S'Cell[3].axon[21]'
p893
sI179
I35
tp894
a(F2.3241302441059326
S'Cell[0].apic[18] syn_ = new AmpaNmda(0.7)'
p895
I0
(dp896
S'seg'
p897
F0.5
sS'hostfrom'
p898
F36.0
sS'gid'
p899
I84
sS'coords'
p900
g7
(g8
(I0
tp901
g10
tp902
Rp903
(I1
(I3
tp904
g14
(S'f8'
p905
I0
I1
tp906
Rp907
(I3
S'<'
p908
NNNI-1
I-1
I0
tp909
bI00
S'>\x1aW\xa3r\x8aY@\xce\x8b\xc2 \xd4\xe4J@\xdf\xab\xb6\x0e0\x18\x10@'
p910
tp911
bsS'secnames'
p912
S'Cell[1].axon[235]'
p913
sI84
I35
tp914
a(F1.335681279347573
S'Cell[0].apic[17] syn_ = new AmpaNmda(0.5)'
p915
I0
(dp916
g897
F0.5
sg898
F36.0
sg899
I132
sg900
g7
(g8
(I0
tp917
g10
tp918
Rp919
(I1
(I3
tp920
g907
I00
S'\xb1@\x82\xd8\xc7\xebU@R\xcek\xb3\xb50K@r\xc4\x00\xd2\x00"4@'
p921
tp922
bsg912
S'Cell[2].axon[110]'
p923
sI132
I35
tp924
a(F1.9614403158953944
S'Cell[1].dend[9] syn_ = new FastInhib(0.5)'
p925
I1
(dp926
g897
F0.16666666666666666
sg898
F36.0
sg899
I180
sg900
g7
(g8
(I0
tp927
g10
tp928
Rp929
(I1
(I3
tp930
g907
I00
S'w\xfa\xeeb\x9d\xadP\xc0.\xcd\x92\xf0\x0f\xa2T\xc0\x00\x00\x00\x80\x14nI\xc0'
p931
tp932
bsg912
S'Cell[3].axon[64]'
p933
sI180
I83
tp934
a(F0.9885471324578718
S'Cell[1].dend[2] syn_ = new FastInhib(0.166666666667)'
p935
I1
(dp936
g897
F0.5
sg898
F36.0
sg899
I180
sg900
g7
(g8
(I0
tp937
g10
tp938
Rp939
(I1
(I3
tp940
g907
I00
S'\x00\x00\x000\\\x0f$\xc0\x00\x00\x00\xb0GA3\xc0\x00\x00\x00\xb4G\xe1\x18\xc0'
p941
tp942
bsg912
S'Cell[3].axon[66]'
p943
sI180
I83
tp944
a(F0.9945823702795044
S'Cell[0].dend[9] syn_ = new AmpaNmda(0.5)'
p945
I0
(dp946
g897
F0.5
sg898
F36.0
sg899
I180
sg900
g7
(g8
(I0
tp947
g10
tp948
Rp949
(I1
(I3
tp950
g907
I00
S'@Y\xc8a\xef\xe4;@\xe3\x81O\x98\x0c:&@\xe0D\x00E\xa3q%@'
p951
tp952
bsg912
S'Cell[3].axon[193]'
p953
sI180
I35
tp954
a(F2.3917348415559365
S'Cell[1].dend[0] syn_ = new FastInhib(0.5)'
p955
I1
(dp956
S'seg'
p957
F0.16666666666666666
sS'hostfrom'
p958
F37.0
sS'gid'
p959
I133
sS'coords'
p960
g7
(g8
(I0
tp961
g10
tp962
Rp963
(I1
(I3
tp964
g14
(S'f8'
p965
I0
I1
tp966
Rp967
(I3
S'<'
p968
NNNI-1
I-1
I0
tp969
bI00
S'\xadGx\xe5v\xf1\x11@4\xccj\xb6\x9f\xf9,\xc0\x00\x00\x00`\x8f\xc2\x01\xc0'
p970
tp971
bsS'secnames'
p972
S'Cell[2].axon[102]'
p973
sI133
I83
tp974
a(F2.4638672007979237
S'Cell[3].dend[55] syn_ = new FastInhib(0.5)'
p975
I3
(dp976
g957
F0.5
sg958
F37.0
sg959
I181
sg960
g7
(g8
(I0
tp977
g10
tp978
Rp979
(I1
(I3
tp980
g967
I00
S'\x9a\xb6A\x94#TP@Z\xdfQ\x96\xe8\xae<\xc0\x00\x00\x00\xe0\xa3p\x0b@'
p981
tp982
bsg972
S'Cell[3].axon[212]'
p983
sI181
I179
tp984
a(F1.7640358735401775
S'Cell[1].dend[21] syn_ = new FastInhib(0.166666666667)'
p985
I1
(dp986
S'seg'
p987
F0.16666666666666666
sS'hostfrom'
p988
F38.0
sS'gid'
p989
I182
sS'coords'
p990
g7
(g8
(I0
tp991
g10
tp992
Rp993
(I1
(I3
tp994
g14
(S'f8'
p995
I0
I1
tp996
Rp997
(I3
S'<'
p998
NNNI-1
I-1
I0
tp999
bI00
S'\xe1\x1d~tP\xd9@\xc0\x0b\xd7A\x81\xeb\xf7;\xc0t^\xa9\xea\x7fG8\xc0'
p1000
tp1001
bsS'secnames'
p1002
S'Cell[3].axon[33]'
p1003
sI182
I83
tp1004
a(F1.6995038505139113
S'Cell[0].dend[13] syn_ = new AmpaNmda(0.9)'
p1005
I0
(dp1006
g987
F0.5
sg988
F38.0
sg989
I182
sg990
g7
(g8
(I0
tp1007
g10
tp1008
Rp1009
(I1
(I3
tp1010
g997
I00
S'\xbb\xe1\xa8\xb9-.@\xc0\x18@\x16\xe5\x0b\xd2C\xc0o8\x03\x13\x96\xbf@\xc0'
p1011
tp1012
bsg1002
S'Cell[3].axon[47]'
p1013
sI182
I35
tp1014
a(F2.034286979327979
S'Cell[3].dend[54] syn_ = new FastInhib(0.5)'
p1015
I3
(dp1016
g987
F0.5
sg988
F38.0
sg989
I86
sg990
g7
(g8
(I0
tp1017
g10
tp1018
Rp1019
(I1
(I3
tp1020
g997
I00
S"\xd5a\x8c\xff\x07kC@#\xa6.\xd1\xf8'Q\xc00#\xd7\xf4\xe8\xbbF\xc0"
p1021
tp1022
bsg1002
S'Cell[1].axon[15]'
p1023
sI86
I179
tp1024
a(F1.7477221421119595
S'Cell[3].dend[54] syn_ = new FastInhib(0.357142857143)'
p1025
I3
(dp1026
g987
F0.5
sg988
F38.0
sg989
I86
sg990
g7
(g8
(I0
tp1027
g10
tp1028
Rp1029
(I1
(I3
tp1030
g997
I00
S"\x935\x0c\xae\x95'G@\xf0a\x87\t\xf1/K\xc0\x89&\xa6\xea\xb6\x9fD\xc0"
p1031
tp1032
bsg1002
S'Cell[1].axon[21]'
p1033
sI86
I179
tp1034
a(F1.2235200616399566
S'Cell[1].dend[18] syn_ = new FastInhib(0.7)'
p1035
I1
(dp1036
g987
F0.8999999999999999
sg988
F38.0
sg989
I86
sg990
g7
(g8
(I0
tp1037
g10
tp1038
Rp1039
(I1
(I3
tp1040
g997
I00
S'\x9acDK\xe3\xe5F\xc0\xcbzq\x9fL\x16V\xc0\xc2\x1e`\x03\xd2\xe6D\xc0'
p1041
tp1042
bsg1002
S'Cell[1].axon[72]'
p1043
sI86
I83
tp1044
a(F2.4503019891667805
S'Cell[0].dend[14] syn_ = new AmpaNmda(0.5)'
p1045
I0
(dp1046
g987
F0.5
sg988
F38.0
sg989
I38
sg990
g7
(g8
(I0
tp1047
g10
tp1048
Rp1049
(I1
(I3
tp1050
g997
I00
S'\xb49\xbb\x0fR\x8dH@ \xf2T\xe9\xa8\x00\xf9?\x00\x00\x00\x80\xebQ\xe8\xbf'
p1051
tp1052
bsg1002
S'Cell[0].axon[0]'
p1053
sI38
I35
tp1054
a(F1.987039659019811
S'Cell[1].dend[4] syn_ = new FastInhib(0.5)'
p1055
I1
(dp1056
S'seg'
p1057
F0.5
sS'hostfrom'
p1058
F40.0
sS'gid'
p1059
I88
sS'coords'
p1060
g7
(g8
(I0
tp1061
g10
tp1062
Rp1063
(I1
(I3
tp1064
g14
(S'f8'
p1065
I0
I1
tp1066
Rp1067
(I3
S'<'
p1068
NNNI-1
I-1
I0
tp1069
bI00
S'N3\x87\x82\x9d\x1aD\xc0\xb0p\xb5\xaeD0R\xc0\x00\x00\x00\x80\xeb\xd1$\xc0'
p1070
tp1071
bsS'secnames'
p1072
S'Cell[1].axon[80]'
p1073
sI88
I83
tp1074
a(F1.3632278493832097
S'Cell[1].dend[23] syn_ = new FastInhib(0.5)'
p1075
I1
(dp1076
g1057
F0.1
sg1058
F40.0
sg1059
I88
sg1060
g7
(g8
(I0
tp1077
g10
tp1078
Rp1079
(I1
(I3
tp1080
g1067
I00
S'`\xe1$}\xc9\x8dB@\xde\x9fT\x00\x80\xbf@@\xeat\xe9\xfeS\xc6!\xc0'
p1081
tp1082
bsg1072
S'Cell[1].axon[281]'
p1083
sI88
I83
tp1084
a(F2.47491167757801
S'Cell[0].dend[13] syn_ = new AmpaNmda(0.3)'
p1085
I0
(dp1086
g1057
F0.5
sg1058
F40.0
sg1059
I88
sg1060
g7
(g8
(I0
tp1087
g10
tp1088
Rp1089
(I1
(I3
tp1090
g1067
I00
S'\xfa\xdaq\x14|\x15\x13\xc0\xc3\xe9\r\x06[\x83\x12\xc0\x00\x00\x00\xc0\xf5(\x02\xc0'
p1091
tp1092
bsg1072
S'Cell[1].axon[311]'
p1093
sI88
I35
tp1094
a(F1.9538566518943326
S'Cell[1].dend[4] syn_ = new FastInhib(0.833333333333)'
p1095
I1
(dp1096
g1057
F0.16666666666666666
sg1058
F40.0
sg1059
I136
sg1060
g7
(g8
(I0
tp1097
g10
tp1098
Rp1099
(I1
(I3
tp1100
g1067
I00
S"\xf8\xc0Bi\x9a\x03N\xc0'\x81dr\xa6\xfeV\xc0eirr\xc3\xbc\x06\xc0"
p1101
tp1102
bsg1072
S'Cell[2].axon[114]'
p1103
sI136
I83
tp1104
a(F0.9653853343304798
S'Cell[1].dend[6] syn_ = new FastInhib(0.5)'
p1105
I1
(dp1106
g1057
F0.8333333333333333
sg1058
F40.0
sg1059
I184
sg1060
g7
(g8
(I0
tp1107
g10
tp1108
Rp1109
(I1
(I3
tp1110
g1067
I00
S'\xa2%\xb0\xe2\xaa\xe6\x07@D\xf0"d\xa3A4\xc0z\xa3\xda*cb\x02\xc0'
p1111
tp1112
bsg1072
S'Cell[3].axon[62]'
p1113
sI184
I83
tp1114
a(F1.012555999276466
S'Cell[1].dend[14] syn_ = new FastInhib(0.5)'
p1115
I1
(dp1116
S'seg'
p1117
F0.5
sS'hostfrom'
p1118
F41.0
sS'gid'
p1119
I185
sS'coords'
p1120
g7
(g8
(I0
tp1121
g10
tp1122
Rp1123
(I1
(I3
tp1124
g14
(S'f8'
p1125
I0
I1
tp1126
Rp1127
(I3
S'<'
p1128
NNNI-1
I-1
I0
tp1129
bI00
S'\xf7\xb4@\xb4\x92\x1d\x14\xc0\xe6K!\xae\xd2Ra\xc0x\x0b\xe4\xe0x\xcb\xad\xbf'
p1130
tp1131
bsS'secnames'
p1132
S'Cell[3].axon[6]'
p1133
sI185
I83
tp1134
a(F2.0781172948194158
S'Cell[1].dend[14] syn_ = new FastInhib(0.5)'
p1135
I1
(dp1136
g1117
F0.36666666666666664
sg1118
F41.0
sg1119
I185
sg1120
g7
(g8
(I0
tp1137
g10
tp1138
Rp1139
(I1
(I3
tp1140
g1127
I00
S'\xa0\xd7}\x13\xc5,\x1c\xc0\xf2\xe6b\x80r.a\xc0\x84w\xd3pM\x93\xd6?'
p1141
tp1142
bsg1132
S'Cell[3].axon[79]'
p1143
sI185
I83
tp1144
a(F2.427580040871439
S'Cell[1].dend[7] syn_ = new FastInhib(0.214285714286)'
p1145
I1
(dp1146
g1117
F0.11538461538461539
sg1118
F41.0
sg1119
I185
sg1120
g7
(g8
(I0
tp1147
g10
tp1148
Rp1149
(I1
(I3
tp1150
g1127
I00
S'Q6\xed\xa1\xd6\x19A@b\x01j\x8e\x83QC\xc0\x00\x00\x00\x00\xd7\xe30\xc0'
p1151
tp1152
bsg1132
S'Cell[3].axon[212]'
p1153
sI185
I83
tp1154
a(F2.3858966880782497
S'Cell[1].dend[24] syn_ = new FastInhib(0.5)'
p1155
I1
(dp1156
g1117
F0.8333333333333333
sg1118
F41.0
sg1119
I89
sg1120
g7
(g8
(I0
tp1157
g10
tp1158
Rp1159
(I1
(I3
tp1160
g1127
I00
S'p\xcd#\xb4\xcd\xe8B@V\x83\xed\xdc\x96\xce#@\x86\x05\x10\tc\xea0\xc0'
p1161
tp1162
bsg1132
S'Cell[1].axon[159]'
p1163
sI89
I83
tp1164
a(F2.107039575982466
S'Cell[0].apic[19] syn_ = new AmpaNmda(0.1)'
p1165
I0
(dp1166
S'seg'
p1167
F0.19230769230769232
sS'hostfrom'
p1168
F42.0
sS'gid'
p1169
I90
sS'coords'
p1170
g7
(g8
(I0
tp1171
g10
tp1172
Rp1173
(I1
(I3
tp1174
g14
(S'f8'
p1175
I0
I1
tp1176
Rp1177
(I3
S'<'
p1178
NNNI-1
I-1
I0
tp1179
bI00
S'\xa3\xf6\xe1\xa2\xe3\xb4L@^C0 5*>@K8\xe4\xb8\x95<8@'
p1180
tp1181
bsS'secnames'
p1182
S'Cell[1].axon[210]'
p1183
sI90
I35
tp1184
a(F0.9509018936983307
S'Cell[1].dend[11] syn_ = new FastInhib(0.166666666667)'
p1185
I1
(dp1186
g1167
F0.5
sg1168
F42.0
sg1169
I186
sg1170
g7
(g8
(I0
tp1187
g10
tp1188
Rp1189
(I1
(I3
tp1190
g1177
I00
S'\xbeS\x0c\r\xd7\xfe\xe2\xbfP\xf6\x83\xc8\xedNI\xc0\x96K\xd8\xa1\x18\xf5\xf2\xbf'
p1191
tp1192
bsg1182
S'Cell[3].axon[69]'
p1193
sI186
I83
tp1194
a(F2.2441703946732647
S'Cell[1].dend[37] syn_ = new FastInhib(0.166666666667)'
p1195
I1
(dp1196
S'seg'
p1197
F0.7
sS'hostfrom'
p1198
F44.0
sS'gid'
p1199
I140
sS'coords'
p1200
g7
(g8
(I0
tp1201
g10
tp1202
Rp1203
(I1
(I3
tp1204
g14
(S'f8'
p1205
I0
I1
tp1206
Rp1207
(I3
S'<'
p1208
NNNI-1
I-1
I0
tp1209
bI00
S"F\x02\x0f\x04\xc9\x83'@\x04\x8a\xf0\x8c\x95\x16=\xc0\\\x86\x99N\xf3\x0e)\xc0"
p1210
tp1211
bsS'secnames'
p1212
S'Cell[2].axon[4]'
p1213
sI140
I83
tp1214
a(F1.9984321187526985
S'Cell[1].dend[12] syn_ = new FastInhib(0.166666666667)'
p1215
I1
(dp1216
g1197
F0.16666666666666666
sg1198
F44.0
sg1199
I44
sg1200
g7
(g8
(I0
tp1217
g10
tp1218
Rp1219
(I1
(I3
tp1220
g1207
I00
S'(\xa7\x85\xa0\x8e\x82\xfe\xbfx\xf0\x90\xef\x0e\xdcH\xc0\x00\x00\x00\xa0\x99\x99\xd9\xbf'
p1221
tp1222
bsg1212
S'Cell[0].axon[0]'
p1223
sI44
I83
tp1224
a(F1.3619169369316757
S'Cell[1].dend[21] syn_ = new FastInhib(0.5)'
p1225
I1
(dp1226
S'seg'
p1227
F0.5
sS'hostfrom'
p1228
F45.0
sS'gid'
p1229
I141
sS'coords'
p1230
g7
(g8
(I0
tp1231
g10
tp1232
Rp1233
(I1
(I3
tp1234
g14
(S'f8'
p1235
I0
I1
tp1236
Rp1237
(I3
S'<'
p1238
NNNI-1
I-1
I0
tp1239
bI00
S"'#\xacsh\x8bH\xc0\x1d\x12\x1f(-\xe8<\xc0\x8c\xf3\xf0\xcc\x9e\rC\xc0"
p1240
tp1241
bsS'secnames'
p1242
S'Cell[2].axon[18]'
p1243
sI141
I83
tp1244
a(F1.956632159047837
S'Cell[1].dend[37] syn_ = new FastInhib(0.5)'
p1245
I1
(dp1246
g1227
F0.5
sg1228
F45.0
sg1229
I141
sg1230
g7
(g8
(I0
tp1247
g10
tp1248
Rp1249
(I1
(I3
tp1250
g1237
I00
S'f\xf4c\x9f\xd1<"@\x15J;\xbf\xfc\xd1H\xc0\x14o\xd2\x99&)7\xc0'
p1251
tp1252
bsg1242
S'Cell[2].axon[34]'
p1253
sI141
I83
tp1254
a(F2.2509489995406904
S'Cell[3].dend[63] syn_ = new FastInhib(0.5)'
p1255
I3
(dp1256
g1227
F0.8333333333333333
sg1228
F45.0
sg1229
I141
sg1230
g7
(g8
(I0
tp1257
g10
tp1258
Rp1259
(I1
(I3
tp1260
g1237
I00
S'B\xd5.j\x84\xd9H@\x10t\xbfe\xe2\x0f\xf8\xbf\x00\x00\x00\xa0\x99\x99\x18\xc0'
p1261
tp1262
bsg1242
S'Cell[2].axon[61]'
p1263
sI141
I179
tp1264
a(F1.9073205086507765
S'Cell[0].dend[15] syn_ = new ExpSid(0.1)'
p1265
I0
(dp1266
g1227
F0.5
sg1228
F45.0
sg1229
I141
sg1230
g7
(g8
(I0
tp1267
g10
tp1268
Rp1269
(I1
(I3
tp1270
g1237
I00
S'v\x93\xdf\x1e\xb9\xcfK@\x0b\x8c\xb3\x154\x17\x0b@\x00\x00\x00\xa0\x99\x99\x18\xc0'
p1271
tp1272
bsg1242
S'Cell[2].axon[62]'
p1273
sI141
I35
tp1274
a(F1.2677241412822193
S'Cell[1].dend[22] syn_ = new FastInhib(0.5)'
p1275
I1
(dp1276
g1227
F0.5
sg1228
F45.0
sg1229
I141
sg1230
g7
(g8
(I0
tp1277
g10
tp1278
Rp1279
(I1
(I3
tp1280
g1237
I00
S'\x85\xd2K\xa9K\x854@jfW\x12\xfeH\x04@\xd7\xad\x809\xac"(\xc0'
p1281
tp1282
bsg1242
S'Cell[2].axon[70]'
p1283
sI141
I83
tp1284
a(F2.2567424098807387
S'Cell[3].dend[62] syn_ = new FastInhib(0.833333333333)'
p1285
I3
(dp1286
g1227
F0.8333333333333333
sg1228
F45.0
sg1229
I141
sg1230
g7
(g8
(I0
tp1287
g10
tp1288
Rp1289
(I1
(I3
tp1290
g1237
I00
S'.\x93md\xeb\xaa1\xc0\xc6\x07#\x0b\xe5\x97$@\x00\x00\x00 \xaeG1\xc0'
p1291
tp1292
bsg1242
S'Cell[2].axon[75]'
p1293
sI141
I179
tp1294
a(F1.1210530468479758
S'Cell[0].dend[15] syn_ = new ExpSid(0.3)'
p1295
I0
(dp1296
g1227
F0.3888888888888889
sg1228
F45.0
sg1229
I141
sg1230
g7
(g8
(I0
tp1297
g10
tp1298
Rp1299
(I1
(I3
tp1300
g1237
I00
S'^-\xaa\xe8\xc0uM@k\x92\xd5\xa0\xfc\xe3\x10\xc07\x02\xbc\x04h\xaa8\xc0'
p1301
tp1302
bsg1242
S'Cell[2].axon[82]'
p1303
sI141
I35
tp1304
a(F2.094588473534624
S'Cell[1].dend[13] syn_ = new FastInhib(0.5)'
p1305
I1
(dp1306
g1227
F0.5
sg1228
F45.0
sg1229
I141
sg1230
g7
(g8
(I0
tp1307
g10
tp1308
Rp1309
(I1
(I3
tp1310
g1237
I00
S'\x12\xe2{\x80\xff\x02\x16\xc0<\x83ou\xc9\xb3Y\xc0\xac\x83#R\xf9\x0c\x06\xc0'
p1311
tp1312
bsg1242
S'Cell[2].axon[192]'
p1313
sI141
I83
tp1314
a(F1.452122457392542
S'Cell[1].dend[33] syn_ = new FastInhib(0.166666666667)'
p1315
I1
(dp1316
g1227
F0.30000000000000004
sg1228
F45.0
sg1229
I45
sg1230
g7
(g8
(I0
tp1317
g10
tp1318
Rp1319
(I1
(I3
tp1320
g1237
I00
S'\xfd\xc5\xf0\x04=>\x1b\xc0\xb7\xa8C\x10?C\x16@\x00\x00\x00\xe0\xa3\xb02@'
p1321
tp1322
bsg1242
S'Cell[0].axon[0]'
p1323
sI45
I83
tp1324
a(F1.921584366608712
S'Cell[0].dend[10] syn_ = new ExpSid(0.5)'
p1325
I0
(dp1326
g1227
F0.5
sg1228
F45.0
sg1229
I93
sg1230
g7
(g8
(I0
tp1327
g10
tp1328
Rp1329
(I1
(I3
tp1330
g1237
I00
S"8\xd5\xba\x8d~13@9\x96\x11\x07\xc2\xcb'@Ro\x84qn,\x1b@"
p1331
tp1332
bsg1242
S'Cell[1].axon[233]'
p1333
sI93
I35
tp1334
a(F2.392790821155313
S'Cell[1].dend[14] syn_ = new FastInhib(0.5)'
p1335
I1
(dp1336
S'seg'
p1337
F0.5
sS'hostfrom'
p1338
F47.0
sS'gid'
p1339
I95
sS'coords'
p1340
g7
(g8
(I0
tp1341
g10
tp1342
Rp1343
(I1
(I3
tp1344
g14
(S'f8'
p1345
I0
I1
tp1346
Rp1347
(I3
S'<'
p1348
NNNI-1
I-1
I0
tp1349
bI00
S'\xd5\xb06+G\xf4\t\xc0\xde)\xa8Q\x1e>a\xc0\xbe\xfa%\xa5.6\xf6?'
p1350
tp1351
bsS'secnames'
p1352
S'Cell[1].axon[329]'
p1353
sI95
I83
tp1354
a.