(lp0
(F1.6005645354364002
S'Cell[0].dend[64] syn_ = new ExpSid(0.5)'
p1
I0
(dp2
S'seg'
p3
F0.5
sS'hostfrom'
p4
F1.0
sS'gid'
p5
I145
sS'coords'
p6
cnumpy.core.multiarray
_reconstruct
p7
(cnumpy
ndarray
p8
(I0
tp9
S'b'
p10
tp11
Rp12
(I1
(I3
tp13
cnumpy
dtype
p14
(S'f8'
p15
I0
I1
tp16
Rp17
(I3
S'<'
p18
NNNI-1
I-1
I0
tp19
bI00
S'K\xa2\xfe\xd0\\\xec\x17@\xd3\xc5\x92\xc0\x0cE7\xc0\xb4\x9d\xc5\x0f\xa0\x19\xe1\xbf'
p20
tp21
bsS'secnames'
p22
S'Cell[3].axon[133]'
p23
sI145
I36
tp24
a(F2.0887624293369393
S'Cell[2].dend[9] syn_ = new FastInhib(0.5)'
p25
I2
(dp26
g3
F0.5
sg4
F1.0
sg5
I97
sg6
g7
(g8
(I0
tp27
g10
tp28
Rp29
(I1
(I3
tp30
g17
I00
S'\x86\x11\x8b(\xde\xf4$@\xde{\xcb\x93\xf8\xc6&@\x00\x00\x00\xa0\x99\x99\x1c\xc0'
p31
tp32
bsg22
S'Cell[2].axon[10]'
p33
sI97
I132
tp34
a(F1.8542569346363849
S'Cell[3].dend[4] syn_ = new FastInhib(0.5)'
p35
I3
(dp36
g3
F0.7857142857142856
sg4
F1.0
sg5
I97
sg6
g7
(g8
(I0
tp37
g10
tp38
Rp39
(I1
(I3
tp40
g17
I00
S'\xf5?\xa1\xf8\xbb\xaeG\xc0\xf4\x1e\xae"d\x15D\xc0\x00\x00\x00\x00\xd7\xa3\n\xc0'
p41
tp42
bsg22
S'Cell[2].axon[193]'
p43
sI97
I180
tp44
a(F1.438885619445941
S'Cell[3].dend[33] syn_ = new FastInhib(0.5)'
p45
I3
(dp46
g3
F0.5
sg4
F1.0
sg5
I97
sg6
g7
(g8
(I0
tp47
g10
tp48
Rp49
(I1
(I3
tp50
g17
I00
S'\xb5\tb*\x00\x98.@\xe2\xa0\x02<x%F@\xf6\xdc\xbc\xa8\xb7P4\xc0'
p51
tp52
bsg22
S'Cell[2].axon[211]'
p53
sI97
I180
tp54
a(F1.7052450781546415
S'Cell[3].dend[25] syn_ = new FastInhib(0.166666666667)'
p55
I3
(dp56
S'seg'
p57
F0.8333333333333333
sS'hostfrom'
p58
F2.0
sS'gid'
p59
I98
sS'coords'
p60
g7
(g8
(I0
tp61
g10
tp62
Rp63
(I1
(I3
tp64
g14
(S'f8'
p65
I0
I1
tp66
Rp67
(I3
S'<'
p68
NNNI-1
I-1
I0
tp69
bI00
S'!EC\x1c\xe3\x00/\xc0\xf6\x0b\x10:x\xa47@h\xd9\xf8qUR-@'
p70
tp71
bsS'secnames'
p72
S'Cell[2].axon[17]'
p73
sI98
I180
tp74
a(F1.1133924265350488
S'Cell[2].dend[33] syn_ = new FastInhib(0.166666666667)'
p75
I2
(dp76
g57
F0.8333333333333333
sg58
F2.0
sg59
I98
sg60
g7
(g8
(I0
tp77
g10
tp78
Rp79
(I1
(I3
tp80
g67
I00
S'G\xbb\x10\xf7\xd4\xfc\x15\xc0\xdcGi\x14\xe2\x96V\xc0\x80\x96!\x18W6.\xc0'
p81
tp82
bsg72
S'Cell[2].axon[241]'
p83
sI98
I132
tp84
a(F0.8945231567612412
S'Cell[1].dend[76] syn_ = new FastInhib(0.7)'
p85
I1
(dp86
g57
F0.1
sg58
F2.0
sg59
I146
sg60
g7
(g8
(I0
tp87
g10
tp88
Rp89
(I1
(I3
tp90
g67
I00
S'\xa9\x10\xff\x03q\x9d\t\xc0\x00\x00\x00\xc0\xcc\xfc`@\x01\xcd\xb8\xa9B:A\xc0'
p91
tp92
bsg72
S'Cell[3].axon[205]'
p93
sI146
I84
tp94
a(F1.7052450781546415
S'Cell[3].dend[25] syn_ = new FastInhib(0.166666666667)'
p95
I3
(dp96
S'seg'
p97
F0.8333333333333333
sS'hostfrom'
p98
F3.0
sS'gid'
p99
I99
sS'coords'
p100
g7
(g8
(I0
tp101
g10
tp102
Rp103
(I1
(I3
tp104
g14
(S'f8'
p105
I0
I1
tp106
Rp107
(I3
S'<'
p108
NNNI-1
I-1
I0
tp109
bI00
S'!EC\x1c\xe3\x00/\xc0\xf6\x0b\x10:x\xa47@h\xd9\xf8qUR-@'
p110
tp111
bsS'secnames'
p112
S'Cell[2].axon[17]'
p113
sI99
I180
tp114
a(F1.1133924265350488
S'Cell[2].dend[33] syn_ = new FastInhib(0.166666666667)'
p115
I2
(dp116
g97
F0.8333333333333333
sg98
F3.0
sg99
I99
sg100
g7
(g8
(I0
tp117
g10
tp118
Rp119
(I1
(I3
tp120
g107
I00
S'G\xbb\x10\xf7\xd4\xfc\x15\xc0\xdcGi\x14\xe2\x96V\xc0\x80\x96!\x18W6.\xc0'
p121
tp122
bsg112
S'Cell[2].axon[241]'
p123
sI99
I132
tp124
a(F1.344459877393958
S'Cell[3].dend[41] syn_ = new FastInhib(0.7)'
p125
I3
(dp126
S'seg'
p127
F0.5
sS'hostfrom'
p128
F4.0
sS'gid'
p129
I148
sS'coords'
p130
g7
(g8
(I0
tp131
g10
tp132
Rp133
(I1
(I3
tp134
g14
(S'f8'
p135
I0
I1
tp136
Rp137
(I3
S'<'
p138
NNNI-1
I-1
I0
tp139
bI00
S'\x00\x00\x00\xe0\xa3pM@\x00\x00\x00 \xae\xb7V@&\xd3s\xb5\x10"T\xc0'
p140
tp141
bsS'secnames'
p142
S'Cell[3].axon[242]'
p143
sI148
I180
tp144
a(F2.385214333306389
S'Cell[0].dend[35] syn_ = new AmpaNmda(0.5)'
p145
I0
(dp146
g127
F0.7
sg128
F4.0
sg129
I148
sg130
g7
(g8
(I0
tp147
g10
tp148
Rp149
(I1
(I3
tp150
g137
I00
S'?!\xd3w\xc4\xa20@\xe3\xf28\x1c\xc4\x1d`\xc0$\xacG\xb9Z\x13@\xc0'
p151
tp152
bsg142
S'Cell[3].axon[380]'
p153
sI148
I36
tp154
a(F2.2132214256555827
S'Cell[2].dend[2] syn_ = new FastInhib(0.5)'
p155
I2
(dp156
g127
F0.16666666666666666
sg128
F4.0
sg129
I100
sg130
g7
(g8
(I0
tp157
g10
tp158
Rp159
(I1
(I3
tp160
g137
I00
S'@/\xc3\xcc.5%@W\xaa\xe6D\xfb\x04F\xc0\xf6A\x16\xceB\xc5<\xc0'
p161
tp162
bsg142
S'Cell[2].axon[87]'
p163
sI100
I132
tp164
a(F1.962025510453825
S'Cell[0].dend[4] syn_ = new ExpSid(0.5)'
p165
I0
(dp166
S'seg'
p167
F0.5
sS'hostfrom'
p168
F5.0
sS'gid'
p169
I149
sS'coords'
p170
g7
(g8
(I0
tp171
g10
tp172
Rp173
(I1
(I3
tp174
g14
(S'f8'
p175
I0
I1
tp176
Rp177
(I3
S'<'
p178
NNNI-1
I-1
I0
tp179
bI00
S'M\x1d\xadU\x1b#\x18\xc0\xea\x9a\x8dgc\xa7N\xc0\x00\x00\x00 \x85+1\xc0'
p180
tp181
bsS'secnames'
p182
S'Cell[3].axon[8]'
p183
sI149
I36
tp184
a(F1.2374069953206281
S'Cell[0].dend[1] syn_ = new ExpSid(0.5)'
p185
I0
(dp186
g167
F0.5
sg168
F5.0
sg169
I149
sg170
g7
(g8
(I0
tp187
g10
tp188
Rp189
(I1
(I3
tp190
g177
I00
S'4\x14\xb8\x85\xc3\x04\x1e@\xcf\x816\x92\xb8\xb9H\xc0\x00\x00\x00`\x8fB)\xc0'
p191
tp192
bsg182
S'Cell[3].axon[27]'
p193
sI149
I36
tp194
a(F2.063641369411314
S'Cell[2].dend[38] syn_ = new FastInhib(0.166666666667)'
p195
I2
(dp196
S'seg'
p197
F0.5
sS'hostfrom'
p198
F6.0
sS'gid'
p199
I102
sS'coords'
p200
g7
(g8
(I0
tp201
g10
tp202
Rp203
(I1
(I3
tp204
g14
(S'f8'
p205
I0
I1
tp206
Rp207
(I3
S'<'
p208
NNNI-1
I-1
I0
tp209
bI00
S'\xef\xce\x97G\xae\x95\x16\xc0\n\xd6\xc4&\xe31J\xc0>]5\xff\x10\xde\x14\xc0'
p210
tp211
bsS'secnames'
p212
S'Cell[2].axon[32]'
p213
sI102
I132
tp214
a(F2.3828866516198253
S'Cell[3].dend[20] syn_ = new FastInhib(0.5)'
p215
I3
(dp216
g197
F0.8333333333333333
sg198
F6.0
sg199
I150
sg200
g7
(g8
(I0
tp217
g10
tp218
Rp219
(I1
(I3
tp220
g207
I00
S'l\xe2\xc8s(\xadO\xc0\xed\x8b\xe7S\xdb\xb2\x11@\xe6\r\xf3\x8e\xd6GI\xc0'
p221
tp222
bsg212
S'Cell[3].axon[1]'
p223
sI150
I180
tp224
a(F2.391360264265083
S'Cell[3].dend[34] syn_ = new FastInhib(0.5)'
p225
I3
(dp226
g197
F0.5
sg198
F6.0
sg199
I150
sg200
g7
(g8
(I0
tp227
g10
tp228
Rp229
(I1
(I3
tp230
g207
I00
S'H \xe5"\xac\x926@s\no\xae=\x13O@\x00\x00\x00\x80\x14\xee>\xc0'
p231
tp232
bsg212
S'Cell[3].axon[162]'
p233
sI150
I180
tp234
a(F1.689195282025495
S'Cell[2].dend[21] syn_ = new FastInhib(0.5)'
p235
I2
(dp236
S'seg'
p237
F0.16666666666666666
sS'hostfrom'
p238
F7.0
sS'gid'
p239
I103
sS'coords'
p240
g7
(g8
(I0
tp241
g10
tp242
Rp243
(I1
(I3
tp244
g14
(S'f8'
p245
I0
I1
tp246
Rp247
(I3
S'<'
p248
NNNI-1
I-1
I0
tp249
bI00
S'\xc4F:l\xc5S\x1c@\x03[S\xbb4\x00A\xc0\x00\x00\x00\x80\xebQ\xf8?'
p250
tp251
bsS'secnames'
p252
S'Cell[2].axon[262]'
p253
sI103
I132
tp254
a(F1.671726021669353
S'Cell[1].dend[51] syn_ = new FastInhib(0.166666666667)'
p255
I1
(dp256
g237
F0.8333333333333333
sg238
F7.0
sg239
I103
sg240
g7
(g8
(I0
tp257
g10
tp258
Rp259
(I1
(I3
tp260
g247
I00
S'\xce\xb6\xb7\x10\xc0AC@M\x12_\x1cv[?@\x92\xd1\xb7qOB\xed\xbf'
p261
tp262
bsg252
S'Cell[2].axon[298]'
p263
sI103
I84
tp264
a(F2.2134302757189386
S'Cell[3].dend[27] syn_ = new FastInhib(0.5)'
p265
I3
(dp266
g237
F0.16666666666666666
sg238
F7.0
sg239
I151
sg240
g7
(g8
(I0
tp267
g10
tp268
Rp269
(I1
(I3
tp270
g247
I00
S'\xe6h\xe3c\x16e%@\x0c_2# g3@\xde\x91\xbb9P\x14\x0b\xc0'
p271
tp272
bsg252
S'Cell[3].axon[0]'
p273
sI151
I180
tp274
a(F2.1220019305292435
S'Cell[0].apic[20] syn_ = new ExpSid(0.5)'
p275
I0
(dp276
g237
F0.5
sg238
F7.0
sg239
I151
sg240
g7
(g8
(I0
tp277
g10
tp278
Rp279
(I1
(I3
tp280
g247
I00
S'\xcd*\x13\x81\xd2\nL@4\xabLD\xb0QK@\x10+`\x16\xe1^\xdb?'
p281
tp282
bsg252
S'Cell[3].axon[20]'
p283
sI151
I36
tp284
a(F1.9781450851957325
S'Cell[0].dend[63] syn_ = new ExpSid(0.5)'
p285
I0
(dp286
g237
F0.5
sg238
F7.0
sg239
I151
sg240
g7
(g8
(I0
tp287
g10
tp288
Rp289
(I1
(I3
tp290
g247
I00
S'\x00\x00\x00\xc0\xcc\xcc4@\xdf\xce\xfd\xe9\x9f%A\xc0\x00\x00\x00\x00\xd7\xa3\xf4\xbf'
p291
tp292
bsg252
S'Cell[3].axon[103]'
p293
sI151
I36
tp294
a(F2.1128409877709347
S'Cell[2].dend[6] syn_ = new FastInhib(0.833333333333)'
p295
I2
(dp296
S'seg'
p297
F0.5
sS'hostfrom'
p298
F8.0
sS'gid'
p299
I152
sS'coords'
p300
g7
(g8
(I0
tp301
g10
tp302
Rp303
(I1
(I3
tp304
g14
(S'f8'
p305
I0
I1
tp306
Rp307
(I3
S'<'
p308
NNNI-1
I-1
I0
tp309
bI00
S'\xc8h\xaa\x00ot@\xc0\x8f.1\xe4\x10\xdbH@\x17T4v\xf8\xe7\x16@'
p310
tp311
bsS'secnames'
p312
S'Cell[3].axon[65]'
p313
sI152
I132
tp314
a(F2.4950089818562713
S'Cell[1].dend[88] syn_ = new FastInhib(0.166666666667)'
p315
I1
(dp316
g297
F0.8333333333333333
sg298
F8.0
sg299
I152
sg300
g7
(g8
(I0
tp317
g10
tp318
Rp319
(I1
(I3
tp320
g307
I00
S'\x89T\x12\x99\xe3\x19=\xc0\x8d\xcf\xba}\xfb\xa2L@O\xca\x02\x1f\x8f\xaa!@'
p321
tp322
bsg312
S'Cell[3].axon[323]'
p323
sI152
I84
tp324
a(F2.498289165433582
S'Cell[3].dend[9] syn_ = new FastInhib(0.5)'
p325
I3
(dp326
g297
F0.8333333333333333
sg298
F8.0
sg299
I152
sg300
g7
(g8
(I0
tp327
g10
tp328
Rp329
(I1
(I3
tp330
g307
I00
S'\x7fZ\xb7\xf1\xf8\x9c\x15\xc0\xe7\xa5\x10\xd3\xe1\xf81\xc0\xbd\xbah.\xae$&\xc0'
p331
tp332
bsg312
S'Cell[3].axon[518]'
p333
sI152
I180
tp334
a(F1.2133374828580834
S'Cell[1].dend[82] syn_ = new FastInhib(0.5)'
p335
I1
(dp336
g297
F0.30000000000000004
sg298
F8.0
sg299
I152
sg300
g7
(g8
(I0
tp337
g10
tp338
Rp339
(I1
(I3
tp340
g307
I00
S'\r\x7f\xc9\xe7\xc0\xfbK\xc0j\xa4v\x97\xd6\x00Z@na\xa7\x85=\xf2 @'
p341
tp342
bsg312
S'Cell[3].axon[554]'
p343
sI152
I84
tp344
a(F1.8873056702746727
S'Cell[0].dend[6] syn_ = new AmpaNmda(0.3)'
p345
I0
(dp346
g297
F0.07142857142857142
sg298
F8.0
sg299
I104
sg300
g7
(g8
(I0
tp347
g10
tp348
Rp349
(I1
(I3
tp350
g307
I00
S'\x05\xc6\xa0\xeaG\x15@\xc0\xfd\x12\x0cJ\x84qX\xc0\x9cO\x17Q\x9e@\xee?'
p351
tp352
bsg312
S'Cell[2].axon[8]'
p353
sI104
I36
tp354
a(F1.2393413030697789
S'Cell[0].dend[63] syn_ = new AmpaNmda(0.5)'
p355
I0
(dp356
g297
F0.16666666666666666
sg298
F8.0
sg299
I104
sg300
g7
(g8
(I0
tp357
g10
tp358
Rp359
(I1
(I3
tp360
g307
I00
S'\xdcV\xda\xb7EO4@\xab\x9d\x83\x02!\xd3@\xc0\xb7\x8e\xe4\x87]\xd2\xfc\xbf'
p361
tp362
bsg312
S'Cell[2].axon[333]'
p363
sI104
I36
tp364
a(F1.9758612183830233
S'Cell[1].dend[4] syn_ = new FastInhib(0.5)'
p365
I1
(dp366
S'seg'
p367
F0.49999999999999994
sS'hostfrom'
p368
F9.0
sS'gid'
p369
I9
sS'coords'
p370
g7
(g8
(I0
tp371
g10
tp372
Rp373
(I1
(I3
tp374
g14
(S'f8'
p375
I0
I1
tp376
Rp377
(I3
S'<'
p378
NNNI-1
I-1
I0
tp379
bI00
S',\xf5\xf8\xbf\x03\x05@\xc0&A>\xd4[\x0fI\xc0ay\xa4\x83{\xcc!\xc0'
p380
tp381
bsS'secnames'
p382
S'Cell[0].axon[4]'
p383
sI9
I84
tp384
a(F1.9946786029274872
S'Cell[3].dend[35] syn_ = new FastInhib(0.357142857143)'
p385
I3
(dp386
g367
F0.16666666666666666
sg368
F9.0
sg369
I105
sg370
g7
(g8
(I0
tp387
g10
tp388
Rp389
(I1
(I3
tp390
g377
I00
S'\x88\xb2\x14\\5\x99@@\xe8G\xc8Hq;X@\x00\x00\x00@\nWJ\xc0'
p391
tp392
bsg382
S'Cell[2].axon[11]'
p393
sI105
I180
tp394
a(F1.9429381527017366
S'Cell[0].dend[29] syn_ = new ExpSid(0.166666666667)'
p395
I0
(dp396
g367
F0.5
sg368
F9.0
sg369
I105
sg370
g7
(g8
(I0
tp397
g10
tp398
Rp399
(I1
(I3
tp400
g377
I00
S'5nP\xc1\x08\xc6,@5=\x99\x01\x89\xde`\xc0\x92Ke?\xd1\x1c4@'
p401
tp402
bsg382
S'Cell[2].axon[68]'
p403
sI105
I36
tp404
a(F1.613355945967341
S'Cell[0].dend[36] syn_ = new ExpSid(0.5)'
p405
I0
(dp406
g367
F0.5
sg368
F9.0
sg369
I105
sg370
g7
(g8
(I0
tp407
g10
tp408
Rp409
(I1
(I3
tp410
g377
I00
S'\x00\x9ap"\xfe\xe5B@\x83\xc2\x9f\xc1\x14\xd7_\xc0j\xff\xdc\xe7\xa1\x0b4\xc0'
p411
tp412
bsg382
S'Cell[2].axon[123]'
p413
sI105
I36
tp414
a(F0.9996426953673034
S'Cell[1].dend[0] syn_ = new FastInhib(0.5)'
p415
I1
(dp416
S'seg'
p417
F0.5
sS'hostfrom'
p418
F10.0
sS'gid'
p419
I106
sS'coords'
p420
g7
(g8
(I0
tp421
g10
tp422
Rp423
(I1
(I3
tp424
g14
(S'f8'
p425
I0
I1
tp426
Rp427
(I3
S'<'
p428
NNNI-1
I-1
I0
tp429
bI00
S'\xf3XB]kV>\xc0i\x06\x94\x95/S>\xc0\xfe.\x0f\xe7C\x07"\xc0'
p430
tp431
bsS'secnames'
p432
S'Cell[2].axon[133]'
p433
sI106
I84
tp434
a(F2.455893343506921
S'Cell[0].dend[32] syn_ = new AmpaNmda(0.5)'
p435
I0
(dp436
g417
F0.1
sg418
F10.0
sg419
I106
sg420
g7
(g8
(I0
tp437
g10
tp438
Rp439
(I1
(I3
tp440
g427
I00
S'[\xf0\xf5\xce\xee\x98?@N\xfd\x98\x1ch\xa4R\xc0\xdd\xff\x7f%\x19\x9e \xc0'
p441
tp442
bsg432
S'Cell[2].axon[155]'
p443
sI106
I36
tp444
a(F2.429761123286218
S'Cell[3].dend[4] syn_ = new FastInhib(0.166666666667)'
p445
I3
(dp446
g417
F0.5
sg418
F10.0
sg419
I106
sg420
g7
(g8
(I0
tp447
g10
tp448
Rp449
(I1
(I3
tp450
g427
I00
S'\xde\x94i\xe8\xad\xce8\xc0\x83\x8b0\xa0\xebq3\xc0\x988\x97\x88\xb3]\xe9?'
p451
tp452
bsg432
S'Cell[2].axon[176]'
p453
sI106
I180
tp454
a(F1.8172248353699114
S'Cell[0].apic[12] syn_ = new AmpaNmda(0.5)'
p455
I0
(dp456
g417
F0.5
sg418
F10.0
sg419
I106
sg420
g7
(g8
(I0
tp457
g10
tp458
Rp459
(I1
(I3
tp460
g427
I00
S'$K\x01\x83\xf3\xad\x12@\xa8\xdc:\xe3$\xa4B@\x0c\xc8\xc3\x8f\xfcU\xf0\xbf'
p461
tp462
bsg432
S'Cell[2].axon[223]'
p463
sI106
I36
tp464
a(F1.6050269398751502
S'Cell[3].dend[21] syn_ = new FastInhib(0.166666666667)'
p465
I3
(dp466
g417
F0.5
sg418
F10.0
sg419
I106
sg420
g7
(g8
(I0
tp467
g10
tp468
Rp469
(I1
(I3
tp470
g427
I00
S'3\n\xd6}*\x91\x1c@^\x1b\xf7h\xeb_\xd2\xbf\xfc\xb8\xbf\xdf\xbb\x14F\xc0'
p471
tp472
bsg432
S'Cell[2].axon[350]'
p473
sI106
I180
tp474
a(F1.3472607434742567
S'Cell[0].dend[31] syn_ = new AmpaNmda(0.5)'
p475
I0
(dp476
g417
F0.8333333333333333
sg418
F10.0
sg419
I58
sg420
g7
(g8
(I0
tp477
g10
tp478
Rp479
(I1
(I3
tp480
g427
I00
S'\x8f\xb8\x18\xa9\x19Z=@F\x1d\x00\x97`\xf8K\xc0\xef\xd7\x8bN\xfa\x9a*@'
p481
tp482
bsg432
S'Cell[1].axon[11]'
p483
sI58
I36
tp484
a(F1.2993157317171786
S'Cell[3].dend[23] syn_ = new FastInhib(0.357142857143)'
p485
I3
(dp486
g417
F0.30000000000000004
sg418
F10.0
sg419
I154
sg420
g7
(g8
(I0
tp487
g10
tp488
Rp489
(I1
(I3
tp490
g427
I00
S'QT*_\xe2W\x13\xc0\xd0\x0cvk\x82\xadT@\xc5\x104\x0c\xa8\xe8 @'
p491
tp492
bsg432
S'Cell[3].axon[26]'
p493
sI154
I180
tp494
a(F1.7333809879735058
S'Cell[3].dend[16] syn_ = new FastInhib(0.1)'
p495
I3
(dp496
S'seg'
p497
F0.5
sS'hostfrom'
p498
F11.0
sS'gid'
p499
I59
sS'coords'
p500
g7
(g8
(I0
tp501
g10
tp502
Rp503
(I1
(I3
tp504
g14
(S'f8'
p505
I0
I1
tp506
Rp507
(I3
S'<'
p508
NNNI-1
I-1
I0
tp509
bI00
S'}\x7f\xc3\x8d\xedP-@B4\xffP\n\x01*\xc0\xac\xea\x16\xfc\xcd\x1e,@'
p510
tp511
bsS'secnames'
p512
S'Cell[1].axon[2]'
p513
sI59
I180
tp514
a(F2.095096318571011
S'Cell[0].apic[6] syn_ = new ExpSid(0.833333333333)'
p515
I0
(dp516
g497
F0.8333333333333333
sg498
F11.0
sg499
I59
sg500
g7
(g8
(I0
tp517
g10
tp518
Rp519
(I1
(I3
tp520
g507
I00
S'\x0c\x80\xdb\x98trM@^\xfa%\x9e\x1d\x19 @\x00\x00\x00\x00)\xfcA@'
p521
tp522
bsg512
S'Cell[1].axon[13]'
p523
sI59
I36
tp524
a(F1.2113701480408192
S'Cell[1].dend[23] syn_ = new FastInhib(0.5)'
p525
I1
(dp526
g497
F0.5
sg498
F11.0
sg499
I155
sg500
g7
(g8
(I0
tp527
g10
tp528
Rp529
(I1
(I3
tp530
g507
I00
S'\x00\x00\x00\xd0\xcc\x14Z\xc0\x00\x00\x00`\x8f\xe2B@\x00\x00\x00\xa0\x99\x19\x11@'
p531
tp532
bsg512
S'Cell[3].axon[129]'
p533
sI155
I84
tp534
a(F1.8034165125871748
S'Cell[2].dend[18] syn_ = new FastInhib(0.166666666667)'
p535
I2
(dp536
g497
F0.16666666666666666
sg498
F11.0
sg499
I155
sg500
g7
(g8
(I0
tp537
g10
tp538
Rp539
(I1
(I3
tp540
g507
I00
S"JT*\xa2R\xaa'@\xc2\xc2\x1f\xb1\xed^)@?\x1c\xc0\x80\xf8\x1a6@"
p541
tp542
bsg512
S'Cell[3].axon[170]'
p543
sI155
I132
tp544
a(F1.8896382768244528
S'Cell[3].dend[25] syn_ = new FastInhib(0.5)'
p545
I3
(dp546
g497
F0.8999999999999999
sg498
F11.0
sg499
I155
sg500
g7
(g8
(I0
tp547
g10
tp548
Rp549
(I1
(I3
tp550
g507
I00
S">\nL\xbc>x<\xc0\xc3\xf5\xb3\xa3'n4@\xdd\xb9#A\xa6\n>@"
p551
tp552
bsg512
S'Cell[3].axon[186]'
p553
sI155
I180
tp554
a(F2.454487363445023
S'Cell[1].dend[6] syn_ = new FastInhib(0.166666666667)'
p555
I1
(dp556
g497
F0.5
sg498
F11.0
sg499
I155
sg500
g7
(g8
(I0
tp557
g10
tp558
Rp559
(I1
(I3
tp560
g507
I00
S'}\xf1\x94KqB>\xc0\xe0\xffV\x07b\xa1Q\xc0\x08S.=\x88\t%\xc0'
p561
tp562
bsg512
S'Cell[3].axon[221]'
p563
sI155
I84
tp564
a(F1.0418612642796496
S'Cell[2].dend[38] syn_ = new FastInhib(0.833333333333)'
p565
I2
(dp566
g497
F0.5
sg498
F11.0
sg499
I155
sg500
g7
(g8
(I0
tp567
g10
tp568
Rp569
(I1
(I3
tp570
g507
I00
S'\x00\x00\x00\x00)\x1c=\xc0\x1abE\xb2\xe4\xe1S\xc0n\x10i\xf5\x08&)\xc0'
p571
tp572
bsg512
S'Cell[3].axon[222]'
p573
sI155
I132
tp574
a(F2.370532815592775
S'Cell[2].dend[10] syn_ = new FastInhib(0.5)'
p575
I2
(dp576
S'seg'
p577
F0.16666666666666666
sS'hostfrom'
p578
F12.0
sS'gid'
p579
I108
sS'coords'
p580
g7
(g8
(I0
tp581
g10
tp582
Rp583
(I1
(I3
tp584
g14
(S'f8'
p585
I0
I1
tp586
Rp587
(I3
S'<'
p588
NNNI-1
I-1
I0
tp589
bI00
S'\xd3amF\x1d3#@\x93%.\x91K\x001@\r\r\x84UF\x1a\x17\xc0'
p590
tp591
bsS'secnames'
p592
S'Cell[2].axon[7]'
p593
sI108
I132
tp594
a(F1.7116141390647808
S'Cell[2].dend[7] syn_ = new FastInhib(0.5)'
p595
I2
(dp596
g577
F0.5
sg578
F12.0
sg579
I108
sg580
g7
(g8
(I0
tp597
g10
tp598
Rp599
(I1
(I3
tp600
g587
I00
S'X\x11\xb4\xc8T=\x1b@\xd2\x7f\xfb\xff\x7f<\xf2?\x1a\x8f0\x97u\x0e\x18\xc0'
p601
tp602
bsg592
S'Cell[2].axon[7]'
p603
sI108
I132
tp604
a(F2.299895556098019
S'Cell[2].dend[39] syn_ = new FastInhib(0.5)'
p605
I2
(dp606
g577
F0.8333333333333333
sg578
F12.0
sg579
I108
sg580
g7
(g8
(I0
tp607
g10
tp608
Rp609
(I1
(I3
tp610
g587
I00
S'!\x90HO\xd6\x9eF\xc0\x98]0\xd7\xeb\tU\xc0\xfco\x8f\x17\xed\xf19\xc0'
p611
tp612
bsg592
S'Cell[2].axon[363]'
p613
sI108
I132
tp614
a(F1.8612923440664448
S'Cell[0].dend[48] syn_ = new AmpaNmda(0.5)'
p615
I0
(dp616
S'seg'
p617
F0.5
sS'hostfrom'
p618
F14.0
sS'gid'
p619
I158
sS'coords'
p620
g7
(g8
(I0
tp621
g10
tp622
Rp623
(I1
(I3
tp624
g14
(S'f8'
p625
I0
I1
tp626
Rp627
(I3
S'<'
p628
NNNI-1
I-1
I0
tp629
bI00
S'\xf0\x97<\xc1\x0bWU@\xc39p\x1dzhG\xc0\x00\x00\x00\x80=\xca8\xc0'
p630
tp631
bsS'secnames'
p632
S'Cell[3].axon[83]'
p633
sI158
I36
tp634
a(F0.6783731199836761
S'Cell[2].dend[0] syn_ = new FastInhib(0.5)'
p635
I2
(dp636
g617
F0.7
sg618
F14.0
sg619
I158
sg620
g7
(g8
(I0
tp637
g10
tp638
Rp639
(I1
(I3
tp640
g627
I00
S'\xde\xde\x90\xfa\x03\xdaD@\xd6\x11u\xf4\xa7,L\xc0~&aW\x9dw3\xc0'
p641
tp642
bsg632
S'Cell[3].axon[85]'
p643
sI158
I132
tp644
a(F2.2629300714917107
S'Cell[2].dend[22] syn_ = new FastInhib(0.5)'
p645
I2
(dp646
S'seg'
p647
F0.7857142857142856
sS'hostfrom'
p648
F15.0
sS'gid'
p649
I111
sS'coords'
p650
g7
(g8
(I0
tp651
g10
tp652
Rp653
(I1
(I3
tp654
g14
(S'f8'
p655
I0
I1
tp656
Rp657
(I3
S'<'
p658
NNNI-1
I-1
I0
tp659
bI00
S'\x00\x00\x00\x80\xebQ\x18@\x06\xa7Q\xff\xe5yC\xc0d\t\xfb\x7f\xa6>\xe3\xbf'
p660
tp661
bsS'secnames'
p662
S'Cell[2].axon[180]'
p663
sI111
I132
tp664
a(F2.311418143024155
S'Cell[2].dend[13] syn_ = new FastInhib(0.7)'
p665
I2
(dp666
g647
F0.5
sg648
F15.0
sg649
I111
sg650
g7
(g8
(I0
tp667
g10
tp668
Rp669
(I1
(I3
tp670
g657
I00
S'\xdeZ\xce\xe0\x7f\xf1P@N\xa5J\xdc\xb3"O@\xd24\xb8\xe8\xefU1\xc0'
p671
tp672
bsg662
S'Cell[2].axon[269]'
p673
sI111
I132
tp674
a(F0.7915946617284793
S'Cell[0].dend[34] syn_ = new ExpSid(0.5)'
p675
I0
(dp676
g647
F0.8999999999999999
sg648
F15.0
sg649
I159
sg650
g7
(g8
(I0
tp677
g10
tp678
Rp679
(I1
(I3
tp680
g657
I00
S"rJc\xc8\xb0'2@\xb4\x19\xf9\x9e\x0c\x10]\xc0\x00\x00\x00\x00)\\>\xc0"
p681
tp682
bsg662
S'Cell[3].axon[46]'
p683
sI159
I36
tp684
a(F1.305357422731249
S'Cell[2].dend[20] syn_ = new FastInhib(0.166666666667)'
p685
I2
(dp686
S'seg'
p687
F0.5
sS'hostfrom'
p688
F16.0
sS'gid'
p689
I160
sS'coords'
p690
g7
(g8
(I0
tp691
g10
tp692
Rp693
(I1
(I3
tp694
g14
(S'f8'
p695
I0
I1
tp696
Rp697
(I3
S'<'
p698
NNNI-1
I-1
I0
tp699
bI00
S'\x00\x00\x00`f\xa6<@\x00\x00\x00\x00)\\#\xc0\x00\x00\x00\xa0p=\x16\xc0'
p700
tp701
bsS'secnames'
p702
S'Cell[3].soma[0]'
p703
sI160
I132
tp704
a(F2.301603718658891
S'Cell[1].dend[2] syn_ = new FastInhib(0.0714285714286)'
p705
I1
(dp706
g687
F0.5
sg688
F16.0
sg689
I112
sg690
g7
(g8
(I0
tp707
g10
tp708
Rp709
(I1
(I3
tp710
g697
I00
S'\xc9,\x13\x92\x08zC\xc0\xf9n!\x83\x0f\x85O\xc0\x00\x00\x00\xa0\x99\x19"\xc0'
p711
tp712
bsg702
S'Cell[2].axon[11]'
p713
sI112
I84
tp714
a(F1.8389943521238383
S'Cell[3].dend[23] syn_ = new FastInhib(0.214285714286)'
p715
I3
(dp716
g687
F0.5
sg688
F16.0
sg689
I112
sg690
g7
(g8
(I0
tp717
g10
tp718
Rp719
(I1
(I3
tp720
g697
I00
S"\x87\xa540P'\xf4\xbf\xea\x1dRv\xc1\xd2M@\x00\x00\x00\x80\xebQ\x04\xc0"
p721
tp722
bsg702
S'Cell[2].axon[131]'
p723
sI112
I180
tp724
a(F2.0592845779405082
S'Cell[2].dend[11] syn_ = new FastInhib(0.5)'
p725
I2
(dp726
g687
F0.16666666666666666
sg688
F16.0
sg689
I112
sg690
g7
(g8
(I0
tp727
g10
tp728
Rp729
(I1
(I3
tp730
g697
I00
S'8kl\xb8V\x03A\xc0\xd7\x9e\x85p|\x05F@\x00\x00\x00\xa0Ga,\xc0'
p731
tp732
bsg702
S'Cell[2].axon[137]'
p733
sI112
I132
tp734
a(F1.2716135092932503
S'Cell[2].dend[12] syn_ = new FastInhib(0.7)'
p735
I2
(dp736
g687
F0.5
sg688
F16.0
sg689
I112
sg690
g7
(g8
(I0
tp737
g10
tp738
Rp739
(I1
(I3
tp740
g697
I00
S'\xf2n\xdf`\x1f\x0e\x1b@\xb7\x85\x9fy\x80{W@\xf8\xc7\x8d\x1f\xec#3\xc0'
p741
tp742
bsg702
S'Cell[2].axon[209]'
p743
sI112
I132
tp744
a(F0.614930901058391
S'Cell[2].dend[0] syn_ = new FastInhib(0.9)'
p745
I2
(dp746
S'seg'
p747
F0.5
sS'hostfrom'
p748
F17.0
sS'gid'
p749
I113
sS'coords'
p750
g7
(g8
(I0
tp751
g10
tp752
Rp753
(I1
(I3
tp754
g14
(S'f8'
p755
I0
I1
tp756
Rp757
(I3
S'<'
p758
NNNI-1
I-1
I0
tp759
bI00
S'\x88\xec\xe51\xea\x07Q@\xd4Qtr?\nT\xc0\x00\x1a\x08\x91\xd0\xa0;\xc0'
p760
tp761
bsS'secnames'
p762
S'Cell[2].axon[155]'
p763
sI113
I132
tp764
a(F1.6982032824753521
S'Cell[2].dend[31] syn_ = new FastInhib(0.5)'
p765
I2
(dp766
g747
F0.5
sg748
F17.0
sg749
I113
sg750
g7
(g8
(I0
tp767
g10
tp768
Rp769
(I1
(I3
tp770
g757
I00
S'\xda\xa9\xc1\x05r7 @\x9c\x9f\xe2\x84\xbc\xdd_\xc0\xe0\x101\xb4\xd1\xc3\xb0\xbf'
p771
tp772
bsg762
S'Cell[2].axon[285]'
p773
sI113
I132
tp774
a(F1.3549994986188467
S'Cell[2].dend[22] syn_ = new FastInhib(0.5)'
p775
I2
(dp776
g747
F0.5
sg748
F17.0
sg749
I113
sg750
g7
(g8
(I0
tp777
g10
tp778
Rp779
(I1
(I3
tp780
g757
I00
S'@l^R`6\x1a@\x19\x99\x185 \x9fC\xc0\x0fD\xab)d.\xff?'
p781
tp782
bsg762
S'Cell[2].axon[494]'
p783
sI113
I132
tp784
a(F2.0635408661235144
S'Cell[2].dend[23] syn_ = new FastInhib(0.5)'
p785
I2
g776
I113
I132
tp786
a(F2.1144541242550514
S'Cell[2].dend[7] syn_ = new FastInhib(0.5)'
p787
I2
(dp788
g747
F0.8333333333333333
sg748
F17.0
sg749
I113
sg750
g7
(g8
(I0
tp789
g10
tp790
Rp791
(I1
(I3
tp792
g757
I00
S'H\xdb\x9cY\x02\x96 @\xe0\n\xfaRR\xc6\xfe?\xf7\x15\x9d[\x006\x0e\xc0'
p793
tp794
bsg762
S'Cell[2].axon[503]'
p795
sI113
I132
tp796
a(F0.6145951599993106
S'Cell[2].dend[0] syn_ = new FastInhib(0.1)'
p797
I2
(dp798
g747
F0.5
sg748
F17.0
sg749
I113
sg750
g7
(g8
(I0
tp799
g10
tp800
Rp801
(I1
(I3
tp802
g757
I00
S'\xf0)8\x07t\x9f2@\xd3"4\xbdgj>\xc0\x00\x00\x00\x00)\\(\xc0'
p803
tp804
bsg762
S'Cell[2].axon[610]'
p805
sI113
I132
tp806
a(F1.7119015532005843
S'Cell[2].dend[32] syn_ = new FastInhib(0.166666666667)'
p807
I2
(dp808
g747
F0.5
sg748
F17.0
sg749
I113
sg750
g7
(g8
(I0
tp809
g10
tp810
Rp811
(I1
(I3
tp812
g757
I00
S'8\x03m\xe0\xc4\r\x06\xc0\x8a(\x1c\x8a\x1d@X\xc0\x1c\x0cs\x98\xc6\xcd1\xc0'
p813
tp814
bsg762
S'Cell[2].axon[616]'
p815
sI113
I132
tp816
a(F2.142022190841733
S'Cell[0].dend[11] syn_ = new ExpSid(0.5)'
p817
I0
(dp818
g747
F0.5
sg748
F17.0
sg749
I113
sg750
g7
(g8
(I0
tp819
g10
tp820
Rp821
(I1
(I3
tp822
g757
I00
S'q\x97L\x83\x9d\x81!@\xea8w\x9b\xdf[X\xc0\\\xbd\xd5\xeb\xbe\xa2 \xc0'
p823
tp824
bsg762
S'Cell[2].axon[744]'
p825
sI113
I36
tp826
a(F2.3279685911127546
S'Cell[0].apic[17] syn_ = new ExpSid(0.5)'
p827
I0
(dp828
g747
F0.5
sg748
F17.0
sg749
I161
sg750
g7
(g8
(I0
tp829
g10
tp830
Rp831
(I1
(I3
tp832
g757
I00
S'P\xc2@&s\xf1;@a#\xacF\\\xccK@$Nn\xb4\xaaz!@'
p833
tp834
bsg762
S'Cell[3].axon[7]'
p835
sI161
I36
tp836
a(F2.3449773345733327
S'Cell[1].dend[1] syn_ = new FastInhib(0.5)'
p837
I1
(dp838
S'seg'
p839
F0.1
sS'hostfrom'
p840
F18.0
sS'gid'
p841
I114
sS'coords'
p842
g7
(g8
(I0
tp843
g10
tp844
Rp845
(I1
(I3
tp846
g14
(S'f8'
p847
I0
I1
tp848
Rp849
(I3
S'<'
p850
NNNI-1
I-1
I0
tp851
bI00
S'\xb1\xd6\rQ;\x8fA\xc0\xfd&Ik\xc6\xeaG\xc0\x90Y\xcd`\xcf/&\xc0'
p852
tp853
bsS'secnames'
p854
S'Cell[2].axon[47]'
p855
sI114
I84
tp856
a(F2.3509726591323425
S'Cell[0].apic[0] syn_ = new AmpaNmda(0.5)'
p857
I0
(dp858
g839
F0.5
sg840
F18.0
sg841
I114
sg842
g7
(g8
(I0
tp859
g10
tp860
Rp861
(I1
(I3
tp862
g849
I00
S'\x04\t\xce\xf5\xe0\x8a7@Z7\xf5 \xa4\x841\xc0\xff\xff\xff\x1f\xae\xc72@'
p863
tp864
bsg854
S'Cell[2].axon[88]'
p865
sI114
I36
tp866
a(F1.2764226300725394
S'Cell[1].dend[40] syn_ = new FastInhib(0.5)'
p867
I1
(dp868
g839
F0.8333333333333333
sg840
F18.0
sg841
I66
sg842
g7
(g8
(I0
tp869
g10
tp870
Rp871
(I1
(I3
tp872
g849
I00
S'k-j\x14\xd4h8\xc0\xb8\x9f\xae\x17J\xa5\x08@[\xf3\x9a95\xcc3\xc0'
p873
tp874
bsg854
S'Cell[1].axon[26]'
p875
sI66
I84
tp876
a(F1.4401687391280706
S'Cell[3].dend[31] syn_ = new FastInhib(0.166666666667)'
p877
I3
(dp878
g839
F0.8333333333333333
sg840
F18.0
sg841
I162
sg842
g7
(g8
(I0
tp879
g10
tp880
Rp881
(I1
(I3
tp882
g849
I00
S'\xe1r|c\xaa\x0bH@+\xe3\xa0\x8f7C<@\xa8\xe3z\xd3\x8b\xc13@'
p883
tp884
bsg854
S'Cell[3].axon[66]'
p885
sI162
I180
tp886
a(F2.2558080009239583
S'Cell[2].dend[41] syn_ = new FastInhib(0.166666666667)'
p887
I2
(dp888
g839
F0.5
sg840
F18.0
sg841
I162
sg842
g7
(g8
(I0
tp889
g10
tp890
Rp891
(I1
(I3
tp892
g849
I00
S'\x8fre\\\xb0a0@"\x03%/\xd2\xeaG\xc0\x00\x00\x00\xa0G\xe1\x16\xc0'
p893
tp894
bsg854
S'Cell[3].axon[203]'
p895
sI162
I132
tp896
a(F2.494097567587635
S'Cell[1].dend[83] syn_ = new FastInhib(0.5)'
p897
I1
(dp898
S'seg'
p899
F0.5
sS'hostfrom'
p900
F19.0
sS'gid'
p901
I115
sS'coords'
p902
g7
(g8
(I0
tp903
g10
tp904
Rp905
(I1
(I3
tp906
g14
(S'f8'
p907
I0
I1
tp908
Rp909
(I3
S'<'
p910
NNNI-1
I-1
I0
tp911
bI00
S'\xe1\xddD\xd4?QQ\xc0^\xe8~\x9f\xa0 `@\x00\x00\x00\xe0Q8#@'
p912
tp913
bsS'secnames'
p914
S'Cell[2].axon[86]'
p915
sI115
I84
tp916
a(F2.387067604924274
S'Cell[2].dend[7] syn_ = new FastInhib(0.5)'
p917
I2
(dp918
g899
F0.1
sg900
F19.0
sg901
I19
sg902
g7
(g8
(I0
tp919
g10
tp920
Rp921
(I1
(I3
tp922
g909
I00
S'\xc15s\xcc\xe3?\x1d@\xda\x92t\xeeYY\xfc?\x00\x00\x00 \x85\xeb\r\xc0'
p923
tp924
bsg914
S'Cell[0].axon[0]'
p925
sI19
I132
tp926
a(F1.6710990966873818
S'Cell[1].dend[10] syn_ = new FastInhib(0.166666666667)'
p927
I1
(dp928
g899
F0.16666666666666666
sg900
F19.0
sg901
I19
sg902
g7
(g8
(I0
tp929
g10
tp930
Rp931
(I1
(I3
tp932
g909
I00
S'\x8c:\xb7~S7\x19\xc0\xdc\xe8\xf5\xcby\xb3n\xc0\x00\x00\x00\xa0p\xbd/\xc0'
p933
tp934
bsg914
S'Cell[0].axon[3]'
p935
sI19
I84
tp936
a(F1.955474750687142
S'Cell[2].dend[19] syn_ = new FastInhib(0.166666666667)'
p937
I2
(dp938
S'seg'
p939
F0.5
sS'hostfrom'
p940
F21.0
sS'gid'
p941
I165
sS'coords'
p942
g7
(g8
(I0
tp943
g10
tp944
Rp945
(I1
(I3
tp946
g14
(S'f8'
p947
I0
I1
tp948
Rp949
(I3
S'<'
p950
NNNI-1
I-1
I0
tp951
bI00
S'\x9e\x9b/\xe3v\xdc+@\xb0\xcf#\xd7*\xca%@\x00\x00\x00`\xb8\x1e(\xc0'
p952
tp953
bsS'secnames'
p954
S'Cell[3].axon[7]'
p955
sI165
I132
tp956
a(F2.3646944313901894
S'Cell[2].dend[7] syn_ = new FastInhib(0.5)'
p957
I2
(dp958
g939
F0.16666666666666666
sg940
F21.0
sg941
I165
sg942
g7
(g8
(I0
tp959
g10
tp960
Rp961
(I1
(I3
tp962
g949
I00
S'%\x01w\xe8\xfa\xdc#@\xe7\xe9\x02\xa6\x1e\x1e\r@\xd2\x10Fp\xfc%\x17\xc0'
p963
tp964
bsg954
S'Cell[3].axon[104]'
p965
sI165
I132
tp966
a(F1.1521868746070376
S'Cell[2].dend[8] syn_ = new FastInhib(0.5)'
p967
I2
g958
I165
I132
tp968
a(F1.7795813587182978
S'Cell[0].dend[11] syn_ = new ExpSid(0.166666666667)'
p969
I0
(dp970
g939
F0.8333333333333333
sg940
F21.0
sg941
I165
sg942
g7
(g8
(I0
tp971
g10
tp972
Rp973
(I1
(I3
tp974
g949
I00
S'va\x0c\xde\x85T\x19@\xd6\xd8\xd4\x8a\x83\xacV\xc0\xc0m\xcd\xa0\n\xd4.\xc0'
p975
tp976
bsg954
S'Cell[3].axon[236]'
p977
sI165
I36
tp978
a(F2.296000215061582
S'Cell[2].dend[11] syn_ = new FastInhib(0.3)'
p979
I2
(dp980
g939
F0.5
sg940
F21.0
sg941
I117
sg942
g7
(g8
(I0
tp981
g10
tp982
Rp983
(I1
(I3
tp984
g949
I00
S'\xde\xdd*\xecJ\x1a3\xc0\xe4\x81;\xd9\x80\xbc?@\x00\x00\x00\xa0p\xbd-\xc0'
p985
tp986
bsg954
S'Cell[2].axon[15]'
p987
sI117
I132
tp988
a(F1.646365766846181
S'Cell[2].dend[19] syn_ = new FastInhib(0.833333333333)'
p989
I2
(dp990
g939
F0.5
sg940
F21.0
sg941
I117
sg942
g7
(g8
(I0
tp991
g10
tp992
Rp993
(I1
(I3
tp994
g949
I00
S'\x04:\x05\x85\x0e\xc5H@\x8c~\xe5\xa6\x96\xb5E@\x00\x00\x00\x80\xc2u9\xc0'
p995
tp996
bsg954
S'Cell[2].axon[36]'
p997
sI117
I132
tp998
a(F1.9056649430785706
S'Cell[1].dend[35] syn_ = new FastInhib(0.5)'
p999
I1
(dp1000
g939
F0.5
sg940
F21.0
sg941
I117
sg942
g7
(g8
(I0
tp1001
g10
tp1002
Rp1003
(I1
(I3
tp1004
g949
I00
S'(?qU=nH\xc0\xd0\xae\x11X10c@\x00\x00\x00\x80\xc2u9\xc0'
p1005
tp1006
bsg954
S'Cell[2].axon[186]'
p1007
sI117
I84
tp1008
a(F1.8327109030848376
S'Cell[2].dend[19] syn_ = new FastInhib(0.833333333333)'
p1009
I2
(dp1010
g939
F0.5
sg940
F21.0
sg941
I117
sg942
g7
(g8
(I0
tp1011
g10
tp1012
Rp1013
(I1
(I3
tp1014
g949
I00
S'\x9aU5/!:I@i\xf7\xa4n\xa6\x9bE@\x88\xfa\xb4\xcdp\xd18\xc0'
p1015
tp1016
bsg954
S'Cell[2].axon[353]'
p1017
sI117
I132
tp1018
a(F2.2666092406815164
S'Cell[1].dend[46] syn_ = new FastInhib(0.5)'
p1019
I1
(dp1020
g939
F0.5
sg940
F21.0
sg941
I117
sg942
g7
(g8
(I0
tp1021
g10
tp1022
Rp1023
(I1
(I3
tp1024
g949
I00
S'\xf7l\x04d\xd0\xae6\xc0\x91\xcc\xab\xc8a\x8c&@\xc8\xce\x9dh\xa7\xfb1\xc0'
p1025
tp1026
bsg954
S'Cell[2].axon[357]'
p1027
sI117
I84
tp1028
a(F0.9490348689777188
S'Cell[1].dend[46] syn_ = new FastInhib(0.5)'
p1029
I1
(dp1030
g939
F0.8333333333333333
sg940
F21.0
sg941
I117
sg942
g7
(g8
(I0
tp1031
g10
tp1032
Rp1033
(I1
(I3
tp1034
g949
I00
S'\x84\xb9&\x00~\x9e7\xc0\xb20.\xd5\xf4\xe8#@\xe8,\x91\x12\xbe\xda1\xc0'
p1035
tp1036
bsg954
S'Cell[2].axon[359]'
p1037
sI117
I84
tp1038
a(F1.9703036753339769
S'Cell[0].dend[71] syn_ = new ExpSid(0.3)'
p1039
I0
(dp1040
g939
F0.7
sg940
F21.0
sg941
I21
sg942
g7
(g8
(I0
tp1041
g10
tp1042
Rp1043
(I1
(I3
tp1044
g949
I00
S'\xcc\xaf\x02\xbeF\xd0R@\xcc!\x19k\xeb\xcb.\xc0\xd8y|Z9a"\xc0'
p1045
tp1046
bsg954
S'Cell[0].axon[61]'
p1047
sI21
I36
tp1048
a(F1.4697436051516302
S'Cell[0].dend[40] syn_ = new AmpaNmda(0.0714285714286)'
p1049
I0
(dp1050
S'seg'
p1051
F0.16666666666666666
sS'hostfrom'
p1052
F22.0
sS'gid'
p1053
I118
sS'coords'
p1054
g7
(g8
(I0
tp1055
g10
tp1056
Rp1057
(I1
(I3
tp1058
g14
(S'f8'
p1059
I0
I1
tp1060
Rp1061
(I3
S'<'
p1062
NNNI-1
I-1
I0
tp1063
bI00
S'\x1a\x9e\xa6\xae\x1e\x02N@\xd5\x08.?t\x1dQ\xc0\xdf8f;\xbbF4@'
p1064
tp1065
bsS'secnames'
p1066
S'Cell[2].axon[22]'
p1067
sI118
I36
tp1068
a(F1.5258810772770293
S'Cell[2].dend[0] syn_ = new FastInhib(0.9)'
p1069
I2
(dp1070
g1051
F0.16666666666666666
sg1052
F22.0
sg1053
I118
sg1054
g7
(g8
(I0
tp1071
g10
tp1072
Rp1073
(I1
(I3
tp1074
g1061
I00
S'\xf8\xa8\x92\xbc\xbaLQ@a\xa6\xa8`\xa3\xe7S\xc0|\x16\xc0\xe4K\xd8;\xc0'
p1075
tp1076
bsg1066
S'Cell[2].axon[221]'
p1077
sI118
I132
tp1078
a(F2.3338949608304587
S'Cell[3].dend[32] syn_ = new FastInhib(0.166666666667)'
p1079
I3
(dp1080
g1051
F0.5
sg1052
F22.0
sg1053
I166
sg1054
g7
(g8
(I0
tp1081
g10
tp1082
Rp1083
(I1
(I3
tp1084
g1061
I00
S'\xb2\xfb\x1a\x10\xb1\xaeF@\xa8\xfd\xc4\xc8@nB@\x00\x00\x00\x80=\n$@'
p1085
tp1086
bsg1066
S'Cell[3].axon[244]'
p1087
sI166
I180
tp1088
a(F1.5525065957694166
S'Cell[3].dend[1] syn_ = new FastInhib(0.5)'
p1089
I3
(dp1090
S'seg'
p1091
F0.5
sS'hostfrom'
p1092
F23.0
sS'gid'
p1093
I71
sS'coords'
p1094
g7
(g8
(I0
tp1095
g10
tp1096
Rp1097
(I1
(I3
tp1098
g14
(S'f8'
p1099
I0
I1
tp1100
Rp1101
(I3
S'<'
p1102
NNNI-1
I-1
I0
tp1103
bI00
S'P@\xc3*\xf5\xa6\x0c@J2\xb4\x85\x8f\xca\x11\xc0\x1e\xef\xe0C\xc8\xb4\x15@'
p1104
tp1105
bsS'secnames'
p1106
S'Cell[1].axon[0]'
p1107
sI71
I180
tp1108
a(F1.8143345901919938
S'Cell[2].dend[15] syn_ = new FastInhib(0.5)'
p1109
I2
(dp1110
g1091
F0.6111111111111112
sg1092
F23.0
sg1093
I167
sg1094
g7
(g8
(I0
tp1111
g10
tp1112
Rp1113
(I1
(I3
tp1114
g1101
I00
S'\xe4\x97\xb3\x9a:\xc4!@;i>k\xae\x989@\x04\x89J{ \x9d/@'
p1115
tp1116
bsg1106
S'Cell[3].axon[1]'
p1117
sI167
I132
tp1118
a(F1.4753639425788598
S'Cell[1].dend[5] syn_ = new FastInhib(0.5)'
p1119
I1
(dp1120
g1091
F0.16666666666666666
sg1092
F23.0
sg1093
I167
sg1094
g7
(g8
(I0
tp1121
g10
tp1122
Rp1123
(I1
(I3
tp1124
g1101
I00
S'\xf8@b\xaf\xd7\xd32\xc0\xdaUGzd\xbdM\xc0\xa2\xc8R\x88+\xd0\x1d\xc0'
p1125
tp1126
bsg1106
S'Cell[3].axon[21]'
p1127
sI167
I84
tp1128
a(F1.9097179692349535
S'Cell[2].dend[6] syn_ = new FastInhib(0.5)'
p1129
I2
(dp1130
g1091
F0.16666666666666666
sg1092
F23.0
sg1093
I167
sg1094
g7
(g8
(I0
tp1131
g10
tp1132
Rp1133
(I1
(I3
tp1134
g1101
I00
S'\xaet\x10\xa1\xf2j2\xc0n\xb4/\x0c[\x18:@\xa0\xdc\xd4N(\x9a\x1a\xc0'
p1135
tp1136
bsg1106
S'Cell[3].axon[168]'
p1137
sI167
I132
tp1138
a(F2.4916634720582516
S'Cell[1].dend[68] syn_ = new FastInhib(0.5)'
p1139
I1
(dp1140
S'seg'
p1141
F0.05555555555555555
sS'hostfrom'
p1142
F24.0
sS'gid'
p1143
I72
sS'coords'
p1144
g7
(g8
(I0
tp1145
g10
tp1146
Rp1147
(I1
(I3
tp1148
g14
(S'f8'
p1149
I0
I1
tp1150
Rp1151
(I3
S'<'
p1152
NNNI-1
I-1
I0
tp1153
bI00
S'\xb4\xbc\xd9\x13\xdb\xacW@?\x84\xcaF\xce9/\xc0\x83\x82\xbd%\xd5[9\xc0'
p1154
tp1155
bsS'secnames'
p1156
S'Cell[1].axon[24]'
p1157
sI72
I84
tp1158
a(F1.6941691524040785
S'Cell[0].dend[29] syn_ = new AmpaNmda(0.166666666667)'
p1159
I0
(dp1160
g1141
F0.5
sg1142
F24.0
sg1143
I120
sg1144
g7
(g8
(I0
tp1161
g10
tp1162
Rp1163
(I1
(I3
tp1164
g1151
I00
S'\xba_\x81g#\xc4+@\xe9\x9f\x0b\xc4\xfd\x00a\xc0\xe9Y\r^\xc7:6@'
p1165
tp1166
bsg1156
S'Cell[2].axon[107]'
p1167
sI120
I36
tp1168
a(F2.141537275107742
S'Cell[0].dend[3] syn_ = new AmpaNmda(0.5)'
p1169
I0
(dp1170
g1141
F0.5
sg1142
F24.0
sg1143
I120
sg1144
g7
(g8
(I0
tp1171
g10
tp1172
Rp1173
(I1
(I3
tp1174
g1151
I00
S'pD\x0f]n#\xc3?\xc8\xcc\xdb\xf4\xe1\x02L\xc0\x0f\xe4\x99\x7fS\x994\xc0'
p1175
tp1176
bsg1156
S'Cell[2].axon[261]'
p1177
sI120
I36
tp1178
a(F2.020129805343903
S'Cell[0].dend[4] syn_ = new AmpaNmda(0.5)'
p1179
I0
(dp1180
g1141
F0.07142857142857142
sg1142
F24.0
sg1143
I120
sg1144
g7
(g8
(I0
tp1181
g10
tp1182
Rp1183
(I1
(I3
tp1184
g1151
I00
S'\xb2\x8fuK\x9c\xd6\x10\xc0\xef\x13N\x93\x1b\x16O\xc0(\x8c\r-^\xdc/\xc0'
p1185
tp1186
bsg1156
S'Cell[2].axon[263]'
p1187
sI120
I36
tp1188
a(F2.0137606269632946
S'Cell[1].dend[70] syn_ = new FastInhib(0.3)'
p1189
I1
(dp1190
S'seg'
p1191
F0.5
sS'hostfrom'
p1192
F25.0
sS'gid'
p1193
I121
sS'coords'
p1194
g7
(g8
(I0
tp1195
g10
tp1196
Rp1197
(I1
(I3
tp1198
g14
(S'f8'
p1199
I0
I1
tp1200
Rp1201
(I3
S'<'
p1202
NNNI-1
I-1
I0
tp1203
bI00
S"\xb8RT+ 3G@B\xec6*\xaa\xde\x19@-'0\xf51\x1aP\xc0"
p1204
tp1205
bsS'secnames'
p1206
S'Cell[2].axon[92]'
p1207
sI121
I84
tp1208
a(F2.155813925049925
S'Cell[2].dend[37] syn_ = new FastInhib(0.833333333333)'
p1209
I2
(dp1210
g1191
F0.5
sg1192
F25.0
sg1193
I169
sg1194
g7
(g8
(I0
tp1211
g10
tp1212
Rp1213
(I1
(I3
tp1214
g1201
I00
S'aY\x89M\xaf[0\xc0\x92\xf9\x055\x98\x9aY\xc0\xd4\xefq\xed\xce\xe54@'
p1215
tp1216
bsg1206
S'Cell[3].axon[198]'
p1217
sI169
I132
tp1218
a(F1.7593186960331946
S'Cell[1].dend[9] syn_ = new FastInhib(0.9)'
p1219
I1
(dp1220
S'seg'
p1221
F0.21428571428571427
sS'hostfrom'
p1222
F26.0
sS'gid'
p1223
I122
sS'coords'
p1224
g7
(g8
(I0
tp1225
g10
tp1226
Rp1227
(I1
(I3
tp1228
g14
(S'f8'
p1229
I0
I1
tp1230
Rp1231
(I3
S'<'
p1232
NNNI-1
I-1
I0
tp1233
bI00
S'r\x8d\xfd-\x89\xb54@\xdd\x08?)\xacxp\xc0V5\x02B\xa3\xbfR\xc0'
p1234
tp1235
bsS'secnames'
p1236
S'Cell[2].axon[19]'
p1237
sI122
I84
tp1238
a(F1.429235412862687
S'Cell[1].dend[88] syn_ = new FastInhib(0.166666666667)'
p1239
I1
(dp1240
g1221
F0.8333333333333333
sg1222
F26.0
sg1223
I170
sg1224
g7
(g8
(I0
tp1241
g10
tp1242
Rp1243
(I1
(I3
tp1244
g1231
I00
S'\xe7\x9aV\xceG\xd9=\xc0\xcdVdG\x92\xedL@\x00\x00\x00@33#@'
p1245
tp1246
bsg1236
S'Cell[3].axon[459]'
p1247
sI170
I84
tp1248
a(F2.0945936202402105
S'Cell[3].dend[33] syn_ = new FastInhib(0.5)'
p1249
I3
(dp1250
g1221
F0.16666666666666666
sg1222
F26.0
sg1223
I170
sg1224
g7
(g8
(I0
tp1251
g10
tp1252
Rp1253
(I1
(I3
tp1254
g1231
I00
S'\x81~\x02\xa7\x85\x102@_\x03`fl-G@(\x06\x97+->4\xc0'
p1255
tp1256
bsg1236
S'Cell[3].axon[473]'
p1257
sI170
I180
tp1258
a(F2.451465232413308
S'Cell[2].dend[33] syn_ = new FastInhib(0.5)'
p1259
I2
(dp1260
S'seg'
p1261
F0.1
sS'hostfrom'
p1262
F27.0
sS'gid'
p1263
I123
sS'coords'
p1264
g7
(g8
(I0
tp1265
g10
tp1266
Rp1267
(I1
(I3
tp1268
g14
(S'f8'
p1269
I0
I1
tp1270
Rp1271
(I3
S'<'
p1272
NNNI-1
I-1
I0
tp1273
bI00
S"\x96f\xe5\x10\x07\x9e'\xc0\x00\x00\x00`f\xd6X\xc0\x00\x00\x00\x00\xd7\xe3?\xc0"
p1274
tp1275
bsS'secnames'
p1276
S'Cell[2].axon[42]'
p1277
sI123
I132
tp1278
a(F2.2108866663474815
S'Cell[0].dend[29] syn_ = new ExpSid(0.5)'
p1279
I0
(dp1280
g1261
F0.1
sg1262
F27.0
sg1263
I75
sg1264
g7
(g8
(I0
tp1281
g10
tp1282
Rp1283
(I1
(I3
tp1284
g1271
I00
S'\x9e\x9f~\x8cJE1@\xc6\xe68^\x80\xccb\xc0\x19\x06\x93\xe6\xda\xe7+@'
p1285
tp1286
bsg1276
S'Cell[1].axon[23]'
p1287
sI75
I36
tp1288
a(F2.2263690366683355
S'Cell[2].dend[0] syn_ = new FastInhib(0.7)'
p1289
I2
(dp1290
S'seg'
p1291
F0.038461538461538464
sS'hostfrom'
p1292
F28.0
sS'gid'
p1293
I76
sS'coords'
p1294
g7
(g8
(I0
tp1295
g10
tp1296
Rp1297
(I1
(I3
tp1298
g14
(S'f8'
p1299
I0
I1
tp1300
Rp1301
(I3
S'<'
p1302
NNNI-1
I-1
I0
tp1303
bI00
S'W\x8b\xebM \xf3I@\xc5\x7f}z\x86\xefQ\xc0\x9d"\x18\x1f\xe69<\xc0'
p1304
tp1305
bsS'secnames'
p1306
S'Cell[1].axon[3]'
p1307
sI76
I132
tp1308
a(F1.3980949055483687
S'Cell[0].dend[32] syn_ = new AmpaNmda(0.5)'
p1309
I0
(dp1310
g1291
F0.5
sg1292
F28.0
sg1293
I124
sg1294
g7
(g8
(I0
tp1311
g10
tp1312
Rp1313
(I1
(I3
tp1314
g1301
I00
S'C\xffl(LE@@(\xecz\xda\xef\xf1Q\xc0\xd8h\xd6\xf3$.$\xc0'
p1315
tp1316
bsg1306
S'Cell[2].axon[0]'
p1317
sI124
I36
tp1318
a(F2.3567526919517343
S'Cell[0].dend[19] syn_ = new ExpSid(0.166666666667)'
p1319
I0
(dp1320
S'seg'
p1321
F0.1
sS'hostfrom'
p1322
F29.0
sS'gid'
p1323
I125
sS'coords'
p1324
g7
(g8
(I0
tp1325
g10
tp1326
Rp1327
(I1
(I3
tp1328
g14
(S'f8'
p1329
I0
I1
tp1330
Rp1331
(I3
S'<'
p1332
NNNI-1
I-1
I0
tp1333
bI00
S'\xaf\xf8\x9c\x8a\xbe\x17>\xc0\xf0\x0b\xfc\xee\x87\xcdQ\xc0\x00\x00\x00\xc0\x1e\x05D@'
p1334
tp1335
bsS'secnames'
p1336
S'Cell[2].axon[221]'
p1337
sI125
I36
tp1338
a(F2.1391702091951807
S'Cell[2].dend[41] syn_ = new FastInhib(0.5)'
p1339
I2
(dp1340
g1321
F0.5
sg1322
F29.0
sg1323
I77
sg1324
g7
(g8
(I0
tp1341
g10
tp1342
Rp1343
(I1
(I3
tp1344
g1331
I00
S'>\x9a\xcb%\xe7\xb7A@+AC6\xee\x9cP\xc0\x00\x00\x00\xc0\xcc\xcc\xf0\xbf'
p1345
tp1346
bsg1336
S'Cell[1].axon[20]'
p1347
sI77
I132
tp1348
a(F1.918827641337477
S'Cell[1].dend[40] syn_ = new FastInhib(0.5)'
p1349
I1
(dp1350
S'seg'
p1351
F0.30000000000000004
sS'hostfrom'
p1352
F30.0
sS'gid'
p1353
I126
sS'coords'
p1354
g7
(g8
(I0
tp1355
g10
tp1356
Rp1357
(I1
(I3
tp1358
g14
(S'f8'
p1359
I0
I1
tp1360
Rp1361
(I3
S'<'
p1362
NNNI-1
I-1
I0
tp1363
bI00
S'\xc6\xa48\x13\xf847\xc0\xbc\x8d\xc4\xd0\xfex\xf7?]P\x16\x05\xc6\xf01\xc0'
p1364
tp1365
bsS'secnames'
p1366
S'Cell[2].axon[50]'
p1367
sI126
I84
tp1368
a(F1.364112065200854
S'Cell[0].dend[5] syn_ = new AmpaNmda(0.1)'
p1369
I0
(dp1370
g1351
F0.5
sg1352
F30.0
sg1353
I30
sg1354
g7
(g8
(I0
tp1371
g10
tp1372
Rp1373
(I1
(I3
tp1374
g1361
I00
S'E!\xc8\xeb\xa2\xb0&\xc0L\xd0\x14\x9d\n\xd6O\xc0\xd4\x8cc\xfe,l5\xc0'
p1375
tp1376
bsg1366
S'Cell[0].axon[0]'
p1377
sI30
I36
tp1378
a(F1.968036886059244
S'Cell[1].dend[2] syn_ = new FastInhib(0.214285714286)'
p1379
I1
(dp1380
g1351
F0.5
sg1352
F30.0
sg1353
I174
sg1354
g7
(g8
(I0
tp1381
g10
tp1382
Rp1383
(I1
(I3
tp1384
g1361
I00
S"\xe0\xb7\x9c'\x1cSF\xc0\xf7\xac\xb5\xf0\xe5iX\xc06H70j\x1f2\xc0"
p1385
tp1386
bsg1366
S'Cell[3].axon[2]'
p1387
sI174
I84
tp1388
a(F0.6003265553401248
S'Cell[1].dend[45] syn_ = new FastInhib(0.5)'
p1389
I1
(dp1390
g1351
F0.5
sg1352
F30.0
sg1353
I174
sg1354
g7
(g8
(I0
tp1391
g10
tp1392
Rp1393
(I1
(I3
tp1394
g1361
I00
S'\xe0\xbe~\xf9Ur<\xc0\xde\xe8\x9b\xa9\x7fg\x15@\x00\x00\x00\xc0\xcc\x0c1\xc0'
p1395
tp1396
bsg1366
S'Cell[3].axon[84]'
p1397
sI174
I84
tp1398
a(F0.5355138884132788
S'Cell[1].dend[41] syn_ = new FastInhib(0.5)'
p1399
I1
(dp1400
S'seg'
p1401
F0.5
sS'hostfrom'
p1402
F31.0
sS'gid'
p1403
I175
sS'coords'
p1404
g7
(g8
(I0
tp1405
g10
tp1406
Rp1407
(I1
(I3
tp1408
g14
(S'f8'
p1409
I0
I1
tp1410
Rp1411
(I3
S'<'
p1412
NNNI-1
I-1
I0
tp1413
bI00
S'\xc8D\xf4im\xc8\x01@{\x1c\x0eN\x9d\xac7@6I\xc4\xed\x9e2I\xc0'
p1414
tp1415
bsS'secnames'
p1416
S'Cell[3].axon[330]'
p1417
sI175
I84
tp1418
a(F2.1080221005777275
S'Cell[0].dend[43] syn_ = new AmpaNmda(0.166666666667)'
p1419
I0
(dp1420
S'seg'
p1421
F0.16666666666666666
sS'hostfrom'
p1422
F32.0
sS'gid'
p1423
I176
sS'coords'
p1424
g7
(g8
(I0
tp1425
g10
tp1426
Rp1427
(I1
(I3
tp1428
g14
(S'f8'
p1429
I0
I1
tp1430
Rp1431
(I3
S'<'
p1432
NNNI-1
I-1
I0
tp1433
bI00
S'\xb0k\xa9\x95\xd4.G@\xd0\x95\xf8\x0b\xa7\xdfQ\xc0\t\x1a39%|&\xc0'
p1434
tp1435
bsS'secnames'
p1436
S'Cell[3].axon[1]'
p1437
sI176
I36
tp1438
a(F1.7033577126249306
S'Cell[0].dend[6] syn_ = new AmpaNmda(0.1)'
p1439
I0
(dp1440
g1421
F0.30000000000000004
sg1422
F32.0
sg1423
I176
sg1424
g7
(g8
(I0
tp1441
g10
tp1442
Rp1443
(I1
(I3
tp1444
g1431
I00
S'"Z\xf2%\xef1.\xc0\xe5ke\xc0t\x9cR\xc0z\x8d\xfa\x986\xb2\x0b\xc0'
p1445
tp1446
bsg1436
S'Cell[3].axon[97]'
p1447
sI176
I36
tp1448
a(F2.109829143776331
S'Cell[2].dend[34] syn_ = new FastInhib(0.833333333333)'
p1449
I2
(dp1450
g1421
F0.5
sg1422
F32.0
sg1423
I176
sg1424
g7
(g8
(I0
tp1451
g10
tp1452
Rp1453
(I1
(I3
tp1454
g1431
I00
S'\x93\xea\xe8\xda\xa2\xf6B@&\x12\xec\xd1\x1b\xb3]\xc0,$J!<\xd5!\xc0'
p1455
tp1456
bsg1436
S'Cell[3].axon[98]'
p1457
sI176
I132
tp1458
a(F1.7904447572692002
S'Cell[2].dend[20] syn_ = new FastInhib(0.5)'
p1459
I2
(dp1460
S'seg'
p1461
F0.8333333333333335
sS'hostfrom'
p1462
F34.0
sS'gid'
p1463
I82
sS'coords'
p1464
g7
(g8
(I0
tp1465
g10
tp1466
Rp1467
(I1
(I3
tp1468
g14
(S'f8'
p1469
I0
I1
tp1470
Rp1471
(I3
S'<'
p1472
NNNI-1
I-1
I0
tp1473
bI00
S'\x82\xc4l\xa2\xa1\xb3L@nP\xeb\x01\xbb}\x0c\xc0\x98\xf9z\xc2\x8cR&\xc0'
p1474
tp1475
bsS'secnames'
p1476
S'Cell[1].axon[132]'
p1477
sI82
I132
tp1478
a(F1.973681960203925
S'Cell[2].dend[2] syn_ = new FastInhib(0.5)'
p1479
I2
(dp1480
g1461
F0.7
sg1462
F34.0
sg1463
I82
sg1464
g7
(g8
(I0
tp1481
g10
tp1482
Rp1483
(I1
(I3
tp1484
g1471
I00
S'\xa4i\xa1"^D%@\xc6\xd4K\xb8U\x00F\xc0\x00\x00\x00\xe0\xa30<\xc0'
p1485
tp1486
bsg1476
S'Cell[1].axon[207]'
p1487
sI82
I132
tp1488
a(F2.2222500084051493
S'Cell[1].dend[3] syn_ = new FastInhib(0.166666666667)'
p1489
I1
(dp1490
S'seg'
p1491
F0.16666666666666666
sS'hostfrom'
p1492
F35.0
sS'gid'
p1493
I179
sS'coords'
p1494
g7
(g8
(I0
tp1495
g10
tp1496
Rp1497
(I1
(I3
tp1498
g14
(S'f8'
p1499
I0
I1
tp1500
Rp1501
(I3
S'<'
p1502
NNNI-1
I-1
I0
tp1503
bI00
S'>*s\xc9q\xf8E\xc0}\xa1\x99\x8fK\x01I\xc0\x98\nv\xf5,u\x1d\xc0'
p1504
tp1505
bsS'secnames'
p1506
S'Cell[3].axon[179]'
p1507
sI179
I84
tp1508
a(F2.355558901088966
S'Cell[0].dend[6] syn_ = new ExpSid(0.3)'
p1509
I0
(dp1510
g1491
F0.8333333333333333
sg1492
F35.0
sg1493
I179
sg1494
g7
(g8
(I0
tp1511
g10
tp1512
Rp1513
(I1
(I3
tp1514
g1501
I00
S'\x94\xf9\xd4\\s\xa5@\xc0G\xaf\xec\xafLWX\xc0\xb4Lk\x9e\x8aG\xd7\xbf'
p1515
tp1516
bsg1506
S'Cell[3].axon[179]'
p1517
sI179
I36
tp1518
a(F1.9967616400121464
S'Cell[3].dend[34] syn_ = new FastInhib(0.5)'
p1519
I3
(dp1520
S'seg'
p1521
F0.16666666666666666
sS'hostfrom'
p1522
F36.0
sS'gid'
p1523
I84
sS'coords'
p1524
g7
(g8
(I0
tp1525
g10
tp1526
Rp1527
(I1
(I3
tp1528
g14
(S'f8'
p1529
I0
I1
tp1530
Rp1531
(I3
S'<'
p1532
NNNI-1
I-1
I0
tp1533
bI00
S'snH\xd1F\xae5@\xba\xc7\x97)\x19\xeaN@\xcc\xd5iy(\x0e@\xc0'
p1534
tp1535
bsS'secnames'
p1536
S'Cell[1].axon[512]'
p1537
sI84
I180
tp1538
a(F2.489888931372504
S'Cell[3].dend[19] syn_ = new FastInhib(0.166666666667)'
p1539
I3
(dp1540
g1521
F0.8333333333333333
sg1522
F36.0
sg1523
I84
sg1524
g7
(g8
(I0
tp1541
g10
tp1542
Rp1543
(I1
(I3
tp1544
g1531
I00
S'\xf1\xff\xa2\x85\x85\xf5+\xc0\ty\x85X\xbfA1@]\x95#c\x1d.G\xc0'
p1545
tp1546
bsg1536
S'Cell[1].axon[602]'
p1547
sI84
I180
tp1548
a(F2.161281025295215
S'Cell[0].dend[4] syn_ = new AmpaNmda(0.5)'
p1549
I0
(dp1550
g1521
F0.9285714285714284
sg1522
F36.0
sg1523
I132
sg1524
g7
(g8
(I0
tp1551
g10
tp1552
Rp1553
(I1
(I3
tp1554
g1531
I00
S'\x1c\x84P\xf9\xa9T\x0f\xc0\xcag\xa5$\x1e\x13O\xc0y\x7f~\xf4x\xdd-\xc0'
p1555
tp1556
bsg1536
S'Cell[2].axon[28]'
p1557
sI132
I36
tp1558
a(F1.4369258526776998
S'Cell[2].dend[27] syn_ = new FastInhib(0.5)'
p1559
I2
(dp1560
S'seg'
p1561
F0.5
sS'hostfrom'
p1562
F37.0
sS'gid'
p1563
I133
sS'coords'
p1564
g7
(g8
(I0
tp1565
g10
tp1566
Rp1567
(I1
(I3
tp1568
g14
(S'f8'
p1569
I0
I1
tp1570
Rp1571
(I3
S'<'
p1572
NNNI-1
I-1
I0
tp1573
bI00
S"\x81\xbe\xae#\xa2\xc0\x10@.\xb0\x8e\xa8'\xd8S\xc0\xe0\xaa[qxj#\xc0"
p1574
tp1575
bsS'secnames'
p1576
S'Cell[2].axon[34]'
p1577
sI133
I132
tp1578
a(F2.453848822952923
S'Cell[2].dend[25] syn_ = new FastInhib(0.5)'
p1579
I2
(dp1580
g1561
F0.16666666666666666
sg1562
F37.0
sg1563
I133
sg1564
g7
(g8
(I0
tp1581
g10
tp1582
Rp1583
(I1
(I3
tp1584
g1571
I00
S',\x89\xae\xa8\xbdH\x1b@2"(\x1eM\xd2K\xc0\xebHV\xb4\xd4\xd4\x13\xc0'
p1585
tp1586
bsg1576
S'Cell[2].axon[87]'
p1587
sI133
I132
tp1588
a(F1.360683404638099
S'Cell[2].dend[26] syn_ = new FastInhib(0.5)'
p1589
I2
(dp1590
g1561
F0.16666666666666666
sg1562
F37.0
sg1563
I133
sg1564
g7
(g8
(I0
tp1591
g10
tp1592
Rp1593
(I1
(I3
tp1594
g1571
I00
S'{<\x06\x9c\xae\xd8\x12@\x99\xd3\x9c\xb9\x1b\x17P\xc0\xb8|\xe8k\xd0\xf2!\xc0'
p1595
tp1596
bsg1576
S'Cell[2].axon[104]'
p1597
sI133
I132
tp1598
a(F2.299929888114585
S'Cell[2].dend[12] syn_ = new FastInhib(0.5)'
p1599
I2
(dp1600
g1561
F0.21428571428571427
sg1562
F37.0
sg1563
I181
sg1564
g7
(g8
(I0
tp1601
g10
tp1602
Rp1603
(I1
(I3
tp1604
g1571
I00
S'l\xbf\x18\x9b>\x04\xfc?\xd0&\xf3\xef\xf7\xe9Q@\x94\xaa\xfc\x13p\xee6\xc0'
p1605
tp1606
bsg1576
S'Cell[3].axon[272]'
p1607
sI181
I132
tp1608
a(F1.656927558916277
S'Cell[1].dend[37] syn_ = new FastInhib(0.9)'
p1609
I1
(dp1610
g1561
F0.11538461538461539
sg1562
F37.0
sg1563
I85
sg1564
g7
(g8
(I0
tp1611
g10
tp1612
Rp1613
(I1
(I3
tp1614
g1571
I00
S'3\x0b\x0c\x19m#S\xc0\x9b<\x86\x89&\xeak@|/\x84G\x08o4\xc0'
p1615
tp1616
bsg1576
S'Cell[1].axon[164]'
p1617
sI85
I84
tp1618
a(F1.8454745060612168
S'Cell[1].dend[49] syn_ = new FastInhib(0.5)'
p1619
I1
(dp1620
S'seg'
p1621
F0.8333333333333333
sS'hostfrom'
p1622
F38.0
sS'gid'
p1623
I182
sS'coords'
p1624
g7
(g8
(I0
tp1625
g10
tp1626
Rp1627
(I1
(I3
tp1628
g14
(S'f8'
p1629
I0
I1
tp1630
Rp1631
(I3
S'<'
p1632
NNNI-1
I-1
I0
tp1633
bI00
S'\x864\x90VV\xfb7@y\x02\xe5\xe04\x12?@\x8d\xaf\xfd\xc7DN\x1f\xc0'
p1634
tp1635
bsS'secnames'
p1636
S'Cell[3].axon[0]'
p1637
sI182
I84
tp1638
a(F2.3863289700062307
S'Cell[0].dend[65] syn_ = new AmpaNmda(0.5)'
p1639
I0
(dp1640
g1621
F0.5
sg1622
F38.0
sg1623
I182
sg1624
g7
(g8
(I0
tp1641
g10
tp1642
Rp1643
(I1
(I3
tp1644
g1631
I00
S'\xf2\x83\xa6y\x9a\xab2@\xea\x0e"\r\xd0\xd65\xc0\xc1\xf0\xea!g\xca\xf3\xbf'
p1645
tp1646
bsg1636
S'Cell[3].axon[288]'
p1647
sI182
I36
tp1648
a(F2.060557521401595
S'Cell[2].dend[26] syn_ = new FastInhib(0.5)'
p1649
I2
(dp1650
g1621
F0.1
sg1622
F38.0
sg1623
I182
sg1624
g7
(g8
(I0
tp1651
g10
tp1652
Rp1653
(I1
(I3
tp1654
g1631
I00
S'\xe4\xa9\x91p<b\x17@\x10\xc7\x90H\xa7\xf3O\xc0\x00\x00\x00\x00\x00\x00!\xc0'
p1655
tp1656
bsg1636
S'Cell[3].axon[309]'
p1657
sI182
I132
tp1658
a(F2.0260028883861123
S'Cell[0].dend[5] syn_ = new AmpaNmda(0.1)'
p1659
I0
(dp1660
g1621
F0.5
sg1622
F38.0
sg1623
I86
sg1624
g7
(g8
(I0
tp1661
g10
tp1662
Rp1663
(I1
(I3
tp1664
g1631
I00
S'\x13\x88\x9d\xe0\xc7\xe2&\xc06R/\x12\xb1\xfaO\xc0X\xb1\x17\xa7<\x854\xc0'
p1665
tp1666
bsg1636
S'Cell[1].axon[212]'
p1667
sI86
I36
tp1668
a(F1.7953508970074368
S'Cell[0].dend[43] syn_ = new AmpaNmda(0.833333333333)'
p1669
I0
(dp1670
g1621
F0.16666666666666666
sg1622
F38.0
sg1623
I86
sg1624
g7
(g8
(I0
tp1671
g10
tp1672
Rp1673
(I1
(I3
tp1674
g1631
I00
S'\xca\x95\xe2\xe2N\x1fI@j\xc1G\x1ec\xb5R\xc0Yy\xac\t\xb9-:\xc0'
p1675
tp1676
bsg1636
S'Cell[1].axon[216]'
p1677
sI86
I36
tp1678
a(F1.9908641680756036
S'Cell[0].dend[43] syn_ = new ExpSid(0.833333333333)'
p1679
I0
(dp1680
S'seg'
p1681
F0.16666666666666666
sS'hostfrom'
p1682
F39.0
sS'gid'
p1683
I87
sS'coords'
p1684
g7
(g8
(I0
tp1685
g10
tp1686
Rp1687
(I1
(I3
tp1688
g14
(S'f8'
p1689
I0
I1
tp1690
Rp1691
(I3
S'<'
p1692
NNNI-1
I-1
I0
tp1693
bI00
S'MB&\x9c\x9b\xbcJ@*=\x9a\x11\x9f\x07S\xc0\x17E\xcc\xa1\xdb\xa5:\xc0'
p1694
tp1695
bsS'secnames'
p1696
S'Cell[1].axon[125]'
p1697
sI87
I36
tp1698
a(F2.046803452792181
S'Cell[0].dend[42] syn_ = new ExpSid(0.5)'
p1699
I0
(dp1700
g1681
F0.5
sg1682
F39.0
sg1683
I87
sg1684
g7
(g8
(I0
tp1701
g10
tp1702
Rp1703
(I1
(I3
tp1704
g1691
I00
S"\x8f\xc3*\xc4HDD@$\xb7\xaf(\x06\xadN\xc0'\xc4k\x11\xf2\xf5\x12\xc0"
p1705
tp1706
bsg1696
S'Cell[1].axon[143]'
p1707
sI87
I36
tp1708
a(F1.8007959081981508
S'Cell[3].dend[37] syn_ = new FastInhib(0.5)'
p1709
I3
(dp1710
g1681
F0.16666666666666666
sg1682
F39.0
sg1683
I135
sg1684
g7
(g8
(I0
tp1711
g10
tp1712
Rp1713
(I1
(I3
tp1714
g1691
I00
S'\x9e\xab\x1b!\xf0\x08C@\xf6\xc6\xa1a\xd6\x8aY@b\xc7B`\xd9\x1dV\xc0'
p1715
tp1716
bsg1696
S'Cell[2].axon[64]'
p1717
sI135
I180
tp1718
a(F1.7985270920957763
S'Cell[1].dend[62] syn_ = new FastInhib(0.833333333333)'
p1719
I1
(dp1720
g1681
F0.1
sg1682
F39.0
sg1683
I135
sg1684
g7
(g8
(I0
tp1721
g10
tp1722
Rp1723
(I1
(I3
tp1724
g1691
I00
S'\x99K\xb2\xb7\xf5\xa12@i\x94\x80\xd0\x19\\Z@\x00\x00\x00`\xb8\xfeQ\xc0'
p1725
tp1726
bsg1696
S'Cell[2].axon[149]'
p1727
sI135
I84
tp1728
a(F2.0388533741569668
S'Cell[3].dend[23] syn_ = new FastInhib(0.357142857143)'
p1729
I3
(dp1730
g1681
F0.05555555555555555
sg1682
F39.0
sg1683
I183
sg1684
g7
(g8
(I0
tp1731
g10
tp1732
Rp1733
(I1
(I3
tp1734
g1691
I00
S'\xa3\xd4\xb8\xa0\xfa\xef\x19\xc0Te\x90\xa2\xf1\xc7T@\xa7r\x84\xfah\xab\x1c@'
p1735
tp1736
bsg1696
S'Cell[3].axon[50]'
p1737
sI183
I180
tp1738
a(F1.350864856773365
S'Cell[3].dend[33] syn_ = new FastInhib(0.833333333333)'
p1739
I3
(dp1740
g1681
F0.5
sg1682
F39.0
sg1683
I183
sg1684
g7
(g8
(I0
tp1741
g10
tp1742
Rp1743
(I1
(I3
tp1744
g1691
I00
S'\x00\x00\x00\xb0G\xe15@\x00\x00\x00 \x85KL@\x00\x00\x00\xc0G\xa1:\xc0'
p1745
tp1746
bsg1696
S'Cell[3].axon[62]'
p1747
sI183
I180
tp1748
a(F1.5696017966048625
S'Cell[0].dend[68] syn_ = new ExpSid(0.833333333333)'
p1749
I0
(dp1750
g1681
F0.5
sg1682
F39.0
sg1683
I183
sg1684
g7
(g8
(I0
tp1751
g10
tp1752
Rp1753
(I1
(I3
tp1754
g1691
I00
S"w\xe0`\xf3\x0f\x88G@\xfb\x1d\x97\xa2\xdd|P\xc0\x00\x00\x00 \xae'D\xc0"
p1755
tp1756
bsg1696
S'Cell[3].axon[65]'
p1757
sI183
I36
tp1758
a(F1.3887964462329339
S'Cell[1].dend[88] syn_ = new FastInhib(0.166666666667)'
p1759
I1
(dp1760
g1681
F0.1
sg1682
F39.0
sg1683
I183
sg1684
g7
(g8
(I0
tp1761
g10
tp1762
Rp1763
(I1
(I3
tp1764
g1691
I00
S"\xc3p?\xc1\xa0\xc1>\xc0\x88\xae\t\xdb\xa4LM@\xf6`\xe9h2\x92'@"
p1765
tp1766
bsg1696
S'Cell[3].axon[150]'
p1767
sI183
I84
tp1768
a(F1.2343490379788058
S'Cell[1].dend[61] syn_ = new FastInhib(0.3)'
p1769
I1
(dp1770
g1681
F0.7
sg1682
F39.0
sg1683
I183
sg1684
g7
(g8
(I0
tp1771
g10
tp1772
Rp1773
(I1
(I3
tp1774
g1691
I00
S'\x0e\xe2$\xbf\xe7V5@\x0c\xe4\xf8\x15\xc7;V@\x1d-\xa9L>\x9dV\xc0'
p1775
tp1776
bsg1696
S'Cell[3].axon[163]'
p1777
sI183
I84
tp1778
a(F2.2980722031236214
S'Cell[3].dend[23] syn_ = new FastInhib(0.5)'
p1779
I3
(dp1780
g1681
F0.5
sg1682
F39.0
sg1683
I183
sg1684
g7
(g8
(I0
tp1781
g10
tp1782
Rp1783
(I1
(I3
tp1784
g1691
I00
S']P&<\xb36\x08\xc0P\xd8\xa9\xadM\xbcX@Y\xef\xb4\x1aQv$\xc0'
p1785
tp1786
bsg1696
S'Cell[3].axon[198]'
p1787
sI183
I180
tp1788
a(F2.499784461082417
S'Cell[3].dend[21] syn_ = new FastInhib(0.166666666667)'
p1789
I3
(dp1790
S'seg'
p1791
F0.5
sS'hostfrom'
p1792
F40.0
sS'gid'
p1793
I88
sS'coords'
p1794
g7
(g8
(I0
tp1795
g10
tp1796
Rp1797
(I1
(I3
tp1798
g14
(S'f8'
p1799
I0
I1
tp1800
Rp1801
(I3
S'<'
p1802
NNNI-1
I-1
I0
tp1803
bI00
S'\x91\xbb\xd0\xc5\xaf\xe5!@\xac=\x17\x9b\x88\x97\xf9\xbf`6\x98\x9a\x96\xdcD\xc0'
p1804
tp1805
bsS'secnames'
p1806
S'Cell[1].axon[117]'
p1807
sI88
I180
tp1808
a(F1.5490275682267995
S'Cell[3].dend[33] syn_ = new FastInhib(0.5)'
p1809
I3
(dp1810
g1791
F0.16666666666666666
sg1792
F40.0
sg1793
I88
sg1794
g7
(g8
(I0
tp1811
g10
tp1812
Rp1813
(I1
(I3
tp1814
g1801
I00
S'\xee\xb4~\x02\xc9\xbb1@E\xee\x96G\xe5\xbaF@\x00\x00\x00\xa0p\xbd4\xc0'
p1815
tp1816
bsg1806
S'Cell[1].axon[242]'
p1817
sI88
I180
tp1818
a(F2.4708348585812177
S'Cell[3].dend[25] syn_ = new FastInhib(0.166666666667)'
p1819
I3
(dp1820
g1791
F0.30000000000000004
sg1792
F40.0
sg1793
I88
sg1794
g7
(g8
(I0
tp1821
g10
tp1822
Rp1823
(I1
(I3
tp1824
g1801
I00
S'mM\xb8\xa8\xd2"/\xc0\x16\x9c\xb6:\x03P5@\x00\x00\x00\xc0\xf5h0@'
p1825
tp1826
bsg1806
S'Cell[1].axon[327]'
p1827
sI88
I180
tp1828
a(F2.4218404645008573
S'Cell[3].dend[25] syn_ = new FastInhib(0.166666666667)'
p1829
I3
(dp1830
g1791
F0.16666666666666666
sg1792
F40.0
sg1793
I184
sg1794
g7
(g8
(I0
tp1831
g10
tp1832
Rp1833
(I1
(I3
tp1834
g1801
I00
S'\xa5\xe7#\x02\xdbi/\xc0m5\xb8\x9f\xdfZ6@ \xf4\x83\xa6\xf2\xbc,@'
p1835
tp1836
bsg1806
S'Cell[3].axon[18]'
p1837
sI184
I180
tp1838
a(F2.4578237477384253
S'Cell[3].dend[35] syn_ = new FastInhib(0.357142857143)'
p1839
I3
(dp1840
g1791
F0.5
sg1792
F40.0
sg1793
I184
sg1794
g7
(g8
(I0
tp1841
g10
tp1842
Rp1843
(I1
(I3
tp1844
g1801
I00
S'\x93\xdc\xb8\xcc\x8e{@@\xe4\xcd4r\x0b\xd4W@x\xe9\xb0\xfb\x180I\xc0'
p1845
tp1846
bsg1806
S'Cell[3].axon[37]'
p1847
sI184
I180
tp1848
a(F1.558916998826177
S'Cell[3].dend[23] syn_ = new FastInhib(0.214285714286)'
p1849
I3
(dp1850
g1791
F0.5
sg1792
F40.0
sg1793
I184
sg1794
g7
(g8
(I0
tp1851
g10
tp1852
Rp1853
(I1
(I3
tp1854
g1801
I00
S'\x9a\x9e\xdb\x9e5\x06\xeb?\xd3LI-\x10\x8eM@\x00\x00\x00\xe0z\x14\x08\xc0'
p1855
tp1856
bsg1806
S'Cell[3].axon[60]'
p1857
sI184
I180
tp1858
a(F1.7452526813460656
S'Cell[2].dend[24] syn_ = new FastInhib(0.5)'
p1859
I2
(dp1860
g1791
F0.16666666666666666
sg1792
F40.0
sg1793
I184
sg1794
g7
(g8
(I0
tp1861
g10
tp1862
Rp1863
(I1
(I3
tp1864
g1801
I00
S'H\xed\x93O\x1e@\x08@bG\x03\x1c0\x99E\xc0\r\xdd\xd7\xa9?\x8e\xf1\xbf'
p1865
tp1866
bsg1806
S'Cell[3].axon[64]'
p1867
sI184
I132
tp1868
a(F1.9840415434081322
S'Cell[0].apic[9] syn_ = new ExpSid(0.833333333333)'
p1869
I0
(dp1870
S'seg'
p1871
F0.5
sS'hostfrom'
p1872
F41.0
sS'gid'
p1873
I185
sS'coords'
p1874
g7
(g8
(I0
tp1875
g10
tp1876
Rp1877
(I1
(I3
tp1878
g14
(S'f8'
p1879
I0
I1
tp1880
Rp1881
(I3
S'<'
p1882
NNNI-1
I-1
I0
tp1883
bI00
S"\x00\x00\x00@3\xf30\xc0\x00\x00\x00\x90\xc25'@\x00\x00\x00\xa0\x99\xd9.\xc0"
p1884
tp1885
bsS'secnames'
p1886
S'Cell[3].axon[77]'
p1887
sI185
I36
tp1888
a(F2.4247080461459394
S'Cell[0].apic[8] syn_ = new ExpSid(0.5)'
p1889
I0
(dp1890
g1871
F0.16666666666666666
sg1872
F41.0
sg1873
I185
sg1874
g7
(g8
(I0
tp1891
g10
tp1892
Rp1893
(I1
(I3
tp1894
g1881
I00
S'\xa6M;\x1d\xaf\x831@\x13M\x06\xd9wb\xfa\xbfa\x8fkwP\xf8"@'
p1895
tp1896
bsg1886
S'Cell[3].axon[287]'
p1897
sI185
I36
tp1898
a(F1.3814365999917075
S'Cell[2].dend[45] syn_ = new FastInhib(0.166666666667)'
p1899
I2
(dp1900
S'seg'
p1901
F0.045454545454545456
sS'hostfrom'
p1902
F42.0
sS'gid'
p1903
I90
sS'coords'
p1904
g7
(g8
(I0
tp1905
g10
tp1906
Rp1907
(I1
(I3
tp1908
g14
(S'f8'
p1909
I0
I1
tp1910
Rp1911
(I3
S'<'
p1912
NNNI-1
I-1
I0
tp1913
bI00
S'\xa5\x92\x92\x1c\x1b\x03(\xc0\x83\xa1\x9f\t\x18GP\xc0\x14e\xd5\xd6\xbb0,@'
p1914
tp1915
bsS'secnames'
p1916
S'Cell[1].axon[21]'
p1917
sI90
I132
tp1918
a(F2.2697050254769744
S'Cell[2].dend[45] syn_ = new FastInhib(0.5)'
p1919
I2
(dp1920
g1901
F0.07142857142857142
sg1902
F42.0
sg1903
I90
sg1904
g7
(g8
(I0
tp1921
g10
tp1922
Rp1923
(I1
(I3
tp1924
g1911
I00
S'\xce\nm\x8f\t?.\xc0\x9b\xa1\xc7\x06\xf4WQ\xc0\xd7]6\xfas\xc77@'
p1925
tp1926
bsg1916
S'Cell[1].axon[22]'
p1927
sI90
I132
tp1928
a(F2.2575313185533776
S'Cell[0].dend[21] syn_ = new AmpaNmda(0.166666666667)'
p1929
I0
(dp1930
g1901
F0.21428571428571427
sg1902
F42.0
sg1903
I90
sg1904
g7
(g8
(I0
tp1931
g10
tp1932
Rp1933
(I1
(I3
tp1934
g1911
I00
S'O\x15S\xf0l\x01)\xc0D\xb8T\xdaT\x18T\xc0\x8eu\xac\x13\xe0\xfe@@'
p1935
tp1936
bsg1916
S'Cell[1].axon[22]'
p1937
sI90
I36
tp1938
a(F2.287888464218253
S'Cell[0].dend[33] syn_ = new AmpaNmda(0.5)'
p1939
I0
(dp1940
g1901
F0.16666666666666666
sg1902
F42.0
sg1903
I90
sg1904
g7
(g8
(I0
tp1941
g10
tp1942
Rp1943
(I1
(I3
tp1944
g1911
I00
S'mB\xc9\xf6`\x9b6@l\xdc\xda\xad.\xafZ\xc0\xb2\t%{yV?\xc0'
p1945
tp1946
bsg1916
S'Cell[1].axon[133]'
p1947
sI90
I36
tp1948
a(F2.0947719001352443
S'Cell[1].dend[85] syn_ = new FastInhib(0.5)'
p1949
I1
(dp1950
g1901
F0.49999999999999994
sg1902
F42.0
sg1903
I90
sg1904
g7
(g8
(I0
tp1951
g10
tp1952
Rp1953
(I1
(I3
tp1954
g1911
I00
S'\x85\x8du\x0cN\xcdI\xc0\x1b\\Dm\xb7af@\x92!1\xfd6\xa24@'
p1955
tp1956
bsg1916
S'Cell[1].axon[187]'
p1957
sI90
I84
tp1958
a(F1.0685073438108372
S'Cell[3].dend[23] syn_ = new FastInhib(0.357142857143)'
p1959
I3
(dp1960
g1901
F0.8333333333333333
sg1902
F42.0
sg1903
I138
sg1904
g7
(g8
(I0
tp1961
g10
tp1962
Rp1963
(I1
(I3
tp1964
g1911
I00
S'\xa41\x91@\x9f\x81\x14\xc0\xbc\xf93\xb9\x00\xc8T@\xf0\xbb?~;\x06\x1e@'
p1965
tp1966
bsg1916
S'Cell[2].axon[155]'
p1967
sI138
I180
tp1968
a(F1.5725815635440918
S'Cell[2].dend[40] syn_ = new FastInhib(0.5)'
p1969
I2
(dp1970
g1901
F0.1
sg1902
F42.0
sg1903
I186
sg1904
g7
(g8
(I0
tp1971
g10
tp1972
Rp1973
(I1
(I3
tp1974
g1911
I00
S'9H\xaeB\xe6\xe7C\xc0\xe3\xdb\xa8^\xf8\rV\xc0!\xc0(\x8c?\xc6:\xc0'
p1975
tp1976
bsg1916
S'Cell[3].axon[44]'
p1977
sI186
I132
tp1978
a(F2.287182179700443
S'Cell[2].dend[35] syn_ = new FastInhib(0.5)'
p1979
I2
(dp1980
g1901
F0.1
sg1902
F42.0
sg1903
I186
sg1904
g7
(g8
(I0
tp1981
g10
tp1982
Rp1983
(I1
(I3
tp1984
g1911
I00
S'\xbc\xff\xe1E6h\x15\xc0\xb9!\xb0\xb9\x12\xdcQ\xc0\xe4 \xd6\xca\xc1\xcc\xf7?'
p1985
tp1986
bsg1916
S'Cell[3].axon[96]'
p1987
sI186
I132
tp1988
a(F2.305300607855419
S'Cell[1].dend[42] syn_ = new FastInhib(0.5)'
p1989
I1
(dp1990
S'seg'
p1991
F0.16666666666666666
sS'hostfrom'
p1992
F43.0
sS'gid'
p1993
I91
sS'coords'
p1994
g7
(g8
(I0
tp1995
g10
tp1996
Rp1997
(I1
(I3
tp1998
g14
(S'f8'
p1999
I0
I1
tp2000
Rp2001
(I3
S'<'
p2002
NNNI-1
I-1
I0
tp2003
bI00
S'OL{1`\x05Q@.\x84\xc4\x0c\x05cP@X\xcao\xd7k`T\xc0'
p2004
tp2005
bsS'secnames'
p2006
S'Cell[1].axon[217]'
p2007
sI91
I84
tp2008
a(F1.1333329874249034
S'Cell[3].dend[23] syn_ = new FastInhib(0.642857142857)'
p2009
I3
(dp2010
g1991
F0.5
sg1992
F43.0
sg1993
I91
sg1994
g7
(g8
(I0
tp2011
g10
tp2012
Rp2013
(I1
(I3
tp2014
g2001
I00
S'y\xc13\xc7\x03\xea\t@\xc4\x94\xbcU\xab\x0f_@\x00\x00\x00\x80\xebQ%\xc0'
p2015
tp2016
bsg2006
S'Cell[1].axon[228]'
p2017
sI91
I180
tp2018
a(F2.1874715894330703
S'Cell[2].dend[13] syn_ = new FastInhib(0.3)'
p2019
I2
(dp2020
g1991
F0.5
sg1992
F43.0
sg1993
I91
sg1994
g7
(g8
(I0
tp2021
g10
tp2022
Rp2023
(I1
(I3
tp2024
g2001
I00
S'\x00\x00\x00`\xb8~A@\x00\x00\x00 \x85\xfbA@\x00\x00\x00`f\xe62\xc0'
p2025
tp2026
bsg2006
S'Cell[1].axon[440]'
p2027
sI91
I132
tp2028
a(F1.5621738234205302
S'Cell[2].dend[13] syn_ = new FastInhib(0.1)'
p2029
I2
(dp2030
g1991
F0.16666666666666666
sg1992
F43.0
sg1993
I91
sg1994
g7
(g8
(I0
tp2031
g10
tp2032
Rp2033
(I1
(I3
tp2034
g2001
I00
S'^\xb9n\xaf\x1e\xfa,@\xde8\x94\xa6\xd9\xa24@\\~\x13\xf4\xfa(,\xc0'
p2035
tp2036
bsg2006
S'Cell[1].axon[444]'
p2037
sI91
I132
tp2038
a(F1.8566783870384762
S'Cell[3].dend[37] syn_ = new FastInhib(0.0714285714286)'
p2039
I3
(dp2040
g1991
F0.16666666666666666
sg1992
F43.0
sg1993
I91
sg1994
g7
(g8
(I0
tp2041
g10
tp2042
Rp2043
(I1
(I3
tp2044
g2001
I00
S'\x18l:\x16\xecR7@\xe2\xc4\xd5H\x93\xccR@\xbcZ\xea\xaf\x1e B\xc0'
p2045
tp2046
bsg2006
S'Cell[1].axon[500]'
p2047
sI91
I180
tp2048
a(F2.3672419310848007
S'Cell[1].dend[22] syn_ = new FastInhib(0.166666666667)'
p2049
I1
(dp2050
g1991
F0.8333333333333333
sg1992
F43.0
sg1993
I139
sg1994
g7
(g8
(I0
tp2051
g10
tp2052
Rp2053
(I1
(I3
tp2054
g2001
I00
S'.55\xc3\xb2\x1bQ\xc0\x89B\x96$\xfd\xad3@\xa9\x82I5\x8bG8\xc0'
p2055
tp2056
bsg2006
S'Cell[2].axon[400]'
p2057
sI139
I84
tp2058
a(F2.303900387395124
S'Cell[2].dend[41] syn_ = new FastInhib(0.166666666667)'
p2059
I2
(dp2060
g1991
F0.5
sg1992
F43.0
sg1993
I187
sg1994
g7
(g8
(I0
tp2061
g10
tp2062
Rp2063
(I1
(I3
tp2064
g2001
I00
S'\x86\xe6\x1b_0^0@Fm\xf7\xe9\xac\xc1H\xc0\xbcb7\xc5\x9b\x8a\x19\xc0'
p2065
tp2066
bsg2006
S'Cell[3].axon[44]'
p2067
sI187
I132
tp2068
a(F2.1566062930063685
S'Cell[0].apic[20] syn_ = new ExpSid(0.833333333333)'
p2069
I0
(dp2070
g1991
F0.5
sg1992
F43.0
sg1993
I187
sg1994
g7
(g8
(I0
tp2071
g10
tp2072
Rp2073
(I1
(I3
tp2074
g2001
I00
S'\x98\xe1\xb1\x1a\x10\xccT@\xed\x1c\x11)\xb4\xb8M@\x00\x00\x00`\xb8\x1e\xf1\xbf'
p2075
tp2076
bsg2006
S'Cell[3].axon[112]'
p2077
sI187
I36
tp2078
a(F2.038014319226568
S'Cell[1].dend[71] syn_ = new FastInhib(0.166666666667)'
p2079
I1
(dp2080
g1991
F0.5
sg1992
F43.0
sg1993
I187
sg1994
g7
(g8
(I0
tp2081
g10
tp2082
Rp2083
(I1
(I3
tp2084
g2001
I00
S'\x00\x00\x00\xf0(\\?\xc0\x00\x00\x00\xe0Q\x981@\x00\x00\x00`\x8f\x02.\xc0'
p2085
tp2086
bsg2006
S'Cell[3].axon[211]'
p2087
sI187
I84
tp2088
a(F1.5222277557263795
S'Cell[3].dend[23] syn_ = new FastInhib(0.357142857143)'
p2089
I3
(dp2090
S'seg'
p2091
F0.7
sS'hostfrom'
p2092
F44.0
sS'gid'
p2093
I92
sS'coords'
p2094
g7
(g8
(I0
tp2095
g10
tp2096
Rp2097
(I1
(I3
tp2098
g14
(S'f8'
p2099
I0
I1
tp2100
Rp2101
(I3
S'<'
p2102
NNNI-1
I-1
I0
tp2103
bI00
S'\x16=I\xafRz\r\xc0\xce\xf0\xe8\xfc\x88XT@\x91\xb0^h\xac7 @'
p2104
tp2105
bsS'secnames'
p2106
S'Cell[1].axon[211]'
p2107
sI92
I180
tp2108
a(F2.224126574889459
S'Cell[1].dend[47] syn_ = new FastInhib(0.5)'
p2109
I1
(dp2110
g2091
F0.8333333333333333
sg2092
F44.0
sg2093
I92
sg2094
g7
(g8
(I0
tp2111
g10
tp2112
Rp2113
(I1
(I3
tp2114
g2101
I00
S'P\xac\xec\xea\x89\x0e0\xc0\x82\xe21\xdd\xc5+4@\x00\x00\x00 \\O:\xc0'
p2115
tp2116
bsg2106
S'Cell[1].axon[216]'
p2117
sI92
I84
tp2118
a(F0.9970111287180666
S'Cell[1].dend[54] syn_ = new FastInhib(0.1)'
p2119
I1
(dp2120
g2091
F0.5
sg2092
F44.0
sg2093
I140
sg2094
g7
(g8
(I0
tp2121
g10
tp2122
Rp2123
(I1
(I3
tp2124
g2101
I00
S'\xa1\xce\xa1\x9fK\xb5&@\xfb8\xc9BHn3@\xca\xda\xfbL6\xb1A\xc0'
p2125
tp2126
bsg2106
S'Cell[2].axon[3]'
p2127
sI140
I84
tp2128
a(F1.7051740196049474
S'Cell[0].apic[12] syn_ = new AmpaNmda(0.5)'
p2129
I0
(dp2130
g2091
F0.8333333333333333
sg2092
F44.0
sg2093
I188
sg2094
g7
(g8
(I0
tp2131
g10
tp2132
Rp2133
(I1
(I3
tp2134
g2101
I00
S'\x96\xd3\xc5lJ\x18\x0f@3\xd8\x0f\xe4_RB@t\x94/\x14k>\x06\xc0'
p2135
tp2136
bsg2106
S'Cell[3].axon[1]'
p2137
sI188
I36
tp2138
a(F1.7538266145411636
S'Cell[1].dend[22] syn_ = new FastInhib(0.5)'
p2139
I1
(dp2140
g2091
F0.8333333333333333
sg2092
F44.0
sg2093
I188
sg2094
g7
(g8
(I0
tp2141
g10
tp2142
Rp2143
(I1
(I3
tp2144
g2101
I00
S'-\xd0&r\nMS\xc0\x01<\xaa\x1a8,7@9%\xc6\xbb\xb8\xc0\x12\xc0'
p2145
tp2146
bsg2106
S'Cell[3].axon[7]'
p2147
sI188
I84
tp2148
a(F1.594581384905392
S'Cell[2].dend[14] syn_ = new FastInhib(0.5)'
p2149
I2
(dp2150
g2091
F0.1
sg2092
F44.0
sg2093
I188
sg2094
g7
(g8
(I0
tp2151
g10
tp2152
Rp2153
(I1
(I3
tp2154
g2101
I00
S'\xd6\xca\x7fp\xf0m(@ \x9e?l\xa8R @\xd8\x87\xba\x8c<\xcc\x05@'
p2155
tp2156
bsg2106
S'Cell[3].axon[66]'
p2157
sI188
I132
tp2158
a(F1.0162875374205693
S'Cell[0].apic[9] syn_ = new AmpaNmda(0.166666666667)'
p2159
I0
g2150
I188
I36
tp2160
a(F2.4415052546744653
S'Cell[1].dend[38] syn_ = new FastInhib(0.166666666667)'
p2161
I1
(dp2162
g2091
F0.5
sg2092
F44.0
sg2093
I44
sg2094
g7
(g8
(I0
tp2163
g10
tp2164
Rp2165
(I1
(I3
tp2166
g2101
I00
S'\x1a\n\xe6uU\x96S\xc0\x01\x7f\xb4\xf9\xb7?[@B\xee\x02\x18L\xaf=\xc0'
p2167
tp2168
bsg2106
S'Cell[0].axon[4]'
p2169
sI44
I84
tp2170
a(F1.1308574313372852
S'Cell[1].dend[39] syn_ = new FastInhib(0.5)'
p2171
I1
(dp2172
g2091
F0.5
sg2092
F44.0
sg2093
I44
sg2094
g7
(g8
(I0
tp2173
g10
tp2174
Rp2175
(I1
(I3
tp2176
g2101
I00
S'\xa3\x80\x00\xc6\xcdi5\xc0#\xce<9\x85\xe4\x1a\xc0\x02D?\xd1\x964\xde\xbf'
p2177
tp2178
bsg2106
S'Cell[0].axon[17]'
p2179
sI44
I84
tp2180
a(F0.9689223223132202
S'Cell[0].apic[9] syn_ = new ExpSid(0.833333333333)'
p2181
I0
(dp2182
S'seg'
p2183
F0.8333333333333333
sS'hostfrom'
p2184
F45.0
sS'gid'
p2185
I141
sS'coords'
p2186
g7
(g8
(I0
tp2187
g10
tp2188
Rp2189
(I1
(I3
tp2190
g14
(S'f8'
p2191
I0
I1
tp2192
Rp2193
(I3
S'<'
p2194
NNNI-1
I-1
I0
tp2195
bI00
S'.\x93md\xeb\xaa1\xc0\xc6\x07#\x0b\xe5\x97$@\x00\x00\x00 \xaeG1\xc0'
p2196
tp2197
bsS'secnames'
p2198
S'Cell[2].axon[75]'
p2199
sI141
I36
tp2200
a(F0.6173921517571314
S'Cell[0].dend[55] syn_ = new ExpSid(0.166666666667)'
p2201
I0
(dp2202
g2183
F0.16666666666666666
sg2184
F45.0
sg2185
I141
sg2186
g7
(g8
(I0
tp2203
g10
tp2204
Rp2205
(I1
(I3
tp2206
g2193
I00
S'b\xa8\xe3\x06\x94iX@\x1awh\xb9\xd5\x8fU\xc0\xac\xeat\x1b\xf16?@'
p2207
tp2208
bsg2198
S'Cell[2].axon[153]'
p2209
sI141
I36
tp2210
a(F1.3547167981637847
S'Cell[1].dend[54] syn_ = new FastInhib(0.7)'
p2211
I1
(dp2212
g2183
F0.7
sg2184
F45.0
sg2185
I141
sg2186
g7
(g8
(I0
tp2213
g10
tp2214
Rp2215
(I1
(I3
tp2216
g2193
I00
S'\xab{\xa1\xd7\x0eHT@\x10Nb9\x04DD@\x00\x00\x00`\x8f\x92R\xc0'
p2217
tp2218
bsg2198
S'Cell[2].axon[536]'
p2219
sI141
I84
tp2220
a(F1.6955089875779132
S'Cell[2].dend[12] syn_ = new FastInhib(0.5)'
p2221
I2
(dp2222
g2183
F0.16666666666666666
sg2184
F45.0
sg2185
I93
sg2186
g7
(g8
(I0
tp2223
g10
tp2224
Rp2225
(I1
(I3
tp2226
g2193
I00
S'\xfe\xac_\xeb\xa2\x8d\x02@,\xa3\x89A9\xfbQ@n\xb8="=\xf84\xc0'
p2227
tp2228
bsg2198
S'Cell[1].axon[75]'
p2229
sI93
I132
tp2230
a(F1.5707950493839014
S'Cell[1].dend[77] syn_ = new FastInhib(0.3)'
p2231
I1
(dp2232
g2183
F0.05555555555555555
sg2184
F45.0
sg2185
I93
sg2186
g7
(g8
(I0
tp2233
g10
tp2234
Rp2235
(I1
(I3
tp2236
g2193
I00
S'4$\xb5M\xbc\xf7F\xc0\xd2\xca\x0c\t\xc70R@\xf9\x86\x03\xd1\x17UF\xc0'
p2237
tp2238
bsg2198
S'Cell[1].axon[85]'
p2239
sI93
I84
tp2240
a(F2.123893757734023
S'Cell[0].apic[8] syn_ = new ExpSid(0.5)'
p2241
I0
(dp2242
g2183
F0.8333333333333333
sg2184
F45.0
sg2185
I93
sg2186
g7
(g8
(I0
tp2243
g10
tp2244
Rp2245
(I1
(I3
tp2246
g2193
I00
S'2\x87ZS\xe0\xfc2@^s\x15\xdb\xe7\x03\xed\xbf\t\xaf,\x1f\xbcv&@'
p2247
tp2248
bsg2198
S'Cell[1].axon[233]'
p2249
sI93
I36
tp2250
a(F1.719736346976143
S'Cell[0].dend[62] syn_ = new AmpaNmda(0.5)'
p2251
I0
(dp2252
S'seg'
p2253
F0.5
sS'hostfrom'
p2254
F46.0
sS'gid'
p2255
I94
sS'coords'
p2256
g7
(g8
(I0
tp2257
g10
tp2258
Rp2259
(I1
(I3
tp2260
g14
(S'f8'
p2261
I0
I1
tp2262
Rp2263
(I3
S'<'
p2264
NNNI-1
I-1
I0
tp2265
bI00
S'\xc4}\x9a\x1a\x05\x1d:@\xde\xae-n\xa3\xefB\xc0\x9f\x84\xc2N"\xf4%@'
p2266
tp2267
bsS'secnames'
p2268
S'Cell[1].axon[182]'
p2269
sI94
I36
tp2270
a(F2.340218680617219
S'Cell[1].dend[50] syn_ = new FastInhib(0.5)'
p2271
I1
(dp2272
g2253
F0.5
sg2254
F46.0
sg2255
I94
sg2256
g7
(g8
(I0
tp2273
g10
tp2274
Rp2275
(I1
(I3
tp2276
g2263
I00
S'\xb0\xcbm4ywB@s]\x1dV\xc9\x8e:@\x00\x00\x00\xc0\x1e\x85\x1b\xc0'
p2277
tp2278
bsg2268
S'Cell[1].axon[207]'
p2279
sI94
I84
tp2280
a(F1.754371370519673
S'Cell[3].dend[23] syn_ = new FastInhib(0.357142857143)'
p2281
I3
(dp2282
g2253
F0.7
sg2254
F46.0
sg2255
I142
sg2256
g7
(g8
(I0
tp2283
g10
tp2284
Rp2285
(I1
(I3
tp2286
g2263
I00
S"\x11-\x15\x1e-\xda\x13\xc0'\x8c\x0f\t\xb1\xf5T@\xf0\x0e;\x1f8\x1c\x1b@"
p2287
tp2288
bsg2268
S'Cell[2].axon[28]'
p2289
sI142
I180
tp2290
a(F2.2143908127730723
S'Cell[2].dend[13] syn_ = new FastInhib(0.5)'
p2291
I2
(dp2292
S'seg'
p2293
F0.8333333333333333
sS'hostfrom'
p2294
F47.0
sS'gid'
p2295
I95
sS'coords'
p2296
g7
(g8
(I0
tp2297
g10
tp2298
Rp2299
(I1
(I3
tp2300
g14
(S'f8'
p2301
I0
I1
tp2302
Rp2303
(I3
S'<'
p2304
NNNI-1
I-1
I0
tp2305
bI00
S'@I\nQ\x03\x8dH@\x0f\x05\xbfH\x9b\x8dG@\xd6\x8c\xab h\xe55\xc0'
p2306
tp2307
bsS'secnames'
p2308
S'Cell[1].axon[0]'
p2309
sI95
I132
tp2310
a(F2.320409763033556
S'Cell[2].dend[19] syn_ = new FastInhib(0.833333333333)'
p2311
I2
(dp2312
g2293
F0.5
sg2294
F47.0
sg2295
I95
sg2296
g7
(g8
(I0
tp2313
g10
tp2314
Rp2315
(I1
(I3
tp2316
g2303
I00
S'\x00\x00\x00\xb0G\xf1I@\x00\x00\x00\xe0z\xb4F@\x00\x00\x00\xc0\xf5\xe87\xc0'
p2317
tp2318
bsg2308
S'Cell[1].axon[40]'
p2319
sI95
I132
tp2320
a(F2.209487250899062
S'Cell[1].dend[49] syn_ = new FastInhib(0.5)'
p2321
I1
(dp2322
g2293
F0.5
sg2294
F47.0
sg2295
I95
sg2296
g7
(g8
(I0
tp2323
g10
tp2324
Rp2325
(I1
(I3
tp2326
g2303
I00
S'\xcc\x1e\xb0\xc8n\xca5@\x8d\x04\x9a)!\xf9@@"F\x1a\xa3\xa5,#\xc0'
p2327
tp2328
bsg2308
S'Cell[1].axon[167]'
p2329
sI95
I84
tp2330
a(F1.7494605391101385
S'Cell[0].dend[68] syn_ = new ExpSid(0.833333333333)'
p2331
I0
(dp2332
g2293
F0.5
sg2294
F47.0
sg2295
I95
sg2296
g7
(g8
(I0
tp2333
g10
tp2334
Rp2335
(I1
(I3
tp2336
g2303
I00
S'\x16\xfaM7\x9fzG@\xb4\x12\x816PpP\xc0|,]y\x03\x93D\xc0'
p2337
tp2338
bsg2308
S'Cell[1].axon[214]'
p2339
sI95
I36
tp2340
a(F0.3858985736394537
S'Cell[1].dend[83] syn_ = new FastInhib(0.166666666667)'
p2341
I1
(dp2342
g2293
F0.8999999999999999
sg2294
F47.0
sg2295
I95
sg2296
g7
(g8
(I0
tp2343
g10
tp2344
Rp2345
(I1
(I3
tp2346
g2303
I00
S'u\xa9\xad\x82\xcc\xe1O\xc0\xec#OF?\x1c]@qE\xc3\x90\x80\xae\x17@'
p2347
tp2348
bsg2308
S'Cell[1].axon[294]'
p2349
sI95
I84
tp2350
a(F1.9283063575803172
S'Cell[1].dend[32] syn_ = new FastInhib(0.5)'
p2351
I1
(dp2352
g2293
F0.5
sg2294
F47.0
sg2295
I143
sg2296
g7
(g8
(I0
tp2353
g10
tp2354
Rp2355
(I1
(I3
tp2356
g2303
I00
S'\x8d\xfc\n\x11\xaf3E\xc0\x82\x0f\xd8n\x84D:@\x00\x00\x00\x80\x14\xee0\xc0'
p2357
tp2358
bsg2308
S'Cell[2].axon[2]'
p2359
sI143
I84
tp2360
a(F2.104541182945469
S'Cell[0].apic[12] syn_ = new ExpSid(0.833333333333)'
p2361
I0
(dp2362
g2293
F0.1
sg2294
F47.0
sg2295
I143
sg2296
g7
(g8
(I0
tp2363
g10
tp2364
Rp2365
(I1
(I3
tp2366
g2303
I00
S'\x17\x8by\xef\xd4\xd9)\xc0\xd1\xe9\x0c!\xa9\x84M@\xad\xe9\xa3Q\x05\x82 @'
p2367
tp2368
bsg2308
S'Cell[2].axon[107]'
p2369
sI143
I36
tp2370
a(F1.751909945500562
S'Cell[2].dend[11] syn_ = new FastInhib(0.5)'
p2371
I2
(dp2372
g2293
F0.5
sg2294
F47.0
sg2295
I143
sg2296
g7
(g8
(I0
tp2373
g10
tp2374
Rp2375
(I1
(I3
tp2376
g2303
I00
S'\x0b+\xca8\xeffA\xc0\xc6t\xbb}\xb20D@.\xed\xa3%\xf0\x17+\xc0'
p2377
tp2378
bsg2308
S'Cell[2].axon[194]'
p2379
sI143
I132
tp2380
a.