(lp0
(F1.5444706802614847
S'Cell[1].dend[23] syn_ = new ExpSid(0.5)'
p1
I1
(dp2
S'seg'
p3
F0.8333333333333333
sS'hostfrom'
p4
F1.0
sS'gid'
p5
I145
sS'coords'
p6
cnumpy.core.multiarray
_reconstruct
p7
(cnumpy
ndarray
p8
(I0
tp9
S'b'
p10
tp11
Rp12
(I1
(I3
tp13
cnumpy
dtype
p14
(S'f8'
p15
I0
I1
tp16
Rp17
(I3
S'<'
p18
NNNI-1
I-1
I0
tp19
bI00
S'\xa2\xd6\xffJ\xaa\xc8B\xc0m\xa2\xc8\x99\xdf\x15U@2?9k\t\x008@'
p20
tp21
bsS'secnames'
p22
S'Cell[3].axon[8]'
p23
sI145
I78
tp24
a(F2.2113824034205796
S'Cell[0].dend[37] syn_ = new ExpSid(0.833333333333)'
p25
I0
(dp26
g3
F0.8333333333333333
sg4
F1.0
sg5
I145
sg6
g7
(g8
(I0
tp27
g10
tp28
Rp29
(I1
(I3
tp30
g17
I00
S'\x81\x93\x1eo\x81\xd2O\xc0\xdc\x08RK\x85\x82#@*uJ\xa8\x19\x9dC\xc0'
p31
tp32
bsg22
S'Cell[3].axon[23]'
p33
sI145
I30
tp34
a(F1.4705255418118683
S'Cell[2].dend[14] syn_ = new FastInhib(0.5)'
p35
I2
(dp36
g3
F0.1
sg4
F1.0
sg5
I145
sg6
g7
(g8
(I0
tp37
g10
tp38
Rp39
(I1
(I3
tp40
g17
I00
S'\x1f\x17d?Q\x0c\xe3\xbf\xca\xef\x86\xdc6>S@_y\x1bDJ\x82;\xc0'
p41
tp42
bsg22
S'Cell[3].axon[207]'
p43
sI145
I126
tp44
a(F1.933970175403042
S'Cell[0].dend[28] syn_ = new ExpSid(0.833333333333)'
p45
I0
(dp46
g3
F0.30000000000000004
sg4
F1.0
sg5
I97
sg6
g7
(g8
(I0
tp47
g10
tp48
Rp49
(I1
(I3
tp50
g17
I00
S'<J\x03\x10ijK\xc0#y\xac\x11B\xdcR\xc0\xe5>\x93\n\xb6\xbeC\xc0'
p51
tp52
bsg22
S'Cell[2].axon[43]'
p53
sI97
I30
tp54
a(F1.9002554951214812
S'Cell[0].apic[2] syn_ = new AmpaNmda(0.166666666667)'
p55
I0
(dp56
S'seg'
p57
F0.5
sS'hostfrom'
p58
F2.0
sS'gid'
p59
I98
sS'coords'
p60
g7
(g8
(I0
tp61
g10
tp62
Rp63
(I1
(I3
tp64
g14
(S'f8'
p65
I0
I1
tp66
Rp67
(I3
S'<'
p68
NNNI-1
I-1
I0
tp69
bI00
S'\t\x14\xca\xcd\xcc\xb7\xdd\xbf\xb3\xdc\xb9*\x87\xfbB@\x04\x9b\x97\xe6\xc1\x1d%\xc0'
p70
tp71
bsS'secnames'
p72
S'Cell[2].axon[302]'
p73
sI98
I30
tp74
a(F1.2547606909016058
S'Cell[3].dend[13] syn_ = new FastInhib(0.5)'
p75
I3
(dp76
g57
F0.5
sg58
F2.0
sg59
I98
sg60
g7
(g8
(I0
tp77
g10
tp78
Rp79
(I1
(I3
tp80
g67
I00
S')\xba\x88\xa9+\x0eB\xc0\x1eo\x1dG\xf2\xd2\x10\xc0\x9eU\xa5\xaa\x1d\x87\x19\xc0'
p81
tp82
bsg72
S'Cell[2].axon[472]'
p83
sI98
I174
tp84
a(F1.0474400615825206
S'Cell[0].apic[2] syn_ = new AmpaNmda(0.166666666667)'
p85
I0
(dp86
g57
F0.16666666666666666
sg58
F2.0
sg59
I146
sg60
g7
(g8
(I0
tp87
g10
tp88
Rp89
(I1
(I3
tp90
g67
I00
S'\xb8\xd1\x1f\x8a\xd8\xf0\xd2\xbf%\x81\xc3\xd2\xde\xc8B@\x9a:J\xa9\x98g(\xc0'
p91
tp92
bsg72
S'Cell[3].axon[177]'
p93
sI146
I30
tp94
a(F1.945524500466106
S'Cell[2].apic[21] syn_ = new FastInhib(0.5)'
p95
I2
(dp96
g57
F0.5
sg58
F2.0
sg59
I146
sg60
g7
(g8
(I0
tp97
g10
tp98
Rp99
(I1
(I3
tp100
g67
I00
S'\xf5\x82\xd6,T<7@.\xe8\xa2tCPI\xc0\xdc#4g\x88\xfd?\xc0'
p101
tp102
bsg72
S'Cell[3].axon[187]'
p103
sI146
I126
tp104
a(F1.97257595318814
S'Cell[3].dend[30] syn_ = new FastInhib(0.7)'
p105
I3
(dp106
g57
F0.16666666666666666
sg58
F2.0
sg59
I146
sg60
g7
(g8
(I0
tp107
g10
tp108
Rp109
(I1
(I3
tp110
g67
I00
S'\x8a\xb1\xb2\xbaN\xe4c\xc08[\xbb\xb7\x1dL@\xc0\xbf\xc5\x9b&\xe3\xb88\xc0'
p111
tp112
bsg72
S'Cell[3].axon[298]'
p113
sI146
I174
tp114
a(F1.9002554951214812
S'Cell[0].apic[2] syn_ = new ExpSid(0.166666666667)'
p115
I0
(dp116
S'seg'
p117
F0.5
sS'hostfrom'
p118
F3.0
sS'gid'
p119
I99
sS'coords'
p120
g7
(g8
(I0
tp121
g10
tp122
Rp123
(I1
(I3
tp124
g14
(S'f8'
p125
I0
I1
tp126
Rp127
(I3
S'<'
p128
NNNI-1
I-1
I0
tp129
bI00
S'\t\x14\xca\xcd\xcc\xb7\xdd\xbf\xb3\xdc\xb9*\x87\xfbB@\x04\x9b\x97\xe6\xc1\x1d%\xc0'
p130
tp131
bsS'secnames'
p132
S'Cell[2].axon[302]'
p133
sI99
I30
tp134
a(F1.2547606909016058
S'Cell[3].dend[13] syn_ = new FastInhib(0.5)'
p135
I3
(dp136
g117
F0.5
sg118
F3.0
sg119
I99
sg120
g7
(g8
(I0
tp137
g10
tp138
Rp139
(I1
(I3
tp140
g127
I00
S')\xba\x88\xa9+\x0eB\xc0\x1eo\x1dG\xf2\xd2\x10\xc0\x9eU\xa5\xaa\x1d\x87\x19\xc0'
p141
tp142
bsg132
S'Cell[2].axon[472]'
p143
sI99
I174
tp144
a(F1.4222492103551136
S'Cell[0].apic[31] syn_ = new ExpSid(0.166666666667)'
p145
I0
(dp146
g117
F0.5
sg118
F3.0
sg119
I51
sg120
g7
(g8
(I0
tp147
g10
tp148
Rp149
(I1
(I3
tp150
g127
I00
S'\x87\xaf\xa4\xa2\x84\xbd-@\x8a\xcee\xcc\xc5\xd2i@\xc9P\xec\xf3`\xbfG\xc0'
p151
tp152
bsg132
S'Cell[1].axon[36]'
p153
sI51
I30
tp154
a(F2.1859476391276287
S'Cell[0].dend[33] syn_ = new AmpaNmda(0.166666666667)'
p155
I0
(dp156
S'seg'
p157
F0.5
sS'hostfrom'
p158
F4.0
sS'gid'
p159
I100
sS'coords'
p160
g7
(g8
(I0
tp161
g10
tp162
Rp163
(I1
(I3
tp164
g14
(S'f8'
p165
I0
I1
tp166
Rp167
(I3
S'<'
p168
NNNI-1
I-1
I0
tp169
bI00
S'\xa5\xe9H\x86d\tA\xc0\x00\x00\x00\x80=\xeaB\xc0\x91\xf4}\x90\x19j\x17\xc0'
p170
tp171
bsS'secnames'
p172
S'Cell[2].axon[85]'
p173
sI100
I30
tp174
a(F2.0869707361125753
S'Cell[0].dend[1] syn_ = new AmpaNmda(0.166666666667)'
p175
I0
(dp176
g157
F0.05555555555555555
sg158
F4.0
sg159
I100
sg160
g7
(g8
(I0
tp177
g10
tp178
Rp179
(I1
(I3
tp180
g167
I00
S",k\xc5\xb2[\xe5'\xc0\x03h\x96\xe3\xef\xa6B\xc0\xa7`\xb2\xff\x93\x9f\xef\xbf"
p181
tp182
bsg172
S'Cell[2].axon[117]'
p183
sI100
I30
tp184
a(F1.0035306919054288
S'Cell[1].dend[8] syn_ = new ExpSid(0.1)'
p185
I1
(dp186
S'seg'
p187
F0.5
sS'hostfrom'
p188
F5.0
sS'gid'
p189
I53
sS'coords'
p190
g7
(g8
(I0
tp191
g10
tp192
Rp193
(I1
(I3
tp194
g14
(S'f8'
p195
I0
I1
tp196
Rp197
(I3
S'<'
p198
NNNI-1
I-1
I0
tp199
bI00
S'\xff\xff\xffgf\xe6C@\xff\xff\xff\x1f\x85k/\xc0\x00\x00\x00`\xb8\x1e\x03\xc0'
p200
tp201
bsS'secnames'
p202
S'Cell[1].soma[0]'
p203
sI53
I78
tp204
a(F1.4281421506264418
S'Cell[2].dend[12] syn_ = new FastInhib(0.5)'
p205
I2
(dp206
S'seg'
p207
F0.5
sS'hostfrom'
p208
F6.0
sS'gid'
p209
I102
sS'coords'
p210
g7
(g8
(I0
tp211
g10
tp212
Rp213
(I1
(I3
tp214
g14
(S'f8'
p215
I0
I1
tp216
Rp217
(I3
S'<'
p218
NNNI-1
I-1
I0
tp219
bI00
S"\x896\xc1G\xb7\xf0\x05\xc0\x9f\xcb\xe3\x0b\xa3\xbbI@\xfd\xe4\x90'\x16\xf84\xc0"
p220
tp221
bsS'secnames'
p222
S'Cell[2].axon[25]'
p223
sI102
I126
tp224
a(F2.2209822957260785
S'Cell[2].apic[28] syn_ = new FastInhib(0.5)'
p225
I2
(dp226
g207
F0.5
sg208
F6.0
sg209
I102
sg210
g7
(g8
(I0
tp227
g10
tp228
Rp229
(I1
(I3
tp230
g217
I00
S'Ki\x86\x98m\x83+@\xb4\x9ci\xed \x88[\xc0\x00\x00\x00\xe0\xa3p\x18\xc0'
p231
tp232
bsg222
S'Cell[2].axon[111]'
p233
sI102
I126
tp234
a(F0.7471462851487715
S'Cell[3].dend[34] syn_ = new FastInhib(0.833333333333)'
p235
I3
(dp236
g207
F0.5
sg208
F6.0
sg209
I150
sg210
g7
(g8
(I0
tp237
g10
tp238
Rp239
(I1
(I3
tp240
g217
I00
S'\x00\x00\x00\x00\x00\xa0Q\xc0\x00\x00\x00p=\xd2W\xc0\x00\x00\x00\x80\x14.\x1d\xc0'
p241
tp242
bsg222
S'Cell[3].axon[6]'
p243
sI150
I174
tp244
a(F0.6844315976481261
S'Cell[2].apic[24] syn_ = new FastInhib(0.5)'
p245
I2
(dp246
g207
F0.8333333333333333
sg208
F6.0
sg209
I150
sg210
g7
(g8
(I0
tp247
g10
tp248
Rp249
(I1
(I3
tp250
g217
I00
S'\xb3\x8c\x90\xea\xa1\x99#@\xef\xd0c^\xebcI\xc0\x00\x00\x00\x80\x14\xee>\xc0'
p251
tp252
bsg222
S'Cell[3].axon[110]'
p253
sI150
I126
tp254
a(F1.4597066976254995
S'Cell[0].dend[1] syn_ = new ExpSid(0.5)'
p255
I0
(dp256
S'seg'
p257
F0.5
sS'hostfrom'
p258
F7.0
sS'gid'
p259
I103
sS'coords'
p260
g7
(g8
(I0
tp261
g10
tp262
Rp263
(I1
(I3
tp264
g14
(S'f8'
p265
I0
I1
tp266
Rp267
(I3
S'<'
p268
NNNI-1
I-1
I0
tp269
bI00
S'\x12\x11\x96\x01\x03k/\xc06\x11;\x04\x90CJ\xc0\xc5"\xa1R\xeeq\xd0?'
p270
tp271
bsS'secnames'
p272
S'Cell[2].axon[1]'
p273
sI103
I30
tp274
a(F1.1136766442991946
S'Cell[1].dend[14] syn_ = new ExpSid(0.5)'
p275
I1
(dp276
g257
F0.8999999999999999
sg258
F7.0
sg259
I103
sg260
g7
(g8
(I0
tp277
g10
tp278
Rp279
(I1
(I3
tp280
g267
I00
S'0\xfe\x90?2C>@\xda$u\x94.\xc8!@\x00\x00\x00 \x85\xeb\x19\xc0'
p281
tp282
bsg272
S'Cell[2].axon[8]'
p283
sI103
I78
tp284
a(F2.2952335888221675
S'Cell[0].apic[38] syn_ = new ExpSid(0.166666666667)'
p285
I0
(dp286
g257
F0.5
sg258
F7.0
sg259
I103
sg260
g7
(g8
(I0
tp287
g10
tp288
Rp289
(I1
(I3
tp290
g267
I00
S'DJ>\xbb\xdb\xc98@\x95\x032\xe3&]f@Z\x10\x89\xa8\x87\xd78\xc0'
p291
tp292
bsg272
S'Cell[2].axon[148]'
p293
sI103
I30
tp294
a(F2.1888458581062555
S'Cell[3].dend[14] syn_ = new FastInhib(0.166666666667)'
p295
I3
(dp296
g257
F0.16666666666666666
sg258
F7.0
sg259
I103
sg260
g7
(g8
(I0
tp297
g10
tp298
Rp299
(I1
(I3
tp300
g267
I00
S'\xd4\xf3\xca\x1fig?\xc0\x86\xd0\x89z\x94f\x01@k\xa5(\x9b\xee"3\xc0'
p301
tp302
bsg272
S'Cell[2].axon[161]'
p303
sI103
I174
tp304
a(F1.314651906760317
S'Cell[0].apic[20] syn_ = new ExpSid(0.833333333333)'
p305
I0
(dp306
g257
F0.30000000000000004
sg258
F7.0
sg259
I103
sg260
g7
(g8
(I0
tp307
g10
tp308
Rp309
(I1
(I3
tp310
g267
I00
S'4\x8d\xb5\xcc\xce\x9bM\xc0\xe2\xd1\xa7\x00\xde\x99n@F^\xca\t\x97%R\xc0'
p311
tp312
bsg272
S'Cell[2].axon[239]'
p313
sI103
I30
tp314
a(F1.865075263931769
S'Cell[0].dend[54] syn_ = new ExpSid(0.166666666667)'
p315
I0
(dp316
g257
F0.5
sg258
F7.0
sg259
I103
sg260
g7
(g8
(I0
tp317
g10
tp318
Rp319
(I1
(I3
tp320
g267
I00
S'R\x9bP\x1d9\x0c%@\x05\x98\xfe\x10\xd4\x90H\xc0\x00\x00\x00\xa0G\xe1\xf2?'
p321
tp322
bsg272
S'Cell[2].axon[260]'
p323
sI103
I30
tp324
a(F2.1150043269998147
S'Cell[0].apic[27] syn_ = new ExpSid(0.5)'
p325
I0
(dp326
g257
F0.05555555555555555
sg258
F7.0
sg259
I103
sg260
g7
(g8
(I0
tp327
g10
tp328
Rp329
(I1
(I3
tp330
g267
I00
S'\xd5\tWK\xb0\x8d\x11@\xa2B\xc4\xd3S?a@\xe7\xc1A\xb8\xc392\xc0'
p331
tp332
bsg272
S'Cell[2].axon[267]'
p333
sI103
I30
tp334
a(F1.9865725420300773
S'Cell[0].dend[21] syn_ = new ExpSid(0.1)'
p335
I0
(dp336
g257
F0.16666666666666666
sg258
F7.0
sg259
I151
sg260
g7
(g8
(I0
tp337
g10
tp338
Rp339
(I1
(I3
tp340
g267
I00
S'\xc5\xf7pk\xbd;\xf2\xbf\xd2a\xc91DEA\xc0\xdbJ\xfb \x9d\x1eG\xc0'
p341
tp342
bsg272
S'Cell[3].axon[43]'
p343
sI151
I30
tp344
a(F2.3063216631206007
S'Cell[0].dend[53] syn_ = new ExpSid(0.5)'
p345
I0
(dp346
g257
F0.5
sg258
F7.0
sg259
I151
sg260
g7
(g8
(I0
tp347
g10
tp348
Rp349
(I1
(I3
tp350
g267
I00
S'\x00\x00\x00\xe0Q\xb8(@\xc6N\x82\xfe;\x08C\xc0\xb1U\x94\xe7\x9e\xf8 @'
p351
tp352
bsg272
S'Cell[3].axon[76]'
p353
sI151
I30
tp354
a(F2.188985194402689
S'Cell[3].dend[2] syn_ = new FastInhib(0.5)'
p355
I3
(dp356
g257
F0.5
sg258
F7.0
sg259
I151
sg260
g7
(g8
(I0
tp357
g10
tp358
Rp359
(I1
(I3
tp360
g267
I00
S'\xb6j\xd3\x93\xb7\x8cH\xc0\x7f\xd8\xf9r\x86uO@6\x9b\xd7\x98g\xa8.\xc0'
p361
tp362
bsg272
S'Cell[3].axon[141]'
p363
sI151
I174
tp364
a(F1.4166613131337213
S'Cell[0].dend[12] syn_ = new AmpaNmda(0.833333333333)'
p365
I0
(dp366
S'seg'
p367
F0.5
sS'hostfrom'
p368
F8.0
sS'gid'
p369
I152
sS'coords'
p370
g7
(g8
(I0
tp371
g10
tp372
Rp373
(I1
(I3
tp374
g14
(S'f8'
p375
I0
I1
tp376
Rp377
(I3
S'<'
p378
NNNI-1
I-1
I0
tp379
bI00
S'\x10\x8b\t\xbe\x1c}$@v&\xfa\xa4\x9fA+@\x9c\xd0\xf4\xcb\xefAS\xc0'
p380
tp381
bsS'secnames'
p382
S'Cell[3].axon[609]'
p383
sI152
I30
tp384
a(F1.3593818601910432
S'Cell[0].dend[43] syn_ = new AmpaNmda(0.5)'
p385
I0
(dp386
g367
F0.16666666666666666
sg368
F8.0
sg369
I104
sg370
g7
(g8
(I0
tp387
g10
tp388
Rp389
(I1
(I3
tp390
g377
I00
S"d>\x1f\xe1h\x0eQ\xc0\xd7\xb9\xa4\xdf\x89c'\xc0\xe2s\xa8,\x8c\xd9;\xc0"
p391
tp392
bsg382
S'Cell[2].axon[184]'
p393
sI104
I30
tp394
a(F1.9215189836025606
S'Cell[1].dend[3] syn_ = new AmpaNmda(0.833333333333)'
p395
I1
(dp396
g367
F0.16666666666666666
sg368
F8.0
sg369
I104
sg370
g7
(g8
(I0
tp397
g10
tp398
Rp399
(I1
(I3
tp400
g377
I00
S'\xda\xe6\xc7n\xa9xU@\x02\xb9\x82\xbd\xc7\n@\xc0\xe9\xe3\xeb:=M6\xc0'
p401
tp402
bsg382
S'Cell[2].axon[329]'
p403
sI104
I78
tp404
a(F2.227726362102101
S'Cell[0].apic[21] syn_ = new AmpaNmda(0.166666666667)'
p405
I0
(dp406
g367
F0.2777777777777778
sg368
F8.0
sg369
I104
sg370
g7
(g8
(I0
tp407
g10
tp408
Rp409
(I1
(I3
tp410
g377
I00
S'\xde2\xe5\x7f\xe2x7\xc0\x00\xcc<\x05\xb7Ag@\x81\x82\xab\x02\x8d9J\xc0'
p411
tp412
bsg382
S'Cell[2].axon[402]'
p413
sI104
I30
tp414
a(F1.6768896680006773
S'Cell[0].apic[1] syn_ = new ExpSid(0.5)'
p415
I0
(dp416
S'seg'
p417
F0.5
sS'hostfrom'
p418
F9.0
sS'gid'
p419
I105
sS'coords'
p420
g7
(g8
(I0
tp421
g10
tp422
Rp423
(I1
(I3
tp424
g14
(S'f8'
p425
I0
I1
tp426
Rp427
(I3
S'<'
p428
NNNI-1
I-1
I0
tp429
bI00
S'\x00\x00\x00\xb0G\xe1"\xc0\x00\x00\x00 \x85k"@\x00\x00\x00\x00\x00\x80,\xc0'
p430
tp431
bsS'secnames'
p432
S'Cell[2].soma[0]'
p433
sI105
I30
tp434
a(F1.9069926192895694
S'Cell[2].apic[25] syn_ = new FastInhib(0.166666666667)'
p435
I2
(dp436
g417
F0.5
sg418
F9.0
sg419
I105
sg420
g7
(g8
(I0
tp437
g10
tp438
Rp439
(I1
(I3
tp440
g427
I00
S'-\x85\xe0ZF\xbf)@\x00x\xa2\x8c\x97\x11O\xc0?\x0b\xb2,\x1d\x067\xc0'
p441
tp442
bsg432
S'Cell[2].axon[2]'
p443
sI105
I126
tp444
a(F1.5465684428348168
S'Cell[2].apic[24] syn_ = new FastInhib(0.5)'
p445
I2
(dp446
g417
F0.5
sg418
F9.0
sg419
I105
sg420
g7
(g8
(I0
tp447
g10
tp448
Rp449
(I1
(I3
tp450
g427
I00
S'\x00\x00\x00\xe0z\x94!@\x00\x00\x00\xf0z\xb4I\xc0\x00\x00\x00\xf0Q\xb8=\xc0'
p451
tp452
bsg432
S'Cell[2].axon[3]'
p453
sI105
I126
tp454
a(F1.9681841532982631
S'Cell[0].apic[11] syn_ = new ExpSid(0.5)'
p455
I0
(dp456
g417
F0.13636363636363635
sg418
F9.0
sg419
I105
sg420
g7
(g8
(I0
tp457
g10
tp458
Rp459
(I1
(I3
tp460
g427
I00
S'\xc6_C;\xdf\x1cD\xc0\x05\xf6r`\x0c\xd8b@\x96\xbb2$\xd9e\x05\xc0'
p461
tp462
bsg432
S'Cell[2].axon[29]'
p463
sI105
I30
tp464
a(F2.42400756673135
S'Cell[2].apic[28] syn_ = new FastInhib(0.1)'
p465
I2
(dp466
g417
F0.8333333333333333
sg418
F9.0
sg419
I105
sg420
g7
(g8
(I0
tp467
g10
tp468
Rp469
(I1
(I3
tp470
g427
I00
S'P\xa2:zIe&@\xce\xf1\t+\r\xabQ\xc0\x00\x00\x00\x80=\xca6\xc0'
p471
tp472
bsg432
S'Cell[2].axon[81]'
p473
sI105
I126
tp474
a(F2.3259427209120975
S'Cell[2].apic[28] syn_ = new FastInhib(0.1)'
p475
I2
(dp476
S'seg'
p477
F0.5
sS'hostfrom'
p478
F10.0
sS'gid'
p479
I106
sS'coords'
p480
g7
(g8
(I0
tp481
g10
tp482
Rp483
(I1
(I3
tp484
g14
(S'f8'
p485
I0
I1
tp486
Rp487
(I3
S'<'
p488
NNNI-1
I-1
I0
tp489
bI00
S'a\x02\x84\xbc\xff\xa6%@\xef\xa8\x03x~\xe5P\xc0\x00\x00\x00\xe0Q\xf84\xc0'
p490
tp491
bsS'secnames'
p492
S'Cell[2].axon[1]'
p493
sI106
I126
tp494
a(F1.6618530711561292
S'Cell[1].dend[16] syn_ = new AmpaNmda(0.833333333333)'
p495
I1
(dp496
g477
F0.07142857142857142
sg478
F10.0
sg479
I106
sg480
g7
(g8
(I0
tp497
g10
tp498
Rp499
(I1
(I3
tp500
g487
I00
S'P\xed\xbbF\x8e\xd8\xe9\xbf\x8f\x18l\x1da\x866\xc0|\xcd\x964\x9674\xc0'
p501
tp502
bsg492
S'Cell[2].axon[131]'
p503
sI106
I78
tp504
a(F1.7155823729902504
S'Cell[0].dend[34] syn_ = new AmpaNmda(0.5)'
p505
I0
(dp506
g477
F0.5
sg478
F10.0
sg479
I106
sg480
g7
(g8
(I0
tp507
g10
tp508
Rp509
(I1
(I3
tp510
g487
I00
S'\xf3XB]kV>\xc0i\x06\x94\x95/S>\xc0\xfe.\x0f\xe7C\x07"\xc0'
p511
tp512
bsg492
S'Cell[2].axon[133]'
p513
sI106
I30
tp514
a(F1.8794246853502043
S'Cell[3].dend[12] syn_ = new FastInhib(0.5)'
p515
I3
(dp516
g477
F0.5
sg478
F10.0
sg479
I106
sg480
g7
(g8
(I0
tp517
g10
tp518
Rp519
(I1
(I3
tp520
g487
I00
S'\xb0\xe5\xa1(~xC\xc0M\x9c(\xe3\x93\xa8 \xc00\xe9\x7fp\xff\xfd\xfe?'
p521
tp522
bsg492
S'Cell[2].axon[177]'
p523
sI106
I174
tp524
a(F1.4610869217128688
S'Cell[0].dend[9] syn_ = new AmpaNmda(0.5)'
p525
I0
(dp526
g477
F0.5
sg478
F10.0
sg479
I106
sg480
g7
(g8
(I0
tp527
g10
tp528
Rp529
(I1
(I3
tp530
g487
I00
S'\xd2&\xc9\x1a\xb9?\xf2\xbf\x86;\x879r\xdf:\xc0\x00\x00\x00\xe0\xa3\x10B\xc0'
p531
tp532
bsg492
S'Cell[2].axon[278]'
p533
sI106
I30
tp534
a(F2.300967546802203
S'Cell[2].dend[14] syn_ = new FastInhib(0.5)'
p535
I2
(dp536
g477
F0.16666666666666666
sg478
F10.0
sg479
I106
sg480
g7
(g8
(I0
tp537
g10
tp538
Rp539
(I1
(I3
tp540
g487
I00
S'<\xca\xc6\\\x84\xa6\t\xc0\x1b\x81\xbb\x80\xd4\xa5S@\xb0\x0e\x8d1\x01\xbf:\xc0'
p541
tp542
bsg492
S'Cell[2].axon[306]'
p543
sI106
I126
tp544
a(F2.4923529998643628
S'Cell[0].apic[10] syn_ = new AmpaNmda(0.5)'
p545
I0
(dp546
g477
F0.5
sg478
F10.0
sg479
I106
sg480
g7
(g8
(I0
tp547
g10
tp548
Rp549
(I1
(I3
tp550
g487
I00
S'\xac\xeb>G\xaa\xd4$\xc0\xd8t\x7f\xb37\xc1^@E3\xd3\xe5\xfe\xc51\xc0'
p551
tp552
bsg492
S'Cell[2].axon[311]'
p553
sI106
I30
tp554
a(F2.2686558159527195
S'Cell[1].apic[0] syn_ = new AmpaNmda(0.5)'
p555
I1
(dp556
g477
F0.5
sg478
F10.0
sg479
I154
sg480
g7
(g8
(I0
tp557
g10
tp558
Rp559
(I1
(I3
tp560
g487
I00
S'\xe0\xac\x18\xc3`\x1cD@\x00\xd4\xd7MX\xb5=@P\xa82\x01!\xb5-@'
p561
tp562
bsg492
S'Cell[3].axon[10]'
p563
sI154
I78
tp564
a(F1.7064687522266786
S'Cell[0].apic[15] syn_ = new AmpaNmda(0.5)'
p565
I0
(dp566
g477
F0.5
sg478
F10.0
sg479
I154
sg480
g7
(g8
(I0
tp567
g10
tp568
Rp569
(I1
(I3
tp570
g487
I00
S'\xeaI\xecL\x85l5@\xa0\x94Rg\xba\xf7j@U&\xfb,N\xd2+\xc0'
p571
tp572
bsg492
S'Cell[3].axon[257]'
p573
sI154
I30
tp574
a(F2.204369047180043
S'Cell[0].dend[25] syn_ = new AmpaNmda(0.5)'
p575
I0
(dp576
S'seg'
p577
F0.5
sS'hostfrom'
p578
F12.0
sS'gid'
p579
I156
sS'coords'
p580
g7
(g8
(I0
tp581
g10
tp582
Rp583
(I1
(I3
tp584
g14
(S'f8'
p585
I0
I1
tp586
Rp587
(I3
S'<'
p588
NNNI-1
I-1
I0
tp589
bI00
S"'\x15Y\x94\xf6\xa3<\xc0C\xd3{Zd\xceA\xc0\xb4\x0e\xed)\x19\xec)\xc0"
p590
tp591
bsS'secnames'
p592
S'Cell[3].axon[1]'
p593
sI156
I30
tp594
a(F1.6360468396631855
S'Cell[0].dend[2] syn_ = new AmpaNmda(0.833333333333)'
p595
I0
(dp596
g577
F0.5
sg578
F12.0
sg579
I156
sg580
g7
(g8
(I0
tp597
g10
tp598
Rp599
(I1
(I3
tp600
g587
I00
S'\xfae\xd7\x92\xb5\x94N\xc0\xacLI! h`\xc0\xad\x8c\xaa\x89\xf1\xd05\xc0'
p601
tp602
bsg592
S'Cell[3].axon[585]'
p603
sI156
I30
tp604
a(F1.649524715174353
S'Cell[0].apic[58] syn_ = new ExpSid(0.5)'
p605
I0
(dp606
S'seg'
p607
F0.5
sS'hostfrom'
p608
F13.0
sS'gid'
p609
I109
sS'coords'
p610
g7
(g8
(I0
tp611
g10
tp612
Rp613
(I1
(I3
tp614
g14
(S'f8'
p615
I0
I1
tp616
Rp617
(I3
S'<'
p618
NNNI-1
I-1
I0
tp619
bI00
S'X\x05\xe9"x%$\xc0\xe2\xc3\x94R0~\xfd\xbf\x00\x00\x00\xa0p\xbd-@'
p620
tp621
bsS'secnames'
p622
S'Cell[2].axon[0]'
p623
sI109
I30
tp624
a(F1.731472668496321
S'Cell[1].apic[0] syn_ = new ExpSid(0.5)'
p625
I1
(dp626
g607
F0.16666666666666666
sg608
F13.0
sg609
I109
sg610
g7
(g8
(I0
tp627
g10
tp628
Rp629
(I1
(I3
tp630
g617
I00
S'\x00\x00\x00 \x85\xcbC@\n~\xf4\x80\xe5\x89;@\xe9\xf6\xc8\xb0\x99\x070@'
p631
tp632
bsg622
S'Cell[2].axon[99]'
p633
sI109
I78
tp634
a(F2.4345821833968317
S'Cell[0].dend[57] syn_ = new ExpSid(0.5)'
p635
I0
(dp636
g607
F0.16666666666666666
sg608
F13.0
sg609
I109
sg610
g7
(g8
(I0
tp637
g10
tp638
Rp639
(I1
(I3
tp640
g617
I00
S'}\xf0\xf3\xba\x9e\xbeD@\xdfd\xf2I\xf6@\x13\xc0\xc8\xd6buu\xec#@'
p641
tp642
bsg622
S'Cell[2].axon[101]'
p643
sI109
I30
tp644
a(F2.4719469356599824
S'Cell[0].apic[53] syn_ = new ExpSid(0.166666666667)'
p645
I0
(dp646
g607
F0.16666666666666666
sg608
F13.0
sg609
I109
sg610
g7
(g8
(I0
tp647
g10
tp648
Rp649
(I1
(I3
tp650
g617
I00
S'\x90\xf2\xf1>\xc5\xffA@\xa2\xd8\xd6_\xab\xb1f@<\x02@\x96_N8\xc0'
p651
tp652
bsg622
S'Cell[2].axon[182]'
p653
sI109
I30
tp654
a(F1.47521844736469
S'Cell[0].dend[33] syn_ = new AmpaNmda(0.166666666667)'
p655
I0
(dp656
S'seg'
p657
F0.5
sS'hostfrom'
p658
F14.0
sS'gid'
p659
I110
sS'coords'
p660
g7
(g8
(I0
tp661
g10
tp662
Rp663
(I1
(I3
tp664
g14
(S'f8'
p665
I0
I1
tp666
Rp667
(I3
S'<'
p668
NNNI-1
I-1
I0
tp669
bI00
S'\xed\xdf\xb9\xe5\x16Y@\xc0\xcc\x81\xc2\x98n\x19C\xc0t\x07Mp\xdf.\r\xc0'
p670
tp671
bsS'secnames'
p672
S'Cell[2].axon[3]'
p673
sI110
I30
tp674
a(F1.6926482872374375
S'Cell[1].dend[33] syn_ = new AmpaNmda(0.166666666667)'
p675
I1
(dp676
g657
F0.30000000000000004
sg658
F14.0
sg659
I110
sg660
g7
(g8
(I0
tp677
g10
tp678
Rp679
(I1
(I3
tp680
g667
I00
S'}c)\x14}\xd3I@8H\xc6\x19\xd7\xae\x0f\xc0\xbd\x02\x08\xc3$~7@'
p681
tp682
bsg672
S'Cell[2].axon[123]'
p683
sI110
I78
tp684
a(F1.0405799812024112
S'Cell[0].apic[4] syn_ = new ExpSid(0.3)'
p685
I0
(dp686
S'seg'
p687
F0.5
sS'hostfrom'
p688
F15.0
sS'gid'
p689
I159
sS'coords'
p690
g7
(g8
(I0
tp691
g10
tp692
Rp693
(I1
(I3
tp694
g14
(S'f8'
p695
I0
I1
tp696
Rp697
(I3
S'<'
p698
NNNI-1
I-1
I0
tp699
bI00
S'\x0e\xb7M\xaa\xa7\x11-@\xe2\x11\xb8\xb9O+Q@\xa8\xe1A\x8b\xbe\xff7\xc0'
p700
tp701
bsS'secnames'
p702
S'Cell[3].axon[3]'
p703
sI159
I30
tp704
a(F1.8837315105997579
S'Cell[0].apic[3] syn_ = new ExpSid(0.5)'
p705
I0
(dp706
g687
F0.8333333333333333
sg688
F15.0
sg689
I159
sg690
g7
(g8
(I0
tp707
g10
tp708
Rp709
(I1
(I3
tp710
g697
I00
S'\xc6\xff\xc6L\x1d\xaa)\xc0\x0c\x02\xc0\x9b\xb2\xa7C@\x00\x00\x00\xc0\x1e\x85-\xc0'
p711
tp712
bsg702
S'Cell[3].axon[35]'
p713
sI159
I30
tp714
a(F2.449477942634185
S'Cell[3].dend[5] syn_ = new FastInhib(0.166666666667)'
p715
I3
(dp716
S'seg'
p717
F0.5
sS'hostfrom'
p718
F16.0
sS'gid'
p719
I160
sS'coords'
p720
g7
(g8
(I0
tp721
g10
tp722
Rp723
(I1
(I3
tp724
g14
(S'f8'
p725
I0
I1
tp726
Rp727
(I3
S'<'
p728
NNNI-1
I-1
I0
tp729
bI00
S'\x061\x90\x15\x12\xe0L\xc0&\xf07\xb0+e\x14@\xf7z\xad\xc0\xd3\x80D\xc0'
p730
tp731
bsS'secnames'
p732
S'Cell[3].axon[81]'
p733
sI160
I174
tp734
a(F1.7747092697225495
S'Cell[0].dend[16] syn_ = new AmpaNmda(0.5)'
p735
I0
(dp736
g717
F0.5
sg718
F16.0
sg719
I160
sg720
g7
(g8
(I0
tp737
g10
tp738
Rp739
(I1
(I3
tp740
g727
I00
S'\x1a\x91\xfa,\x1b\xdc\x1c@.#\x97I\xabAC\xc0\xb0zPNJkM\xc0'
p741
tp742
bsg732
S'Cell[3].axon[111]'
p743
sI160
I30
tp744
a(F2.035382470855674
S'Cell[1].dend[8] syn_ = new AmpaNmda(0.1)'
p745
I1
(dp746
g717
F0.5
sg718
F16.0
sg719
I160
sg720
g7
(g8
(I0
tp747
g10
tp748
Rp749
(I1
(I3
tp750
g727
I00
S'<\x06\x9c\xb4\xce D@\x0c\\q\n\x8b\x8d0\xc0\xa5\xb8D?]/\x11\xc0'
p751
tp752
bsg732
S'Cell[3].axon[131]'
p753
sI160
I78
tp754
a(F0.6769527983234728
S'Cell[0].dend[1] syn_ = new AmpaNmda(0.166666666667)'
p755
I0
(dp756
g717
F0.16666666666666666
sg718
F16.0
sg719
I112
sg720
g7
(g8
(I0
tp757
g10
tp758
Rp759
(I1
(I3
tp760
g727
I00
S'\xc7\xa8 \xa5\xc34*\xc0\x89\xe2?Xb\xeeB\xc0\x1e\xa6\x0c9\x87L\xf9\xbf'
p761
tp762
bsg732
S'Cell[2].axon[22]'
p763
sI112
I30
tp764
a(F2.1876173698445633
S'Cell[3].dend[3] syn_ = new FastInhib(0.5)'
p765
I3
(dp766
g717
F0.07142857142857142
sg718
F16.0
sg719
I112
sg720
g7
(g8
(I0
tp767
g10
tp768
Rp769
(I1
(I3
tp770
g727
I00
S'g\xbe\x03\xd6\r\x98=\xc0\xb1\xe8lv\x1csD@\xfe\xb0\x9c\x87j\xa9<\xc0'
p771
tp772
bsg732
S'Cell[2].axon[173]'
p773
sI112
I174
tp774
a(F2.3907237867572304
S'Cell[2].apic[28] syn_ = new FastInhib(0.3)'
p775
I2
(dp776
S'seg'
p777
F0.5
sS'hostfrom'
p778
F17.0
sS'gid'
p779
I113
sS'coords'
p780
g7
(g8
(I0
tp781
g10
tp782
Rp783
(I1
(I3
tp784
g14
(S'f8'
p785
I0
I1
tp786
Rp787
(I3
S'<'
p788
NNNI-1
I-1
I0
tp789
bI00
S'Al_\xd5`_+@\xba\xfe\xab\x11L.U\xc0\x00\x00\x00\x00\xd7##\xc0'
p790
tp791
bsS'secnames'
p792
S'Cell[2].axon[4]'
p793
sI113
I126
tp794
a(F2.434587031718908
S'Cell[2].apic[28] syn_ = new FastInhib(0.7)'
p795
I2
(dp796
g777
F0.5
sg778
F17.0
sg779
I113
sg780
g7
(g8
(I0
tp797
g10
tp798
Rp799
(I1
(I3
tp800
g787
I00
S'\x00c\x0ef\x84m.@\x19v\xa4e\x19\xf7`\xc0\x88=\x7fU\xd6\x88\xe2?'
p801
tp802
bsg792
S'Cell[2].axon[286]'
p803
sI113
I126
tp804
a(F1.077108974980947
S'Cell[0].dend[51] syn_ = new ExpSid(0.5)'
p805
I0
(dp806
g777
F0.5
sg778
F17.0
sg779
I113
sg780
g7
(g8
(I0
tp807
g10
tp808
Rp809
(I1
(I3
tp810
g787
I00
S'\xdf\x9a}B\x1bt\x1d@\x06\xe5$]!\xfc:\xc0\x00\x00\x00\xc0\x1e\x85\x1d\xc0'
p811
tp812
bsg792
S'Cell[2].axon[500]'
p813
sI113
I30
tp814
a(F2.148876789663953
S'Cell[1].dend[22] syn_ = new ExpSid(0.3)'
p815
I1
(dp816
g777
F0.5
sg778
F17.0
sg779
I161
sg780
g7
(g8
(I0
tp817
g10
tp818
Rp819
(I1
(I3
tp820
g787
I00
S'\x00\x00\x00\x00\xd7#%@\x00\x00\x00p\x14\xae@@\x00\x00\x00\x00\x00\x808@'
p821
tp822
bsg792
S'Cell[3].axon[13]'
p823
sI161
I78
tp824
a(F1.4535250560585167
S'Cell[0].dend[59] syn_ = new AmpaNmda(0.5)'
p825
I0
(dp826
S'seg'
p827
F0.16666666666666666
sS'hostfrom'
p828
F18.0
sS'gid'
p829
I114
sS'coords'
p830
g7
(g8
(I0
tp831
g10
tp832
Rp833
(I1
(I3
tp834
g14
(S'f8'
p835
I0
I1
tp836
Rp837
(I3
S'<'
p838
NNNI-1
I-1
I0
tp839
bI00
S'lT\xcd\xdb\x99\xa8N@\xa2\x90\x8f\xaf.\xa2+\xc03\x00\xe2/\xc0g\x15@'
p840
tp841
bsS'secnames'
p842
S'Cell[2].axon[85]'
p843
sI114
I30
tp844
a(F1.293454352119279
S'Cell[0].dend[33] syn_ = new AmpaNmda(0.833333333333)'
p845
I0
(dp846
g827
F0.16666666666666666
sg828
F18.0
sg829
I114
sg830
g7
(g8
(I0
tp847
g10
tp848
Rp849
(I1
(I3
tp850
g837
I00
S'T^\xa8P\x14\x8eA\xc0\xd4\xc4\xf4\xa4M\xa3S\xc0\xf2r\x84\xaf\xd0x\x0f@'
p851
tp852
bsg842
S'Cell[2].axon[92]'
p853
sI114
I30
tp854
a(F1.3148340451250353
S'Cell[2].apic[28] syn_ = new FastInhib(0.3)'
p855
I2
(dp856
g827
F0.16666666666666666
sg828
F18.0
sg829
I66
sg830
g7
(g8
(I0
tp857
g10
tp858
Rp859
(I1
(I3
tp860
g837
I00
S'\x9e\xbe\xb5\xa9$\x85*@498Q\xc6\xf2U\xc0:\x13V\xd4m\xf4!\xc0'
p861
tp862
bsg842
S'Cell[1].axon[35]'
p863
sI66
I126
tp864
a(F0.9837753254169919
S'Cell[0].dend[59] syn_ = new ExpSid(0.833333333333)'
p865
I0
(dp866
S'seg'
p867
F0.5
sS'hostfrom'
p868
F19.0
sS'gid'
p869
I67
sS'coords'
p870
g7
(g8
(I0
tp871
g10
tp872
Rp873
(I1
(I3
tp874
g14
(S'f8'
p875
I0
I1
tp876
Rp877
(I3
S'<'
p878
NNNI-1
I-1
I0
tp879
bI00
S',?A^\xablT@l|\x15\xef\xb5\xc3(\xc0\x00\x00\x00\xc0\xcc\xcc"@'
p880
tp881
bsS'secnames'
p882
S'Cell[1].axon[23]'
p883
sI67
I30
tp884
a(F1.5793798205692389
S'Cell[0].dend[54] syn_ = new AmpaNmda(0.166666666667)'
p885
I0
(dp886
S'seg'
p887
F0.5
sS'hostfrom'
p888
F20.0
sS'gid'
p889
I68
sS'coords'
p890
g7
(g8
(I0
tp891
g10
tp892
Rp893
(I1
(I3
tp894
g14
(S'f8'
p895
I0
I1
tp896
Rp897
(I3
S'<'
p898
NNNI-1
I-1
I0
tp899
bI00
S'\x97\n\xf8\xfeN\x17%@\xa5\x06\xb8\xfbwAH\xc0\x00\x00\x00\xa0\x99\x99\xf1?'
p900
tp901
bsS'secnames'
p902
S'Cell[1].axon[29]'
p903
sI68
I30
tp904
a(F0.624784228317851
S'Cell[0].dend[28] syn_ = new AmpaNmda(0.5)'
p905
I0
(dp906
g887
F0.3461538461538462
sg888
F20.0
sg889
I116
sg890
g7
(g8
(I0
tp907
g10
tp908
Rp909
(I1
(I3
tp910
g897
I00
S'\xec\xdc\xd7\xb2\x1etJ\xc0A\xdc\x89\x03\xc8tN\xc0\x00\x00\x00`\x8f\xa2B\xc0'
p911
tp912
bsg902
S'Cell[2].axon[85]'
p913
sI116
I30
tp914
a(F2.257353681326785
S'Cell[0].dend[46] syn_ = new ExpSid(0.833333333333)'
p915
I0
(dp916
S'seg'
p917
F0.16666666666666666
sS'hostfrom'
p918
F21.0
sS'gid'
p919
I165
sS'coords'
p920
g7
(g8
(I0
tp921
g10
tp922
Rp923
(I1
(I3
tp924
g14
(S'f8'
p925
I0
I1
tp926
Rp927
(I3
S'<'
p928
NNNI-1
I-1
I0
tp929
bI00
S">o3\xbb\xfb*_\xc0\xa613'\x8d\xa6?\xc0d%P\xbetl.\xc0"
p930
tp931
bsS'secnames'
p932
S'Cell[3].axon[186]'
p933
sI165
I30
tp934
a(F1.9542286147861292
S'Cell[3].dend[11] syn_ = new FastInhib(0.833333333333)'
p935
I3
(dp936
g917
F0.5
sg918
F21.0
sg919
I165
sg920
g7
(g8
(I0
tp937
g10
tp938
Rp939
(I1
(I3
tp940
g927
I00
S'c\x9b\xcb\x87\xe2\x9d\x15@s@R\xa4&|L\xc0\x18\x9f\xa3\x0e\x84e@@'
p941
tp942
bsg932
S'Cell[3].axon[232]'
p943
sI165
I174
tp944
a(F2.178300335589646
S'Cell[2].dend[18] syn_ = new FastInhib(0.3)'
p945
I2
(dp946
g917
F0.5
sg918
F21.0
sg919
I117
sg920
g7
(g8
(I0
tp947
g10
tp948
Rp949
(I1
(I3
tp950
g927
I00
S',\xad\x1a\x84\xae\x03:@M\xfe.K\x10~L@\x00\x00\x00\x80\xc2u9\xc0'
p951
tp952
bsg932
S'Cell[2].axon[110]'
p953
sI117
I126
tp954
a(F1.4953148365949074
S'Cell[1].dend[11] syn_ = new ExpSid(0.3)'
p955
I1
(dp956
g917
F0.30000000000000004
sg918
F21.0
sg919
I117
sg920
g7
(g8
(I0
tp957
g10
tp958
Rp959
(I1
(I3
tp960
g927
I00
S'q?\x1dB\x88{Q@\x82]\x19[lq\xf0?\x00\x00\x00\x80\xc2u9\xc0'
p961
tp962
bsg932
S'Cell[2].axon[410]'
p963
sI117
I78
tp964
a(F2.0142086001824104
S'Cell[0].dend[1] syn_ = new AmpaNmda(0.833333333333)'
p965
I0
(dp966
S'seg'
p967
F0.7
sS'hostfrom'
p968
F22.0
sS'gid'
p969
I166
sS'coords'
p970
g7
(g8
(I0
tp971
g10
tp972
Rp973
(I1
(I3
tp974
g14
(S'f8'
p975
I0
I1
tp976
Rp977
(I3
S'<'
p978
NNNI-1
I-1
I0
tp979
bI00
S'\xdetX\x89\xe9\xa43\xc0W\xba\x07\x89\xe0\xc1Q\xc0\x00\x00\x00\x80\xc2\xf5\xf0?'
p980
tp981
bsS'secnames'
p982
S'Cell[3].axon[149]'
p983
sI166
I30
tp984
a(F0.8549074019643783
S'Cell[3].dend[26] syn_ = new FastInhib(0.3)'
p985
I3
(dp986
S'seg'
p987
F0.1
sS'hostfrom'
p988
F24.0
sS'gid'
p989
I168
sS'coords'
p990
g7
(g8
(I0
tp991
g10
tp992
Rp993
(I1
(I3
tp994
g14
(S'f8'
p995
I0
I1
tp996
Rp997
(I3
S'<'
p998
NNNI-1
I-1
I0
tp999
bI00
S'\xb8\x85\xed\x90\xcc\x88H\xc0\x83\xabU\xbb\xd7S#@h\xf14\x89%\xc8U\xc0'
p1000
tp1001
bsS'secnames'
p1002
S'Cell[3].axon[311]'
p1003
sI168
I174
tp1004
a(F2.191148714891257
S'Cell[1].dend[16] syn_ = new AmpaNmda(0.5)'
p1005
I1
(dp1006
g987
F0.1
sg988
F24.0
sg989
I168
sg990
g7
(g8
(I0
tp1007
g10
tp1008
Rp1009
(I1
(I3
tp1010
g997
I00
S'C\x0c?\x8cd\xbc @\xbc\x19\xf6\xea?)!\xc0\xc8\x9cRz\xe0U.\xc0'
p1011
tp1012
bsg1002
S'Cell[3].axon[591]'
p1013
sI168
I78
tp1014
a(F1.1577827042356423
S'Cell[1].dend[21] syn_ = new AmpaNmda(0.5)'
p1015
I1
(dp1016
g987
F0.5
sg988
F24.0
sg989
I168
sg990
g7
(g8
(I0
tp1017
g10
tp1018
Rp1019
(I1
(I3
tp1020
g997
I00
S'\xa2F$\x8b\x1f\x8c9@\xbb\xd2.\xa1^\xd8$@\x17\x83\xf8q9\x8b%@'
p1021
tp1022
bsg1002
S'Cell[3].axon[591]'
p1023
sI168
I78
tp1024
a(F1.5794695286166607
S'Cell[2].apic[28] syn_ = new FastInhib(0.1)'
p1025
I2
(dp1026
g987
F0.5
sg988
F24.0
sg989
I120
sg990
g7
(g8
(I0
tp1027
g10
tp1028
Rp1029
(I1
(I3
tp1030
g997
I00
S'\x16px\t\x15\t!@X\x80\xb3\xdc\x94\x8dQ\xc0F%\xcc\xb2\xd1U4\xc0'
p1031
tp1032
bsg1002
S'Cell[2].axon[103]'
p1033
sI120
I126
tp1034
a(F2.14664890118774
S'Cell[0].dend[29] syn_ = new ExpSid(0.5)'
p1035
I0
(dp1036
S'seg'
p1037
F0.8333333333333333
sS'hostfrom'
p1038
F25.0
sS'gid'
p1039
I121
sS'coords'
p1040
g7
(g8
(I0
tp1041
g10
tp1042
Rp1043
(I1
(I3
tp1044
g14
(S'f8'
p1045
I0
I1
tp1046
Rp1047
(I3
S'<'
p1048
NNNI-1
I-1
I0
tp1049
bI00
S'\x8a\xb2\xff\xbb\xbe H\xc0L\xbe]1e>J\xc0\x9a@U\x1c\xb0\xd5D\xc0'
p1050
tp1051
bsS'secnames'
p1052
S'Cell[2].axon[177]'
p1053
sI121
I30
tp1054
a(F2.091151746792638
S'Cell[0].apic[55] syn_ = new ExpSid(0.5)'
p1055
I0
(dp1056
g1037
F0.5
sg1038
F25.0
sg1039
I121
sg1040
g7
(g8
(I0
tp1057
g10
tp1058
Rp1059
(I1
(I3
tp1060
g1047
I00
S'\x0e\x16\x0c\xab\xbd\xd5;\xc0-\x90et\xa8/!\xc0\x00\x00\x00\x00\x00\x00"@'
p1061
tp1062
bsg1052
S'Cell[2].axon[187]'
p1063
sI121
I30
tp1064
a(F2.4480051173561455
S'Cell[1].dend[27] syn_ = new ExpSid(0.833333333333)'
p1065
I1
(dp1066
g1037
F0.8999999999999999
sg1038
F25.0
sg1039
I169
sg1040
g7
(g8
(I0
tp1067
g10
tp1068
Rp1069
(I1
(I3
tp1070
g1047
I00
S'\x12\xec\xa5v\xdd\xf4M@t\x92\x10\x97\x12<>\xc0\x00\x00\x00@332@'
p1071
tp1072
bsg1052
S'Cell[3].axon[43]'
p1073
sI169
I78
tp1074
a(F1.1635229333948593
S'Cell[0].dend[3] syn_ = new ExpSid(0.5)'
p1075
I0
(dp1076
g1037
F0.5
sg1038
F25.0
sg1039
I169
sg1040
g7
(g8
(I0
tp1077
g10
tp1078
Rp1079
(I1
(I3
tp1080
g1047
I00
S'\x84\xf6\x95\x18\xc6~<\xc0u\x8f\x16\x8esVY\xc0\x00\x00\x00\xa0p=\x0c@'
p1081
tp1082
bsg1052
S'Cell[3].axon[173]'
p1083
sI169
I30
tp1084
a(F1.885015016455302
S'Cell[0].dend[28] syn_ = new ExpSid(0.5)'
p1085
I0
(dp1086
g1037
F0.5
sg1038
F25.0
sg1039
I169
sg1040
g7
(g8
(I0
tp1087
g10
tp1088
Rp1089
(I1
(I3
tp1090
g1047
I00
S'm\xd5,G\xcb\x1fJ\xc0\x9b\xectN\xc3\xf1N\xc0v\xf8\xa3\xf1\x9e\xcfA\xc0'
p1091
tp1092
bsg1052
S'Cell[3].axon[190]'
p1093
sI169
I30
tp1094
a(F2.475197826903492
S'Cell[0].dend[28] syn_ = new ExpSid(0.833333333333)'
p1095
I0
(dp1096
g1037
F0.5
sg1038
F25.0
sg1039
I169
sg1040
g7
(g8
(I0
tp1097
g10
tp1098
Rp1099
(I1
(I3
tp1100
g1047
I00
S'\x82\xca\xba;\x1f\xe3J\xc0\xed-\x1dL\xaa\x9eR\xc0\t\xbfj\xa2\x84gC\xc0'
p1101
tp1102
bsg1052
S'Cell[3].axon[194]'
p1103
sI169
I30
tp1104
a(F1.3459371836819232
S'Cell[2].apic[2] syn_ = new FastInhib(0.357142857143)'
p1105
I2
(dp1106
S'seg'
p1107
F0.21428571428571427
sS'hostfrom'
p1108
F26.0
sS'gid'
p1109
I26
sS'coords'
p1110
g7
(g8
(I0
tp1111
g10
tp1112
Rp1113
(I1
(I3
tp1114
g14
(S'f8'
p1115
I0
I1
tp1116
Rp1117
(I3
S'<'
p1118
NNNI-1
I-1
I0
tp1119
bI00
S'_\xa04M\xb8\xeb8\xc0(\xae\x85UejS\xc0\xe6R\x16/H\xc4X\xc0'
p1120
tp1121
bsS'secnames'
p1122
S'Cell[0].axon[57]'
p1123
sI26
I126
tp1124
a(F2.284310612427593
S'Cell[0].dend[1] syn_ = new ExpSid(0.166666666667)'
p1125
I0
(dp1126
S'seg'
p1127
F0.8333333333333333
sS'hostfrom'
p1128
F27.0
sS'gid'
p1129
I27
sS'coords'
p1130
g7
(g8
(I0
tp1131
g10
tp1132
Rp1133
(I1
(I3
tp1134
g14
(S'f8'
p1135
I0
I1
tp1136
Rp1137
(I3
S'<'
p1138
NNNI-1
I-1
I0
tp1139
bI00
S'\x1b;/\x08\x1f~-\xc0\x19\xb1;\xbb\xb6!C\xc0\xa2\xc2\xcb\x95\xea\x0c\xb4?'
p1140
tp1141
bsS'secnames'
p1142
S'Cell[0].axon[6]'
p1143
sI27
I30
tp1144
a(F1.0589589672687414
S'Cell[1].dend[1] syn_ = new ExpSid(0.5)'
p1145
I1
(dp1146
g1127
F0.9285714285714284
sg1128
F27.0
sg1129
I27
sg1130
g7
(g8
(I0
tp1147
g10
tp1148
Rp1149
(I1
(I3
tp1150
g1137
I00
S'\x94R\x0226tX@\xb2\x1et\x0e\xef\xb6=\xc0\x00\x00\x00`\xb8\x1e\x17\xc0'
p1151
tp1152
bsg1142
S'Cell[0].axon[37]'
p1153
sI27
I78
tp1154
a(F1.7530222109112499
S'Cell[0].dend[43] syn_ = new ExpSid(0.5)'
p1155
I0
(dp1156
g1127
F0.49999999999999994
sg1128
F27.0
sg1129
I27
sg1130
g7
(g8
(I0
tp1157
g10
tp1158
Rp1159
(I1
(I3
tp1160
g1137
I00
S"\x90\x003\x00'\x01Q\xc0\xebhR>bg!\xc0m\xd4Yt\x86q;\xc0"
p1161
tp1162
bsg1142
S'Cell[0].axon[38]'
p1163
sI27
I30
tp1164
a(F1.9519909251592722
S'Cell[1].dend[16] syn_ = new AmpaNmda(0.166666666667)'
p1165
I1
(dp1166
S'seg'
p1167
F0.5
sS'hostfrom'
p1168
F28.0
sS'gid'
p1169
I172
sS'coords'
p1170
g7
(g8
(I0
tp1171
g10
tp1172
Rp1173
(I1
(I3
tp1174
g14
(S'f8'
p1175
I0
I1
tp1176
Rp1177
(I3
S'<'
p1178
NNNI-1
I-1
I0
tp1179
bI00
S"J\xf2\xab\xc6'j.@u\x95\xa8a\xd5\xf5 @\x00\x00\x00\x00\x00\x00&\xc0"
p1180
tp1181
bsS'secnames'
p1182
S'Cell[3].axon[85]'
p1183
sI172
I78
tp1184
a(F2.3290492982240374
S'Cell[1].dend[14] syn_ = new AmpaNmda(0.5)'
p1185
I1
(dp1186
g1167
F0.5
sg1168
F28.0
sg1169
I172
sg1170
g7
(g8
(I0
tp1187
g10
tp1188
Rp1189
(I1
(I3
tp1190
g1177
I00
S'\xdf\x00"\xa1\xf5\xb2<@\xec\x95\xca\xd0v\xc5$@\x00\x00\x00\xc0\xcc\xcc\x1d\xc0'
p1191
tp1192
bsg1182
S'Cell[3].axon[89]'
p1193
sI172
I78
tp1194
a(F1.2611555021967178
S'Cell[0].apic[36] syn_ = new ExpSid(0.833333333333)'
p1195
I0
(dp1196
S'seg'
p1197
F0.8333333333333333
sS'hostfrom'
p1198
F29.0
sS'gid'
p1199
I173
sS'coords'
p1200
g7
(g8
(I0
tp1201
g10
tp1202
Rp1203
(I1
(I3
tp1204
g14
(S'f8'
p1205
I0
I1
tp1206
Rp1207
(I3
S'<'
p1208
NNNI-1
I-1
I0
tp1209
bI00
S'R\xfb<\xb5\xdd\xdd\x18\xc0\xc4\xbc\x01\x84\x97*p@\x01|\x8d\xe8n\x9eG\xc0'
p1210
tp1211
bsS'secnames'
p1212
S'Cell[3].axon[8]'
p1213
sI173
I30
tp1214
a(F1.5659946536963212
S'Cell[1].dend[8] syn_ = new ExpSid(0.1)'
p1215
I1
(dp1216
g1197
F0.5
sg1198
F29.0
sg1199
I77
sg1200
g7
(g8
(I0
tp1217
g10
tp1218
Rp1219
(I1
(I3
tp1220
g1207
I00
S'\x1b\x06\x11W\xbbeD@a5\xc2\\\xdf\x9f0\xc0\x00 Z\xcfC=\xfe\xbf'
p1221
tp1222
bsg1212
S'Cell[1].axon[0]'
p1223
sI77
I78
tp1224
a(F2.291974846031048
S'Cell[1].apic[3] syn_ = new ExpSid(0.944444444444)'
p1225
I1
(dp1226
g1197
F0.9285714285714284
sg1198
F29.0
sg1199
I77
sg1200
g7
(g8
(I0
tp1227
g10
tp1228
Rp1229
(I1
(I3
tp1230
g1207
I00
S'\x1f\xd7\x14\xf2\x0b\x18S\xc0\xe8\x1f\xde\x83\x12\xec9@\x17\xd69\xba\x11eW\xc0'
p1231
tp1232
bsg1212
S'Cell[1].axon[9]'
p1233
sI77
I78
tp1234
a(F0.9619531306613426
S'Cell[1].dend[15] syn_ = new AmpaNmda(0.7)'
p1235
I1
(dp1236
S'seg'
p1237
F0.8333333333333333
sS'hostfrom'
p1238
F30.0
sS'gid'
p1239
I126
sS'coords'
p1240
g7
(g8
(I0
tp1241
g10
tp1242
Rp1243
(I1
(I3
tp1244
g14
(S'f8'
p1245
I0
I1
tp1246
Rp1247
(I3
S'<'
p1248
NNNI-1
I-1
I0
tp1249
bI00
S'\xe6\xe6\xd7\xfd^f9\xc0/\r9\xf6z\xd6&@\xc4\x9e\x91G\xda\xe5N\xc0'
p1250
tp1251
bsS'secnames'
p1252
S'Cell[2].axon[61]'
p1253
sI126
I78
tp1254
a(F1.9879806223786176
S'Cell[0].apic[38] syn_ = new AmpaNmda(0.166666666667)'
p1255
I0
(dp1256
g1237
F0.8333333333333333
sg1238
F30.0
sg1239
I126
sg1240
g7
(g8
(I0
tp1257
g10
tp1258
Rp1259
(I1
(I3
tp1260
g1247
I00
S'\x83Nc\xc8\x9b\xd85@t18\x7flBf@\xce5\x9c\x82D\x1f:\xc0'
p1261
tp1262
bsg1252
S'Cell[2].axon[182]'
p1263
sI126
I30
tp1264
a(F2.2810929234096062
S'Cell[1].dend[29] syn_ = new AmpaNmda(0.5)'
p1265
I1
(dp1266
S'seg'
p1267
F0.16666666666666666
sS'hostfrom'
p1268
F32.0
sS'gid'
p1269
I32
sS'coords'
p1270
g7
(g8
(I0
tp1271
g10
tp1272
Rp1273
(I1
(I3
tp1274
g14
(S'f8'
p1275
I0
I1
tp1276
Rp1277
(I3
S'<'
p1278
NNNI-1
I-1
I0
tp1279
bI00
S'\xe0RHv\x92#R@\xca%\xa5zl`R\xc0C\x8fq\x86\x8d71@'
p1280
tp1281
bsS'secnames'
p1282
S'Cell[0].axon[35]'
p1283
sI32
I78
tp1284
a(F2.010797829459307
S'Cell[0].apic[55] syn_ = new ExpSid(0.5)'
p1285
I0
(dp1286
S'seg'
p1287
F0.16666666666666666
sS'hostfrom'
p1288
F33.0
sS'gid'
p1289
I177
sS'coords'
p1290
g7
(g8
(I0
tp1291
g10
tp1292
Rp1293
(I1
(I3
tp1294
g14
(S'f8'
p1295
I0
I1
tp1296
Rp1297
(I3
S'<'
p1298
NNNI-1
I-1
I0
tp1299
bI00
S'|\x904@1A<\xc0\x1b\xc1\x15\xdfo\xef\x1d\xc0\xd0\xb3\xce.\x9a\x1f$@'
p1300
tp1301
bsS'secnames'
p1302
S'Cell[3].axon[47]'
p1303
sI177
I30
tp1304
a(F2.344605379478488
S'Cell[0].apic[6] syn_ = new ExpSid(0.833333333333)'
p1305
I0
(dp1306
g1287
F0.5
sg1288
F33.0
sg1289
I177
sg1290
g7
(g8
(I0
tp1307
g10
tp1308
Rp1309
(I1
(I3
tp1310
g1297
I00
S'\xe3\x95O\x13t\x104@\xafV\xbb\x84\xb5@W@\\?q\xda*\xe3$\xc0'
p1311
tp1312
bsg1302
S'Cell[3].axon[116]'
p1313
sI177
I30
tp1314
a(F0.569661554490328
S'Cell[1].dend[29] syn_ = new AmpaNmda(0.833333333333)'
p1315
I1
(dp1316
S'seg'
p1317
F0.5
sS'hostfrom'
p1318
F34.0
sS'gid'
p1319
I34
sS'coords'
p1320
g7
(g8
(I0
tp1321
g10
tp1322
Rp1323
(I1
(I3
tp1324
g14
(S'f8'
p1325
I0
I1
tp1326
Rp1327
(I3
S'<'
p1328
NNNI-1
I-1
I0
tp1329
bI00
S'\xf96\xf7\xb2\xa7\xdeR@^\xa4\x8b\xfc\xb9nW\xc0\x93\x9b\x9c\xea\x89w-@'
p1330
tp1331
bsS'secnames'
p1332
S'Cell[0].axon[62]'
p1333
sI34
I78
tp1334
a(F1.1580004735643414
S'Cell[2].apic[4] syn_ = new FastInhib(0.5)'
p1335
I2
(dp1336
g1317
F0.5
sg1318
F34.0
sg1319
I34
sg1320
g7
(g8
(I0
tp1337
g10
tp1338
Rp1339
(I1
(I3
tp1340
g1327
I00
S'\x14`S\xaf\x81L=\xc0d\xe0X\x0e{-P\xc0\xa7\xb7\xd2\xda\xd3\xe8/\xc0'
p1341
tp1342
bsg1332
S'Cell[0].axon[65]'
p1343
sI34
I126
tp1344
a(F2.221426713955202
S'Cell[0].apic[8] syn_ = new AmpaNmda(0.1)'
p1345
I0
(dp1346
g1317
F0.5
sg1318
F34.0
sg1319
I82
sg1320
g7
(g8
(I0
tp1347
g10
tp1348
Rp1349
(I1
(I3
tp1350
g1327
I00
S'\x00\x00\x00\x00\x01\x801\xc0\x00\x00\x00\x80\x14\xc6[@\x00\x00\x00\xb0Ga.\xc0'
p1351
tp1352
bsg1332
S'Cell[1].axon[57]'
p1353
sI82
I30
tp1354
a(F2.240796824578423
S'Cell[0].apic[4] syn_ = new ExpSid(0.5)'
p1355
I0
(dp1356
S'seg'
p1357
F0.5
sS'hostfrom'
p1358
F35.0
sS'gid'
p1359
I179
sS'coords'
p1360
g7
(g8
(I0
tp1361
g10
tp1362
Rp1363
(I1
(I3
tp1364
g14
(S'f8'
p1365
I0
I1
tp1366
Rp1367
(I3
S'<'
p1368
NNNI-1
I-1
I0
tp1369
bI00
S'D\x96kiC\xe5=@\xa2\xfd:\xc6P\xb2R@\xdf\xe0\xfc\xd4\x0f\x10A\xc0'
p1370
tp1371
bsS'secnames'
p1372
S'Cell[3].axon[22]'
p1373
sI179
I30
tp1374
a(F2.044739756704622
S'Cell[0].apic[43] syn_ = new AmpaNmda(0.166666666667)'
p1375
I0
(dp1376
S'seg'
p1377
F0.16666666666666666
sS'hostfrom'
p1378
F36.0
sS'gid'
p1379
I84
sS'coords'
p1380
g7
(g8
(I0
tp1381
g10
tp1382
Rp1383
(I1
(I3
tp1384
g14
(S'f8'
p1385
I0
I1
tp1386
Rp1387
(I3
S'<'
p1388
NNNI-1
I-1
I0
tp1389
bI00
S'\xccH\xdfI^\xa2F@/\xfc\xec\x80y\xd5k@\xf2\x19\x07P\xcb\xd8H\xc0'
p1390
tp1391
bsS'secnames'
p1392
S'Cell[1].axon[361]'
p1393
sI84
I30
tp1394
a(F1.8252846206130995
S'Cell[2].dend[18] syn_ = new FastInhib(0.7)'
p1395
I2
(dp1396
g1377
F0.5
sg1378
F36.0
sg1379
I84
sg1380
g7
(g8
(I0
tp1397
g10
tp1398
Rp1399
(I1
(I3
tp1400
g1387
I00
S'uh\n\xbd\xe6\xa1@@\xec?<\x07H W@]\x90\x91\xe3\x06\xdaH\xc0'
p1401
tp1402
bsg1392
S'Cell[1].axon[519]'
p1403
sI84
I126
tp1404
a(F0.963963020438925
S'Cell[0].dend[31] syn_ = new AmpaNmda(0.5)'
p1405
I0
(dp1406
g1377
F0.16666666666666666
sg1378
F36.0
sg1379
I180
sg1380
g7
(g8
(I0
tp1407
g10
tp1408
Rp1409
(I1
(I3
tp1410
g1387
I00
S'w\xfa\xeeb\x9d\xadP\xc0.\xcd\x92\xf0\x0f\xa2T\xc0\x00\x00\x00\x80\x14nI\xc0'
p1411
tp1412
bsg1392
S'Cell[3].axon[64]'
p1413
sI180
I30
tp1414
a(F1.9382412775242461
S'Cell[0].apic[6] syn_ = new AmpaNmda(0.5)'
p1415
I0
(dp1416
g1377
F0.5
sg1378
F36.0
sg1379
I180
sg1380
g7
(g8
(I0
tp1417
g10
tp1418
Rp1419
(I1
(I3
tp1420
g1387
I00
S'O=V3\x93\x8b\x17@\xab\xd0\x18\t+cW@\x00\x00\x00\xc0\xf5\xa8 \xc0'
p1421
tp1422
bsg1392
S'Cell[3].axon[166]'
p1423
sI180
I30
tp1424
a(F1.521131507306446
S'Cell[1].dend[26] syn_ = new AmpaNmda(0.166666666667)'
p1425
I1
(dp1426
g1377
F0.5
sg1378
F36.0
sg1379
I180
sg1380
g7
(g8
(I0
tp1427
g10
tp1428
Rp1429
(I1
(I3
tp1430
g1387
I00
S'\x01\xe76c\x1bQ>@\xd8\x0fy\x0b\x8b\x00\x0c\xc0\x00\x00\x00\x80=\x8a)@'
p1431
tp1432
bsg1392
S'Cell[3].axon[192]'
p1433
sI180
I78
tp1434
a(F2.4946158213597687
S'Cell[1].dend[21] syn_ = new AmpaNmda(0.5)'
p1435
I1
(dp1436
g1377
F0.5
sg1378
F36.0
sg1379
I180
sg1380
g7
(g8
(I0
tp1437
g10
tp1438
Rp1439
(I1
(I3
tp1440
g1387
I00
S'@Y\xc8a\xef\xe4;@\xe3\x81O\x98\x0c:&@\xe0D\x00E\xa3q%@'
p1441
tp1442
bsg1392
S'Cell[3].axon[193]'
p1443
sI180
I78
tp1444
a(F1.6346906114654294
S'Cell[2].apic[28] syn_ = new FastInhib(0.9)'
p1445
I2
(dp1446
g1377
F0.5
sg1378
F36.0
sg1379
I180
sg1380
g7
(g8
(I0
tp1447
g10
tp1448
Rp1449
(I1
(I3
tp1450
g1387
I00
S'0M\xba\xad\xa7\xd34@\x0cu\xaeo\xf90d\xc0\xa0\xd1\xb9\x93\xa7\x08 @'
p1451
tp1452
bsg1392
S'Cell[3].axon[252]'
p1453
sI180
I126
tp1454
a(F0.6326123606613876
S'Cell[0].dend[59] syn_ = new AmpaNmda(0.166666666667)'
p1455
I0
(dp1456
g1377
F0.16666666666666666
sg1378
F36.0
sg1379
I180
sg1380
g7
(g8
(I0
tp1457
g10
tp1458
Rp1459
(I1
(I3
tp1460
g1387
I00
S'\xaf\xfe\x0f\xfa\xabAC@~\xf2\x8b\xf4\x17/1\xc0\xdafr\x1d\x95\x86\x1b@'
p1461
tp1462
bsg1392
S'Cell[3].axon[293]'
p1463
sI180
I30
tp1464
a(F1.7390862273653442
S'Cell[2].apic[28] syn_ = new FastInhib(0.3)'
p1465
I2
(dp1466
S'seg'
p1467
F0.6428571428571428
sS'hostfrom'
p1468
F37.0
sS'gid'
p1469
I133
sS'coords'
p1470
g7
(g8
(I0
tp1471
g10
tp1472
Rp1473
(I1
(I3
tp1474
g14
(S'f8'
p1475
I0
I1
tp1476
Rp1477
(I3
S'<'
p1478
NNNI-1
I-1
I0
tp1479
bI00
S':\xedI\xd4\x06\xfe*@\x8e1\xe83\x0b{U\xc0\xce\xc3WiK\xc7%\xc0'
p1480
tp1481
bsS'secnames'
p1482
S'Cell[2].axon[16]'
p1483
sI133
I126
tp1484
a(F2.1353073414737787
S'Cell[3].dend[16] syn_ = new FastInhib(0.5)'
p1485
I3
(dp1486
g1467
F0.5
sg1468
F37.0
sg1469
I133
sg1470
g7
(g8
(I0
tp1487
g10
tp1488
Rp1489
(I1
(I3
tp1490
g1477
I00
S'\xaa\x9d\x87Yj\r<\xc0T<\xc3\xe7}\x04\x1e\xc0;(\x85V5\xc8\x11\xc0'
p1491
tp1492
bsg1482
S'Cell[2].axon[51]'
p1493
sI133
I174
tp1494
a(F1.7932853071893318
S'Cell[1].dend[0] syn_ = new ExpSid(0.5)'
p1495
I1
(dp1496
g1467
F0.5
sg1468
F37.0
sg1469
I181
sg1470
g7
(g8
(I0
tp1497
g10
tp1498
Rp1499
(I1
(I3
tp1500
g1477
I00
S'\xd5.o\x13b\x19E@\x10\x8c\xbdlt_\x10@\xc3\x9aF \x81.\t@'
p1501
tp1502
bsg1482
S'Cell[3].axon[213]'
p1503
sI181
I78
tp1504
a(F2.399685302600131
S'Cell[2].apic[24] syn_ = new FastInhib(0.5)'
p1505
I2
(dp1506
g1467
F0.5
sg1468
F37.0
sg1469
I181
sg1470
g7
(g8
(I0
tp1507
g10
tp1508
Rp1509
(I1
(I3
tp1510
g1477
I00
S'\x84\xbe\x90\xdbq\xdd%@y\r2\nc\xd4H\xc0\xd8\xf1\xf6\xf7\xa1H>\xc0'
p1511
tp1512
bsg1482
S'Cell[3].axon[270]'
p1513
sI181
I126
tp1514
a(F2.399685302600131
S'Cell[2].apic[24] syn_ = new FastInhib(0.5)'
p1515
I2
(dp1516
g1467
F0.5
sg1468
F37.0
sg1469
I181
sg1470
g7
(g8
(I0
tp1517
g10
tp1518
Rp1519
(I1
(I3
tp1520
g1477
I00
S'\x84\xbe\x90\xdbq\xdd%@y\r2\nc\xd4H\xc0\xd8\xf1\xf6\xf7\xa1H>\xc0'
p1521
tp1522
bsg1482
S'Cell[3].axon[288]'
p1523
sI181
I126
tp1524
a(F1.9265573442577109
S'Cell[0].apic[55] syn_ = new ExpSid(0.166666666667)'
p1525
I0
(dp1526
g1467
F0.07142857142857142
sg1468
F37.0
sg1469
I85
sg1470
g7
(g8
(I0
tp1527
g10
tp1528
Rp1529
(I1
(I3
tp1530
g1477
I00
S'\xeb\xa4\xeb\xaa\x9a\xf81\xc0\xe7R\xaa/"6\x1b\xc0\xa9\xc8q\x08\x9d\xbc\xe7\xbf'
p1531
tp1532
bsg1482
S'Cell[1].axon[230]'
p1533
sI85
I30
tp1534
a(F0.999718133079281
S'Cell[0].dend[36] syn_ = new AmpaNmda(0.9)'
p1535
I0
(dp1536
S'seg'
p1537
F0.5
sS'hostfrom'
p1538
F38.0
sS'gid'
p1539
I182
sS'coords'
p1540
g7
(g8
(I0
tp1541
g10
tp1542
Rp1543
(I1
(I3
tp1544
g14
(S'f8'
p1545
I0
I1
tp1546
Rp1547
(I3
S'<'
p1548
NNNI-1
I-1
I0
tp1549
bI00
S'\xd2g\xd0`o\x9fT\xc0\xe1Q\xa0GP\xa7Q\xc0\xe8>\xb3\x03\xc4\x1fJ\xc0'
p1550
tp1551
bsS'secnames'
p1552
S'Cell[3].axon[119]'
p1553
sI182
I30
tp1554
a(F1.4515050485985268
S'Cell[0].dend[55] syn_ = new AmpaNmda(0.5)'
p1555
I0
(dp1556
g1537
F0.5
sg1538
F38.0
sg1539
I182
sg1540
g7
(g8
(I0
tp1557
g10
tp1558
Rp1559
(I1
(I3
tp1560
g1547
I00
S'\xf2\x83\xa6y\x9a\xab2@\xea\x0e"\r\xd0\xd65\xc0\xc1\xf0\xea!g\xca\xf3\xbf'
p1561
tp1562
bsg1552
S'Cell[3].axon[288]'
p1563
sI182
I30
tp1564
a(F1.5207538379175818
S'Cell[2].apic[5] syn_ = new FastInhib(0.833333333333)'
p1565
I2
(dp1566
g1537
F0.5
sg1538
F38.0
sg1539
I182
sg1540
g7
(g8
(I0
tp1567
g10
tp1568
Rp1569
(I1
(I3
tp1570
g1547
I00
S'\x87\x83\xf3\x96\xf3\xd3"\xc0z\xe8\n#\x95K`\xc0\xd2\xb1\x12\xb2\xce\x91E\xc0'
p1571
tp1572
bsg1552
S'Cell[3].axon[390]'
p1573
sI182
I126
tp1574
a(F2.288475925000483
S'Cell[2].apic[21] syn_ = new FastInhib(0.5)'
p1575
I2
(dp1576
g1537
F0.5
sg1538
F38.0
sg1539
I86
sg1540
g7
(g8
(I0
tp1577
g10
tp1578
Rp1579
(I1
(I3
tp1580
g1547
I00
S'\xc3\x18U?F\xa04@\xd7m\xf0(X\xe3H\xc0\x00\x00\x00\x00\x00\xc0@\xc0'
p1581
tp1582
bsg1552
S'Cell[1].axon[70]'
p1583
sI86
I126
tp1584
a(F2.497960945672691
S'Cell[0].dend[31] syn_ = new AmpaNmda(0.5)'
p1585
I0
(dp1586
g1537
F0.5
sg1538
F38.0
sg1539
I86
sg1540
g7
(g8
(I0
tp1587
g10
tp1588
Rp1589
(I1
(I3
tp1590
g1547
I00
S'\x1c\x8f\xc2\x1ei4P\xc0\xa8~\x7f\x9e*\x9bT\xc0e\xdc\x9e\xdc\x8egJ\xc0'
p1591
tp1592
bsg1552
S'Cell[1].axon[74]'
p1593
sI86
I30
tp1594
a(F1.112019582670871
S'Cell[2].apic[25] syn_ = new FastInhib(0.5)'
p1595
I2
(dp1596
g1537
F0.5
sg1538
F38.0
sg1539
I86
sg1540
g7
(g8
(I0
tp1597
g10
tp1598
Rp1599
(I1
(I3
tp1600
g1547
I00
S'7A\xd8\x0f\xbe\xcb2@\xc2\xad@\xd9-\xd2P\xc0.\x12\x11\xe9\xef\xf5;\xc0'
p1601
tp1602
bsg1552
S'Cell[1].axon[84]'
p1603
sI86
I126
tp1604
a(F2.115607646461144
S'Cell[2].apic[24] syn_ = new FastInhib(0.5)'
p1605
I2
(dp1606
g1537
F0.8333333333333333
sg1538
F38.0
sg1539
I86
sg1540
g7
(g8
(I0
tp1607
g10
tp1608
Rp1609
(I1
(I3
tp1610
g1547
I00
S'x\xa6W\xf3\xe2\xb2!@S+SR\xad\x1eJ\xc0\xd5\xb6\xd5;\xe2S=\xc0'
p1611
tp1612
bsg1552
S'Cell[1].axon[84]'
p1613
sI86
I126
tp1614
a(F2.312483567167066
S'Cell[2].apic[28] syn_ = new FastInhib(0.9)'
p1615
I2
(dp1616
g1537
F0.21428571428571427
sg1538
F38.0
sg1539
I134
sg1540
g7
(g8
(I0
tp1617
g10
tp1618
Rp1619
(I1
(I3
tp1620
g1547
I00
S'?;\x05\x1c\xc9\x194@\x02fe\xf2}\x80d\xc0\xf8\xe4OM\xa96#@'
p1621
tp1622
bsg1552
S'Cell[2].axon[82]'
p1623
sI134
I126
tp1624
a(F2.4465230985913355
S'Cell[0].dend[50] syn_ = new ExpSid(0.833333333333)'
p1625
I0
(dp1626
S'seg'
p1627
F0.5
sS'hostfrom'
p1628
F39.0
sS'gid'
p1629
I87
sS'coords'
p1630
g7
(g8
(I0
tp1631
g10
tp1632
Rp1633
(I1
(I3
tp1634
g14
(S'f8'
p1635
I0
I1
tp1636
Rp1637
(I3
S'<'
p1638
NNNI-1
I-1
I0
tp1639
bI00
S'\x1a\xc6B\x94\xf4\xc5=@\x0c\xd3H\xeb\x10\x8aU\xc0P\x0f?:\x85\xe6<\xc0'
p1640
tp1641
bsS'secnames'
p1642
S'Cell[1].axon[151]'
p1643
sI87
I30
tp1644
a(F0.9329118193723369
S'Cell[2].dend[18] syn_ = new FastInhib(0.5)'
p1645
I2
(dp1646
g1627
F0.07142857142857142
sg1628
F39.0
sg1629
I135
sg1630
g7
(g8
(I0
tp1647
g10
tp1648
Rp1649
(I1
(I3
tp1650
g1637
I00
S'\xd8\xc0\x87\x92E\xe1;@FL \xd9F\xd2R@VKK@\xb3sC\xc0'
p1651
tp1652
bsg1642
S'Cell[2].axon[155]'
p1653
sI135
I126
tp1654
a(F2.1414330253823093
S'Cell[2].dend[19] syn_ = new FastInhib(0.5)'
p1655
I2
(dp1656
S'seg'
p1657
F0.8999999999999999
sS'hostfrom'
p1658
F40.0
sS'gid'
p1659
I88
sS'coords'
p1660
g7
(g8
(I0
tp1661
g10
tp1662
Rp1663
(I1
(I3
tp1664
g14
(S'f8'
p1665
I0
I1
tp1666
Rp1667
(I3
S'<'
p1668
NNNI-1
I-1
I0
tp1669
bI00
S'\xc6\x19=\xdb\x93\xfeF@\x19\x9f\xcbs{;_@\x95L\xaa[\xd4\xe2T\xc0'
p1670
tp1671
bsS'secnames'
p1672
S'Cell[1].axon[110]'
p1673
sI88
I126
tp1674
a(F2.0616779838807915
S'Cell[0].apic[2] syn_ = new AmpaNmda(0.5)'
p1675
I0
(dp1676
g1657
F0.5
sg1658
F40.0
sg1659
I88
sg1660
g7
(g8
(I0
tp1677
g10
tp1678
Rp1679
(I1
(I3
tp1680
g1667
I00
S"F\xce\xb0N\xa3\x99'@Lt\xf3\x14\x04\xc8N@\x97GO\x01\x15g)\xc0"
p1681
tp1682
bsg1672
S'Cell[1].axon[148]'
p1683
sI88
I30
tp1684
a(F1.8754667980659778
S'Cell[3].dend[23] syn_ = new FastInhib(0.166666666667)'
p1685
I3
(dp1686
g1657
F0.5
sg1658
F40.0
sg1659
I88
sg1660
g7
(g8
(I0
tp1687
g10
tp1688
Rp1689
(I1
(I3
tp1690
g1667
I00
S'\x92l\xc3\x916\xd8E\xc08ao\xe5Vb0@\x1e\xb5\x1d\xf4x\x14\xf2\xbf'
p1691
tp1692
bsg1672
S'Cell[1].axon[288]'
p1693
sI88
I174
tp1694
a(F2.3257072000899046
S'Cell[3].dend[2] syn_ = new FastInhib(0.833333333333)'
p1695
I3
(dp1696
g1657
F0.5
sg1658
F40.0
sg1659
I88
sg1660
g7
(g8
(I0
tp1697
g10
tp1698
Rp1699
(I1
(I3
tp1700
g1667
I00
S'c\xd8\xc7\x11\xc7\x0fG\xc02\xec\xe3\xa8\xa5\x9dU@\xf2\x11\xdb\x01\x14\xf7(\xc0'
p1701
tp1702
bsg1672
S'Cell[1].axon[316]'
p1703
sI88
I174
tp1704
a(F2.0490294094191763
S'Cell[1].dend[13] syn_ = new AmpaNmda(0.166666666667)'
p1705
I1
(dp1706
g1657
F0.5
sg1658
F40.0
sg1659
I88
sg1660
g7
(g8
(I0
tp1707
g10
tp1708
Rp1709
(I1
(I3
tp1710
g1667
I00
S'\xf9\x92X\xf0\xe9\xb5a@\xd9"\xe5kk\xa1"\xc0R\xdb\xc3\x7f\x89\x8fF\xc0'
p1711
tp1712
bsg1672
S'Cell[1].axon[353]'
p1713
sI88
I78
tp1714
a(F2.3398820247894956
S'Cell[0].apic[5] syn_ = new AmpaNmda(0.5)'
p1715
I0
(dp1716
g1657
F0.30000000000000004
sg1658
F40.0
sg1659
I136
sg1660
g7
(g8
(I0
tp1717
g10
tp1718
Rp1719
(I1
(I3
tp1720
g1667
I00
S'\xdd\xf0V \xf4\xa5!\xc0ZA\x19\x8bi\x9fQ@D\xa1C\xc7\xd8\x0f1\xc0'
p1721
tp1722
bsg1672
S'Cell[2].axon[27]'
p1723
sI136
I30
tp1724
a(F1.7486338129363035
S'Cell[3].dend[23] syn_ = new FastInhib(0.833333333333)'
p1725
I3
(dp1726
g1657
F0.16666666666666666
sg1658
F40.0
sg1659
I184
sg1660
g7
(g8
(I0
tp1727
g10
tp1728
Rp1729
(I1
(I3
tp1730
g1667
I00
S'\xa5\xe7#\x02\xdbi/\xc0m5\xb8\x9f\xdfZ6@ \xf4\x83\xa6\xf2\xbc,@'
p1731
tp1732
bsg1672
S'Cell[3].axon[18]'
p1733
sI184
I174
tp1734
a(F1.9565819845116041
S'Cell[1].dend[25] syn_ = new AmpaNmda(0.3)'
p1735
I1
(dp1736
g1657
F0.8333333333333333
sg1658
F40.0
sg1659
I184
sg1660
g7
(g8
(I0
tp1737
g10
tp1738
Rp1739
(I1
(I3
tp1740
g1667
I00
S'\xa2%\xb0\xe2\xaa\xe6\x07@D\xf0"d\xa3A4\xc0z\xa3\xda*cb\x02\xc0'
p1741
tp1742
bsg1672
S'Cell[3].axon[62]'
p1743
sI184
I78
tp1744
a(F2.3849049825883855
S'Cell[0].dend[37] syn_ = new ExpSid(0.833333333333)'
p1745
I0
(dp1746
S'seg'
p1747
F0.8999999999999999
sS'hostfrom'
p1748
F41.0
sS'gid'
p1749
I185
sS'coords'
p1750
g7
(g8
(I0
tp1751
g10
tp1752
Rp1753
(I1
(I3
tp1754
g14
(S'f8'
p1755
I0
I1
tp1756
Rp1757
(I3
S'<'
p1758
NNNI-1
I-1
I0
tp1759
bI00
S"\x8aq\xb7=\x86\x12N\xc0(LJ(\x8a\n)@+$'\x1a&*C\xc0"
p1760
tp1761
bsS'secnames'
p1762
S'Cell[3].axon[260]'
p1763
sI185
I30
tp1764
a(F1.9088329538429638
S'Cell[0].apic[4] syn_ = new ExpSid(0.3)'
p1765
I0
(dp1766
g1747
F0.8999999999999999
sg1748
F41.0
sg1749
I185
sg1750
g7
(g8
(I0
tp1767
g10
tp1768
Rp1769
(I1
(I3
tp1770
g1757
I00
S'\xba-\x16\xee\n\x91-@\xb4\x10\xe6#5\x84Q@\x1e\xb3R\n\x0c\xa97\xc0'
p1771
tp1772
bsg1762
S'Cell[3].axon[281]'
p1773
sI185
I30
tp1774
a(F2.189703676115545
S'Cell[1].dend[25] syn_ = new ExpSid(0.1)'
p1775
I1
(dp1776
g1747
F0.16666666666666666
sg1748
F41.0
sg1749
I185
sg1750
g7
(g8
(I0
tp1777
g10
tp1778
Rp1779
(I1
(I3
tp1780
g1757
I00
S'\xa6M;\x1d\xaf\x831@\x13M\x06\xd9wb\xfa\xbfa\x8fkwP\xf8"@'
p1781
tp1782
bsg1762
S'Cell[3].axon[287]'
p1783
sI185
I78
tp1784
a(F1.6569509579954957
S'Cell[2].dend[18] syn_ = new FastInhib(0.5)'
p1785
I2
(dp1786
g1747
F0.8333333333333333
sg1748
F41.0
sg1749
I89
sg1750
g7
(g8
(I0
tp1787
g10
tp1788
Rp1789
(I1
(I3
tp1790
g1757
I00
S'>q\xa5W44=@=\xac\xca\xbd\xcf\tS@\xb0T\x87\xbfJ\xa5C\xc0'
p1791
tp1792
bsg1762
S'Cell[1].axon[89]'
p1793
sI89
I126
tp1794
a(F1.8562562670494474
S'Cell[1].dend[8] syn_ = new ExpSid(0.5)'
p1795
I1
(dp1796
g1747
F0.2777777777777778
sg1748
F41.0
sg1749
I89
sg1750
g7
(g8
(I0
tp1797
g10
tp1798
Rp1799
(I1
(I3
tp1800
g1757
I00
S'\x02\x14\x80@\x10\xb7C@Z\x0c\xe4\xb21"H\xc0\x06\xa3\xa5\xa9\xa3\x85C\xc0'
p1801
tp1802
bsg1762
S'Cell[1].axon[186]'
p1803
sI89
I78
tp1804
a(F2.199440924160476
S'Cell[2].dend[11] syn_ = new FastInhib(0.5)'
p1805
I2
(dp1806
S'seg'
p1807
F0.5
sS'hostfrom'
p1808
F42.0
sS'gid'
p1809
I138
sS'coords'
p1810
g7
(g8
(I0
tp1811
g10
tp1812
Rp1813
(I1
(I3
tp1814
g14
(S'f8'
p1815
I0
I1
tp1816
Rp1817
(I3
S'<'
p1818
NNNI-1
I-1
I0
tp1819
bI00
S'$\xdc\x89\xac\xe51!\xc0\x14\xfd\xa23#\xf1P@\x00\x00\x00\x80\xebQ \xc0'
p1820
tp1821
bsS'secnames'
p1822
S'Cell[2].axon[191]'
p1823
sI138
I126
tp1824
a(F1.8392210199211778
S'Cell[0].apic[4] syn_ = new ExpSid(0.3)'
p1825
I0
(dp1826
S'seg'
p1827
F0.5
sS'hostfrom'
p1828
F43.0
sS'gid'
p1829
I91
sS'coords'
p1830
g7
(g8
(I0
tp1831
g10
tp1832
Rp1833
(I1
(I3
tp1834
g14
(S'f8'
p1835
I0
I1
tp1836
Rp1837
(I3
S'<'
p1838
NNNI-1
I-1
I0
tp1839
bI00
S'\x00\x00\x00\xd0GA0@\x00\x00\x00\xc0\xcclQ@\x00\x00\x00\x00\x00 9\xc0'
p1840
tp1841
bsS'secnames'
p1842
S'Cell[1].axon[374]'
p1843
sI91
I30
tp1844
a(F1.8250717834009766
S'Cell[1].dend[1] syn_ = new ExpSid(0.7)'
p1845
I1
(dp1846
g1827
F0.8333333333333333
sg1828
F43.0
sg1829
I139
sg1830
g7
(g8
(I0
tp1847
g10
tp1848
Rp1849
(I1
(I3
tp1850
g1837
I00
S'\xcf\xcb\x07j\x94\xd9^@\xc7\x04\x03L~\xedC\xc0\x00\x00\x00\xa0G\xe1$\xc0'
p1851
tp1852
bsg1842
S'Cell[2].axon[150]'
p1853
sI139
I78
tp1854
a(F1.989415638076552
S'Cell[3].dend[14] syn_ = new FastInhib(0.5)'
p1855
I3
(dp1856
g1827
F0.5
sg1828
F43.0
sg1829
I139
sg1830
g7
(g8
(I0
tp1857
g10
tp1858
Rp1859
(I1
(I3
tp1860
g1837
I00
S'\xe0\xedO\xebD\x84:\xc0\xef\xaa\xa0\xeb\x93\x876@F\xb7\xca\x05\t\xd5;\xc0'
p1861
tp1862
bsg1842
S'Cell[2].axon[376]'
p1863
sI139
I174
tp1864
a(F1.7326378135577631
S'Cell[0].dend[24] syn_ = new ExpSid(0.5)'
p1865
I0
(dp1866
g1827
F0.5
sg1828
F43.0
sg1829
I187
sg1830
g7
(g8
(I0
tp1867
g10
tp1868
Rp1869
(I1
(I3
tp1870
g1837
I00
S'\x10\xbc\x8c\xdc\x1d+2\xc0\xdctd\x92s\x1c>\xc0\x00\x00\x00\x00\x00\x80!\xc0'
p1871
tp1872
bsg1842
S'Cell[3].axon[47]'
p1873
sI187
I30
tp1874
a(F0.560382688049108
S'Cell[1].dend[11] syn_ = new AmpaNmda(0.7)'
p1875
I1
(dp1876
S'seg'
p1877
F0.5
sS'hostfrom'
p1878
F44.0
sS'gid'
p1879
I92
sS'coords'
p1880
g7
(g8
(I0
tp1881
g10
tp1882
Rp1883
(I1
(I3
tp1884
g14
(S'f8'
p1885
I0
I1
tp1886
Rp1887
(I3
S'<'
p1888
NNNI-1
I-1
I0
tp1889
bI00
S"\x07\xa8\x03S\xbbu[@\xa0\x10\xef\xcc6\x12)\xc0\xdc\x98\xbd$\xec'F\xc0"
p1890
tp1891
bsS'secnames'
p1892
S'Cell[1].axon[77]'
p1893
sI92
I78
tp1894
a(F1.9952751800902244
S'Cell[1].dend[8] syn_ = new AmpaNmda(0.5)'
p1895
I1
(dp1896
g1877
F0.5
sg1878
F44.0
sg1879
I92
sg1880
g7
(g8
(I0
tp1897
g10
tp1898
Rp1899
(I1
(I3
tp1900
g1887
I00
S'\x9eK(\xa5@bC@\x0c\x98J\x1a\x86DH\xc0\xf8\xbf\x1d\x1b\x87\xe8A\xc0'
p1901
tp1902
bsg1892
S'Cell[1].axon[160]'
p1903
sI92
I78
tp1904
a(F1.6085822888384393
S'Cell[1].dend[13] syn_ = new AmpaNmda(0.166666666667)'
p1905
I1
(dp1906
g1877
F0.7
sg1878
F44.0
sg1879
I92
sg1880
g7
(g8
(I0
tp1907
g10
tp1908
Rp1909
(I1
(I3
tp1910
g1887
I00
S"\xe2>\x8b\xcc\xd9\xb9a@\x10\xe2i\x05'\x95$\xc0`\xc4\xd5\xdd<zF\xc0"
p1911
tp1912
bsg1892
S'Cell[1].axon[249]'
p1913
sI92
I78
tp1914
a(F1.5455848848693676
S'Cell[3].dend[7] syn_ = new FastInhib(0.5)'
p1915
I3
(dp1916
g1877
F0.7857142857142856
sg1878
F44.0
sg1879
I92
sg1880
g7
(g8
(I0
tp1917
g10
tp1918
Rp1919
(I1
(I3
tp1920
g1887
I00
S'vW\xb8Bf\xcfF\xc0\xad\x97?+\x00O7\xc0\x88\xa2\x911\xbd2\xfe?'
p1921
tp1922
bsg1892
S'Cell[1].axon[252]'
p1923
sI92
I174
tp1924
a(F1.6776596676326896
S'Cell[0].dend[38] syn_ = new AmpaNmda(0.5)'
p1925
I0
(dp1926
g1877
F0.16666666666666666
sg1878
F44.0
sg1879
I188
sg1880
g7
(g8
(I0
tp1927
g10
tp1928
Rp1929
(I1
(I3
tp1930
g1887
I00
S'\xe7"\x08\xab\xb8>A\xc0Nyn\xab\xc1s@\xc0\x05I\xb66\xcb\xd4 \xc0'
p1931
tp1932
bsg1892
S'Cell[3].axon[40]'
p1933
sI188
I30
tp1934
a(F2.34257808916961
S'Cell[2].dend[16] syn_ = new FastInhib(0.166666666667)'
p1935
I2
(dp1936
g1877
F0.5
sg1878
F44.0
sg1879
I188
sg1880
g7
(g8
(I0
tp1937
g10
tp1938
Rp1939
(I1
(I3
tp1940
g1887
I00
S'\x00\x00\x004\\\x8f\t\xc0\x00\x00\x00\xc0\xf5\x80X@\x00\x00\x00\xf0(<9\xc0'
p1941
tp1942
bsg1892
S'Cell[3].axon[69]'
p1943
sI188
I126
tp1944
a(F2.0791982369706137
S'Cell[0].dend[2] syn_ = new AmpaNmda(0.5)'
p1945
I0
(dp1946
g1877
F0.30000000000000004
sg1878
F44.0
sg1879
I44
sg1880
g7
(g8
(I0
tp1947
g10
tp1948
Rp1949
(I1
(I3
tp1950
g1887
I00
S'\xa6\xd6\x97\xbe\x97\xf4G\xc0\xf0\x82\xea\xa8\xfdb[\xc0\xe47{7\xdf\xd7%\xc0'
p1951
tp1952
bsg1892
S'Cell[0].axon[35]'
p1953
sI44
I30
tp1954
a(F1.6026183001208998
S'Cell[3].dend[28] syn_ = new FastInhib(0.5)'
p1955
I3
(dp1956
S'seg'
p1957
F0.5
sS'hostfrom'
p1958
F45.0
sS'gid'
p1959
I141
sS'coords'
p1960
g7
(g8
(I0
tp1961
g10
tp1962
Rp1963
(I1
(I3
tp1964
g14
(S'f8'
p1965
I0
I1
tp1966
Rp1967
(I3
S'<'
p1968
NNNI-1
I-1
I0
tp1969
bI00
S'b\xcdB\xc2\xc5>R\xc0\x01\xa6\x8fd,\xc10\xc0\xe1\x90\xecj.m\x1d\xc0'
p1970
tp1971
bsS'secnames'
p1972
S'Cell[2].axon[27]'
p1973
sI141
I174
tp1974
a(F1.7112863156366347
S'Cell[0].apic[21] syn_ = new ExpSid(0.5)'
p1975
I0
(dp1976
g1957
F0.3571428571428571
sg1958
F45.0
sg1959
I189
sg1960
g7
(g8
(I0
tp1977
g10
tp1978
Rp1979
(I1
(I3
tp1980
g1967
I00
S'p\x18\xe3Hj\xd2@\xc0Tb\xb7\x1f\xc2*i@u\x91vD\xc4|L\xc0'
p1981
tp1982
bsg1972
S'Cell[3].axon[137]'
p1983
sI189
I30
tp1984
a(F2.1554145508495166
S'Cell[1].apic[3] syn_ = new ExpSid(0.166666666667)'
p1985
I1
(dp1986
g1957
F0.05555555555555555
sg1958
F45.0
sg1959
I189
sg1960
g7
(g8
(I0
tp1987
g10
tp1988
Rp1989
(I1
(I3
tp1990
g1967
I00
S'\x95\x88U\x15\x17N7@.\xe3\x90g\x0eWP@\xd5uo\xab\xef\n3\xc0'
p1991
tp1992
bsg1972
S'Cell[3].axon[179]'
p1993
sI189
I78
tp1994
a(F1.8540386630556152
S'Cell[2].dend[13] syn_ = new FastInhib(0.5)'
p1995
I2
(dp1996
g1957
F0.8333333333333333
sg1958
F45.0
sg1959
I93
sg1960
g7
(g8
(I0
tp1997
g10
tp1998
Rp1999
(I1
(I3
tp2000
g1967
I00
S'AUoU\xc9y!@ `\xf1A\xee\xe9Q@4\xc1\x01\xe8r&,\xc0'
p2001
tp2002
bsg1972
S'Cell[1].axon[71]'
p2003
sI93
I126
tp2004
a(F1.4424371968684064
S'Cell[2].dend[11] syn_ = new FastInhib(0.166666666667)'
p2005
I2
(dp2006
g1957
F0.8333333333333333
sg1958
F45.0
sg1959
I93
sg1960
g7
(g8
(I0
tp2007
g10
tp2008
Rp2009
(I1
(I3
tp2010
g1967
I00
S'\x84\xa9\x92\xc4\xaab\x0c\xc0\xeer-\r\x87OJ@\xb6~\x0c\xdd\xa8:-\xc0'
p2011
tp2012
bsg1972
S'Cell[1].axon[143]'
p2013
sI93
I126
tp2014
a(F1.9155491870871124
S'Cell[2].dend[9] syn_ = new FastInhib(0.5)'
p2015
I2
(dp2016
g1957
F0.5
sg1958
F45.0
sg1959
I93
sg1960
g7
(g8
(I0
tp2017
g10
tp2018
Rp2019
(I1
(I3
tp2020
g1967
I00
S'\x12S,\xee\xef\x0f\xd7\xbf\xb5:\xf3B ND@vJ\xdc\x11\xc66.\xc0'
p2021
tp2022
bsg1972
S'Cell[1].axon[144]'
p2023
sI93
I126
tp2024
a(F2.1363380092887443
S'Cell[2].dend[13] syn_ = new FastInhib(0.5)'
p2025
I2
(dp2026
g1957
F0.5
sg1958
F45.0
sg1959
I93
sg1960
g7
(g8
(I0
tp2027
g10
tp2028
Rp2029
(I1
(I3
tp2030
g1967
I00
S'\xfa\x12u@\xfe\xa8&@\x84\xee\x9f\x1c<\xdcQ@\x10\xad\xb6\xa5\xa6\xfa+\xc0'
p2031
tp2032
bsg1972
S'Cell[1].axon[155]'
p2033
sI93
I126
tp2034
a(F2.4294265365652574
S'Cell[3].dend[24] syn_ = new FastInhib(0.5)'
p2035
I3
(dp2036
S'seg'
p2037
F0.8333333333333333
sS'hostfrom'
p2038
F46.0
sS'gid'
p2039
I94
sS'coords'
p2040
g7
(g8
(I0
tp2041
g10
tp2042
Rp2043
(I1
(I3
tp2044
g14
(S'f8'
p2045
I0
I1
tp2046
Rp2047
(I3
S'<'
p2048
NNNI-1
I-1
I0
tp2049
bI00
S'\xb0\xf4g\x0f\x1b\xb9J\xc0\xbf\xf8\x01\xb3\xcd\xfc\x16@\x00\x00\x00\x80\xeb\x11>\xc0'
p2050
tp2051
bsS'secnames'
p2052
S'Cell[1].axon[335]'
p2053
sI94
I174
tp2054
a(F1.858216642912217
S'Cell[3].dend[22] syn_ = new FastInhib(0.5)'
p2055
I3
(dp2056
g2037
F0.5
sg2038
F46.0
sg2039
I94
sg2040
g7
(g8
(I0
tp2057
g10
tp2058
Rp2059
(I1
(I3
tp2060
g2047
I00
S'ISm\x93\xf0\xaeD\xc0F9)7\xce\x93=@\xa1\nrf.} \xc0'
p2061
tp2062
bsg2052
S'Cell[1].axon[347]'
p2063
sI94
I174
tp2064
a(F2.167579501923479
S'Cell[0].dend[59] syn_ = new ExpSid(0.166666666667)'
p2065
I0
(dp2066
S'seg'
p2067
F0.5
sS'hostfrom'
p2068
F47.0
sS'gid'
p2069
I95
sS'coords'
p2070
g7
(g8
(I0
tp2071
g10
tp2072
Rp2073
(I1
(I3
tp2074
g14
(S'f8'
p2075
I0
I1
tp2076
Rp2077
(I3
S'<'
p2078
NNNI-1
I-1
I0
tp2079
bI00
S'\xafc0\x1bC\xd7B@OO.j\xd0\xd30\xc0\t\x0f`\x80\xc0\x04\x11@'
p2080
tp2081
bsS'secnames'
p2082
S'Cell[1].axon[161]'
p2083
sI95
I30
tp2084
a(F1.242673447800572
S'Cell[0].apic[17] syn_ = new ExpSid(0.5)'
p2085
I0
(dp2086
g2067
F0.7
sg2068
F47.0
sg2069
I95
sg2070
g7
(g8
(I0
tp2087
g10
tp2088
Rp2089
(I1
(I3
tp2090
g2077
I00
S'\xe2\xacy=E\xe5,\xc0&\xe8\xbbT\xe7\x82e@L\xe0\xafi\xd9\xffC\xc0'
p2091
tp2092
bsg2082
S'Cell[1].axon[182]'
p2093
sI95
I30
tp2094
a(F2.4009401704690636
S'Cell[2].dend[11] syn_ = new FastInhib(0.833333333333)'
p2095
I2
(dp2096
g2067
F0.5
sg2068
F47.0
sg2069
I143
sg2070
g7
(g8
(I0
tp2097
g10
tp2098
Rp2099
(I1
(I3
tp2100
g2077
I00
S"\xc4\xddT\x9d[\x11*\xc0|'J\xfa\xec\xf8U@\xc8V\x11\xf7E\xa7'\xc0"
p2101
tp2102
bsg2082
S'Cell[2].axon[132]'
p2103
sI143
I126
tp2104
a(F2.0506537322087457
S'Cell[1].dend[8] syn_ = new ExpSid(0.1)'
p2105
I1
(dp2106
g2067
F0.8333333333333333
sg2068
F47.0
sg2069
I143
sg2070
g7
(g8
(I0
tp2107
g10
tp2108
Rp2109
(I1
(I3
tp2110
g2077
I00
S'=v0.+pD@y\xf7\xa0d\xa7\xa7+\xc0\x00\x00\x00\xc0\x1e\x85\x10\xc0'
p2111
tp2112
bsg2082
S'Cell[2].axon[164]'
p2113
sI143
I78
tp2114
a(F1.999510075537763
S'Cell[2].dend[18] syn_ = new FastInhib(0.1)'
p2115
I2
(dp2116
g2067
F0.8333333333333333
sg2068
F47.0
sg2069
I143
sg2070
g7
(g8
(I0
tp2117
g10
tp2118
Rp2119
(I1
(I3
tp2120
g2077
I00
S'-\xc8q\xcd\xf4\x109@t"\xa2mE\x02F@\x95\xe1u\x7f&\xc4+\xc0'
p2121
tp2122
bsg2082
S'Cell[2].axon[199]'
p2123
sI143
I126
tp2124
a(F2.156625041742132
S'Cell[2].dend[11] syn_ = new FastInhib(0.5)'
p2125
I2
(dp2126
g2067
F0.5
sg2068
F47.0
sg2069
I143
sg2070
g7
(g8
(I0
tp2127
g10
tp2128
Rp2129
(I1
(I3
tp2130
g2077
I00
S'Qj\xde\x9a;7\x1c\xc0\xa1\x9d\x9c\x7f\xdb\xd1P@\x00\x00\x00\x00\x00\x00\x18\xc0'
p2131
tp2132
bsg2082
S'Cell[2].axon[203]'
p2133
sI143
I126
tp2134
a(F2.468515976098497
S'Cell[1].apic[3] syn_ = new ExpSid(0.388888888889)'
p2135
I1
(dp2136
g2067
F0.5
sg2068
F47.0
sg2069
I143
sg2070
g7
(g8
(I0
tp2137
g10
tp2138
Rp2139
(I1
(I3
tp2140
g2077
I00
S'8=\xc7\xef\xb2\x84\xeb\xbf\xdc\xd47\x89\x15<G@\x1c\xf3{F\xd2\x04F\xc0'
p2141
tp2142
bsg2082
S'Cell[2].axon[232]'
p2143
sI143
I78
tp2144
a(F2.2883388122017445
S'Cell[0].dend[33] syn_ = new ExpSid(0.833333333333)'
p2145
I0
(dp2146
g2067
F0.5
sg2068
F47.0
sg2069
I47
sg2070
g7
(g8
(I0
tp2147
g10
tp2148
Rp2149
(I1
(I3
tp2150
g2077
I00
S'\x00\x00\x00\x90\xc2\xc5A\xc0\x00\x00\x00\xb0p}S\xc0\x00\x00\x00X\x8fB\x14@'
p2151
tp2152
bsg2082
S'Cell[0].axon[2]'
p2153
sI47
I30
tp2154
a(F1.4553928553675384
S'Cell[3].dend[24] syn_ = new FastInhib(0.166666666667)'
p2155
I3
(dp2156
g2067
F0.5
sg2068
F47.0
sg2069
I47
sg2070
g7
(g8
(I0
tp2157
g10
tp2158
Rp2159
(I1
(I3
tp2160
g2077
I00
S'\xc2|\x08\x148QJ\xc0\xbf\x84\x04s\x06\xde\x1d@\xb8\xad#\x1d\x8e\xda#\xc0'
p2161
tp2162
bsg2082
S'Cell[0].axon[33]'
p2163
sI47
I174
tp2164
a.