(lp0
(F1.965949533987281
S'Cell[1].dend[67] syn_ = new ExpSid(0.166666666667)'
p1
I1
(dp2
S'seg'
p3
F0.30000000000000004
sS'hostfrom'
p4
F1.0
sS'gid'
p5
I145
sS'coords'
p6
cnumpy.core.multiarray
_reconstruct
p7
(cnumpy
ndarray
p8
(I0
tp9
S'b'
p10
tp11
Rp12
(I1
(I3
tp13
cnumpy
dtype
p14
(S'f8'
p15
I0
I1
tp16
Rp17
(I3
S'<'
p18
NNNI-1
I-1
I0
tp19
bI00
S'\xd6\x95\x01?4\xbdK\xc0J\x87\xbc\x92g\xdeJ@\x01\x00\x00\xc0\xf5(L\xc0'
p20
tp21
bsS'secnames'
p22
S'Cell[3].axon[36]'
p23
sI145
I74
tp24
a(F2.447377619965276
S'Cell[1].dend[66] syn_ = new ExpSid(0.833333333333)'
p25
I1
(dp26
g3
F0.5
sg4
F1.0
sg5
I145
sg6
g7
(g8
(I0
tp27
g10
tp28
Rp29
(I1
(I3
tp30
g17
I00
S'X\x0f\x1d\xd7\x00\xecF\xc0\xf2\xe2x\xe6\xcd\x14H@\xbe\x1a\xf4\nO\x0bD\xc0'
p31
tp32
bsg22
S'Cell[3].axon[98]'
p33
sI145
I74
tp34
a(F1.4326887923127232
S'Cell[1].dend[70] syn_ = new ExpSid(0.3)'
p35
I1
(dp36
g3
F0.16666666666666666
sg4
F1.0
sg5
I145
sg6
g7
(g8
(I0
tp37
g10
tp38
Rp39
(I1
(I3
tp40
g17
I00
S'\t\xea\x19\x9b_\x92P\xc0\xda\x9c\xfd\x9e\xd2\xddL@\x8e[\x91=\xbdC-\xc0'
p41
tp42
bsg22
S'Cell[3].axon[123]'
p43
sI145
I74
tp44
a(F2.4117014837635766
S'Cell[1].dend[82] syn_ = new ExpSid(0.9)'
p45
I1
(dp46
g3
F0.5
sg4
F1.0
sg5
I145
sg6
g7
(g8
(I0
tp47
g10
tp48
Rp49
(I1
(I3
tp50
g17
I00
S'>\x06\xee\xe4\x12<J\xc0\xb2\xc5;\x9e\x1e\rK\xc0\x00\x00\x00 \x85\x8bP\xc0'
p51
tp52
bsg22
S'Cell[3].axon[156]'
p53
sI145
I74
tp54
a(F1.960113635932551
S'Cell[0].dend[47] syn_ = new ExpSid(0.0714285714286)'
p55
I0
(dp56
g3
F0.8999999999999999
sg4
F1.0
sg5
I145
sg6
g7
(g8
(I0
tp57
g10
tp58
Rp59
(I1
(I3
tp60
g17
I00
S'mbn\xc3\xe8Q\x04\xc0P\xc3XdrsO@\xe9WE\xccj32\xc0'
p61
tp62
bsg22
S'Cell[3].axon[198]'
p63
sI145
I26
tp64
a(F2.0526414019787027
S'Cell[1].dend[80] syn_ = new ExpSid(0.1)'
p65
I1
(dp66
g3
F0.8333333333333333
sg4
F1.0
sg5
I97
sg6
g7
(g8
(I0
tp67
g10
tp68
Rp69
(I1
(I3
tp70
g17
I00
S'r\xb6T\x96\xc6LE\xc0\x10#\x07\x81\xdarA@D\x84\xef\x86W\xeb;\xc0'
p71
tp72
bsg22
S'Cell[2].axon[4]'
p73
sI97
I74
tp74
a(F2.1263442924873104
S'Cell[2].dend[12] syn_ = new FastInhib(0.5)'
p75
I2
(dp76
g3
F0.49999999999999994
sg4
F1.0
sg5
I97
sg6
g7
(g8
(I0
tp77
g10
tp78
Rp79
(I1
(I3
tp80
g17
I00
S'\xb7,N\xb6\x0f\xc8S@\x9d\xcd8\x17\x95dT\xc0\x11\xd4$A\xbc\x18&\xc0'
p81
tp82
bsg22
S'Cell[2].axon[30]'
p83
sI97
I122
tp84
a(F2.2482763386671056
S'Cell[0].dend[36] syn_ = new ExpSid(0.5)'
p85
I0
(dp86
g3
F0.5
sg4
F1.0
sg5
I97
sg6
g7
(g8
(I0
tp87
g10
tp88
Rp89
(I1
(I3
tp90
g17
I00
S'\xbf0\xbd%\x81<,@\xb3fJ\xea/\xe8E@\xdd\xdb[\x97\x10\x0f<\xc0'
p91
tp92
bsg22
S'Cell[2].axon[71]'
p93
sI97
I26
tp94
a(F2.175925217653752
S'Cell[0].dend[30] syn_ = new ExpSid(0.166666666667)'
p95
I0
(dp96
g3
F0.16666666666666666
sg4
F1.0
sg5
I97
sg6
g7
(g8
(I0
tp97
g10
tp98
Rp99
(I1
(I3
tp100
g17
I00
S'R\xbf\x99\\\xcf\xc2+@up^\x15h:<@\x92\x80\x87\x16HF\x00@'
p101
tp102
bsg22
S'Cell[2].axon[208]'
p103
sI97
I26
tp104
a(F1.6302961438699417
S'Cell[2].apic[21] syn_ = new FastInhib(0.3)'
p105
I2
(dp106
g3
F0.5
sg4
F1.0
sg5
I97
sg6
g7
(g8
(I0
tp107
g10
tp108
Rp109
(I1
(I3
tp110
g17
I00
S'<\xcb\xe4\xe7\x81\x08Q@\x9ef\x10!\x8b\xfbL@\xf4`}\xf5\xcc\x07!@'
p111
tp112
bsg22
S'Cell[2].axon[248]'
p113
sI97
I122
tp114
a(F2.040145788558076
S'Cell[0].dend[30] syn_ = new AmpaNmda(0.5)'
p115
I0
(dp116
S'seg'
p117
F0.5
sS'hostfrom'
p118
F2.0
sS'gid'
p119
I98
sS'coords'
p120
g7
(g8
(I0
tp121
g10
tp122
Rp123
(I1
(I3
tp124
g14
(S'f8'
p125
I0
I1
tp126
Rp127
(I3
S'<'
p128
NNNI-1
I-1
I0
tp129
bI00
S'\x00\x00\x00 \\\x8f\x1d@\x00\x00\x00\x80=\n\x1c@\x00\x00\x00@\xe1z\x1b@'
p130
tp131
bsS'secnames'
p132
S'Cell[2].soma[0]'
p133
sI98
I26
tp134
a(F1.8125576025388628
S'Cell[3].dend[34] syn_ = new FastInhib(0.5)'
p135
I3
(dp136
g117
F0.5
sg118
F2.0
sg119
I98
sg120
g7
(g8
(I0
tp137
g10
tp138
Rp139
(I1
(I3
tp140
g127
I00
S'\x85\xb2\xf6\xe1}4@\xc0k\xe4\x85\x14\xc7c_@\x00\x00\x00\xa0\x99\x199\xc0'
p141
tp142
bsg132
S'Cell[2].axon[39]'
p143
sI98
I170
tp144
a(F2.0533040993590315
S'Cell[0].dend[28] syn_ = new AmpaNmda(0.5)'
p145
I0
(dp146
g117
F0.5
sg118
F2.0
sg119
I98
sg120
g7
(g8
(I0
tp147
g10
tp148
Rp149
(I1
(I3
tp150
g127
I00
S'\x81\xa6O\xe8<\x8a*@;\x1bK\x12R8E@\x00\x00\x00@\xe1z\x02@'
p151
tp152
bsg132
S'Cell[2].axon[376]'
p153
sI98
I26
tp154
a(F2.447581042887131
S'Cell[1].dend[17] syn_ = new AmpaNmda(0.5)'
p155
I1
(dp156
g117
F0.5
sg118
F2.0
sg119
I98
sg120
g7
(g8
(I0
tp157
g10
tp158
Rp159
(I1
(I3
tp160
g127
I00
S'\x0b\x9f\x9d\x9d8]#\xc0\xed\x95~a#\x99`@\x96(\xe59E?\x05@'
p161
tp162
bsg132
S'Cell[2].axon[439]'
p163
sI98
I74
tp164
a(F2.3306100784220716
S'Cell[0].dend[51] syn_ = new AmpaNmda(0.5)'
p165
I0
(dp166
g117
F0.5
sg118
F2.0
sg119
I146
sg120
g7
(g8
(I0
tp167
g10
tp168
Rp169
(I1
(I3
tp170
g127
I00
S'$\xf1\xcfM\x11\x177\xc0H\x97\xc6\x11\xf6\xff\x1b@eYf\xc7;_Q\xc0'
p171
tp172
bsg132
S'Cell[3].axon[164]'
p173
sI146
I26
tp174
a(F1.2718696238535003
S'Cell[1].dend[80] syn_ = new AmpaNmda(0.7)'
p175
I1
(dp176
g117
F0.5
sg118
F2.0
sg119
I146
sg120
g7
(g8
(I0
tp177
g10
tp178
Rp179
(I1
(I3
tp180
g127
I00
S'\xdeC\xa31l\xa6Q\xc0F\xf6\xd4\x9c\x82r2@+\r0\x8c\xa6\xef]\xc0'
p181
tp182
bsg132
S'Cell[3].axon[287]'
p183
sI146
I74
tp184
a(F2.040145788558076
S'Cell[0].dend[30] syn_ = new ExpSid(0.5)'
p185
I0
(dp186
S'seg'
p187
F0.5
sS'hostfrom'
p188
F3.0
sS'gid'
p189
I99
sS'coords'
p190
g7
(g8
(I0
tp191
g10
tp192
Rp193
(I1
(I3
tp194
g14
(S'f8'
p195
I0
I1
tp196
Rp197
(I3
S'<'
p198
NNNI-1
I-1
I0
tp199
bI00
S'\x00\x00\x00 \\\x8f\x1d@\x00\x00\x00\x80=\n\x1c@\x00\x00\x00@\xe1z\x1b@'
p200
tp201
bsS'secnames'
p202
S'Cell[2].soma[0]'
p203
sI99
I26
tp204
a(F1.8125576025388628
S'Cell[3].dend[34] syn_ = new FastInhib(0.5)'
p205
I3
(dp206
g187
F0.5
sg188
F3.0
sg189
I99
sg190
g7
(g8
(I0
tp207
g10
tp208
Rp209
(I1
(I3
tp210
g197
I00
S'\x85\xb2\xf6\xe1}4@\xc0k\xe4\x85\x14\xc7c_@\x00\x00\x00\xa0\x99\x199\xc0'
p211
tp212
bsg202
S'Cell[2].axon[39]'
p213
sI99
I170
tp214
a(F2.0533040993590315
S'Cell[0].dend[28] syn_ = new ExpSid(0.5)'
p215
I0
(dp216
g187
F0.5
sg188
F3.0
sg189
I99
sg190
g7
(g8
(I0
tp217
g10
tp218
Rp219
(I1
(I3
tp220
g197
I00
S'\x81\xa6O\xe8<\x8a*@;\x1bK\x12R8E@\x00\x00\x00@\xe1z\x02@'
p221
tp222
bsg202
S'Cell[2].axon[376]'
p223
sI99
I26
tp224
a(F2.447581042887131
S'Cell[1].dend[17] syn_ = new ExpSid(0.5)'
p225
I1
(dp226
g187
F0.5
sg188
F3.0
sg189
I99
sg190
g7
(g8
(I0
tp227
g10
tp228
Rp229
(I1
(I3
tp230
g197
I00
S'\x0b\x9f\x9d\x9d8]#\xc0\xed\x95~a#\x99`@\x96(\xe59E?\x05@'
p231
tp232
bsg202
S'Cell[2].axon[439]'
p233
sI99
I74
tp234
a(F1.7769511174559536
S'Cell[2].dend[1] syn_ = new FastInhib(0.5)'
p235
I2
(dp236
S'seg'
p237
F0.5
sS'hostfrom'
p238
F4.0
sS'gid'
p239
I148
sS'coords'
p240
g7
(g8
(I0
tp241
g10
tp242
Rp243
(I1
(I3
tp244
g14
(S'f8'
p245
I0
I1
tp246
Rp247
(I3
S'<'
p248
NNNI-1
I-1
I0
tp249
bI00
S'\xfe\x0f\xf0de:<@p\x7f\x88\n\xf5\x13O\xc0\x00\x00\x00@\xe1ZD\xc0'
p250
tp251
bsS'secnames'
p252
S'Cell[3].axon[26]'
p253
sI148
I122
tp254
a(F2.2870972633867184
S'Cell[1].dend[45] syn_ = new AmpaNmda(0.3)'
p255
I1
(dp256
g237
F0.5
sg238
F4.0
sg239
I148
sg240
g7
(g8
(I0
tp257
g10
tp258
Rp259
(I1
(I3
tp260
g247
I00
S'\\\x91\xf8pK9=\xc0\xbc[#P(fA\xc0\xf6\xce`\xb5\xc4\x0c;@'
p261
tp262
bsg252
S'Cell[3].axon[80]'
p263
sI148
I74
tp264
a(F1.7053345416113261
S'Cell[1].dend[51] syn_ = new AmpaNmda(0.5)'
p265
I1
(dp266
g237
F0.3888888888888889
sg238
F4.0
sg239
I100
sg240
g7
(g8
(I0
tp267
g10
tp268
Rp269
(I1
(I3
tp270
g247
I00
S'\x00\x00\x00\x80\x12\xae\x0b\xc0(\xd4?\xb4\x81F1@\xb0\xa4\x184\xca!\xd8?'
p271
tp272
bsg252
S'Cell[2].axon[117]'
p273
sI100
I74
tp274
a(F2.0807087055200038
S'Cell[1].dend[80] syn_ = new AmpaNmda(0.1)'
p275
I1
(dp276
S'seg'
p277
F0.16666666666666666
sS'hostfrom'
p278
F6.0
sS'gid'
p279
I150
sS'coords'
p280
g7
(g8
(I0
tp281
g10
tp282
Rp283
(I1
(I3
tp284
g14
(S'f8'
p285
I0
I1
tp286
Rp287
(I3
S'<'
p288
NNNI-1
I-1
I0
tp289
bI00
S'u\xad\x98SN\xa6D\xc09\xff\x03\xa8\xae\x97@@\x00\x00\x00\x80\x14\xee>\xc0'
p290
tp291
bsS'secnames'
p292
S'Cell[3].axon[59]'
p293
sI150
I74
tp294
a(F1.974977972763768
S'Cell[1].dend[78] syn_ = new ExpSid(0.5)'
p295
I1
(dp296
S'seg'
p297
F0.5
sS'hostfrom'
p298
F7.0
sS'gid'
p299
I103
sS'coords'
p300
g7
(g8
(I0
tp301
g10
tp302
Rp303
(I1
(I3
tp304
g14
(S'f8'
p305
I0
I1
tp306
Rp307
(I3
S'<'
p308
NNNI-1
I-1
I0
tp309
bI00
S"\xca\n+3\xf2\xbcD\xc0t\x93\x8d\x97\xa2l>@\x00\x00\x00\xc0\x1e\x05'\xc0"
p310
tp311
bsS'secnames'
p312
S'Cell[2].axon[89]'
p313
sI103
I74
tp314
a(F2.3129298554713857
S'Cell[1].dend[19] syn_ = new AmpaNmda(0.1)'
p315
I1
(dp316
S'seg'
p317
F0.40909090909090906
sS'hostfrom'
p318
F8.0
sS'gid'
p319
I8
sS'coords'
p320
g7
(g8
(I0
tp321
g10
tp322
Rp323
(I1
(I3
tp324
g14
(S'f8'
p325
I0
I1
tp326
Rp327
(I3
S'<'
p328
NNNI-1
I-1
I0
tp329
bI00
S'\x1e\xd3Q\xc6\xdb\x99G\xc0\x0b\xd6G\\&yg@\x00\x00\x00\x00\x00 J\xc0'
p330
tp331
bsS'secnames'
p332
S'Cell[0].axon[47]'
p333
sI8
I74
tp334
a(F2.0865983155601295
S'Cell[1].dend[6] syn_ = new AmpaNmda(0.7)'
p335
I1
(dp336
g317
F0.5
sg318
F8.0
sg319
I152
sg320
g7
(g8
(I0
tp337
g10
tp338
Rp339
(I1
(I3
tp340
g327
I00
S'~\xbbwrk[W@\x8e\xa5\xc9Z\xa7\t$@\x00\x00\x00\xc0\xf5(\xcc?'
p341
tp342
bsg332
S'Cell[3].axon[465]'
p343
sI152
I74
tp344
a(F1.6275007896486866
S'Cell[0].dend[22] syn_ = new AmpaNmda(0.5)'
p345
I0
(dp346
g317
F0.5
sg318
F8.0
sg319
I152
sg320
g7
(g8
(I0
tp347
g10
tp348
Rp349
(I1
(I3
tp350
g327
I00
S'\xde\xb7\x99\xc7\xc9\xd7\x1d@|\xb5\xe9\xceo\x1dI@\x00\x00\x00\x00\x00\x00\x00\xc0'
p351
tp352
bsg332
S'Cell[3].axon[558]'
p353
sI152
I26
tp354
a(F1.337994079449775
S'Cell[1].dend[4] syn_ = new AmpaNmda(0.5)'
p355
I1
(dp356
g317
F0.5
sg318
F8.0
sg319
I104
sg320
g7
(g8
(I0
tp357
g10
tp358
Rp359
(I1
(I3
tp360
g327
I00
S'\xdc\x1e\x84\x9c\x0b\xe44@f\xbd\xfd\xfd4\xddJ@\x1a\xcb?\x9cP"+\xc0'
p361
tp362
bsg332
S'Cell[2].axon[128]'
p363
sI104
I74
tp364
a(F2.3802486307055695
S'Cell[1].dend[18] syn_ = new AmpaNmda(0.166666666667)'
p365
I1
(dp366
g317
F0.1
sg318
F8.0
sg319
I104
sg320
g7
(g8
(I0
tp367
g10
tp368
Rp369
(I1
(I3
tp370
g327
I00
S'V\xaa\xb8\xa8\xfa\xe82\xc0 \x9e\xd2b|\xdab@l\xb4\xc1-O\xb4,\xc0'
p371
tp372
bsg332
S'Cell[2].axon[404]'
p373
sI104
I74
tp374
a(F1.6643549697674949
S'Cell[1].dend[18] syn_ = new AmpaNmda(0.833333333333)'
p375
I1
(dp376
g317
F0.6428571428571428
sg318
F8.0
sg319
I104
sg320
g7
(g8
(I0
tp377
g10
tp378
Rp379
(I1
(I3
tp380
g327
I00
S'\xdeL\xec\x08\xf20C\xc0\xd0\x8eV;-\xa3f@\xcep\xc1g\xe7\xb6@\xc0'
p381
tp382
bsg332
S'Cell[2].axon[421]'
p383
sI104
I74
tp384
a(F2.3361748269001925
S'Cell[3].dend[4] syn_ = new FastInhib(0.214285714286)'
p385
I3
(dp386
g317
F0.16666666666666666
sg318
F8.0
sg319
I104
sg320
g7
(g8
(I0
tp387
g10
tp388
Rp389
(I1
(I3
tp390
g327
I00
S'h\x1d\xc2\r\x82\x9f9\xc0\xbf5Jm[\xd5M@\x06r\x8c,\xb7\x93\xdc\xbf'
p391
tp392
bsg332
S'Cell[2].axon[436]'
p393
sI104
I170
tp394
a(F2.074402113477077
S'Cell[2].apic[16] syn_ = new FastInhib(0.5)'
p395
I2
(dp396
S'seg'
p397
F0.5
sS'hostfrom'
p398
F9.0
sS'gid'
p399
I153
sS'coords'
p400
g7
(g8
(I0
tp401
g10
tp402
Rp403
(I1
(I3
tp404
g14
(S'f8'
p405
I0
I1
tp406
Rp407
(I3
S'<'
p408
NNNI-1
I-1
I0
tp409
bI00
S'\xd3nD\xe0\xc0\xc6H@T\nPZ\xcb\xd1E\xc0\xcc\x9a\xe9\xdf\x1a\xb5"@'
p410
tp411
bsS'secnames'
p412
S'Cell[3].axon[14]'
p413
sI153
I122
tp414
a(F2.416981033189153
S'Cell[2].apic[19] syn_ = new FastInhib(0.166666666667)'
p415
I2
(dp416
g397
F0.8333333333333333
sg398
F9.0
sg399
I153
sg400
g7
(g8
(I0
tp417
g10
tp418
Rp419
(I1
(I3
tp420
g407
I00
S'E\x98\x82`([I@\x15T\xff\xc1+-3\xc0\xe01R5X\xda6@'
p421
tp422
bsg412
S'Cell[3].axon[90]'
p423
sI153
I122
tp424
a(F2.3903063765940433
S'Cell[1].dend[15] syn_ = new ExpSid(0.5)'
p425
I1
(dp426
g397
F0.16666666666666666
sg398
F9.0
sg399
I153
sg400
g7
(g8
(I0
tp427
g10
tp428
Rp429
(I1
(I3
tp430
g407
I00
S'\xaf\xc8\x07\xec\x12\xe9"\xc02\x18\xaa\xdap\xfd]@J\xadCI\x98\xe7?@'
p431
tp432
bsg412
S'Cell[3].axon[185]'
p433
sI153
I74
tp434
a(F2.491113656449503
S'Cell[2].apic[13] syn_ = new FastInhib(0.833333333333)'
p435
I2
(dp436
S'seg'
p437
F0.5
sS'hostfrom'
p438
F10.0
sS'gid'
p439
I106
sS'coords'
p440
g7
(g8
(I0
tp441
g10
tp442
Rp443
(I1
(I3
tp444
g14
(S'f8'
p445
I0
I1
tp446
Rp447
(I3
S'<'
p448
NNNI-1
I-1
I0
tp449
bI00
S'\\\xeb\x9d\x89c\xb9\'\xc0d\x99^\xfb\x11\xde"\xc0B7\x813C\xbf1\xc0'
p450
tp451
bsS'secnames'
p452
S'Cell[2].axon[12]'
p453
sI106
I122
tp454
a(F1.827242265128725
S'Cell[1].dend[53] syn_ = new AmpaNmda(0.166666666667)'
p455
I1
(dp456
g437
F0.5
sg438
F10.0
sg439
I106
sg440
g7
(g8
(I0
tp457
g10
tp458
Rp459
(I1
(I3
tp460
g447
I00
S"\xe2\xde\xd5\x1a{\xa75@\x1b-\xd6QlZ\x0e@\xa8v,\x0b\xc1\xfc'@"
p461
tp462
bsg452
S'Cell[2].axon[190]'
p463
sI106
I74
tp464
a(F1.558932829462547
S'Cell[2].apic[13] syn_ = new FastInhib(0.5)'
p465
I2
(dp466
g437
F0.16666666666666666
sg438
F10.0
sg439
I106
sg440
g7
(g8
(I0
tp467
g10
tp468
Rp469
(I1
(I3
tp470
g447
I00
S'5\x9f\x062\x05\x8c(@\xf2\x9e?%\xde\xf7@\xc0-w\xd26\x83\xdd2\xc0'
p471
tp472
bsg452
S'Cell[2].axon[202]'
p473
sI106
I122
tp474
a(F0.9896142111185902
S'Cell[3].dend[34] syn_ = new FastInhib(0.5)'
p475
I3
(dp476
g437
F0.8333333333333333
sg438
F10.0
sg439
I106
sg440
g7
(g8
(I0
tp477
g10
tp478
Rp479
(I1
(I3
tp480
g447
I00
S"PE9x}\xff@\xc02\xb3E\xbd\x92\xb7_@\xe8@\xe0'\xc8W7\xc0"
p481
tp482
bsg452
S'Cell[2].axon[310]'
p483
sI106
I170
tp484
a(F2.107845241531527
S'Cell[0].dend[32] syn_ = new ExpSid(0.5)'
p485
I0
(dp486
S'seg'
p487
F0.16666666666666666
sS'hostfrom'
p488
F11.0
sS'gid'
p489
I59
sS'coords'
p490
g7
(g8
(I0
tp491
g10
tp492
Rp493
(I1
(I3
tp494
g14
(S'f8'
p495
I0
I1
tp496
Rp497
(I3
S'<'
p498
NNNI-1
I-1
I0
tp499
bI00
S'\xa8\x80m\xda\xe6\x82$\xc0{\x08\x95?\x87\x04B\xc0\xf6\x8b-}\xcbe=@'
p500
tp501
bsS'secnames'
p502
S'Cell[1].axon[5]'
p503
sI59
I26
tp504
a(F2.157289864087425
S'Cell[0].dend[40] syn_ = new ExpSid(0.166666666667)'
p505
I0
(dp506
g487
F0.8999999999999999
sg488
F11.0
sg489
I155
sg490
g7
(g8
(I0
tp507
g10
tp508
Rp509
(I1
(I3
tp510
g497
I00
S'W\xa0\x07\xa2\x01\xa0-@\xdf\xc9\xb3RR\xa4@@Y\x92\x8b\x90\xe1\xd3G\xc0'
p511
tp512
bsg502
S'Cell[3].axon[77]'
p513
sI155
I26
tp514
a(F2.346548773235947
S'Cell[1].dend[54] syn_ = new ExpSid(0.5)'
p515
I1
(dp516
g487
F0.8333333333333333
sg488
F11.0
sg489
I155
sg490
g7
(g8
(I0
tp517
g10
tp518
Rp519
(I1
(I3
tp520
g497
I00
S':\xe9W\xa1\xc2M=@\xb8:\x05\xe0x?\x0b\xc0\x046\x08y9\x95"@'
p521
tp522
bsg502
S'Cell[3].axon[157]'
p523
sI155
I74
tp524
a(F1.0772795923803027
S'Cell[3].dend[5] syn_ = new FastInhib(0.5)'
p525
I3
(dp526
g487
F0.16666666666666666
sg488
F11.0
sg489
I155
sg490
g7
(g8
(I0
tp527
g10
tp528
Rp529
(I1
(I3
tp530
g497
I00
S'eH\xe3\xb4\x8d\x15J\xc0\xb2\x062\xfct\x1c"\xc0\x85j)\xd0AG\xea?'
p531
tp532
bsg502
S'Cell[3].axon[171]'
p533
sI155
I170
tp534
a(F2.144357007052402
S'Cell[3].dend[17] syn_ = new FastInhib(0.166666666667)'
p535
I3
(dp536
g487
F0.5
sg488
F11.0
sg489
I155
sg490
g7
(g8
(I0
tp537
g10
tp538
Rp539
(I1
(I3
tp540
g497
I00
S'\x00\x00\x00\x80\xc25N\xc0\x00\x00\x00P\xe1\x12Q\xc0\x00\x00\xc0,\\\x8f\x05\xc0'
p541
tp542
bsg502
S'Cell[3].axon[236]'
p543
sI155
I170
tp544
a(F1.3148625444788784
S'Cell[1].dend[82] syn_ = new ExpSid(0.9)'
p545
I1
(dp546
S'seg'
p547
F0.16666666666666666
sS'hostfrom'
p548
F13.0
sS'gid'
p549
I157
sS'coords'
p550
g7
(g8
(I0
tp551
g10
tp552
Rp553
(I1
(I3
tp554
g14
(S'f8'
p555
I0
I1
tp556
Rp557
(I3
S'<'
p558
NNNI-1
I-1
I0
tp559
bI00
S'\x9e\x1eN)\x8fTI\xc0\x12aY\x97\x033L\xc0\xc9\x98M\x07JkP\xc0'
p560
tp561
bsS'secnames'
p562
S'Cell[3].axon[6]'
p563
sI157
I74
tp564
a(F2.3239053194588406
S'Cell[3].dend[16] syn_ = new FastInhib(0.5)'
p565
I3
(dp566
g547
F0.1
sg548
F13.0
sg549
I157
sg550
g7
(g8
(I0
tp567
g10
tp568
Rp569
(I1
(I3
tp570
g557
I00
S'\xf9CD\xc4M]D\xc0\xa2:\xf6LLd^\xc0\xf2\x1aOGn\x9e\x1c\xc0'
p571
tp572
bsg562
S'Cell[3].axon[184]'
p573
sI157
I170
tp574
a(F1.3637642731643718
S'Cell[0].dend[33] syn_ = new ExpSid(0.5)'
p575
I0
(dp576
g547
F0.5
sg548
F13.0
sg549
I109
sg550
g7
(g8
(I0
tp577
g10
tp578
Rp579
(I1
(I3
tp580
g557
I00
S'KF\x98\xe7>\x92\x12@nA\x14\x8f\t\x17M@)\xc1\xcc\xed;\x1b)\xc0'
p581
tp582
bsg562
S'Cell[2].axon[237]'
p583
sI109
I26
tp584
a(F2.4627791986294785
S'Cell[1].dend[3] syn_ = new AmpaNmda(0.9)'
p585
I1
(dp586
S'seg'
p587
F0.5
sS'hostfrom'
p588
F14.0
sS'gid'
p589
I110
sS'coords'
p590
g7
(g8
(I0
tp591
g10
tp592
Rp593
(I1
(I3
tp594
g14
(S'f8'
p595
I0
I1
tp596
Rp597
(I3
S'<'
p598
NNNI-1
I-1
I0
tp599
bI00
S'|"o@\xde&W@\x8c\xef\xa0\x86\x172P@BV\xe9\xc0\xb6\x95B\xc0'
p600
tp601
bsS'secnames'
p602
S'Cell[2].axon[20]'
p603
sI110
I74
tp604
a(F1.479588341860156
S'Cell[2].apic[19] syn_ = new FastInhib(0.166666666667)'
p605
I2
(dp606
g587
F0.5
sg588
F14.0
sg589
I110
sg590
g7
(g8
(I0
tp607
g10
tp608
Rp609
(I1
(I3
tp610
g597
I00
S'\x12f\xac\xe9P\x00J@\x02\xc8p\xd1\x99*2\xc0\x9e\x8e\x14`\x03O5@'
p611
tp612
bsg602
S'Cell[2].axon[79]'
p613
sI110
I122
tp614
a(F1.5831482526740555
S'Cell[2].dend[14] syn_ = new FastInhib(0.833333333333)'
p615
I2
(dp616
g587
F0.5
sg588
F14.0
sg589
I110
sg590
g7
(g8
(I0
tp617
g10
tp618
Rp619
(I1
(I3
tp620
g597
I00
S'\xbc\xdf\x9dw\xd8\x14b@\xfa\x98\x92\xf2=\x8bW\xc0~KsWJ\xb7A\xc0'
p621
tp622
bsg602
S'Cell[2].axon[113]'
p623
sI110
I122
tp624
a(F2.2411148231278677
S'Cell[3].dend[1] syn_ = new FastInhib(0.833333333333)'
p625
I3
(dp626
g587
F0.5
sg588
F14.0
sg589
I110
sg590
g7
(g8
(I0
tp627
g10
tp628
Rp629
(I1
(I3
tp630
g597
I00
S'CUJ\x85bo;@\x0cN\x1cb\xf2\x93B@\x00\x00\x00\xc0\xf5(\x19@'
p631
tp632
bsg602
S'Cell[2].axon[124]'
p633
sI110
I170
tp634
a(F1.4057100453033526
S'Cell[2].apic[19] syn_ = new FastInhib(0.166666666667)'
p635
I2
(dp636
g587
F0.16666666666666666
sg588
F14.0
sg589
I110
sg590
g7
(g8
(I0
tp637
g10
tp638
Rp639
(I1
(I3
tp640
g597
I00
S'!Hpe\x10\xdaI@\xd9\xd6&L\xd9<3\xc0\xc8/%\x81\xf934@'
p641
tp642
bsg602
S'Cell[2].axon[129]'
p643
sI110
I122
tp644
a(F2.459321619215506
S'Cell[2].dend[10] syn_ = new FastInhib(0.5)'
p645
I2
(dp646
g587
F0.13636363636363635
sg588
F14.0
sg589
I158
sg590
g7
(g8
(I0
tp647
g10
tp648
Rp649
(I1
(I3
tp650
g597
I00
S'\n\xef:Hd\xb8C@\xaa\xe2\x9fi\x08\x15b\xc0a\x19DC\xc2\x04\x1b@'
p651
tp652
bsg602
S'Cell[3].axon[96]'
p653
sI158
I122
tp654
a(F1.3913978286625126
S'Cell[0].dend[43] syn_ = new ExpSid(0.833333333333)'
p655
I0
(dp656
S'seg'
p657
F0.8999999999999999
sS'hostfrom'
p658
F15.0
sS'gid'
p659
I111
sS'coords'
p660
g7
(g8
(I0
tp661
g10
tp662
Rp663
(I1
(I3
tp664
g14
(S'f8'
p665
I0
I1
tp666
Rp667
(I3
S'<'
p668
NNNI-1
I-1
I0
tp669
bI00
S"4\x07'\xe9\xa7\x18\xe0\xbf\x1a\x89\x7f\x17\xfc\x8dC@|AvB\xb5\xf8<\xc0"
p670
tp671
bsS'secnames'
p672
S'Cell[2].axon[6]'
p673
sI111
I26
tp674
a(F1.8313050568546483
S'Cell[0].dend[27] syn_ = new ExpSid(0.3)'
p675
I0
(dp676
g657
F0.30000000000000004
sg658
F15.0
sg659
I111
sg660
g7
(g8
(I0
tp677
g10
tp678
Rp679
(I1
(I3
tp680
g667
I00
S'\x8b\xc7\x11{\xa1\xfdF@\xe6\x10)\xc3k\x96@@v\xc1\x00H\xbb\x88H\xc0'
p681
tp682
bsg672
S'Cell[2].axon[284]'
p683
sI111
I26
tp684
a(F2.354967527243497
S'Cell[0].apic[24] syn_ = new ExpSid(0.1)'
p685
I0
(dp686
g657
F0.5
sg658
F15.0
sg659
I159
sg660
g7
(g8
(I0
tp687
g10
tp688
Rp689
(I1
(I3
tp690
g667
I00
S'\x03\xb1\xe9\xd9;\\.@\xd1\x93\xcf\xd6R\x02^@Na?\x00m\x8e(@'
p691
tp692
bsg672
S'Cell[3].axon[51]'
p693
sI159
I26
tp694
a(F1.6982660759566295
S'Cell[3].dend[34] syn_ = new FastInhib(0.9)'
p695
I3
(dp696
g657
F0.16666666666666666
sg658
F15.0
sg659
I159
sg660
g7
(g8
(I0
tp697
g10
tp698
Rp699
(I1
(I3
tp700
g667
I00
S'\x07\xbd\xcdQ\x0c\x0c>\xc0\xd0"O\xa7\'4e@\xcf\x81@\xdf\xb5]@\xc0'
p701
tp702
bsg672
S'Cell[3].axon[89]'
p703
sI159
I170
tp704
a(F2.2414217796031926
S'Cell[3].dend[9] syn_ = new FastInhib(0.5)'
p705
I3
(dp706
S'seg'
p707
F0.5
sS'hostfrom'
p708
F16.0
sS'gid'
p709
I16
sS'coords'
p710
g7
(g8
(I0
tp711
g10
tp712
Rp713
(I1
(I3
tp714
g14
(S'f8'
p715
I0
I1
tp716
Rp717
(I3
S'<'
p718
NNNI-1
I-1
I0
tp719
bI00
S"\x00\x00\x00`\x8frD\xc0\x00\x00\x00P\xe1\xfab\xc0\x00\x00\x00\xf8\xff\xff'@"
p720
tp721
bsS'secnames'
p722
S'Cell[0].axon[21]'
p723
sI16
I170
tp724
a(F2.465191662896627
S'Cell[3].dend[4] syn_ = new FastInhib(0.642857142857)'
p725
I3
(dp726
g707
F0.8333333333333333
sg708
F16.0
sg709
I160
sg710
g7
(g8
(I0
tp727
g10
tp728
Rp729
(I1
(I3
tp730
g717
I00
S'gc00/\xb16@\xd7\xab\xad\x0f\xae\xb5]@\x00\x00\x00\x00)\\\x10@'
p731
tp732
bsg722
S'Cell[3].axon[46]'
p733
sI160
I170
tp734
a(F1.2236001735710147
S'Cell[1].dend[61] syn_ = new AmpaNmda(0.5)'
p735
I1
(dp736
g707
F0.8333333333333333
sg708
F16.0
sg709
I160
sg710
g7
(g8
(I0
tp737
g10
tp738
Rp739
(I1
(I3
tp740
g717
I00
S'Y\xd0\x05\xed\xf3\x1e\x08@\x98#\xf8\xa1y\x86:@\x00\x00\x00\x00\xd7c9\xc0'
p741
tp742
bsg722
S'Cell[3].axon[73]'
p743
sI160
I74
tp744
a(F0.3668750431398756
S'Cell[0].dend[66] syn_ = new AmpaNmda(0.5)'
p745
I0
(dp746
g707
F0.5
sg708
F16.0
sg709
I112
sg710
g7
(g8
(I0
tp747
g10
tp748
Rp749
(I1
(I3
tp750
g717
I00
S'\\\xaa\xf2\xba\x1d\xc43@\xc8ox ]sK@3\xbe5\xe5`\x0e2@'
p751
tp752
bsg722
S'Cell[2].axon[3]'
p753
sI112
I26
tp754
a(F2.1396980608725986
S'Cell[1].dend[56] syn_ = new AmpaNmda(0.166666666667)'
p755
I1
(dp756
g707
F0.8333333333333333
sg708
F16.0
sg709
I112
sg710
g7
(g8
(I0
tp757
g10
tp758
Rp759
(I1
(I3
tp760
g717
I00
S'\x90\xde\xbf\x1f\xcb\x83H@"0\xe9\xa5\xb7\x82-\xc0\xa2\x9d!\xf9.\x04(@'
p761
tp762
bsg722
S'Cell[2].axon[5]'
p763
sI112
I74
tp764
a(F1.3035618642142077
S'Cell[3].dend[39] syn_ = new FastInhib(0.5)'
p765
I3
(dp766
g707
F0.8333333333333333
sg708
F16.0
sg709
I112
sg710
g7
(g8
(I0
tp767
g10
tp768
Rp769
(I1
(I3
tp770
g717
I00
S'p\xdb\x006uLN\xc0YE\x93\xa01\xa1`@\x00\x00\x00@\xe1z\x17\xc0'
p771
tp772
bsg722
S'Cell[2].axon[37]'
p773
sI112
I170
tp774
a(F2.496417315970506
S'Cell[1].dend[51] syn_ = new AmpaNmda(0.5)'
p775
I1
(dp776
g707
F0.8333333333333333
sg708
F16.0
sg709
I112
sg710
g7
(g8
(I0
tp777
g10
tp778
Rp779
(I1
(I3
tp780
g717
I00
S'\xf5\x00`\xc6\x85\xc6\xf5\xbf\xe8\\\xbeh\xa9\t2@\xe2\x8e\xc3!\x9a\x9a\x05@'
p781
tp782
bsg722
S'Cell[2].axon[103]'
p783
sI112
I74
tp784
a(F2.2168300575068387
S'Cell[1].dend[69] syn_ = new AmpaNmda(0.5)'
p785
I1
(dp786
g707
F0.16666666666666666
sg708
F16.0
sg709
I112
sg710
g7
(g8
(I0
tp787
g10
tp788
Rp789
(I1
(I3
tp790
g717
I00
S'8kl\xb8V\x03A\xc0\xd7\x9e\x85p|\x05F@\x00\x00\x00\xa0Ga,\xc0'
p791
tp792
bsg722
S'Cell[2].axon[137]'
p793
sI112
I74
tp794
a(F2.4149811706864823
S'Cell[1].dend[64] syn_ = new AmpaNmda(0.166666666667)'
p795
I1
(dp796
g707
F0.8333333333333333
sg708
F16.0
sg709
I112
sg710
g7
(g8
(I0
tp797
g10
tp798
Rp799
(I1
(I3
tp800
g717
I00
S'v%C9\xb4\xd2\x0c\xc0DW\xc3\xa6\x91s>@\x00\x00\x00\xc0\xf5h:\xc0'
p801
tp802
bsg722
S'Cell[2].axon[168]'
p803
sI112
I74
tp804
a(F2.035863392071496
S'Cell[0].dend[5] syn_ = new AmpaNmda(0.3)'
p805
I0
(dp806
g707
F0.21428571428571427
sg708
F16.0
sg709
I112
sg710
g7
(g8
(I0
tp807
g10
tp808
Rp809
(I1
(I3
tp810
g717
I00
S'\x01\x00\x00\x80\x14\x8e@\xc0\xaf\x7f\xd41\xe0\x0cL@"I\xb6\xee\xa2|B\xc0'
p811
tp812
bsg722
S'Cell[2].axon[173]'
p813
sI112
I26
tp814
a(F2.209327689841303
S'Cell[2].apic[15] syn_ = new FastInhib(0.5)'
p815
I2
(dp816
g707
F0.5
sg708
F16.0
sg709
I112
sg710
g7
(g8
(I0
tp817
g10
tp818
Rp819
(I1
(I3
tp820
g717
I00
S"'\xe6bE\x9f#N\xc07l\xb1\xe8&\xd8#@\x00\x00\x00\xc0\xf5h=\xc0"
p821
tp822
bsg722
S'Cell[2].axon[182]'
p823
sI112
I122
tp824
a(F2.3706230327257334
S'Cell[2].apic[23] syn_ = new FastInhib(0.5)'
p825
I2
(dp826
g707
F0.7857142857142856
sg708
F16.0
sg709
I112
sg710
g7
(g8
(I0
tp827
g10
tp828
Rp829
(I1
(I3
tp830
g717
I00
S'\xd7mu\x83\x80\xa7.@v\x0f\xf7\x15\xb7\x987\xc0r\xe2\xd3\xe1=\x9dO\xc0'
p831
tp832
bsg722
S'Cell[2].axon[201]'
p833
sI112
I122
tp834
a(F1.5495271119329468
S'Cell[2].dend[11] syn_ = new FastInhib(0.166666666667)'
p835
I2
(dp836
S'seg'
p837
F0.5
sS'hostfrom'
p838
F17.0
sS'gid'
p839
I113
sS'coords'
p840
g7
(g8
(I0
tp841
g10
tp842
Rp843
(I1
(I3
tp844
g14
(S'f8'
p845
I0
I1
tp846
Rp847
(I3
S'<'
p848
NNNI-1
I-1
I0
tp849
bI00
S'}\xd0B\xf2|\xf4M@"\xcf\x9d\x85\xe1\xfaS\xc0\x00\x00\x00\xe0z\x14\x06@'
p850
tp851
bsS'secnames'
p852
S'Cell[2].axon[96]'
p853
sI113
I122
tp854
a(F1.9532150840540459
S'Cell[2].dend[10] syn_ = new FastInhib(0.7)'
p855
I2
(dp856
g837
F0.5
sg838
F17.0
sg839
I113
sg840
g7
(g8
(I0
tp857
g10
tp858
Rp859
(I1
(I3
tp860
g847
I00
S'>?\xb6u\xc9FB@\xe0\xe5\xbb\x85\xce\xc9d\xc0\x00\x00\x00 \xaeG\x03@'
p861
tp862
bsg852
S'Cell[2].axon[315]'
p863
sI113
I122
tp864
a(F1.8417807883313007
S'Cell[1].dend[2] syn_ = new ExpSid(0.5)'
p865
I1
(dp866
g837
F0.8333333333333333
sg838
F17.0
sg839
I161
sg840
g7
(g8
(I0
tp867
g10
tp868
Rp869
(I1
(I3
tp870
g847
I00
S'\x14\xef\xc4\xb1\x19\xc5$@\x17\x84w]\x94FM@\x00\x00\x00\xe0Q\xb8\x11\xc0'
p871
tp872
bsg852
S'Cell[3].axon[0]'
p873
sI161
I74
tp874
a(F2.3218382562903765
S'Cell[0].apic[3] syn_ = new ExpSid(0.5)'
p875
I0
(dp876
g837
F0.3571428571428571
sg838
F17.0
sg839
I161
sg840
g7
(g8
(I0
tp877
g10
tp878
Rp879
(I1
(I3
tp880
g847
I00
S'\x85\xf5nQ\x87J\t@\x01\xfb\xf2\xdc[H`@+\x80\x1a\x16\xe4< @'
p881
tp882
bsg852
S'Cell[3].axon[209]'
p883
sI161
I26
tp884
a(F2.058516206870587
S'Cell[3].dend[4] syn_ = new FastInhib(0.928571428571)'
p885
I3
(dp886
g837
F0.5
sg838
F17.0
sg839
I161
sg840
g7
(g8
(I0
tp887
g10
tp888
Rp889
(I1
(I3
tp890
g847
I00
S'\x1c\x82\xab\xf2\xb8\x8e9@\xe1\x92\xa65\xcb\x11e@\x00\x00\x00\xa0G\xe1\x00\xc0'
p891
tp892
bsg852
S'Cell[3].axon[218]'
p893
sI161
I170
tp894
a(F2.1252727303784367
S'Cell[3].dend[25] syn_ = new FastInhib(0.7)'
p895
I3
(dp896
S'seg'
p897
F0.42307692307692313
sS'hostfrom'
p898
F18.0
sS'gid'
p899
I66
sS'coords'
p900
g7
(g8
(I0
tp901
g10
tp902
Rp903
(I1
(I3
tp904
g14
(S'f8'
p905
I0
I1
tp906
Rp907
(I3
S'<'
p908
NNNI-1
I-1
I0
tp909
bI00
S'!\xfd\xaek*\xbdb\xc0\x02tZ\x16\xc5\x047\xc0\xd4\x86\xe0Q\x87\xb4@\xc0'
p910
tp911
bsS'secnames'
p912
S'Cell[1].axon[15]'
p913
sI66
I170
tp914
a(F1.6458526158608107
S'Cell[0].dend[19] syn_ = new AmpaNmda(0.5)'
p915
I0
(dp916
g897
F0.8333333333333333
sg898
F18.0
sg899
I162
sg900
g7
(g8
(I0
tp917
g10
tp918
Rp919
(I1
(I3
tp920
g907
I00
S'JX$DA<+\xc03\xc4\xfd\xce\x8a\xbeH@\xe7<m\x10q\x868@'
p921
tp922
bsg912
S'Cell[3].axon[185]'
p923
sI162
I26
tp924
a(F1.891538772061991
S'Cell[0].dend[34] syn_ = new AmpaNmda(0.5)'
p925
I0
(dp926
g897
F0.07142857142857142
sg898
F18.0
sg899
I162
sg900
g7
(g8
(I0
tp927
g10
tp928
Rp929
(I1
(I3
tp930
g907
I00
S'\xa3m\xd0\x00o\x08%@:Y\xc4\x00&{G@\xa3\x84h1c\xc0&\xc0'
p931
tp932
bsg912
S'Cell[3].axon[186]'
p933
sI162
I26
tp934
a(F2.459675654082036
S'Cell[3].dend[4] syn_ = new FastInhib(0.214285714286)'
p935
I3
(dp936
g897
F0.49999999999999994
sg898
F18.0
sg899
I162
sg900
g7
(g8
(I0
tp937
g10
tp938
Rp939
(I1
(I3
tp940
g907
I00
S"j\xc0\xa0\xdc\xa7\xec<\xc00'\xda\xb2`\xebM@xx\xca-\xc9d\xf6?"
p941
tp942
bsg912
S'Cell[3].axon[186]'
p943
sI162
I170
tp944
a(F0.9754698536166588
S'Cell[1].dend[2] syn_ = new ExpSid(0.5)'
p945
I1
(dp946
S'seg'
p947
F0.8999999999999999
sS'hostfrom'
p948
F19.0
sS'gid'
p949
I115
sS'coords'
p950
g7
(g8
(I0
tp951
g10
tp952
Rp953
(I1
(I3
tp954
g14
(S'f8'
p955
I0
I1
tp956
Rp957
(I3
S'<'
p958
NNNI-1
I-1
I0
tp959
bI00
S"\xaaJ\x80k\x9a\xac'@\xa8|\x02[R\x88L@!\xa8\x1e\xfc<q\x11\xc0"
p960
tp961
bsS'secnames'
p962
S'Cell[2].axon[77]'
p963
sI115
I74
tp964
a(F2.3169034135242024
S'Cell[2].apic[24] syn_ = new FastInhib(0.3)'
p965
I2
(dp966
g947
F0.8333333333333333
sg948
F19.0
sg949
I67
sg950
g7
(g8
(I0
tp967
g10
tp968
Rp969
(I1
(I3
tp970
g957
I00
S'\x12\xe9\xca\x19E-T@\xab6\xaf\x80\xcb0\t@\x00\x00\x00\x00\x00\x00\xf0\xbf'
p971
tp972
bsg962
S'Cell[1].axon[23]'
p973
sI67
I122
tp974
a(F2.107465463279896
S'Cell[0].dend[69] syn_ = new AmpaNmda(0.5)'
p975
I0
(dp976
S'seg'
p977
F0.8333333333333333
sS'hostfrom'
p978
F20.0
sS'gid'
p979
I68
sS'coords'
p980
g7
(g8
(I0
tp981
g10
tp982
Rp983
(I1
(I3
tp984
g14
(S'f8'
p985
I0
I1
tp986
Rp987
(I3
S'<'
p988
NNNI-1
I-1
I0
tp989
bI00
S'"Z\xcc\xfd\xaf\xf8D@\xf63\x0c\xdf\x1e\x0c9@o\x11K\x17\x10J2@'
p990
tp991
bsS'secnames'
p992
S'Cell[1].axon[3]'
p993
sI68
I26
tp994
a(F1.588957820207723
S'Cell[1].dend[81] syn_ = new ExpSid(0.166666666667)'
p995
I1
(dp996
S'seg'
p997
F0.21428571428571427
sS'hostfrom'
p998
F21.0
sS'gid'
p999
I165
sS'coords'
p1000
g7
(g8
(I0
tp1001
g10
tp1002
Rp1003
(I1
(I3
tp1004
g14
(S'f8'
p1005
I0
I1
tp1006
Rp1007
(I3
S'<'
p1008
NNNI-1
I-1
I0
tp1009
bI00
S'\xb9\xa5\xdf\x17\t|E\xc0\x9eu\xae\xa0\xd6"F@\x00\x00\x00 \x85\xeb*\xc0'
p1010
tp1011
bsS'secnames'
p1012
S'Cell[3].axon[71]'
p1013
sI165
I74
tp1014
a(F2.4771499526319576
S'Cell[3].dend[8] syn_ = new FastInhib(0.166666666667)'
p1015
I3
(dp1016
g997
F0.5
sg998
F21.0
sg999
I165
sg1000
g7
(g8
(I0
tp1017
g10
tp1018
Rp1019
(I1
(I3
tp1020
g1007
I00
S'\xd8\x1b\xa2\x99#{F\xc0\xa21%\x1d\xc7\x17X\xc0\x11C?9\x98j\x1f@'
p1021
tp1022
bsg1012
S'Cell[3].axon[95]'
p1023
sI165
I170
tp1024
a(F1.3739421248670833
S'Cell[1].dend[5] syn_ = new ExpSid(0.1)'
p1025
I1
(dp1026
g997
F0.5
sg998
F21.0
sg999
I117
sg1000
g7
(g8
(I0
tp1027
g10
tp1028
Rp1029
(I1
(I3
tp1030
g1007
I00
S'\xc6TT\xfb\xab\x1bA@\x11W\xf1t\x82\xc6J@\x00\x00\x00\x80\xc2u9\xc0'
p1031
tp1032
bsg1012
S'Cell[2].axon[64]'
p1033
sI117
I74
tp1034
a(F2.0538244760816764
S'Cell[0].apic[25] syn_ = new ExpSid(0.5)'
p1035
I0
(dp1036
g997
F0.5
sg998
F21.0
sg999
I117
sg1000
g7
(g8
(I0
tp1037
g10
tp1038
Rp1039
(I1
(I3
tp1040
g1007
I00
S'\x00\x00\x00\x00\x00\xc0+\xc0\x00\x00\x00\xc0\xf5\x0cc@\x00\x00\x00\x80\xc2u9\xc0'
p1041
tp1042
bsg1012
S'Cell[2].axon[247]'
p1043
sI117
I26
tp1044
a(F2.300383936770385
S'Cell[2].apic[4] syn_ = new FastInhib(0.166666666667)'
p1045
I2
(dp1046
g997
F0.3571428571428571
sg998
F21.0
sg999
I21
sg1000
g7
(g8
(I0
tp1047
g10
tp1048
Rp1049
(I1
(I3
tp1050
g1007
I00
S'\xe2\xd1\xeb\xe6\xa8\x14X@\x00\xc0y\x0b_&P\xc0\x02\xba\x01}\xe5!!@'
p1051
tp1052
bsg1012
S'Cell[0].axon[11]'
p1053
sI21
I122
tp1054
a(F0.9187569189473291
S'Cell[0].dend[31] syn_ = new AmpaNmda(0.833333333333)'
p1055
I0
(dp1056
S'seg'
p1057
F0.8333333333333333
sS'hostfrom'
p1058
F22.0
sS'gid'
p1059
I118
sS'coords'
p1060
g7
(g8
(I0
tp1061
g10
tp1062
Rp1063
(I1
(I3
tp1064
g14
(S'f8'
p1065
I0
I1
tp1066
Rp1067
(I3
S'<'
p1068
NNNI-1
I-1
I0
tp1069
bI00
S'\xe6\xaf\xcf\xb6,N\x1f@Y\xafd^G!I\xc0K\xe4(\xb8x]3@'
p1070
tp1071
bsS'secnames'
p1072
S'Cell[2].axon[50]'
p1073
sI118
I26
tp1074
a(F1.7169939130101526
S'Cell[0].dend[49] syn_ = new AmpaNmda(0.5)'
p1075
I0
(dp1076
g1057
F0.9444444444444446
sg1058
F22.0
sg1059
I166
sg1060
g7
(g8
(I0
tp1077
g10
tp1078
Rp1079
(I1
(I3
tp1080
g1067
I00
S'q\xdf\xda\x9e\xb5\xa5#@\x00k\x06\xe8!J2@\xa2A\x9deR\x85W\xc0'
p1081
tp1082
bsg1072
S'Cell[3].axon[84]'
p1083
sI166
I26
tp1084
a(F0.8955195968163895
S'Cell[1].dend[79] syn_ = new AmpaNmda(0.5)'
p1085
I1
(dp1086
g1057
F0.9444444444444446
sg1058
F22.0
sg1059
I166
sg1060
g7
(g8
(I0
tp1087
g10
tp1088
Rp1089
(I1
(I3
tp1090
g1067
I00
S'6\xcf\xb8{Q\x92X\xc0\xdc\x0f\n\xc1\x8b\xaf;@\xd6\x9a\xf5\x1a&\xe3K\xc0'
p1091
tp1092
bsg1072
S'Cell[3].axon[86]'
p1093
sI166
I74
tp1094
a(F2.3957639070635635
S'Cell[0].dend[25] syn_ = new AmpaNmda(0.3)'
p1095
I0
(dp1096
g1057
F0.5
sg1058
F22.0
sg1059
I166
sg1060
g7
(g8
(I0
tp1097
g10
tp1098
Rp1099
(I1
(I3
tp1100
g1067
I00
S'\x80\x0e\x03(G\x08J@z\\\xfdm\xb1\xf4:@\xb8\xea\x19\t\xc9\xbdK\xc0'
p1101
tp1102
bsg1072
S'Cell[3].axon[134]'
p1103
sI166
I26
tp1104
a(F2.4503086412104165
S'Cell[0].dend[37] syn_ = new AmpaNmda(0.166666666667)'
p1105
I0
(dp1106
g1057
F0.5
sg1058
F22.0
sg1059
I166
sg1060
g7
(g8
(I0
tp1107
g10
tp1108
Rp1109
(I1
(I3
tp1110
g1067
I00
S'\xcez\x0c\x16\xa0z@@t\xcbN\x04\x12~B@\x00\x00\x00\xe0\xa3PC\xc0'
p1111
tp1112
bsg1072
S'Cell[3].axon[204]'
p1113
sI166
I26
tp1114
a(F1.0804054833352734
S'Cell[1].dend[25] syn_ = new ExpSid(0.5)'
p1115
I1
(dp1116
S'seg'
p1117
F0.8999999999999999
sS'hostfrom'
p1118
F23.0
sS'gid'
p1119
I119
sS'coords'
p1120
g7
(g8
(I0
tp1121
g10
tp1122
Rp1123
(I1
(I3
tp1124
g14
(S'f8'
p1125
I0
I1
tp1126
Rp1127
(I3
S'<'
p1128
NNNI-1
I-1
I0
tp1129
bI00
S"\xf4\x18\xc3q\x00\x1f*\xc0\x18\xfb\xc4O\x98'c@\x9d*\xf4\xb2!a.\xc0"
p1130
tp1131
bsS'secnames'
p1132
S'Cell[2].axon[85]'
p1133
sI119
I74
tp1134
a(F2.1465023745427687
S'Cell[3].dend[0] syn_ = new FastInhib(0.5)'
p1135
I3
(dp1136
g1117
F0.16666666666666666
sg1118
F23.0
sg1119
I167
sg1120
g7
(g8
(I0
tp1137
g10
tp1138
Rp1139
(I1
(I3
tp1140
g1127
I00
S'\x10e\x04\x8a\xc5\xe8C\xc0g\xd0\x967\x07\x02"@P(\xbfD\x88\x82\xea?'
p1141
tp1142
bsg1132
S'Cell[3].axon[157]'
p1143
sI167
I170
tp1144
a(F2.146752983985299
S'Cell[0].dend[59] syn_ = new AmpaNmda(0.5)'
p1145
I0
(dp1146
S'seg'
p1147
F0.21428571428571427
sS'hostfrom'
p1148
F24.0
sS'gid'
p1149
I72
sS'coords'
p1150
g7
(g8
(I0
tp1151
g10
tp1152
Rp1153
(I1
(I3
tp1154
g14
(S'f8'
p1155
I0
I1
tp1156
Rp1157
(I3
S'<'
p1158
NNNI-1
I-1
I0
tp1159
bI00
S'\xfc\x9e\xfd\xa2\xe2\xc2-@/\xf4\x1c\xb2\x9eTP@\x00\x00\x00\xe0Q84@'
p1160
tp1161
bsS'secnames'
p1162
S'Cell[1].axon[8]'
p1163
sI72
I26
tp1164
a(F2.284861189388756
S'Cell[1].dend[64] syn_ = new AmpaNmda(0.166666666667)'
p1165
I1
(dp1166
g1147
F0.8999999999999999
sg1148
F24.0
sg1149
I120
sg1150
g7
(g8
(I0
tp1167
g10
tp1168
Rp1169
(I1
(I3
tp1170
g1157
I00
S'\xb2\x1ev\t\xa7Q\n\xc0\x8cC\xc0^\xba\xab<@Y\x8d$\xf8-\xa1>\xc0'
p1171
tp1172
bsg1162
S'Cell[2].axon[271]'
p1173
sI120
I74
tp1174
a(F2.1001405264311006
S'Cell[1].dend[82] syn_ = new ExpSid(0.1)'
p1175
I1
(dp1176
S'seg'
p1177
F0.16666666666666666
sS'hostfrom'
p1178
F25.0
sS'gid'
p1179
I121
sS'coords'
p1180
g7
(g8
(I0
tp1181
g10
tp1182
Rp1183
(I1
(I3
tp1184
g14
(S'f8'
p1185
I0
I1
tp1186
Rp1187
(I3
S'<'
p1188
NNNI-1
I-1
I0
tp1189
bI00
S'\xa6G\x98\xf1\xed9;\xc0\x86\x08*\xb70\x066@\xe8\xc0#\x94\xca\x0b$\xc0'
p1190
tp1191
bsS'secnames'
p1192
S'Cell[2].axon[102]'
p1193
sI121
I74
tp1194
a(F2.4310311835173564
S'Cell[1].dend[77] syn_ = new ExpSid(0.5)'
p1195
I1
(dp1196
g1177
F0.5
sg1178
F25.0
sg1179
I121
sg1180
g7
(g8
(I0
tp1197
g10
tp1198
Rp1199
(I1
(I3
tp1200
g1187
I00
S'\xf5\xaa\x91\x80\xbc\xa9@\xc02k\xac\xf6O\xa9>@\t\x96\x16\x91\x99\x1f\x1f\xc0'
p1201
tp1202
bsg1192
S'Cell[2].axon[102]'
p1203
sI121
I74
tp1204
a(F1.7094413065162788
S'Cell[1].dend[82] syn_ = new ExpSid(0.3)'
p1205
I1
(dp1206
g1177
F0.8333333333333333
sg1178
F25.0
sg1179
I121
sg1180
g7
(g8
(I0
tp1207
g10
tp1208
Rp1209
(I1
(I3
tp1210
g1187
I00
S'\x08>\xb9\xf2d\xf6=\xc0\x14\x0c\xae\xbdM\xf5\xff?\xc8&,c\x8e\xac8\xc0'
p1211
tp1212
bsg1192
S'Cell[2].axon[143]'
p1213
sI121
I74
tp1214
a(F2.3924647040419678
S'Cell[2].apic[15] syn_ = new FastInhib(0.3)'
p1215
I2
(dp1216
g1177
F0.5
sg1178
F25.0
sg1179
I121
sg1180
g7
(g8
(I0
tp1217
g10
tp1218
Rp1219
(I1
(I3
tp1220
g1187
I00
S'l\xb2\xe9\xa9#4G\xc0\xcb\xc9\xba\x94W\x19\x1c@\x11\xe3\x83\xfe5\xc95\xc0'
p1221
tp1222
bsg1192
S'Cell[2].axon[145]'
p1223
sI121
I122
tp1224
a(F1.4095596462075477
S'Cell[3].dend[15] syn_ = new FastInhib(0.833333333333)'
p1225
I3
(dp1226
S'seg'
p1227
F0.30000000000000004
sS'hostfrom'
p1228
F26.0
sS'gid'
p1229
I122
sS'coords'
p1230
g7
(g8
(I0
tp1231
g10
tp1232
Rp1233
(I1
(I3
tp1234
g14
(S'f8'
p1235
I0
I1
tp1236
Rp1237
(I3
S'<'
p1238
NNNI-1
I-1
I0
tp1239
bI00
S'@\xe7\xa5K\xa6a1\xc0E\x1f;K]\xa1_\xc0\x00\x00\x00\x00\x00\x00\x04\xc0'
p1240
tp1241
bsS'secnames'
p1242
S'Cell[2].axon[12]'
p1243
sI122
I170
tp1244
a(F1.8037824128372977
S'Cell[1].dend[23] syn_ = new AmpaNmda(0.5)'
p1245
I1
(dp1246
g1227
F0.5
sg1228
F26.0
sg1229
I170
sg1230
g7
(g8
(I0
tp1247
g10
tp1248
Rp1249
(I1
(I3
tp1250
g1237
I00
S'zq\x1a\x011\xf0Q\xc0\xad\xe4\xcbZ\x0f\rn@\xc2\x9c\xb3\x86\xdc\x1a1\xc0'
p1251
tp1252
bsg1242
S'Cell[3].axon[401]'
p1253
sI170
I74
tp1254
a(F2.006129095517984
S'Cell[1].dend[12] syn_ = new AmpaNmda(0.5)'
p1255
I1
(dp1256
g1227
F0.5
sg1228
F26.0
sg1229
I170
sg1230
g7
(g8
(I0
tp1257
g10
tp1258
Rp1259
(I1
(I3
tp1260
g1237
I00
S'\x0e\x14K\x8d-\xc4(\xc0\x11\xf45k\x91\xceV@\xb3\x1a\xf8\x8f\xde\x986@'
p1261
tp1262
bsg1242
S'Cell[3].axon[447]'
p1263
sI170
I74
tp1264
a(F2.2751266621352246
S'Cell[3].dend[3] syn_ = new FastInhib(0.833333333333)'
p1265
I3
(dp1266
S'seg'
p1267
F0.5
sS'hostfrom'
p1268
F27.0
sS'gid'
p1269
I171
sS'coords'
p1270
g7
(g8
(I0
tp1271
g10
tp1272
Rp1273
(I1
(I3
tp1274
g14
(S'f8'
p1275
I0
I1
tp1276
Rp1277
(I3
S'<'
p1278
NNNI-1
I-1
I0
tp1279
bI00
S'l\xc5\xb6\x91XtR@vRz\xae]\xfe;@C=#J\xbeZ\x13@'
p1280
tp1281
bsS'secnames'
p1282
S'Cell[3].axon[13]'
p1283
sI171
I170
tp1284
a(F1.7787570485253557
S'Cell[1].dend[60] syn_ = new ExpSid(0.1)'
p1285
I1
(dp1286
g1267
F0.1
sg1268
F27.0
sg1269
I171
sg1270
g7
(g8
(I0
tp1287
g10
tp1288
Rp1289
(I1
(I3
tp1290
g1277
I00
S'\xf6\xb1j\xd1Cp\xd5\xbf\xf4\\\x93q\xff\x7fA@\n\x8b\x90\xbd\xc2\x85<\xc0'
p1291
tp1292
bsg1282
S'Cell[3].axon[46]'
p1293
sI171
I74
tp1294
a(F1.1121353842532282
S'Cell[1].dend[7] syn_ = new ExpSid(0.1)'
p1295
I1
(dp1296
g1267
F0.5
sg1268
F27.0
sg1269
I171
sg1270
g7
(g8
(I0
tp1297
g10
tp1298
Rp1299
(I1
(I3
tp1300
g1277
I00
S'\x80\x17$r^\xf7)@\xd1\x97\xa1\xe18BP@\x00\x00\x00\x80\xc2\xf5\x04@'
p1301
tp1302
bsg1282
S'Cell[3].axon[63]'
p1303
sI171
I74
tp1304
a(F2.0871035317991082
S'Cell[3].dend[17] syn_ = new FastInhib(0.833333333333)'
p1305
I3
(dp1306
S'seg'
p1307
F0.5
sS'hostfrom'
p1308
F29.0
sS'gid'
p1309
I29
sS'coords'
p1310
g7
(g8
(I0
tp1311
g10
tp1312
Rp1313
(I1
(I3
tp1314
g14
(S'f8'
p1315
I0
I1
tp1316
Rp1317
(I3
S'<'
p1318
NNNI-1
I-1
I0
tp1319
bI00
S'$G=hx\xb7S\xc04\xde\xefV\x1e\x88]\xc0\xf2\xf4\x9a\xbd\x16y\x04\xc0'
p1320
tp1321
bsS'secnames'
p1322
S'Cell[0].axon[18]'
p1323
sI29
I170
tp1324
a(F1.825548695925153
S'Cell[0].dend[43] syn_ = new AmpaNmda(0.166666666667)'
p1325
I0
(dp1326
S'seg'
p1327
F0.5
sS'hostfrom'
p1328
F30.0
sS'gid'
p1329
I126
sS'coords'
p1330
g7
(g8
(I0
tp1331
g10
tp1332
Rp1333
(I1
(I3
tp1334
g14
(S'f8'
p1335
I0
I1
tp1336
Rp1337
(I3
S'<'
p1338
NNNI-1
I-1
I0
tp1339
bI00
S'ZE\x93*\x01\xbb\x17@"\xc6 P(\x8fG@\xac\x97u\x15$\x11+\xc0'
p1340
tp1341
bsS'secnames'
p1342
S'Cell[2].axon[0]'
p1343
sI126
I26
tp1344
a(F1.3566088785777453
S'Cell[3].dend[30] syn_ = new FastInhib(0.166666666667)'
p1345
I3
(dp1346
g1327
F0.8999999999999999
sg1328
F30.0
sg1329
I126
sg1330
g7
(g8
(I0
tp1347
g10
tp1348
Rp1349
(I1
(I3
tp1350
g1337
I00
S'Km\x0f\x98\xde\x91V\xc0\x9c\xd2%\n\xfcfP@\x00\x00\x00\xc0\x1e%@\xc0'
p1351
tp1352
bsg1342
S'Cell[2].axon[51]'
p1353
sI126
I170
tp1354
a(F0.9339206534215727
S'Cell[0].dend[50] syn_ = new AmpaNmda(0.833333333333)'
p1355
I0
(dp1356
g1327
F0.16666666666666666
sg1328
F30.0
sg1329
I126
sg1330
g7
(g8
(I0
tp1357
g10
tp1358
Rp1359
(I1
(I3
tp1360
g1337
I00
S'\x94\x14\xc9\xe4N}2\xc0\xed"\xab2w\xde9@\x97\x99\xe6\xc8\x87\xb6M\xc0'
p1361
tp1362
bsg1342
S'Cell[2].axon[61]'
p1363
sI126
I26
tp1364
a(F2.0288202383032523
S'Cell[0].dend[58] syn_ = new AmpaNmda(0.5)'
p1365
I0
(dp1366
g1327
F0.5
sg1328
F30.0
sg1329
I126
sg1330
g7
(g8
(I0
tp1367
g10
tp1368
Rp1369
(I1
(I3
tp1370
g1337
I00
S'\x81C\x90\xe0p\x115\xc0\xfa\xe6\x00\xec6{2@+\xdf\x9b\x0c\xe0&P\xc0'
p1371
tp1372
bsg1342
S'Cell[2].axon[61]'
p1373
sI126
I26
tp1374
a(F2.2746397349499223
S'Cell[2].apic[13] syn_ = new FastInhib(0.166666666667)'
p1375
I2
(dp1376
g1327
F0.30000000000000004
sg1328
F30.0
sg1329
I78
sg1330
g7
(g8
(I0
tp1377
g10
tp1378
Rp1379
(I1
(I3
tp1380
g1337
I00
S'\x05\xeb\x96/Y\xd4A@\xac\x9d\x8cl\x06\xefD\xc0\x8c\xc7B\xf0\xfc\x8d\xfd?'
p1381
tp1382
bsg1342
S'Cell[1].axon[0]'
p1383
sI78
I122
tp1384
a(F1.6888160378669534
S'Cell[3].dend[5] syn_ = new FastInhib(0.5)'
p1385
I3
(dp1386
g1327
F0.5
sg1328
F30.0
sg1329
I174
sg1330
g7
(g8
(I0
tp1387
g10
tp1388
Rp1389
(I1
(I3
tp1390
g1337
I00
S'\x00\x00\x00 \x85\x8bI\xc0\x00\x00\x00\x80=\n#\xc0\x00\x00\x00\xe0Q\xb8\x00@'
p1391
tp1392
bsg1342
S'Cell[3].soma[0]'
p1393
sI174
I170
tp1394
a(F1.9785617306946714
S'Cell[2].apic[15] syn_ = new FastInhib(0.1)'
p1395
I2
(dp1396
g1327
F0.5
sg1328
F30.0
sg1329
I174
sg1330
g7
(g8
(I0
tp1397
g10
tp1398
Rp1399
(I1
(I3
tp1400
g1337
I00
S'\xe0\xbe~\xf9Ur<\xc0\xde\xe8\x9b\xa9\x7fg\x15@\x00\x00\x00\xc0\xcc\x0c1\xc0'
p1401
tp1402
bsg1342
S'Cell[3].axon[84]'
p1403
sI174
I122
tp1404
a(F1.9349688211614369
S'Cell[1].dend[81] syn_ = new AmpaNmda(0.166666666667)'
p1405
I1
(dp1406
g1327
F0.16666666666666666
sg1328
F30.0
sg1329
I174
sg1330
g7
(g8
(I0
tp1407
g10
tp1408
Rp1409
(I1
(I3
tp1410
g1337
I00
S'H\x0bA~\xae\xfcE\xc0\xf6\xffh\x17{\xe8E@\xff\x1c\xbd\nv\xaa)\xc0'
p1411
tp1412
bsg1342
S'Cell[3].axon[89]'
p1413
sI174
I74
tp1414
a(F0.6641260396253457
S'Cell[0].dend[37] syn_ = new AmpaNmda(0.5)'
p1415
I0
(dp1416
g1327
F0.5
sg1328
F30.0
sg1329
I174
sg1330
g7
(g8
(I0
tp1417
g10
tp1418
Rp1419
(I1
(I3
tp1420
g1337
I00
S'\x06\x92\xb6\xcf\xbbXJ@-L\xda\xb7\x8a%@@J\x1b\xb8\x9cZ\xefH\xc0'
p1421
tp1422
bsg1342
S'Cell[3].axon[290]'
p1423
sI174
I26
tp1424
a(F1.761357024485736
S'Cell[1].dend[65] syn_ = new AmpaNmda(0.5)'
p1425
I1
(dp1426
g1327
F0.5
sg1328
F30.0
sg1329
I174
sg1330
g7
(g8
(I0
tp1427
g10
tp1428
Rp1429
(I1
(I3
tp1430
g1337
I00
S'\xfb\xa2\xc5x\x90\x94:\xc0\xa0|\xa4\xa3\xb3\xbbA@\x85Y\xf8\x9e\xd4b\xf8\xbf'
p1431
tp1432
bsg1342
S'Cell[3].axon[369]'
p1433
sI174
I74
tp1434
a(F2.097701897735896
S'Cell[0].dend[29] syn_ = new ExpSid(0.5)'
p1435
I0
(dp1436
S'seg'
p1437
F0.5
sS'hostfrom'
p1438
F31.0
sS'gid'
p1439
I127
sS'coords'
p1440
g7
(g8
(I0
tp1441
g10
tp1442
Rp1443
(I1
(I3
tp1444
g14
(S'f8'
p1445
I0
I1
tp1446
Rp1447
(I3
S'<'
p1448
NNNI-1
I-1
I0
tp1449
bI00
S']\xc4c\x96\x03\xc4A@\\\x008\xdeS\x010@\xc8J?\x8aN\x9c\xfe\xbf'
p1450
tp1451
bsS'secnames'
p1452
S'Cell[2].axon[2]'
p1453
sI127
I26
tp1454
a(F2.0989921801801157
S'Cell[3].dend[28] syn_ = new FastInhib(0.5)'
p1455
I3
(dp1456
g1437
F0.6428571428571428
sg1438
F31.0
sg1439
I175
sg1440
g7
(g8
(I0
tp1457
g10
tp1458
Rp1459
(I1
(I3
tp1460
g1447
I00
S'\x9b\x1f\x82\xe2@\x9fR\xc0\xc2\xa7\x8d\x1e\xba\x00C@\x172\xebg\xf3Y2\xc0'
p1461
tp1462
bsg1452
S'Cell[3].axon[1]'
p1463
sI175
I170
tp1464
a(F2.1081036670012243
S'Cell[2].dend[12] syn_ = new FastInhib(0.5)'
p1465
I2
(dp1466
S'seg'
p1467
F0.5
sS'hostfrom'
p1468
F32.0
sS'gid'
p1469
I176
sS'coords'
p1470
g7
(g8
(I0
tp1471
g10
tp1472
Rp1473
(I1
(I3
tp1474
g14
(S'f8'
p1475
I0
I1
tp1476
Rp1477
(I3
S'<'
p1478
NNNI-1
I-1
I0
tp1479
bI00
S"o\x89\xb9\xa3v\x97S@A\xd3\x82\xecV)T\xc0\x00\x00\x00\x80\x14.'\xc0"
p1480
tp1481
bsS'secnames'
p1482
S'Cell[3].axon[47]'
p1483
sI176
I122
tp1484
a(F2.1901605956713825
S'Cell[1].dend[48] syn_ = new ExpSid(0.5)'
p1485
I1
(dp1486
S'seg'
p1487
F0.5
sS'hostfrom'
p1488
F33.0
sS'gid'
p1489
I129
sS'coords'
p1490
g7
(g8
(I0
tp1491
g10
tp1492
Rp1493
(I1
(I3
tp1494
g14
(S'f8'
p1495
I0
I1
tp1496
Rp1497
(I3
S'<'
p1498
NNNI-1
I-1
I0
tp1499
bI00
S'\xb1r\xf0\xf1@[(\xc0\xe8\x85\xe6C&\x858@\x8e\xcb\x83Q&\xc3\x18@'
p1500
tp1501
bsS'secnames'
p1502
S'Cell[2].axon[12]'
p1503
sI129
I74
tp1504
a(F2.4533233014572025
S'Cell[2].apic[10] syn_ = new FastInhib(0.166666666667)'
p1505
I2
(dp1506
g1487
F0.8333333333333333
sg1488
F33.0
sg1489
I177
sg1490
g7
(g8
(I0
tp1507
g10
tp1508
Rp1509
(I1
(I3
tp1510
g1497
I00
S"'\xa1z\xd5\xd5+V@\x98\xea\xe9\xbd\xef\xd8\xf6?\xeat\x01V\xaf\xb6\x17@"
p1511
tp1512
bsg1502
S'Cell[3].axon[22]'
p1513
sI177
I122
tp1514
a(F1.7694644086120113
S'Cell[0].dend[22] syn_ = new ExpSid(0.5)'
p1515
I0
(dp1516
g1487
F0.16666666666666666
sg1488
F33.0
sg1489
I177
sg1490
g7
(g8
(I0
tp1517
g10
tp1518
Rp1519
(I1
(I3
tp1520
g1497
I00
S'\xd4e\xa4\xe6U~\x1f@\x15\xaa\xa4\xf6\xfb\xc7H@+\xce|\x8c\xd4\xa2\xe5\xbf'
p1521
tp1522
bsg1502
S'Cell[3].axon[36]'
p1523
sI177
I26
tp1524
a(F1.881686822104542
S'Cell[3].dend[16] syn_ = new FastInhib(0.166666666667)'
p1525
I3
(dp1526
g1487
F0.5
sg1488
F33.0
sg1489
I81
sg1490
g7
(g8
(I0
tp1527
g10
tp1528
Rp1529
(I1
(I3
tp1530
g1497
I00
S'!Y\xc8\xbf\xf0ME\xc0\x06\x13\xacw\xff\x8c[\xc0\x00\x00\x00\xc0\xcc\xcc\n\xc0'
p1531
tp1532
bsg1502
S'Cell[1].axon[15]'
p1533
sI81
I170
tp1534
a(F1.93063509786384
S'Cell[3].dend[32] syn_ = new FastInhib(0.928571428571)'
p1535
I3
(dp1536
g1487
F0.2096774193548387
sg1488
F33.0
sg1489
I81
sg1490
g7
(g8
(I0
tp1537
g10
tp1538
Rp1539
(I1
(I3
tp1540
g1497
I00
S'r\xe2\x1c\xbd|XX\xc0e\x9bkH\xfbzg@A|J\xd26/5\xc0'
p1541
tp1542
bsg1502
S'Cell[1].axon[59]'
p1543
sI81
I170
tp1544
a(F2.499143511797016
S'Cell[3].dend[49] syn_ = new FastInhib(0.5)'
p1545
I3
(dp1546
S'seg'
p1547
F0.5
sS'hostfrom'
p1548
F34.0
sS'gid'
p1549
I82
sS'coords'
p1550
g7
(g8
(I0
tp1551
g10
tp1552
Rp1553
(I1
(I3
tp1554
g14
(S'f8'
p1555
I0
I1
tp1556
Rp1557
(I3
S'<'
p1558
NNNI-1
I-1
I0
tp1559
bI00
S')\xf4\xbd\x07F\\W\xc0v3d4\xb5\xea]@\xb8\xb4\xfb*^\xc5\x1e@'
p1560
tp1561
bsS'secnames'
p1562
S'Cell[1].axon[118]'
p1563
sI82
I170
tp1564
a(F2.426265204378895
S'Cell[3].dend[28] syn_ = new FastInhib(0.5)'
p1565
I3
(dp1566
g1547
F0.8999999999999999
sg1548
F34.0
sg1549
I82
sg1550
g7
(g8
(I0
tp1567
g10
tp1568
Rp1569
(I1
(I3
tp1570
g1557
I00
S'\xbfF\x19Z\r#R\xc0\xad\x06\xb7\xa9\x10\x03B@\xf3\rcx\x96\xce1\xc0'
p1571
tp1572
bsg1562
S'Cell[1].axon[198]'
p1573
sI82
I170
tp1574
a(F1.7139460031681026
S'Cell[0].apic[22] syn_ = new AmpaNmda(0.5)'
p1575
I0
(dp1576
S'seg'
p1577
F0.5
sS'hostfrom'
p1578
F36.0
sS'gid'
p1579
I84
sS'coords'
p1580
g7
(g8
(I0
tp1581
g10
tp1582
Rp1583
(I1
(I3
tp1584
g14
(S'f8'
p1585
I0
I1
tp1586
Rp1587
(I3
S'<'
p1588
NNNI-1
I-1
I0
tp1589
bI00
S'c\xf4\x12\xd2\xa5\x1d5@\x90\xb4\xe5r\xacUj@\x13\xfe\x9dr\xcf6\xdc\xbf'
p1590
tp1591
bsS'secnames'
p1592
S'Cell[1].axon[164]'
p1593
sI84
I26
tp1594
a(F1.9626416232142996
S'Cell[3].dend[33] syn_ = new FastInhib(0.5)'
p1595
I3
(dp1596
g1577
F0.8333333333333333
sg1578
F36.0
sg1579
I84
sg1580
g7
(g8
(I0
tp1597
g10
tp1598
Rp1599
(I1
(I3
tp1600
g1587
I00
S'E\xe4\xceo\x07\\L\xc0\xcd\xb2\x00p\xfa\xd1I@\xce\x9d\x94S\xc7\xce\xf0?'
p1601
tp1602
bsg1592
S'Cell[1].axon[268]'
p1603
sI84
I170
tp1604
a(F1.2964861289848213
S'Cell[0].apic[3] syn_ = new AmpaNmda(0.5)'
p1605
I0
(dp1606
g1577
F0.7
sg1578
F36.0
sg1579
I84
sg1580
g7
(g8
(I0
tp1607
g10
tp1608
Rp1609
(I1
(I3
tp1610
g1587
I00
S'\xfa\xb5q\xbfH\x81\x15@\xb1E\xdd\xbdu\x18`@\x10\x9ao=\x84\x97\x19@'
p1611
tp1612
bsg1592
S'Cell[1].axon[516]'
p1613
sI84
I26
tp1614
a(F2.468619998696646
S'Cell[1].dend[7] syn_ = new AmpaNmda(0.5)'
p1615
I1
(dp1616
g1577
F0.5
sg1578
F36.0
sg1579
I132
sg1580
g7
(g8
(I0
tp1617
g10
tp1618
Rp1619
(I1
(I3
tp1620
g1587
I00
S'\x8c\xd7\x8a\x1c\xde4H@\xe7@\xd3;\t\xd5U@\xb2\x17v\xf6\xa3\xf6\xe0?'
p1621
tp1622
bsg1592
S'Cell[2].axon[64]'
p1623
sI132
I74
tp1624
a(F1.575204903108462
S'Cell[0].dend[22] syn_ = new AmpaNmda(0.5)'
p1625
I0
(dp1626
g1577
F0.16666666666666666
sg1578
F36.0
sg1579
I132
sg1580
g7
(g8
(I0
tp1627
g10
tp1628
Rp1629
(I1
(I3
tp1630
g1587
I00
S'\xbc\x87Z\xc3d\xcc\x1f@2\x90\x1e\x95S/I@h\xc9Q\xbf\xfbG\xd3\xbf'
p1631
tp1632
bsg1592
S'Cell[2].axon[69]'
p1633
sI132
I26
tp1634
a(F2.1384469118574336
S'Cell[1].dend[33] syn_ = new AmpaNmda(0.166666666667)'
p1635
I1
(dp1636
g1577
F0.5
sg1578
F36.0
sg1579
I132
sg1580
g7
(g8
(I0
tp1637
g10
tp1638
Rp1639
(I1
(I3
tp1640
g1587
I00
S'\xc8\xf9\x90\r\xc9\x1d$@\r%\x9d{\xc1ba@\x00\x00\x00\x80=\n\x0b\xc0'
p1641
tp1642
bsg1592
S'Cell[2].axon[85]'
p1643
sI132
I74
tp1644
a(F2.047645290422276
S'Cell[0].dend[62] syn_ = new AmpaNmda(0.5)'
p1645
I0
(dp1646
g1577
F0.16666666666666666
sg1578
F36.0
sg1579
I180
sg1580
g7
(g8
(I0
tp1647
g10
tp1648
Rp1649
(I1
(I3
tp1650
g1587
I00
S'\xe7\x94S;f\x95@@C\x8a\r\x13\x1bPS@\t\xe8\xfei]\x7f<@'
p1651
tp1652
bsg1592
S'Cell[3].axon[211]'
p1653
sI180
I26
tp1654
a(F2.2828481474993825
S'Cell[1].dend[47] syn_ = new AmpaNmda(0.9)'
p1655
I1
(dp1656
g1577
F0.16666666666666666
sg1578
F36.0
sg1579
I180
sg1580
g7
(g8
(I0
tp1657
g10
tp1658
Rp1659
(I1
(I3
tp1660
g1587
I00
S'\x12\xbb\x8d\xe4\xf5\x89N@\xec\x83"p\x91PG\xc0\xa6~rw\xaac<@'
p1661
tp1662
bsg1592
S'Cell[3].axon[320]'
p1663
sI180
I74
tp1664
a(F2.0775641349106944
S'Cell[2].apic[11] syn_ = new FastInhib(0.166666666667)'
p1665
I2
(dp1666
g1577
F0.21428571428571427
sg1578
F36.0
sg1579
I180
sg1580
g7
(g8
(I0
tp1667
g10
tp1668
Rp1669
(I1
(I3
tp1670
g1587
I00
S'\xef\xa2\xaad;\x05Y@I~\x91BE\xc8)\xc0\xc06K\x86Al"@'
p1671
tp1672
bsg1592
S'Cell[3].axon[321]'
p1673
sI180
I122
tp1674
a(F2.045219551313782
S'Cell[1].dend[65] syn_ = new ExpSid(0.5)'
p1675
I1
(dp1676
S'seg'
p1677
F0.5
sS'hostfrom'
p1678
F37.0
sS'gid'
p1679
I133
sS'coords'
p1680
g7
(g8
(I0
tp1681
g10
tp1682
Rp1683
(I1
(I3
tp1684
g14
(S'f8'
p1685
I0
I1
tp1686
Rp1687
(I3
S'<'
p1688
NNNI-1
I-1
I0
tp1689
bI00
S'8=_\x1a[\xd78\xc0G=\xacc\x0cIB@\xe4\xc2\xdd\xc1,\x82\x02\xc0'
p1690
tp1691
bsS'secnames'
p1692
S'Cell[2].axon[21]'
p1693
sI133
I74
tp1694
a(F1.857200851972953
S'Cell[1].dend[53] syn_ = new ExpSid(0.166666666667)'
p1695
I1
(dp1696
g1677
F0.07142857142857142
sg1678
F37.0
sg1679
I133
sg1680
g7
(g8
(I0
tp1697
g10
tp1698
Rp1699
(I1
(I3
tp1700
g1687
I00
S'J\xce\x9aM\xf2\x9d6@}\xda>\x98\xd2^\x12@J\x88:\x01P\xb8"@'
p1701
tp1702
bsg1692
S'Cell[2].axon[91]'
p1703
sI133
I74
tp1704
a(F2.174027440774533
S'Cell[0].dend[29] syn_ = new ExpSid(0.5)'
p1705
I0
(dp1706
g1677
F0.7
sg1678
F37.0
sg1679
I181
sg1680
g7
(g8
(I0
tp1707
g10
tp1708
Rp1709
(I1
(I3
tp1710
g1687
I00
S'\n|\xeb\xa6\xb9\xf3@@8\xcaD\tf9.@\x00\x00\x00`\xb8\x1e\xd5?'
p1711
tp1712
bsg1692
S'Cell[3].axon[165]'
p1713
sI181
I26
tp1714
a(F1.519018900099027
S'Cell[3].dend[17] syn_ = new FastInhib(0.833333333333)'
p1715
I3
(dp1716
g1677
F0.5
sg1678
F37.0
sg1679
I37
sg1680
g7
(g8
(I0
tp1717
g10
tp1718
Rp1719
(I1
(I3
tp1720
g1687
I00
S'\xc7-\x9d\xb1\xf6mT\xc0\x16\x05\xcbw\xa5\xe7]\xc0\x88N\xea\xce\xcad\x05\xc0'
p1721
tp1722
bsg1692
S'Cell[0].axon[19]'
p1723
sI37
I170
tp1724
a(F1.2635938230134636
S'Cell[0].apic[26] syn_ = new ExpSid(0.166666666667)'
p1725
I0
(dp1726
g1677
F0.8333333333333333
sg1678
F37.0
sg1679
I85
sg1680
g7
(g8
(I0
tp1727
g10
tp1728
Rp1729
(I1
(I3
tp1730
g1687
I00
S'\xf6\x14\xfe\x94-\x04(@\xa1-\x1b\xde\xb0\xadW@\xf07\xbd0Qa\x14@'
p1731
tp1732
bsg1692
S'Cell[1].axon[248]'
p1733
sI85
I26
tp1734
a(F2.335826323357944
S'Cell[3].dend[4] syn_ = new FastInhib(0.5)'
p1735
I3
g1726
I85
I170
tp1736
a(F1.6656960449225802
S'Cell[0].apic[4] syn_ = new AmpaNmda(0.5)'
p1737
I0
(dp1738
S'seg'
p1739
F0.5
sS'hostfrom'
p1740
F38.0
sS'gid'
p1741
I182
sS'coords'
p1742
g7
(g8
(I0
tp1743
g10
tp1744
Rp1745
(I1
(I3
tp1746
g14
(S'f8'
p1747
I0
I1
tp1748
Rp1749
(I3
S'<'
p1750
NNNI-1
I-1
I0
tp1751
bI00
S'\xe1\x1fTp:\xa45@\x8c\xc9\x19\x99\x11\xe8c@\xd0\x0cz\xddM4/\xc0'
p1752
tp1753
bsS'secnames'
p1754
S'Cell[3].axon[187]'
p1755
sI182
I26
tp1756
a(F2.463965215209421
S'Cell[1].dend[54] syn_ = new AmpaNmda(0.166666666667)'
p1757
I1
(dp1758
g1739
F0.5
sg1740
F38.0
sg1741
I182
sg1742
g7
(g8
(I0
tp1759
g10
tp1760
Rp1761
(I1
(I3
tp1762
g1749
I00
S'\x19\x13\xca\x1d\x08\x965@\xd0\x1e\xcb\xd4\xd5x\x17@\xd0Psh\x89b\xd2?'
p1763
tp1764
bsg1754
S'Cell[3].axon[216]'
p1765
sI182
I74
tp1766
a(F2.2613639013851463
S'Cell[3].dend[2] syn_ = new FastInhib(0.5)'
p1767
I3
(dp1768
S'seg'
p1769
F0.16666666666666666
sS'hostfrom'
p1770
F39.0
sS'gid'
p1771
I87
sS'coords'
p1772
g7
(g8
(I0
tp1773
g10
tp1774
Rp1775
(I1
(I3
tp1776
g14
(S'f8'
p1777
I0
I1
tp1778
Rp1779
(I3
S'<'
p1780
NNNI-1
I-1
I0
tp1781
bI00
S'\xfb\x8b\x01uX\xa0E@\xfb\xc9d\x19\xe2\x83A@\xae\xde\xf4\xc9f\xfa\x18@'
p1782
tp1783
bsS'secnames'
p1784
S'Cell[1].axon[83]'
p1785
sI87
I170
tp1786
a(F1.8302883414757676
S'Cell[1].dend[53] syn_ = new ExpSid(0.833333333333)'
p1787
I1
(dp1788
g1769
F0.8333333333333333
sg1770
F39.0
sg1771
I87
sg1772
g7
(g8
(I0
tp1789
g10
tp1790
Rp1791
(I1
(I3
tp1792
g1779
I00
S'H\x9c0+\x8f<D@\xef\r\x1fI\x8f\xa00\xc0 \xa8\x1a\xde\x98\xf6;@'
p1793
tp1794
bsg1784
S'Cell[1].axon[90]'
p1795
sI87
I74
tp1796
a(F1.6465679983857142
S'Cell[0].dend[25] syn_ = new ExpSid(0.5)'
p1797
I0
(dp1798
g1769
F0.7222222222222223
sg1770
F39.0
sg1771
I135
sg1772
g7
(g8
(I0
tp1799
g10
tp1800
Rp1801
(I1
(I3
tp1802
g1779
I00
S'\xe7\x89L\xdcu\xeaO@\x16&\xe3kl 0@KG\x98+_LS\xc0'
p1803
tp1804
bsg1784
S'Cell[2].axon[97]'
p1805
sI135
I26
tp1806
a(F1.5026377110783642
S'Cell[3].dend[2] syn_ = new FastInhib(0.5)'
p1807
I3
(dp1808
g1769
F0.30000000000000004
sg1770
F39.0
sg1771
I183
sg1772
g7
(g8
(I0
tp1809
g10
tp1810
Rp1811
(I1
(I3
tp1812
g1779
I00
S'\x08\xc9\xe7\x94\x1f\x80E@\x94\xa4\xc1\x05b\xd0@@\x8f\x03V\x99\x05} @'
p1813
tp1814
bsg1784
S'Cell[3].axon[61]'
p1815
sI183
I170
tp1816
a(F1.4334434329603638
S'Cell[2].apic[19] syn_ = new FastInhib(0.833333333333)'
p1817
I2
(dp1818
g1769
F0.5
sg1770
F39.0
sg1771
I183
sg1772
g7
(g8
(I0
tp1819
g10
tp1820
Rp1821
(I1
(I3
tp1822
g1779
I00
S'\xd0\xa8\x0b\xbbA\x80K@\xeeN7\xb3V\x8cA@6\xa6\xa5\x80\x8e\xad8@'
p1823
tp1824
bsg1784
S'Cell[3].axon[61]'
p1825
sI183
I122
tp1826
a(F2.159677046583737
S'Cell[0].dend[8] syn_ = new ExpSid(0.1)'
p1827
I0
(dp1828
g1769
F0.8333333333333333
sg1770
F39.0
sg1771
I183
sg1772
g7
(g8
(I0
tp1829
g10
tp1830
Rp1831
(I1
(I3
tp1832
g1779
I00
S'0[\x8dU\xca\xbaB\xc0\x00d`\xae\x92"D@\xf0\xf4C5J{#@'
p1833
tp1834
bsg1784
S'Cell[3].axon[141]'
p1835
sI183
I26
tp1836
a(F0.7060163246456672
S'Cell[1].dend[26] syn_ = new AmpaNmda(0.214285714286)'
p1837
I1
(dp1838
S'seg'
p1839
F0.16666666666666666
sS'hostfrom'
p1840
F40.0
sS'gid'
p1841
I40
sS'coords'
p1842
g7
(g8
(I0
tp1843
g10
tp1844
Rp1845
(I1
(I3
tp1846
g14
(S'f8'
p1847
I0
I1
tp1848
Rp1849
(I3
S'<'
p1850
NNNI-1
I-1
I0
tp1851
bI00
S'@\x9a\xcam\xc3\x1a+\xc0\xa9Q\xe0j\xf2\xb8f@f\xec?8\x7fxG\xc0'
p1852
tp1853
bsS'secnames'
p1854
S'Cell[0].axon[21]'
p1855
sI40
I74
tp1856
a(F1.7097369240845117
S'Cell[1].dend[57] syn_ = new AmpaNmda(0.7)'
p1857
I1
(dp1858
g1839
F0.5
sg1840
F40.0
sg1841
I88
sg1842
g7
(g8
(I0
tp1859
g10
tp1860
Rp1861
(I1
(I3
tp1862
g1849
I00
S'2\x8aej\xd5\xe4G@F\xef\x04&9"6\xc0@\xf5\xcf#\x84\x12A\xc0'
p1863
tp1864
bsg1854
S'Cell[1].axon[165]'
p1865
sI88
I74
tp1866
a(F1.7461678708386426
S'Cell[1].dend[57] syn_ = new AmpaNmda(0.9)'
p1867
I1
(dp1868
g1839
F0.16666666666666666
sg1840
F40.0
sg1841
I88
sg1842
g7
(g8
(I0
tp1869
g10
tp1870
Rp1871
(I1
(I3
tp1872
g1849
I00
S'\xf4\x83H\xa5\n\xd7M@\xd8\xc07\x00\x9b\xba@\xc0\x1e\x8a\xe8\x10\xb3\x9eH\xc0'
p1873
tp1874
bsg1854
S'Cell[1].axon[169]'
p1875
sI88
I74
tp1876
a(F1.9088321179046253
S'Cell[1].dend[33] syn_ = new AmpaNmda(0.166666666667)'
p1877
I1
(dp1878
g1839
F0.7
sg1840
F40.0
sg1841
I88
sg1842
g7
(g8
(I0
tp1879
g10
tp1880
Rp1881
(I1
(I3
tp1882
g1849
I00
S'\x03\x03"\x8f\xb8\x91\x1a@\x1f\xaf\xdbX\xc7ua@\x00\x00\x00\x00)\\\xff\xbf'
p1883
tp1884
bsg1854
S'Cell[1].axon[183]'
p1885
sI88
I74
tp1886
a(F2.2007104511138267
S'Cell[1].dend[7] syn_ = new AmpaNmda(0.9)'
p1887
I1
(dp1888
g1839
F0.8333333333333333
sg1840
F40.0
sg1841
I88
sg1842
g7
(g8
(I0
tp1889
g10
tp1890
Rp1891
(I1
(I3
tp1892
g1849
I00
S'\xb0J\xcd\x8d\x02\x97U@p\xf4\x89P\x91\x05X@/\xc3\xd6\x92d\x06 @'
p1893
tp1894
bsg1854
S'Cell[1].axon[195]'
p1895
sI88
I74
tp1896
a(F2.293465350041586
S'Cell[1].dend[61] syn_ = new AmpaNmda(0.5)'
p1897
I1
(dp1898
g1839
F0.5
sg1840
F40.0
sg1841
I88
sg1842
g7
(g8
(I0
tp1899
g10
tp1900
Rp1901
(I1
(I3
tp1902
g1849
I00
S'\xf5\x93\xeeA\xf7\x8b\xeb?\xb6\xf5\x12\xb0\xa8>;@\x96_rd=\xd97\xc0'
p1903
tp1904
bsg1854
S'Cell[1].axon[221]'
p1905
sI88
I74
tp1906
a(F2.360988253280043
S'Cell[1].dend[57] syn_ = new AmpaNmda(0.3)'
p1907
I1
(dp1908
g1839
F0.30000000000000004
sg1840
F40.0
sg1841
I88
sg1842
g7
(g8
(I0
tp1909
g10
tp1910
Rp1911
(I1
(I3
tp1912
g1849
I00
S'\n\x9eV\xbb\x0b\x885@\x87\xf7\x19\x98\xfbh\xd8\xbfK\x12#\x99\xda\xba-\xc0'
p1913
tp1914
bsg1854
S'Cell[1].axon[313]'
p1915
sI88
I74
tp1916
a(F1.1620610355695289
S'Cell[2].dend[7] syn_ = new FastInhib(0.0714285714286)'
p1917
I2
(dp1918
g1839
F0.1
sg1840
F40.0
sg1841
I88
sg1842
g7
(g8
(I0
tp1919
g10
tp1920
Rp1921
(I1
(I3
tp1922
g1849
I00
S'\xb6\x1d\x7f3{\x18B@Z\t\xb4\xe1\x85YT\xc0R\x87\xcd-\xc2\x021@'
p1923
tp1924
bsg1854
S'Cell[1].axon[340]'
p1925
sI88
I122
tp1926
a(F2.374820371946068
S'Cell[0].dend[66] syn_ = new AmpaNmda(0.5)'
p1927
I0
(dp1928
g1839
F0.30000000000000004
sg1840
F40.0
sg1841
I184
sg1842
g7
(g8
(I0
tp1929
g10
tp1930
Rp1931
(I1
(I3
tp1932
g1849
I00
S'\x8a\x9f#\xfa\x11\xe11@\x1aw\xa0\x0f\xf7\x10K@\xadO\x10\x91Z\x032@'
p1933
tp1934
bsg1854
S'Cell[3].axon[28]'
p1935
sI184
I26
tp1936
a(F2.088445293188015
S'Cell[0].dend[2] syn_ = new ExpSid(0.833333333333)'
p1937
I0
(dp1938
S'seg'
p1939
F0.16666666666666666
sS'hostfrom'
p1940
F41.0
sS'gid'
p1941
I185
sS'coords'
p1942
g7
(g8
(I0
tp1943
g10
tp1944
Rp1945
(I1
(I3
tp1946
g14
(S'f8'
p1947
I0
I1
tp1948
Rp1949
(I3
S'<'
p1950
NNNI-1
I-1
I0
tp1951
bI00
S'S\x93\x86\xa8\x1e<B\xc0\x8f~\xday\xbc\xf3@@\n8|\xf9\xfc^\xdb\xbf'
p1952
tp1953
bsS'secnames'
p1954
S'Cell[3].axon[0]'
p1955
sI185
I26
tp1956
a(F1.0651523319153726
S'Cell[3].dend[49] syn_ = new FastInhib(0.3)'
p1957
I3
(dp1958
g1939
F0.5
sg1940
F41.0
sg1941
I185
sg1942
g7
(g8
(I0
tp1959
g10
tp1960
Rp1961
(I1
(I3
tp1962
g1949
I00
S'>\x0c\xb5\xaf\xe4\xdcU\xc0w<\x8a\x15\xe7\x08X@Q7\xd6\xcc\x11\xff%@'
p1963
tp1964
bsg1954
S'Cell[3].axon[191]'
p1965
sI185
I170
tp1966
a(F2.22761300702529
S'Cell[3].dend[48] syn_ = new FastInhib(0.5)'
p1967
I3
(dp1968
g1939
F0.7727272727272728
sg1940
F41.0
sg1941
I89
sg1942
g7
(g8
(I0
tp1969
g10
tp1970
Rp1971
(I1
(I3
tp1972
g1949
I00
S'\x88\x92=K\xc9\xf9N\xc0\xfd\xbe\xb2o\x1c\x96C@\\\x9f\x1f\x14>\x85\x1b@'
p1973
tp1974
bsg1954
S'Cell[1].axon[83]'
p1975
sI89
I170
tp1976
a(F2.458689562133326
S'Cell[0].dend[26] syn_ = new AmpaNmda(0.9)'
p1977
I0
(dp1978
S'seg'
p1979
F0.5
sS'hostfrom'
p1980
F42.0
sS'gid'
p1981
I90
sS'coords'
p1982
g7
(g8
(I0
tp1983
g10
tp1984
Rp1985
(I1
(I3
tp1986
g14
(S'f8'
p1987
I0
I1
tp1988
Rp1989
(I3
S'<'
p1990
NNNI-1
I-1
I0
tp1991
bI00
S'\x8f R4>Q4@\x17\xfa\xc2\x96\x9fPP\xc0\xb9YZ\xc8\xe9\xdbI\xc0'
p1992
tp1993
bsS'secnames'
p1994
S'Cell[1].axon[6]'
p1995
sI90
I26
tp1996
a(F1.0830808465899833
S'Cell[3].dend[6] syn_ = new FastInhib(0.166666666667)'
p1997
I3
(dp1998
g1979
F0.30000000000000004
sg1980
F42.0
sg1981
I90
sg1982
g7
(g8
(I0
tp1999
g10
tp2000
Rp2001
(I1
(I3
tp2002
g1989
I00
S'z\x88\xc5b&\x1eG\xc0rIE\x9a\x01\xda5\xc0ZZ\xad\xa0,\x8a\x08@'
p2003
tp2004
bsg1994
S'Cell[1].axon[24]'
p2005
sI90
I170
tp2006
a(F1.8453545479626405
S'Cell[0].dend[16] syn_ = new AmpaNmda(0.5)'
p2007
I0
(dp2008
g1979
F0.5
sg1980
F42.0
sg1981
I90
sg1982
g7
(g8
(I0
tp2009
g10
tp2010
Rp2011
(I1
(I3
tp2012
g1989
I00
S'E-ry\x99\xfc"\xc0\xc7\xe4\xbe@29G@-\x96\x9b\xad\x11\x02=@'
p2013
tp2014
bsg1994
S'Cell[1].axon[208]'
p2015
sI90
I26
tp2016
a(F2.377634126620547
S'Cell[0].dend[32] syn_ = new AmpaNmda(0.5)'
p2017
I0
(dp2018
g1979
F0.03333333333333333
sg1980
F42.0
sg1981
I138
sg1982
g7
(g8
(I0
tp2019
g10
tp2020
Rp2021
(I1
(I3
tp2022
g1989
I00
S'\x02\xe4\xc6\xe1\x98r)\xc0\x10\x10GK|eA\xc0\xbc\x94\x8eQE\xf0>@'
p2023
tp2024
bsg1994
S'Cell[2].axon[69]'
p2025
sI138
I26
tp2026
a(F1.8721868816633418
S'Cell[3].dend[5] syn_ = new FastInhib(0.5)'
p2027
I3
(dp2028
g1979
F0.5
sg1980
F42.0
sg1981
I138
sg1982
g7
(g8
(I0
tp2029
g10
tp2030
Rp2031
(I1
(I3
tp2032
g1989
I00
S'\xdf$[\xc6\rfJ\xc006ow\x12\xc8#\xc0\x9cjUF\xad\x1f\xe0?'
p2033
tp2034
bsg1994
S'Cell[2].axon[79]'
p2035
sI138
I170
tp2036
a(F1.717802219482384
S'Cell[3].dend[33] syn_ = new FastInhib(0.166666666667)'
p2037
I3
(dp2038
g1979
F0.8333333333333333
sg1980
F42.0
sg1981
I186
sg1982
g7
(g8
(I0
tp2039
g10
tp2040
Rp2041
(I1
(I3
tp2042
g1989
I00
S'<r\xb9>\xe0\xeaJ\xc0\xaa\x93\xb7u\x88\x93:@2\xc8oA\xf3\x83\x05\xc0'
p2043
tp2044
bsg1994
S'Cell[3].axon[1]'
p2045
sI186
I170
tp2046
a(F2.4488111047668455
S'Cell[0].dend[8] syn_ = new AmpaNmda(0.1)'
p2047
I0
(dp2048
g1979
F0.16666666666666666
sg1980
F42.0
sg1981
I186
sg1982
g7
(g8
(I0
tp2049
g10
tp2050
Rp2051
(I1
(I3
tp2052
g1989
I00
S'\xac\xeb\xc9S\xf3VC\xc0\xfe\xb7b\x89S\x1fC@\x00\x00\x00`\xb8\x1e*@'
p2053
tp2054
bsg1994
S'Cell[3].axon[66]'
p2055
sI186
I26
tp2056
a(F2.330831255867462
S'Cell[3].dend[15] syn_ = new FastInhib(0.833333333333)'
p2057
I3
(dp2058
g1979
F0.5
sg1980
F42.0
sg1981
I186
sg1982
g7
(g8
(I0
tp2059
g10
tp2060
Rp2061
(I1
(I3
tp2062
g1989
I00
S'\x1e\x0f\t\xf7EW1\xc0\xb9\xac\x07\xec\xeb\xef_\xc0\x00\x00\x00\xa0p=\x0c\xc0'
p2063
tp2064
bsg1994
S'Cell[3].axon[156]'
p2065
sI186
I170
tp2066
a(F1.1444235949496513
S'Cell[1].dend[7] syn_ = new ExpSid(0.1)'
p2067
I1
(dp2068
S'seg'
p2069
F0.5
sS'hostfrom'
p2070
F43.0
sS'gid'
p2071
I91
sS'coords'
p2072
g7
(g8
(I0
tp2073
g10
tp2074
Rp2075
(I1
(I3
tp2076
g14
(S'f8'
p2077
I0
I1
tp2078
Rp2079
(I3
S'<'
p2080
NNNI-1
I-1
I0
tp2081
bI00
S'q\xdf\xc9\x1d\xbd\x04*@\x8c\x1e5\x91\xa2\x9dP@\x05\x124(J\xb0\xef?'
p2082
tp2083
bsS'secnames'
p2084
S'Cell[1].axon[196]'
p2085
sI91
I74
tp2086
a(F2.0537447377681795
S'Cell[2].apic[11] syn_ = new FastInhib(0.166666666667)'
p2087
I2
(dp2088
g2069
F0.5
sg2070
F43.0
sg2071
I91
sg2072
g7
(g8
(I0
tp2089
g10
tp2090
Rp2091
(I1
(I3
tp2092
g2079
I00
S'84\xf3\xd8C\xffX@c\x8a\xf6,\xb6q(\xc0\xe6\xd2\xb0\x0e\x0f\x8b\x1f@'
p2093
tp2094
bsg2084
S'Cell[1].axon[400]'
p2095
sI91
I122
tp2096
a(F2.2089475449636002
S'Cell[0].dend[27] syn_ = new ExpSid(0.1)'
p2097
I0
(dp2098
g2069
F0.5
sg2070
F43.0
sg2071
I91
sg2072
g7
(g8
(I0
tp2099
g10
tp2100
Rp2101
(I1
(I3
tp2102
g2079
I00
S'\x9c\r\x10d\x16\x9bA@&\xd6E\xa5\x87@>@\xb8ls[\xc7\x02A\xc0'
p2103
tp2104
bsg2084
S'Cell[1].axon[403]'
p2105
sI91
I26
tp2106
a(F1.1230555812142595
S'Cell[1].dend[25] syn_ = new ExpSid(0.5)'
p2107
I1
(dp2108
g2069
F0.6428571428571428
sg2070
F43.0
sg2071
I139
sg2072
g7
(g8
(I0
tp2109
g10
tp2110
Rp2111
(I1
(I3
tp2112
g2079
I00
S'j\xa7\xd0X\x1e1)\xc0\xd5\xcez\xfc\\\x1bc@\xfa\x865\x9f\xf9\xdf,\xc0'
p2113
tp2114
bsg2084
S'Cell[2].axon[275]'
p2115
sI139
I74
tp2116
a(F2.282452977134658
S'Cell[2].apic[23] syn_ = new FastInhib(0.1)'
p2117
I2
(dp2118
g2069
F0.5
sg2070
F43.0
sg2071
I139
sg2072
g7
(g8
(I0
tp2119
g10
tp2120
Rp2121
(I1
(I3
tp2122
g2079
I00
S'\x81\xa2~\x1d\xac\x11J@[\xb4k\x82\xf7\xde8\xc0\x02\xcb\xf9\xb5\x91\xbc%\xc0'
p2123
tp2124
bsg2084
S'Cell[2].axon[322]'
p2125
sI139
I122
tp2126
a(F2.1560251795322403
S'Cell[0].dend[58] syn_ = new ExpSid(0.5)'
p2127
I0
(dp2128
g2069
F0.16666666666666666
sg2070
F43.0
sg2071
I187
sg2072
g7
(g8
(I0
tp2129
g10
tp2130
Rp2131
(I1
(I3
tp2132
g2079
I00
S'\xa6\xefs\x1e\x0e\x847\xc0\r\xcaQ\xfebT0@\xb0\xbfk\xf8\n1O\xc0'
p2133
tp2134
bsg2084
S'Cell[3].axon[53]'
p2135
sI187
I26
tp2136
a(F1.7523879273567684
S'Cell[2].apic[8] syn_ = new FastInhib(0.166666666667)'
p2137
I2
(dp2138
g2069
F0.8333333333333333
sg2070
F43.0
sg2071
I187
sg2072
g7
(g8
(I0
tp2139
g10
tp2140
Rp2141
(I1
(I3
tp2142
g2079
I00
S'\xaci\xfc\xa6\x8e\xc7Z@_\xd6\x02\xab#\x8b8\xc0\xf6\xa4| \xd7\x8f0\xc0'
p2143
tp2144
bsg2084
S'Cell[3].axon[103]'
p2145
sI187
I122
tp2146
a(F2.2980495778953713
S'Cell[0].dend[5] syn_ = new ExpSid(0.3)'
p2147
I0
(dp2148
g2069
F0.6111111111111112
sg2070
F43.0
sg2071
I187
sg2072
g7
(g8
(I0
tp2149
g10
tp2150
Rp2151
(I1
(I3
tp2152
g2079
I00
S'\xe2\x12M\x13\x86\x8dA\xc0\x88\x91\x87\xd2\xe8&M@\x00\x00\x00\x00\xd7\x03B\xc0'
p2153
tp2154
bsg2084
S'Cell[3].axon[119]'
p2155
sI187
I26
tp2156
a(F1.0412902413607559
S'Cell[1].dend[58] syn_ = new AmpaNmda(0.5)'
p2157
I1
(dp2158
S'seg'
p2159
F0.8333333333333333
sS'hostfrom'
p2160
F44.0
sS'gid'
p2161
I92
sS'coords'
p2162
g7
(g8
(I0
tp2163
g10
tp2164
Rp2165
(I1
(I3
tp2166
g14
(S'f8'
p2167
I0
I1
tp2168
Rp2169
(I3
S'<'
p2170
NNNI-1
I-1
I0
tp2171
bI00
S'\x02\xbe\xc8\xfe1\xe0\x15\xc0\x0b\r\xb4[\x8em8@%!I\x08?\x0e\x05\xc0'
p2172
tp2173
bsS'secnames'
p2174
S'Cell[1].axon[210]'
p2175
sI92
I74
tp2176
a(F2.203101136673766
S'Cell[1].dend[51] syn_ = new AmpaNmda(0.5)'
p2177
I1
(dp2178
g2159
F0.8333333333333335
sg2160
F44.0
sg2161
I92
sg2162
g7
(g8
(I0
tp2179
g10
tp2180
Rp2181
(I1
(I3
tp2182
g2169
I00
S"\xc1\x0e'e]:\x0e\xc0]\xf3zxEV0@\xf8\xdf&3\xf1Q\xdc\xbf"
p2183
tp2184
bsg2174
S'Cell[1].axon[227]'
p2185
sI92
I74
tp2186
a(F0.9428563278680367
S'Cell[3].dend[48] syn_ = new FastInhib(0.833333333333)'
p2187
I3
(dp2188
g2159
F0.16666666666666666
sg2160
F44.0
sg2161
I188
sg2162
g7
(g8
(I0
tp2189
g10
tp2190
Rp2191
(I1
(I3
tp2192
g2169
I00
S'\xfb\x0b]\xcd\xf9NQ\xc0\x98\x19\xa1\xd8>KM@*\xdb\xd5v\xb8\x02!@'
p2193
tp2194
bsg2174
S'Cell[3].axon[25]'
p2195
sI188
I170
tp2196
a(F1.90644032628192
S'Cell[1].dend[54] syn_ = new AmpaNmda(0.166666666667)'
p2197
I1
(dp2198
g2159
F0.5
sg2160
F44.0
sg2161
I188
sg2162
g7
(g8
(I0
tp2199
g10
tp2200
Rp2201
(I1
(I3
tp2202
g2169
I00
S'\x12\x82\xe5\xd1\x10\x104@\x00\x00\x00\x00)\\\x1e@w\xa3\xf4\x16[\xd3\x0c@'
p2203
tp2204
bsg2174
S'Cell[3].axon[56]'
p2205
sI188
I74
tp2206
a(F1.6554304356659746
S'Cell[1].dend[6] syn_ = new AmpaNmda(0.3)'
p2207
I1
(dp2208
g2159
F0.1
sg2160
F44.0
sg2161
I188
sg2162
g7
(g8
(I0
tp2209
g10
tp2210
Rp2211
(I1
(I3
tp2212
g2169
I00
S'\x10\xc8\x06\x0c\xb9rJ@\xd2\xf8=\xf7\xb3\xd6A@3I:\x84\xdd\x90\x02@'
p2213
tp2214
bsg2174
S'Cell[3].axon[232]'
p2215
sI188
I74
tp2216
a(F1.497159237000291
S'Cell[1].dend[81] syn_ = new AmpaNmda(0.5)'
p2217
I1
(dp2218
g2159
F0.7
sg2160
F44.0
sg2161
I44
sg2162
g7
(g8
(I0
tp2219
g10
tp2220
Rp2221
(I1
(I3
tp2222
g2169
I00
S'\x01\xd9m\x03pgP\xc0Uq\x80\xc7\x0c\x00N@\xd31Z>Q1<\xc0'
p2223
tp2224
bsg2174
S'Cell[0].axon[3]'
p2225
sI44
I74
tp2226
a(F1.9796778867206681
S'Cell[3].dend[25] syn_ = new FastInhib(0.3)'
p2227
I3
(dp2228
g2159
F0.3571428571428571
sg2160
F44.0
sg2161
I44
sg2162
g7
(g8
(I0
tp2229
g10
tp2230
Rp2231
(I1
(I3
tp2232
g2169
I00
S'r\x0c8\x99\xc7\xdeV\xc0\x0e\xb0#0~T\x1b\xc0T\xc8\xbe\xed#z.\xc0'
p2233
tp2234
bsg2174
S'Cell[0].axon[41]'
p2235
sI44
I170
tp2236
a(F1.10554797535962
S'Cell[0].dend[35] syn_ = new ExpSid(0.7)'
p2237
I0
(dp2238
S'seg'
p2239
F0.5
sS'hostfrom'
p2240
F45.0
sS'gid'
p2241
I141
sS'coords'
p2242
g7
(g8
(I0
tp2243
g10
tp2244
Rp2245
(I1
(I3
tp2246
g14
(S'f8'
p2247
I0
I1
tp2248
Rp2249
(I3
S'<'
p2250
NNNI-1
I-1
I0
tp2251
bI00
S'\xd5\xf4P\xe5\x1eUF@\x99\xd0\xb1\xdf\xf5(A@\x00\x00\x00\xc0\x1e\xf5W\xc0'
p2252
tp2253
bsS'secnames'
p2254
S'Cell[2].axon[93]'
p2255
sI141
I26
tp2256
a(F1.5499050436333035
S'Cell[0].dend[5] syn_ = new ExpSid(0.5)'
p2257
I0
(dp2258
g2239
F0.8333333333333333
sg2240
F45.0
sg2241
I141
sg2242
g7
(g8
(I0
tp2259
g10
tp2260
Rp2261
(I1
(I3
tp2262
g2249
I00
S']\xf2\x10\xa5\x04\xaeF\xc0\xea`\xd5s~[F@0+\xadu\x81\xd7J\xc0'
p2263
tp2264
bsg2254
S'Cell[2].axon[258]'
p2265
sI141
I26
tp2266
a(F2.0089911229309125
S'Cell[2].apic[23] syn_ = new FastInhib(0.3)'
p2267
I2
(dp2268
g2239
F0.5
sg2240
F45.0
sg2241
I141
sg2242
g7
(g8
(I0
tp2269
g10
tp2270
Rp2271
(I1
(I3
tp2272
g2249
I00
S'1f\xd1C\x8f\x0fA@4\x13\xd7\xe8\xeew>\xc0\xec\xf8)\xd6\xf1;C\xc0'
p2273
tp2274
bsg2254
S'Cell[2].axon[509]'
p2275
sI141
I122
tp2276
a(F1.917988195386556
S'Cell[3].dend[4] syn_ = new FastInhib(0.785714285714)'
p2277
I3
(dp2278
g2239
F0.8333333333333333
sg2240
F45.0
sg2241
I189
sg2242
g7
(g8
(I0
tp2279
g10
tp2280
Rp2281
(I1
(I3
tp2282
g2249
I00
S'\xef\x7f\x92\xe8\xbf\x925@\x109\xc8h6Hb@\xfc~\xd4]Z\x86\xf2?'
p2283
tp2284
bsg2254
S'Cell[3].axon[201]'
p2285
sI189
I170
tp2286
a(F2.3827925176310907
S'Cell[0].dend[49] syn_ = new ExpSid(0.214285714286)'
p2287
I0
(dp2288
g2239
F0.5
sg2240
F45.0
sg2241
I93
sg2242
g7
(g8
(I0
tp2289
g10
tp2290
Rp2291
(I1
(I3
tp2292
g2249
I00
S'\x92\xbfZ\xe3\xa1\xda\x1b@_3jX\xd8XA@\x84LL]\x9b\x89L\xc0'
p2293
tp2294
bsg2254
S'Cell[1].axon[5]'
p2295
sI93
I26
tp2296
a(F1.0259890844481063
S'Cell[1].dend[67] syn_ = new ExpSid(0.5)'
p2297
I1
(dp2298
g2239
F0.1
sg2240
F45.0
sg2241
I93
sg2242
g7
(g8
(I0
tp2299
g10
tp2300
Rp2301
(I1
(I3
tp2302
g2249
I00
S'\x93\xb0[\xb2K\xf5Q\xc0u\x97vFv\x82L@G\x8f\x9a\xd5\xce\xa1S\xc0'
p2303
tp2304
bsg2254
S'Cell[1].axon[18]'
p2305
sI93
I74
tp2306
a(F1.753973643940591
S'Cell[1].dend[81] syn_ = new ExpSid(0.166666666667)'
p2307
I1
(dp2308
g2239
F0.16666666666666666
sg2240
F45.0
sg2241
I93
sg2242
g7
(g8
(I0
tp2309
g10
tp2310
Rp2311
(I1
(I3
tp2312
g2249
I00
S"\xdc\x84\x15KR0E\xc0 'p,\xcc\xffE@\x00\x00\x00@\n\xd7-\xc0"
p2313
tp2314
bsg2254
S'Cell[1].axon[74]'
p2315
sI93
I74
tp2316
a(F1.414878894417377
S'Cell[1].dend[64] syn_ = new ExpSid(0.5)'
p2317
I1
(dp2318
g2239
F0.16666666666666666
sg2240
F45.0
sg2241
I93
sg2242
g7
(g8
(I0
tp2319
g10
tp2320
Rp2321
(I1
(I3
tp2322
g2249
I00
S'D\\.)\x1aY&\xc0\xef\xebD\xe4i\\@@\x8cF\xac\x89[\xfbN\xc0'
p2323
tp2324
bsg2254
S'Cell[1].axon[84]'
p2325
sI93
I74
tp2326
a(F1.3723583554784167
S'Cell[0].dend[46] syn_ = new ExpSid(0.5)'
p2327
I0
(dp2328
g2239
F0.5
sg2240
F45.0
sg2241
I93
sg2242
g7
(g8
(I0
tp2329
g10
tp2330
Rp2331
(I1
(I3
tp2332
g2249
I00
S'\xd8?\xe7QJ\x83\x1d@T\x83)WO\x03O@\x00\x00\x00 \xae\xc7)\xc0'
p2333
tp2334
bsg2254
S'Cell[1].axon[213]'
p2335
sI93
I26
tp2336
a(F1.94542330429243
S'Cell[2].apic[18] syn_ = new FastInhib(0.5)'
p2337
I2
(dp2338
S'seg'
p2339
F0.5
sS'hostfrom'
p2340
F46.0
sS'gid'
p2341
I94
sS'coords'
p2342
g7
(g8
(I0
tp2343
g10
tp2344
Rp2345
(I1
(I3
tp2346
g14
(S'f8'
p2347
I0
I1
tp2348
Rp2349
(I3
S'<'
p2350
NNNI-1
I-1
I0
tp2351
bI00
S'\x80w_\x80J\x9fB@\xcf]\x01\xd1\xea\xfc;\xc0\x00\x00\x00@\xe1\xfa9@'
p2352
tp2353
bsS'secnames'
p2354
S'Cell[1].axon[184]'
p2355
sI94
I122
tp2356
a(F1.508243583807535
S'Cell[3].dend[7] syn_ = new FastInhib(0.7)'
p2357
I3
(dp2358
g2339
F0.7
sg2340
F46.0
sg2341
I142
sg2342
g7
(g8
(I0
tp2359
g10
tp2360
Rp2361
(I1
(I3
tp2362
g2349
I00
S'\xa6\x13\x86\xc1Q\x0f%\xc0\xd5\xa4\x8e\xc1\x86bc\xc0\x00\x00\x00\x80\xc2\xf5\xf8\xbf'
p2363
tp2364
bsg2354
S'Cell[2].axon[43]'
p2365
sI142
I170
tp2366
a(F1.707095686736521
S'Cell[3].dend[26] syn_ = new FastInhib(0.5)'
p2367
I3
(dp2368
S'seg'
p2369
F0.5
sS'hostfrom'
p2370
F47.0
sS'gid'
p2371
I143
sS'coords'
p2372
g7
(g8
(I0
tp2373
g10
tp2374
Rp2375
(I1
(I3
tp2376
g14
(S'f8'
p2377
I0
I1
tp2378
Rp2379
(I3
S'<'
p2380
NNNI-1
I-1
I0
tp2381
bI00
S"\xc81\xda\x85`[M\xc0b\xfc\xc7\xda\x07'6@\xded\x8fz\x07 +\xc0"
p2382
tp2383
bsS'secnames'
p2384
S'Cell[2].axon[142]'
p2385
sI143
I170
tp2386
a(F0.39492998740245827
S'Cell[0].dend[8] syn_ = new ExpSid(0.7)'
p2387
I0
(dp2388
g2369
F0.16666666666666666
sg2370
F47.0
sg2371
I143
sg2372
g7
(g8
(I0
tp2389
g10
tp2390
Rp2391
(I1
(I3
tp2392
g2379
I00
S"\x8c\x0c\xf3\xe6\xc8yU\xc0\xf5\n\xb0w'\x9e%@\xc6\x17,9\x8ew \xc0"
p2393
tp2394
bsg2384
S'Cell[2].axon[145]'
p2395
sI143
I26
tp2396
a(F1.5587917756413698
S'Cell[3].dend[3] syn_ = new FastInhib(0.833333333333)'
p2397
I3
(dp2398
g2369
F0.5
sg2370
F47.0
sg2371
I143
sg2372
g7
(g8
(I0
tp2399
g10
tp2400
Rp2401
(I1
(I3
tp2402
g2379
I00
S'\x99\x99q\xaao\x1bR@ZY\x9f\xedF\x01<@\x00\x00\x00 \xaeG\x14@'
p2403
tp2404
bsg2384
S'Cell[2].axon[179]'
p2405
sI143
I170
tp2406
a(F1.6348631344306999
S'Cell[1].dend[66] syn_ = new ExpSid(0.166666666667)'
p2407
I1
(dp2408
g2369
F0.5
sg2370
F47.0
sg2371
I143
sg2372
g7
(g8
(I0
tp2409
g10
tp2410
Rp2411
(I1
(I3
tp2412
g2379
I00
S'\x0b+\xca8\xeffA\xc0\xc6t\xbb}\xb20D@.\xed\xa3%\xf0\x17+\xc0'
p2413
tp2414
bsg2384
S'Cell[2].axon[194]'
p2415
sI143
I74
tp2416
a.