(lp0
(F1.4136966176737469
S'Cell[3].dend[10] syn_ = new FastInhib(0.5)'
p1
I3
(dp2
S'seg'
p3
F0.5
sS'hostfrom'
p4
F1.0
sS'gid'
p5
I145
sS'coords'
p6
cnumpy.core.multiarray
_reconstruct
p7
(cnumpy
ndarray
p8
(I0
tp9
S'b'
p10
tp11
Rp12
(I1
(I3
tp13
cnumpy
dtype
p14
(S'f8'
p15
I0
I1
tp16
Rp17
(I3
S'<'
p18
NNNI-1
I-1
I0
tp19
bI00
S'\xce\x1a\x1f\xc0\xe9|5\xc0\xa1\xee9\xa4EEI\xc0K~\x859\xeb\x98$\xc0'
p20
tp21
bsS'secnames'
p22
S'Cell[3].axon[129]'
p23
sI145
I173
tp24
a(F2.372203918436295
S'Cell[3].dend[12] syn_ = new FastInhib(0.5)'
p25
I3
g2
I145
I173
tp26
a(F0.2770695892794987
S'Cell[3].dend[9] syn_ = new FastInhib(0.642857142857)'
p27
I3
(dp28
g3
F0.1
sg4
F1.0
sg5
I145
sg6
g7
(g8
(I0
tp29
g10
tp30
Rp31
(I1
(I3
tp32
g17
I00
S'\x02E}Sq6T\xc0J\x98\x87\xf1\xfaYR\xc0\x99\x8b\x01l0tP\xc0'
p33
tp34
bsg22
S'Cell[3].axon[151]'
p35
sI145
I173
tp36
a(F1.9878072687441628
S'Cell[3].dend[49] syn_ = new FastInhib(0.166666666667)'
p37
I3
(dp38
g3
F0.3571428571428571
sg4
F1.0
sg5
I97
sg6
g7
(g8
(I0
tp39
g10
tp40
Rp41
(I1
(I3
tp42
g17
I00
S'U\x87\x86\x1e\xd10B\xc0\xf9\x83\x1b[2\xa5\\\xc0\xdeI\xf7\xb3u\x1f$\xc0'
p43
tp44
bsg22
S'Cell[2].axon[59]'
p45
sI97
I173
tp46
a(F2.0838232805764076
S'Cell[3].dend[87] syn_ = new FastInhib(0.166666666667)'
p47
I3
(dp48
S'seg'
p49
F0.5
sS'hostfrom'
p50
F2.0
sS'gid'
p51
I98
sS'coords'
p52
g7
(g8
(I0
tp53
g10
tp54
Rp55
(I1
(I3
tp56
g14
(S'f8'
p57
I0
I1
tp58
Rp59
(I3
S'<'
p60
NNNI-1
I-1
I0
tp61
bI00
S'3\x16u \xe1\x0c\x0c\xc0\xafvC\xe5\xb0\x1aR@\x00\x00\x00\xc0\xcc\xcc\x1f\xc0'
p62
tp63
bsS'secnames'
p64
S'Cell[2].axon[1]'
p65
sI98
I173
tp66
a(F1.7561000005192091
S'Cell[3].dend[82] syn_ = new FastInhib(0.3)'
p67
I3
(dp68
g49
F0.8333333333333333
sg50
F2.0
sg51
I98
sg52
g7
(g8
(I0
tp69
g10
tp70
Rp71
(I1
(I3
tp72
g59
I00
S'\xee(\xb6\xdb\xc5\xffQ@\xcd\xa6\xa6\xd5\xdd\xe4U@Xd1H\xa6\x8b0\xc0'
p73
tp74
bsg64
S'Cell[2].axon[95]'
p75
sI98
I173
tp76
a(F1.3804121348220526
S'Cell[3].dend[77] syn_ = new FastInhib(0.9)'
p77
I3
(dp78
g49
F0.16666666666666666
sg50
F2.0
sg51
I98
sg52
g7
(g8
(I0
tp79
g10
tp80
Rp81
(I1
(I3
tp82
g59
I00
S'Z\xb2\x92\xc9\xad7b@\x00\x00\x00@3\x03]@\xa0\xc3\xb2\xbd\x87T6\xc0'
p83
tp84
bsg64
S'Cell[2].axon[102]'
p85
sI98
I173
tp86
a(F0.957502248485247
S'Cell[3].dend[77] syn_ = new FastInhib(0.3)'
p87
I3
(dp88
g49
F0.16666666666666666
sg50
F2.0
sg51
I98
sg52
g7
(g8
(I0
tp89
g10
tp90
Rp91
(I1
(I3
tp92
g59
I00
S'F\xf1\x1e)]wT@\xd1:\xd0L\r\x06S@LA\xe9\x9avA*\xc0'
p93
tp94
bsg64
S'Cell[2].axon[169]'
p95
sI98
I173
tp96
a(F2.038009776203391
S'Cell[3].dend[79] syn_ = new FastInhib(0.5)'
p97
I3
(dp98
g49
F0.16666666666666666
sg50
F2.0
sg51
I98
sg52
g7
(g8
(I0
tp99
g10
tp100
Rp101
(I1
(I3
tp102
g59
I00
S'\x9a\x81f0B\x83\x08@|O\xccT>Q@@\xadT\xbb]\x10\xdc%\xc0'
p103
tp104
bsg64
S'Cell[2].axon[301]'
p105
sI98
I173
tp106
a(F1.795451053088751
S'Cell[1].dend[4] syn_ = new AmpaNmda(0.1)'
p107
I1
(dp108
g49
F0.5
sg50
F2.0
sg51
I98
sg52
g7
(g8
(I0
tp109
g10
tp110
Rp111
(I1
(I3
tp112
g59
I00
S"g|\xdc'C\x04\x16@\xa4_\xe2\x94\xb3\xae5@u\xd3\xb1\x8c\x95\xaf-\xc0"
p113
tp114
bsg64
S'Cell[2].axon[473]'
p115
sI98
I77
tp116
a(F2.3423879460133086
S'Cell[3].dend[70] syn_ = new FastInhib(0.166666666667)'
p117
I3
(dp118
g49
F0.5
sg50
F2.0
sg51
I98
sg52
g7
(g8
(I0
tp119
g10
tp120
Rp121
(I1
(I3
tp122
g59
I00
S';\x0e\x0b\x86=\xa1P\xc0\x00\x00\x00\xe0QX@@v\x0ce&\xbf\xc12\xc0'
p123
tp124
bsg64
S'Cell[2].axon[477]'
p125
sI98
I173
tp126
a(F2.0838232805764076
S'Cell[3].dend[87] syn_ = new FastInhib(0.166666666667)'
p127
I3
(dp128
S'seg'
p129
F0.5
sS'hostfrom'
p130
F3.0
sS'gid'
p131
I99
sS'coords'
p132
g7
(g8
(I0
tp133
g10
tp134
Rp135
(I1
(I3
tp136
g14
(S'f8'
p137
I0
I1
tp138
Rp139
(I3
S'<'
p140
NNNI-1
I-1
I0
tp141
bI00
S'3\x16u \xe1\x0c\x0c\xc0\xafvC\xe5\xb0\x1aR@\x00\x00\x00\xc0\xcc\xcc\x1f\xc0'
p142
tp143
bsS'secnames'
p144
S'Cell[2].axon[1]'
p145
sI99
I173
tp146
a(F1.7561000005192091
S'Cell[3].dend[82] syn_ = new FastInhib(0.3)'
p147
I3
(dp148
g129
F0.8333333333333333
sg130
F3.0
sg131
I99
sg132
g7
(g8
(I0
tp149
g10
tp150
Rp151
(I1
(I3
tp152
g139
I00
S'\xee(\xb6\xdb\xc5\xffQ@\xcd\xa6\xa6\xd5\xdd\xe4U@Xd1H\xa6\x8b0\xc0'
p153
tp154
bsg144
S'Cell[2].axon[95]'
p155
sI99
I173
tp156
a(F1.3804121348220526
S'Cell[3].dend[77] syn_ = new FastInhib(0.9)'
p157
I3
(dp158
g129
F0.16666666666666666
sg130
F3.0
sg131
I99
sg132
g7
(g8
(I0
tp159
g10
tp160
Rp161
(I1
(I3
tp162
g139
I00
S'Z\xb2\x92\xc9\xad7b@\x00\x00\x00@3\x03]@\xa0\xc3\xb2\xbd\x87T6\xc0'
p163
tp164
bsg144
S'Cell[2].axon[102]'
p165
sI99
I173
tp166
a(F0.957502248485247
S'Cell[3].dend[77] syn_ = new FastInhib(0.3)'
p167
I3
(dp168
g129
F0.16666666666666666
sg130
F3.0
sg131
I99
sg132
g7
(g8
(I0
tp169
g10
tp170
Rp171
(I1
(I3
tp172
g139
I00
S'F\xf1\x1e)]wT@\xd1:\xd0L\r\x06S@LA\xe9\x9avA*\xc0'
p173
tp174
bsg144
S'Cell[2].axon[169]'
p175
sI99
I173
tp176
a(F2.038009776203391
S'Cell[3].dend[79] syn_ = new FastInhib(0.5)'
p177
I3
(dp178
g129
F0.16666666666666666
sg130
F3.0
sg131
I99
sg132
g7
(g8
(I0
tp179
g10
tp180
Rp181
(I1
(I3
tp182
g139
I00
S'\x9a\x81f0B\x83\x08@|O\xccT>Q@@\xadT\xbb]\x10\xdc%\xc0'
p183
tp184
bsg144
S'Cell[2].axon[301]'
p185
sI99
I173
tp186
a(F1.795451053088751
S'Cell[1].dend[4] syn_ = new ExpSid(0.1)'
p187
I1
(dp188
g129
F0.5
sg130
F3.0
sg131
I99
sg132
g7
(g8
(I0
tp189
g10
tp190
Rp191
(I1
(I3
tp192
g139
I00
S"g|\xdc'C\x04\x16@\xa4_\xe2\x94\xb3\xae5@u\xd3\xb1\x8c\x95\xaf-\xc0"
p193
tp194
bsg144
S'Cell[2].axon[473]'
p195
sI99
I77
tp196
a(F2.3423879460133086
S'Cell[3].dend[70] syn_ = new FastInhib(0.166666666667)'
p197
I3
(dp198
g129
F0.5
sg130
F3.0
sg131
I99
sg132
g7
(g8
(I0
tp199
g10
tp200
Rp201
(I1
(I3
tp202
g139
I00
S';\x0e\x0b\x86=\xa1P\xc0\x00\x00\x00\xe0QX@@v\x0ce&\xbf\xc12\xc0'
p203
tp204
bsg144
S'Cell[2].axon[477]'
p205
sI99
I173
tp206
a(F2.2265822384786103
S'Cell[2].dend[18] syn_ = new FastInhib(0.7)'
p207
I2
(dp208
S'seg'
p209
F0.07142857142857142
sS'hostfrom'
p210
F4.0
sS'gid'
p211
I148
sS'coords'
p212
g7
(g8
(I0
tp213
g10
tp214
Rp215
(I1
(I3
tp216
g14
(S'f8'
p217
I0
I1
tp218
Rp219
(I3
S'<'
p220
NNNI-1
I-1
I0
tp221
bI00
S'\x00\x00\x00\xe0Q\xb80@\x00\x00\x00\x80\xeb\xf1b\xc02\xb0)\xe4\xe5r8\xc0'
p222
tp223
bsS'secnames'
p224
S'Cell[3].axon[172]'
p225
sI148
I125
tp226
a(F2.3352999564659167
S'Cell[0].dend[11] syn_ = new AmpaNmda(0.5)'
p227
I0
(dp228
g209
F0.5
sg210
F4.0
sg211
I148
sg212
g7
(g8
(I0
tp229
g10
tp230
Rp231
(I1
(I3
tp232
g219
I00
S'\xd2\t\x89\xc0\x15AB@\xd0\xb0\xb8\xfcvAW\xc0\x82\xc7\xe01\x19c<\xc0'
p233
tp234
bsg224
S'Cell[3].axon[346]'
p235
sI148
I29
tp236
a(F1.6773964251960585
S'Cell[2].dend[15] syn_ = new FastInhib(0.5)'
p237
I2
(dp238
g209
F0.16666666666666666
sg210
F4.0
sg211
I148
sg212
g7
(g8
(I0
tp239
g10
tp240
Rp241
(I1
(I3
tp242
g219
I00
S'\x9d\xabI\xab\xa9zP@\\\x08\xfbo\x9f\xf2X\xc0m=\x8d*\xf8\xf8P\xc0'
p243
tp244
bsg224
S'Cell[3].axon[368]'
p245
sI148
I125
tp246
a(F0.9255992052961948
S'Cell[0].dend[4] syn_ = new AmpaNmda(0.166666666667)'
p247
I0
(dp248
g209
F0.16666666666666666
sg210
F4.0
sg211
I100
sg212
g7
(g8
(I0
tp249
g10
tp250
Rp251
(I1
(I3
tp252
g219
I00
S'\xb6\x06&A\xb2\xc9F\xc0\xe8f\xfa\xdc\x04*A\xc0\xe3j\x8a\x1d\xdeM\x17\xc0'
p253
tp254
bsg224
S'Cell[2].axon[85]'
p255
sI100
I29
tp256
a(F1.9175315214031272
S'Cell[0].apic[55] syn_ = new ExpSid(0.5)'
p257
I0
(dp258
S'seg'
p259
F0.16666666666666666
sS'hostfrom'
p260
F5.0
sS'gid'
p261
I149
sS'coords'
p262
g7
(g8
(I0
tp263
g10
tp264
Rp265
(I1
(I3
tp266
g14
(S'f8'
p267
I0
I1
tp268
Rp269
(I3
S'<'
p270
NNNI-1
I-1
I0
tp271
bI00
S'\x912\xadL\xf4,%\xc0\x14\xab\xd9=\x1883@kV\xb0N\x1e\xba\xf0?'
p272
tp273
bsS'secnames'
p274
S'Cell[3].axon[13]'
p275
sI149
I29
tp276
a(F1.2930975683987982
S'Cell[0].dend[21] syn_ = new AmpaNmda(0.166666666667)'
p277
I0
(dp278
S'seg'
p279
F0.5
sS'hostfrom'
p280
F6.0
sS'gid'
p281
I102
sS'coords'
p282
g7
(g8
(I0
tp283
g10
tp284
Rp285
(I1
(I3
tp286
g14
(S'f8'
p287
I0
I1
tp288
Rp289
(I3
S'<'
p290
NNNI-1
I-1
I0
tp291
bI00
S'\x00\x00\x00\xa0\x99\x19\x18\xc0\x00\x00\x00\x80\xeb\xe1D\xc0\x00\x00\x00pff\x16\xc0'
p292
tp293
bsS'secnames'
p294
S'Cell[2].axon[31]'
p295
sI102
I29
tp296
a(F2.3044219761747144
S'Cell[3].dend[42] syn_ = new FastInhib(0.5)'
p297
I3
(dp298
g279
F0.7
sg280
F6.0
sg281
I102
sg282
g7
(g8
(I0
tp299
g10
tp300
Rp301
(I1
(I3
tp302
g289
I00
S'\xfb\x11L{.\x91.\xc0\x0cd\n$\xe2\xf5I\xc0\xce\x14u\xe6\x9d4\x1b@'
p303
tp304
bsg294
S'Cell[2].axon[77]'
p305
sI102
I173
tp306
a(F1.14885226612811
S'Cell[0].apic[28] syn_ = new AmpaNmda(0.833333333333)'
p307
I0
(dp308
g279
F0.8333333333333333
sg280
F6.0
sg281
I150
sg282
g7
(g8
(I0
tp309
g10
tp310
Rp311
(I1
(I3
tp312
g289
I00
S'2Q\xc2\xfa\x08\xceE\xc0m\xfb\x8c\x9f|\xa9Q@\x00\x00\x00\x80\x14\xee>\xc0'
p313
tp314
bsg294
S'Cell[3].axon[127]'
p315
sI150
I29
tp316
a(F2.015527479378596
S'Cell[0].dend[7] syn_ = new ExpSid(0.5)'
p317
I0
(dp318
S'seg'
p319
F0.16666666666666666
sS'hostfrom'
p320
F7.0
sS'gid'
p321
I103
sS'coords'
p322
g7
(g8
(I0
tp323
g10
tp324
Rp325
(I1
(I3
tp326
g14
(S'f8'
p327
I0
I1
tp328
Rp329
(I3
S'<'
p330
NNNI-1
I-1
I0
tp331
bI00
S'\x95\xfd1\x97/-!\xc0z\x89w6\x94YI\xc0\xab\x8f\xe3\x87\xee\xe30\xc0'
p332
tp333
bsS'secnames'
p334
S'Cell[2].axon[135]'
p335
sI103
I29
tp336
a(F2.352743458798256
S'Cell[0].apic[19] syn_ = new ExpSid(0.5)'
p337
I0
(dp338
g319
F0.07142857142857142
sg320
F7.0
sg321
I103
sg322
g7
(g8
(I0
tp339
g10
tp340
Rp341
(I1
(I3
tp342
g329
I00
S'h\xe5\t)>\xcf4\xc0\x84\x9e<]o\x19&@\xd7\xa8\xeb\x0b;\xe57\xc0'
p343
tp344
bsg334
S'Cell[2].axon[160]'
p345
sI103
I29
tp346
a(F2.410959183979879
S'Cell[3].dend[34] syn_ = new FastInhib(0.833333333333)'
p347
I3
(dp348
g319
F0.30000000000000004
sg320
F7.0
sg321
I103
sg322
g7
(g8
(I0
tp349
g10
tp350
Rp351
(I1
(I3
tp352
g329
I00
S'"XX\x8cd\xe83@0$\xa1\x86\x08wN\xc0\x0f\xa7\xbb[\xe4\xcf)\xc0'
p353
tp354
bsg334
S'Cell[2].axon[361]'
p355
sI103
I173
tp356
a(F1.0016344714018355
S'Cell[2].dend[17] syn_ = new FastInhib(0.5)'
p357
I2
(dp358
g319
F0.5
sg320
F7.0
sg321
I151
sg322
g7
(g8
(I0
tp359
g10
tp360
Rp361
(I1
(I3
tp362
g329
I00
S'\x98\xcd\x17g\xea\xcf\x13\xc0pg\x02\xb6(\x04T\xc0\xe4\x01\x06.\nUO\xc0'
p363
tp364
bsg334
S'Cell[3].axon[45]'
p365
sI151
I125
tp366
a(F2.255167530272442
S'Cell[3].dend[88] syn_ = new FastInhib(0.5)'
p367
I3
(dp368
g319
F0.07142857142857142
sg320
F7.0
sg321
I151
sg322
g7
(g8
(I0
tp369
g10
tp370
Rp371
(I1
(I3
tp372
g329
I00
S'\xda\xcc\xe7SU\x8f1\xc0\xcd\x87GY)Q`@\x00\x00\x00\x80\x14.,\xc0'
p373
tp374
bsg334
S'Cell[3].axon[97]'
p375
sI151
I173
tp376
a(F1.698845431460027
S'Cell[2].dend[9] syn_ = new FastInhib(0.5)'
p377
I2
(dp378
g319
F0.5
sg320
F7.0
sg321
I151
sg322
g7
(g8
(I0
tp379
g10
tp380
Rp381
(I1
(I3
tp382
g329
I00
S'\x00\x00\x00\x90\xc2u6@\x00\x00\x00\x00\xd7cC\xc0\x00\x00\x00\xf4\xff\xff\xe7\xbf'
p383
tp384
bsg334
S'Cell[3].axon[104]'
p385
sI151
I125
tp386
a(F2.428853602668042
S'Cell[0].dend[9] syn_ = new ExpSid(0.5)'
p387
I0
(dp388
g319
F0.16666666666666666
sg320
F7.0
sg321
I151
sg322
g7
(g8
(I0
tp389
g10
tp390
Rp391
(I1
(I3
tp392
g329
I00
S'~\xad\x97\xb3=\xae(@\x18tj\x8f1\x84S\xc0B\xc4N:\xf3p8\xc0'
p393
tp394
bsg334
S'Cell[3].axon[187]'
p395
sI151
I29
tp396
a(F0.9167175543500008
S'Cell[3].dend[21] syn_ = new FastInhib(0.166666666667)'
p397
I3
(dp398
g319
F0.5
sg320
F7.0
sg321
I151
sg322
g7
(g8
(I0
tp399
g10
tp400
Rp401
(I1
(I3
tp402
g329
I00
S'\x00\x00\x00\xe8Q80\xc0\x00\x00\x00P\xb8\xb6[\xc0\x00\x00\x00\xc0GA?\xc0'
p403
tp404
bsg334
S'Cell[3].axon[206]'
p405
sI151
I173
tp406
a(F1.2394062249526163
S'Cell[3].dend[21] syn_ = new FastInhib(0.5)'
p407
I3
(dp408
S'seg'
p409
F0.5
sS'hostfrom'
p410
F8.0
sS'gid'
p411
I56
sS'coords'
p412
g7
(g8
(I0
tp413
g10
tp414
Rp415
(I1
(I3
tp416
g14
(S'f8'
p417
I0
I1
tp418
Rp419
(I3
S'<'
p420
NNNI-1
I-1
I0
tp421
bI00
S'\xb4\xa9\x91\x8baN7\xc0\x1d8\xc0\x8c4!`\xc0\xe0\x97\xce\x92{\xe19\xc0'
p422
tp423
bsS'secnames'
p424
S'Cell[1].axon[9]'
p425
sI56
I173
tp426
a(F1.7821481126826646
S'Cell[0].apic[11] syn_ = new AmpaNmda(0.9)'
p427
I0
(dp428
g409
F0.8333333333333333
sg410
F8.0
sg411
I152
sg412
g7
(g8
(I0
tp429
g10
tp430
Rp431
(I1
(I3
tp432
g419
I00
S'\x1e\t\xac\x93\x9f\xffN@X\xd6\x1b\xaf+q9@\xbfv\x04Q\xc7dR\xc0'
p433
tp434
bsg424
S'Cell[3].axon[97]'
p435
sI152
I29
tp436
a(F2.2354091810229977
S'Cell[3].dend[80] syn_ = new FastInhib(0.833333333333)'
p437
I3
(dp438
g409
F0.5
sg410
F8.0
sg411
I152
sg412
g7
(g8
(I0
tp439
g10
tp440
Rp441
(I1
(I3
tp442
g419
I00
S'\xc1\xb5U\x19p\xb6A@\x99\xe5hZ\x91\x91N@\x00\x00\x00\xc0\x1e\x05 @'
p443
tp444
bsg424
S'Cell[3].axon[128]'
p445
sI152
I173
tp446
a(F1.7804690484527919
S'Cell[3].dend[72] syn_ = new FastInhib(0.5)'
p447
I3
(dp448
g409
F0.5
sg410
F8.0
sg411
I152
sg412
g7
(g8
(I0
tp449
g10
tp450
Rp451
(I1
(I3
tp452
g419
I00
S'\xde\xd7\xb1\x06\x16}=@|\xf1\xa5\xfd\xb0sD@T\x0f\xdf\xa0l\x1e\x11@'
p453
tp454
bsg424
S'Cell[3].axon[129]'
p455
sI152
I173
tp456
a(F2.2362748080270087
S'Cell[0].apic[18] syn_ = new AmpaNmda(0.5)'
p457
I0
(dp458
g409
F0.16666666666666666
sg410
F8.0
sg411
I152
sg412
g7
(g8
(I0
tp459
g10
tp460
Rp461
(I1
(I3
tp462
g419
I00
S"9\xa1\xc4\x0e\xd9'2\xc0\xe2\x9f\x08)\x00\xff\x14@\x00\x00\x00\xa0\x99\x99'\xc0"
p463
tp464
bsg424
S'Cell[3].axon[518]'
p465
sI152
I29
tp466
a(F2.115058775094493
S'Cell[1].dend[26] syn_ = new AmpaNmda(0.5)'
p467
I1
(dp468
g409
F0.5
sg410
F8.0
sg411
I104
sg412
g7
(g8
(I0
tp469
g10
tp470
Rp471
(I1
(I3
tp472
g419
I00
S'>\x93@\xd3h\xacO@B\xa2\xc7\xf4\xa6l$\xc0\xb4\xbf\x0f\xfbQT\x16\xc0'
p473
tp474
bsg424
S'Cell[2].axon[236]'
p475
sI104
I77
tp476
a(F2.1246183829587433
S'Cell[1].dend[38] syn_ = new AmpaNmda(0.5)'
p477
I1
(dp478
g409
F0.5
sg410
F8.0
sg411
I104
sg412
g7
(g8
(I0
tp479
g10
tp480
Rp481
(I1
(I3
tp482
g419
I00
S'\xaa\x9d\xe5\xb8\xd3\xe5P@A0<xl\xeaF@\xb7\xe4 \xecA\x00\x02@'
p483
tp484
bsg424
S'Cell[2].axon[263]'
p485
sI104
I77
tp486
a(F2.217929458841256
S'Cell[3].dend[81] syn_ = new FastInhib(0.5)'
p487
I3
(dp488
S'seg'
p489
F0.8333333333333333
sS'hostfrom'
p490
F9.0
sS'gid'
p491
I153
sS'coords'
p492
g7
(g8
(I0
tp493
g10
tp494
Rp495
(I1
(I3
tp496
g14
(S'f8'
p497
I0
I1
tp498
Rp499
(I3
S'<'
p500
NNNI-1
I-1
I0
tp501
bI00
S'\xac\x81\xa5\xed\xc1\xf0G@\xdb\xc7\x8eh\xaf\xa5P@\xf3\xbb\x1d^\xfa\xf3!@'
p502
tp503
bsS'secnames'
p504
S'Cell[3].axon[4]'
p505
sI153
I173
tp506
a(F1.6488113969294114
S'Cell[3].dend[76] syn_ = new FastInhib(0.1)'
p507
I3
(dp508
g489
F0.8333333333333333
sg490
F9.0
sg491
I153
sg492
g7
(g8
(I0
tp509
g10
tp510
Rp511
(I1
(I3
tp512
g499
I00
S'\x8a\xbe\xb2\x10\xc6&W@ZwC\nu\xdaP@\xa4i\x89\xd4\x19\xb9\x10\xc0'
p513
tp514
bsg504
S'Cell[3].axon[111]'
p515
sI153
I173
tp516
a(F1.9494340242611263
S'Cell[1].dend[36] syn_ = new ExpSid(0.1)'
p517
I1
(dp518
g489
F0.8333333333333333
sg490
F9.0
sg491
I153
sg492
g7
(g8
(I0
tp519
g10
tp520
Rp521
(I1
(I3
tp522
g499
I00
S'\xc9\xb8\xb7-\xe8:T@\xdd\x950\xdb\x1fp8@\xa31n\xf9n\xe24\xc0'
p523
tp524
bsg504
S'Cell[3].axon[121]'
p525
sI153
I77
tp526
a(F1.738221043425216
S'Cell[2].dend[19] syn_ = new FastInhib(0.0714285714286)'
p527
I2
(dp528
g489
F0.16666666666666666
sg490
F9.0
sg491
I9
sg492
g7
(g8
(I0
tp529
g10
tp530
Rp531
(I1
(I3
tp532
g499
I00
S'\xbaT\x99\x14\xbdg3@\xefk\xcd\xd7\x8cwH\xc0\xa4\x13R\x8e\xf2r*\xc0'
p533
tp534
bsg504
S'Cell[0].axon[20]'
p535
sI9
I125
tp536
a(F1.8253018172365578
S'Cell[0].apic[14] syn_ = new ExpSid(0.5)'
p537
I0
(dp538
g489
F0.5
sg490
F9.0
sg491
I105
sg492
g7
(g8
(I0
tp539
g10
tp540
Rp541
(I1
(I3
tp542
g499
I00
S'(\x116V\xf7\xd8\x11@1\xd9\xbe\xf3\xb9, @\xf0\xcf\xe0\x88\r\x1f&\xc0'
p543
tp544
bsg504
S'Cell[2].axon[41]'
p545
sI105
I29
tp546
a(F1.5486742048128488
S'Cell[3].dend[85] syn_ = new FastInhib(0.5)'
p547
I3
(dp548
g489
F0.5
sg490
F9.0
sg491
I105
sg492
g7
(g8
(I0
tp549
g10
tp550
Rp551
(I1
(I3
tp552
g499
I00
S'A\xf3\x85\xa6\xb2\xb5\x02\xc0X,\x16:y\x95K@\xa7\xd3\xe6\xf2\xfd\xdd\x1d\xc0'
p553
tp554
bsg504
S'Cell[2].axon[57]'
p555
sI105
I173
tp556
a(F2.2966254270356385
S'Cell[0].dend[8] syn_ = new ExpSid(0.5)'
p557
I0
(dp558
g489
F0.16666666666666666
sg490
F9.0
sg491
I105
sg492
g7
(g8
(I0
tp559
g10
tp560
Rp561
(I1
(I3
tp562
g499
I00
S'BhR\x00\x9a|\x15@\x97\xf8\xab\xa3^NN\xc0\x15l\x86\xa5\xc7\x084\xc0'
p563
tp564
bsg504
S'Cell[2].axon[62]'
p565
sI105
I29
tp566
a(F2.1563481748391653
S'Cell[3].dend[16] syn_ = new FastInhib(0.166666666667)'
p567
I3
(dp568
g489
F0.5
sg490
F9.0
sg491
I105
sg492
g7
(g8
(I0
tp569
g10
tp570
Rp571
(I1
(I3
tp572
g499
I00
S'\xac\x1a\x97\xearb\xc3?\xa8\xaf\x86>/\xffT\xc0\x00\x00\x00\x80=\n9\xc0'
p573
tp574
bsg504
S'Cell[2].axon[85]'
p575
sI105
I173
tp576
a(F1.5147766169927812
S'Cell[1].dend[3] syn_ = new AmpaNmda(0.3)'
p577
I1
(dp578
S'seg'
p579
F0.5
sS'hostfrom'
p580
F10.0
sS'gid'
p581
I10
sS'coords'
p582
g7
(g8
(I0
tp583
g10
tp584
Rp585
(I1
(I3
tp586
g14
(S'f8'
p587
I0
I1
tp588
Rp589
(I3
S'<'
p590
NNNI-1
I-1
I0
tp591
bI00
S'\xa0 \x8d\xa7\xe6\xc9\x06\xc0\xb1F[\x8d\x85\xa4\n@\x00\x00\x00\x80\xc2u#@'
p592
tp593
bsS'secnames'
p594
S'Cell[0].axon[7]'
p595
sI10
I77
tp596
a(F1.4512701331590212
S'Cell[3].dend[80] syn_ = new FastInhib(0.166666666667)'
p597
I3
(dp598
g579
F0.30000000000000004
sg580
F10.0
sg581
I106
sg582
g7
(g8
(I0
tp599
g10
tp600
Rp601
(I1
(I3
tp602
g589
I00
S'\x8eS\x7fex\x9b\x1d@i\xce\x99\t\xd9\xe6C@;f\x9b\x14\xe6%\x0c\xc0'
p603
tp604
bsg594
S'Cell[2].axon[78]'
p605
sI106
I173
tp606
a(F1.9197585638839858
S'Cell[1].dend[28] syn_ = new AmpaNmda(0.7)'
p607
I1
(dp608
g579
F0.8333333333333333
sg580
F10.0
sg581
I106
sg582
g7
(g8
(I0
tp609
g10
tp610
Rp611
(I1
(I3
tp612
g589
I00
S'\xf3\xe76\xf3U\x82R@ds\xc8\xa2\x99\xcaZ\xc0\x84k\x8bvU\xf47\xc0'
p613
tp614
bsg594
S'Cell[2].axon[167]'
p615
sI106
I77
tp616
a(F1.0997883639063815
S'Cell[0].dend[10] syn_ = new AmpaNmda(0.5)'
p617
I0
(dp618
g579
F0.16666666666666666
sg580
F10.0
sg581
I106
sg582
g7
(g8
(I0
tp619
g10
tp620
Rp621
(I1
(I3
tp622
g589
I00
S'Z ZQ\xb7\xb4D@r\xb1g6\xa5\x87W\xc0\x92sNq\x0c3A\xc0'
p623
tp624
bsg594
S'Cell[2].axon[213]'
p625
sI106
I29
tp626
a(F2.4802692888916824
S'Cell[1].dend[12] syn_ = new AmpaNmda(0.166666666667)'
p627
I1
(dp628
g579
F0.8333333333333333
sg580
F10.0
sg581
I106
sg582
g7
(g8
(I0
tp629
g10
tp630
Rp631
(I1
(I3
tp632
g589
I00
S'\xe9\xcc\'\xe3)\x96"@\x1aG\x16\x07\xa6a\xf8?s\x08]<\xfa\xfe\'\xc0'
p633
tp634
bsg594
S'Cell[2].axon[219]'
p635
sI106
I77
tp636
a(F2.075239889239855
S'Cell[1].dend[23] syn_ = new AmpaNmda(0.7)'
p637
I1
(dp638
g579
F0.5
sg580
F10.0
sg581
I106
sg582
g7
(g8
(I0
tp639
g10
tp640
Rp641
(I1
(I3
tp642
g589
I00
S'\t\xaa/&rL#\xc0=\xec\xa2\x84\xb1hK\xc0Q\x8eN\xb0\xc1\x96 @'
p643
tp644
bsg594
S'Cell[2].axon[265]'
p645
sI106
I77
tp646
a(F2.379834251570199
S'Cell[2].dend[8] syn_ = new FastInhib(0.214285714286)'
p647
I2
(dp648
g579
F0.5
sg580
F10.0
sg581
I106
sg582
g7
(g8
(I0
tp649
g10
tp650
Rp651
(I1
(I3
tp652
g589
I00
S'\x00\x00\x00\x00\xd7\xa3\r\xc0\x00\x00\x00pf\x06K\xc0\x00\x00\x00\xb0\x1e\x85\x1f@'
p653
tp654
bsg594
S'Cell[2].axon[273]'
p655
sI106
I125
tp656
a(F2.2621354245971994
S'Cell[3].dend[69] syn_ = new FastInhib(0.833333333333)'
p657
I3
(dp658
S'seg'
p659
F0.16666666666666666
sS'hostfrom'
p660
F11.0
sS'gid'
p661
I155
sS'coords'
p662
g7
(g8
(I0
tp663
g10
tp664
Rp665
(I1
(I3
tp666
g14
(S'f8'
p667
I0
I1
tp668
Rp669
(I3
S'<'
p670
NNNI-1
I-1
I0
tp671
bI00
S'\x00\x00\x00\xa0G\xf1T\xc0vn\x04~\xbd\x04C@\xfe\xef\x9c\x99\x81\xc1 \xc0'
p672
tp673
bsS'secnames'
p674
S'Cell[3].axon[52]'
p675
sI155
I173
tp676
a(F1.2059005192827725
S'Cell[0].apic[28] syn_ = new ExpSid(0.833333333333)'
p677
I0
(dp678
g659
F0.16666666666666666
sg660
F11.0
sg661
I155
sg662
g7
(g8
(I0
tp679
g10
tp680
Rp681
(I1
(I3
tp682
g669
I00
S'\xe7\xac\xcb\x9c\xf6\xc9E\xc08\x01\xc20\xc1\xc3Q@\xd4\xbe\xaaOR*@\xc0'
p683
tp684
bsg674
S'Cell[3].axon[65]'
p685
sI155
I29
tp686
a(F2.4795246868268164
S'Cell[0].dend[3] syn_ = new ExpSid(0.5)'
p687
I0
(dp688
g659
F0.5
sg660
F11.0
sg661
I155
sg662
g7
(g8
(I0
tp689
g10
tp690
Rp691
(I1
(I3
tp692
g669
I00
S'\xdb\td\xf3\xbcKT\xc02\x0b\x0c\xb5B\x17Q\xc0\x18"2\xd3\x91M\xc5?'
p693
tp694
bsg674
S'Cell[3].axon[271]'
p695
sI155
I29
tp696
a(F2.3334180649355463
S'Cell[0].dend[13] syn_ = new AmpaNmda(0.833333333333)'
p697
I0
(dp698
S'seg'
p699
F0.16666666666666666
sS'hostfrom'
p700
F12.0
sS'gid'
p701
I156
sS'coords'
p702
g7
(g8
(I0
tp703
g10
tp704
Rp705
(I1
(I3
tp706
g14
(S'f8'
p707
I0
I1
tp708
Rp709
(I3
S'<'
p710
NNNI-1
I-1
I0
tp711
bI00
S'\x9e\xc9\xa6\xea\x87\xc8J@\x92\x12QWw\xc7G\xc0g\xb2\xbe[\xc3s?\xc0'
p712
tp713
bsS'secnames'
p714
S'Cell[3].axon[526]'
p715
sI156
I29
tp716
a(F1.9026073738684
S'Cell[0].apic[17] syn_ = new AmpaNmda(0.7)'
p717
I0
(dp718
g699
F0.21428571428571427
sg700
F12.0
sg701
I156
sg702
g7
(g8
(I0
tp719
g10
tp720
Rp721
(I1
(I3
tp722
g709
I00
S'\xac\x86\x92\xb9\x1a5J@\xaa\x15\x1f\xc5|b3@]\xa0>R\x84lP\xc0'
p723
tp724
bsg714
S'Cell[3].axon[543]'
p725
sI156
I29
tp726
a(F1.7824885669670776
S'Cell[0].dend[16] syn_ = new AmpaNmda(0.5)'
p727
I0
(dp728
g699
F0.5
sg700
F12.0
sg701
I156
sg702
g7
(g8
(I0
tp729
g10
tp730
Rp731
(I1
(I3
tp732
g709
I00
S'\x00\x00\x00pf\xe6\x11@\x00\x00\x00\xf0Q@R\xc0\x00\x00\x00 \\\x0f\x1d@'
p733
tp734
bsg714
S'Cell[3].axon[598]'
p735
sI156
I29
tp736
a(F1.1549842677292896
S'Cell[0].apic[42] syn_ = new AmpaNmda(0.166666666667)'
p737
I0
(dp738
g699
F0.16666666666666666
sg700
F12.0
sg701
I108
sg702
g7
(g8
(I0
tp739
g10
tp740
Rp741
(I1
(I3
tp742
g709
I00
S'\x849\xe4\xe0\r\xed0\xc0{,mQ\xba\xa4d@\x00\x00\x00\xc0\xf5\xa85\xc0'
p743
tp744
bsg714
S'Cell[2].axon[50]'
p745
sI108
I29
tp746
a(F2.4336094767579093
S'Cell[0].apic[47] syn_ = new AmpaNmda(0.5)'
p747
I0
(dp748
g699
F0.5
sg700
F12.0
sg701
I108
sg702
g7
(g8
(I0
tp749
g10
tp750
Rp751
(I1
(I3
tp752
g709
I00
S'|T\xd5#P\x9f9\xc0^-(\xa8\xc3\xbbd@\xda\xdd\x19\xf1Kr*\xc0'
p753
tp754
bsg714
S'Cell[2].axon[69]'
p755
sI108
I29
tp756
a(F2.496570246134721
S'Cell[1].dend[16] syn_ = new ExpSid(0.5)'
p757
I1
(dp758
S'seg'
p759
F0.16666666666666666
sS'hostfrom'
p760
F13.0
sS'gid'
p761
I109
sS'coords'
p762
g7
(g8
(I0
tp763
g10
tp764
Rp765
(I1
(I3
tp766
g14
(S'f8'
p767
I0
I1
tp768
Rp769
(I3
S'<'
p770
NNNI-1
I-1
I0
tp771
bI00
S'\x00\x00\x00 \x85\xcbC@\n~\xf4\x80\xe5\x89;@\xe9\xf6\xc8\xb0\x99\x070@'
p772
tp773
bsS'secnames'
p774
S'Cell[2].axon[99]'
p775
sI109
I77
tp776
a(F2.248166589027884
S'Cell[2].dend[32] syn_ = new FastInhib(0.166666666667)'
p777
I2
(dp778
g759
F0.8333333333333333
sg760
F13.0
sg761
I109
sg762
g7
(g8
(I0
tp779
g10
tp780
Rp781
(I1
(I3
tp782
g769
I00
S'\x96h\xd2({J@@$N\xbe\xa2"\xb2H@\x0e\xbb\xce"\xe6\x86\x0f\xc0'
p783
tp784
bsg774
S'Cell[2].axon[102]'
p785
sI109
I125
tp786
a(F2.481282180682986
S'Cell[1].dend[27] syn_ = new ExpSid(0.1)'
p787
I1
(dp788
g759
F0.16666666666666666
sg760
F13.0
sg761
I13
sg762
g7
(g8
(I0
tp789
g10
tp790
Rp791
(I1
(I3
tp792
g769
I00
S'\x90\xef\xa1(\xa1\xc0K@\xc2l\x86\x07f\x9cG\xc0u\xae\xe9\xc5l<\x1c\xc0'
p793
tp794
bsg774
S'Cell[0].axon[0]'
p795
sI13
I77
tp796
a(F2.1651068123080033
S'Cell[0].dend[0] syn_ = new AmpaNmda(0.5)'
p797
I0
(dp798
S'seg'
p799
F0.5
sS'hostfrom'
p800
F14.0
sS'gid'
p801
I110
sS'coords'
p802
g7
(g8
(I0
tp803
g10
tp804
Rp805
(I1
(I3
tp806
g14
(S'f8'
p807
I0
I1
tp808
Rp809
(I3
S'<'
p810
NNNI-1
I-1
I0
tp811
bI00
S'\xed\xdf\xb9\xe5\x16Y@\xc0\xcc\x81\xc2\x98n\x19C\xc0t\x07Mp\xdf.\r\xc0'
p812
tp813
bsS'secnames'
p814
S'Cell[2].axon[3]'
p815
sI110
I29
tp816
a(F2.2741763488631253
S'Cell[1].dend[18] syn_ = new AmpaNmda(0.166666666667)'
p817
I1
(dp818
g799
F0.5
sg800
F14.0
sg801
I110
sg802
g7
(g8
(I0
tp819
g10
tp820
Rp821
(I1
(I3
tp822
g809
I00
S'\xd8w\x07"\xcb\x97F@"\x12\xfd\xa8!M8@\x1c1\xd1\xe6\x9cB4@'
p823
tp824
bsg814
S'Cell[2].axon[73]'
p825
sI110
I77
tp826
a(F1.2065765927172298
S'Cell[1].apic[31] syn_ = new AmpaNmda(0.166666666667)'
p827
I1
(dp828
g799
F0.5
sg800
F14.0
sg801
I110
sg802
g7
(g8
(I0
tp829
g10
tp830
Rp831
(I1
(I3
tp832
g809
I00
S'~\xfa\x9c\xadx\xdaN@\xae\xc8,h\x82\xeeM@\x12\xa9\x06\xa6\xf4\xcb\xf9?'
p833
tp834
bsg814
S'Cell[2].axon[155]'
p835
sI110
I77
tp836
a(F2.4805614675814187
S'Cell[0].apic[15] syn_ = new AmpaNmda(0.5)'
p837
I0
(dp838
g799
F0.5
sg800
F14.0
sg801
I14
sg802
g7
(g8
(I0
tp839
g10
tp840
Rp841
(I1
(I3
tp842
g809
I00
S'\x00\x00\x00P\xe1z&@\x00\x00\x00\xc0\x1e\x851@\x00\x00\x00`\x8fB&@'
p843
tp844
bsg814
S'Cell[0].soma[0]'
p845
sI14
I29
tp846
a(F2.3781605737063582
S'Cell[2].dend[34] syn_ = new FastInhib(0.5)'
p847
I2
(dp848
S'seg'
p849
F0.5
sS'hostfrom'
p850
F15.0
sS'gid'
p851
I111
sS'coords'
p852
g7
(g8
(I0
tp853
g10
tp854
Rp855
(I1
(I3
tp856
g14
(S'f8'
p857
I0
I1
tp858
Rp859
(I3
S'<'
p860
NNNI-1
I-1
I0
tp861
bI00
S'9\xb4\x9cQ\xa0\xe2@@\x1c\xdf\x96\xea\xb08d@\xa4O\x9ao\x1diC\xc0'
p862
tp863
bsS'secnames'
p864
S'Cell[2].axon[131]'
p865
sI111
I125
tp866
a(F2.3196254893665587
S'Cell[3].dend[69] syn_ = new FastInhib(0.833333333333)'
p867
I3
(dp868
S'seg'
p869
F0.5
sS'hostfrom'
p870
F16.0
sS'gid'
p871
I112
sS'coords'
p872
g7
(g8
(I0
tp873
g10
tp874
Rp875
(I1
(I3
tp876
g14
(S'f8'
p877
I0
I1
tp878
Rp879
(I3
S'<'
p880
NNNI-1
I-1
I0
tp881
bI00
S"\x9a\xf9\xb7?8\x87U\xc0tU\xf8\x1a\xd7\xcbB@\x0eA\xe9p' \x1d\xc0"
p882
tp883
bsS'secnames'
p884
S'Cell[2].axon[80]'
p885
sI112
I173
tp886
a(F2.42626148651572
S'Cell[3].dend[20] syn_ = new FastInhib(0.5)'
p887
I3
(dp888
g869
F0.06
sg870
F16.0
sg871
I112
sg872
g7
(g8
(I0
tp889
g10
tp890
Rp891
(I1
(I3
tp892
g879
I00
S'\x18\xae\xb2\x8c\x84\xa1.\xc0e|hj\xea\xaaY\xc0q\xf4\xd9\x10\xcd\xb6?\xc0'
p893
tp894
bsg884
S'Cell[2].axon[102]'
p895
sI112
I173
tp896
a(F2.232086737728721
S'Cell[1].dend[41] syn_ = new AmpaNmda(0.5)'
p897
I1
(dp898
g869
F0.8333333333333333
sg870
F16.0
sg871
I112
sg872
g7
(g8
(I0
tp899
g10
tp900
Rp901
(I1
(I3
tp902
g879
I00
S'\x11\xf1\xb2\xf7\x079b@\xdb\xc46\x93\x08;2\xc0e\xdd\t\x88\x95YD\xc0'
p903
tp904
bsg884
S'Cell[2].axon[125]'
p905
sI112
I77
tp906
a(F1.8826537765919755
S'Cell[1].dend[2] syn_ = new AmpaNmda(0.5)'
p907
I1
(dp908
g869
F0.5
sg870
F16.0
sg871
I112
sg872
g7
(g8
(I0
tp909
g10
tp910
Rp911
(I1
(I3
tp912
g879
I00
S'\x8aK\xa1>\x18g7@\x7f\xfe(\xe8Q\xa0=@\x04H1\xbd\x0b\xeb#\xc0'
p913
tp914
bsg884
S'Cell[2].axon[206]'
p915
sI112
I77
tp916
a(F2.021772413662586
S'Cell[1].dend[28] syn_ = new ExpSid(0.7)'
p917
I1
(dp918
S'seg'
p919
F0.5
sS'hostfrom'
p920
F17.0
sS'gid'
p921
I113
sS'coords'
p922
g7
(g8
(I0
tp923
g10
tp924
Rp925
(I1
(I3
tp926
g14
(S'f8'
p927
I0
I1
tp928
Rp929
(I3
S'<'
p930
NNNI-1
I-1
I0
tp931
bI00
S'\x8e\xdbD\xfd\xf9\xb7Q@\x88F)\xb9\xf8\xf6Z\xc0\xe5#\xbag{\x9f8\xc0'
p932
tp933
bsS'secnames'
p934
S'Cell[2].axon[161]'
p935
sI113
I77
tp936
a(F2.061463176203832
S'Cell[1].dend[12] syn_ = new ExpSid(0.166666666667)'
p937
I1
(dp938
g919
F0.1
sg920
F17.0
sg921
I113
sg922
g7
(g8
(I0
tp939
g10
tp940
Rp941
(I1
(I3
tp942
g929
I00
S'N\xbe\x10\xc4\x7f\xae\x1a@[\xfa\xce\x1f\x87}\xee?WQ\xabR\x84\xfc"\xc0'
p943
tp944
bsg934
S'Cell[2].axon[512]'
p945
sI113
I77
tp946
a(F2.3213789665095836
S'Cell[2].dend[24] syn_ = new FastInhib(0.5)'
p947
I2
(dp948
g919
F0.8333333333333333
sg920
F17.0
sg921
I161
sg922
g7
(g8
(I0
tp949
g10
tp950
Rp951
(I1
(I3
tp952
g929
I00
S'\x14\xef\xc4\xb1\x19\xc5$@\x17\x84w]\x94FM@\x00\x00\x00\xe0Q\xb8\x11\xc0'
p953
tp954
bsg934
S'Cell[3].axon[0]'
p955
sI161
I125
tp956
a(F1.5815793183787579
S'Cell[3].dend[77] syn_ = new FastInhib(0.1)'
p957
I3
(dp958
g919
F0.8333333333333333
sg920
F17.0
sg921
I161
sg922
g7
(g8
(I0
tp959
g10
tp960
Rp961
(I1
(I3
tp962
g929
I00
S't<\x971\x19=O@\xf5\x8d+\xb9\xc2\xf0O@\x00\x00\x00@33(\xc0'
p963
tp964
bsg934
S'Cell[3].axon[40]'
p965
sI161
I173
tp966
a(F1.690015730110397
S'Cell[3].dend[82] syn_ = new FastInhib(0.1)'
p967
I3
(dp968
g919
F0.5
sg920
F17.0
sg921
I161
sg922
g7
(g8
(I0
tp969
g10
tp970
Rp971
(I1
(I3
tp972
g929
I00
S'\x00\x00\x00\xc0\xf5\xd8H@\x00\x00\x00\xb0G\xf1R@\x00\x00\x00\x10\xd7\xa3\x00\xc0'
p973
tp974
bsg934
S'Cell[3].axon[111]'
p975
sI161
I173
tp976
a(F2.35669737456048
S'Cell[3].dend[15] syn_ = new FastInhib(0.5)'
p977
I3
(dp978
S'seg'
p979
F0.16666666666666666
sS'hostfrom'
p980
F18.0
sS'gid'
p981
I18
sS'coords'
p982
g7
(g8
(I0
tp983
g10
tp984
Rp985
(I1
(I3
tp986
g14
(S'f8'
p987
I0
I1
tp988
Rp989
(I3
S'<'
p990
NNNI-1
I-1
I0
tp991
bI00
S'\xf3\x89{\xafW\x85\x18\xc0\x7f6V\xfaa\xa8S\xc0\x00\x00\x00\x80\xebQ%\xc0'
p992
tp993
bsS'secnames'
p994
S'Cell[0].axon[2]'
p995
sI18
I173
tp996
a(F2.1304460167098958
S'Cell[0].apic[0] syn_ = new AmpaNmda(0.5)'
p997
I0
(dp998
g979
F0.1
sg980
F18.0
sg981
I114
sg982
g7
(g8
(I0
tp999
g10
tp1000
Rp1001
(I1
(I3
tp1002
g989
I00
S"\x03\xf0V'\x84,3\xc0Q\x17\x1a\xc9\xa3\x0c8\xc0X1\xed\xc18\x17\x18\xc0"
p1003
tp1004
bsg994
S'Cell[2].axon[78]'
p1005
sI114
I29
tp1006
a(F2.0615801973516703
S'Cell[2].dend[28] syn_ = new FastInhib(0.5)'
p1007
I2
(dp1008
g979
F0.8999999999999999
sg980
F18.0
sg981
I66
sg982
g7
(g8
(I0
tp1009
g10
tp1010
Rp1011
(I1
(I3
tp1012
g989
I00
S'!\xa2\xbd\x13!z2@\xe2\xe4;\xa6\xc9\xfcW@\xb2\xa3Im^\x88P\xc0'
p1013
tp1014
bsg994
S'Cell[1].axon[30]'
p1015
sI66
I125
tp1016
a(F2.239251619432801
S'Cell[0].apic[54] syn_ = new AmpaNmda(0.5)'
p1017
I0
(dp1018
g979
F0.5
sg980
F18.0
sg981
I162
sg982
g7
(g8
(I0
tp1019
g10
tp1020
Rp1021
(I1
(I3
tp1022
g989
I00
S'\x00\x00\x00\xe0z\x94"\xc0\x00\x00\x00`\xb8\x9e(@\x00\x00\x00 \x85\xeb\x1e\xc0'
p1023
tp1024
bsg994
S'Cell[3].soma[0]'
p1025
sI162
I29
tp1026
a(F0.28682147404294356
S'Cell[2].dend[34] syn_ = new FastInhib(0.357142857143)'
p1027
I2
(dp1028
g979
F0.5
sg980
F18.0
sg981
I162
sg982
g7
(g8
(I0
tp1029
g10
tp1030
Rp1031
(I1
(I3
tp1032
g989
I00
S'\xce\xc0^\xa3\x15\x88>@\xa53\xc3\x92cW^@r\r\xb4\t\x8b\x19B\xc0'
p1033
tp1034
bsg994
S'Cell[3].axon[108]'
p1035
sI162
I125
tp1036
a(F1.0594239565198473
S'Cell[0].dend[16] syn_ = new ExpSid(0.166666666667)'
p1037
I0
(dp1038
S'seg'
p1039
F0.16666666666666666
sS'hostfrom'
p1040
F19.0
sS'gid'
p1041
I67
sS'coords'
p1042
g7
(g8
(I0
tp1043
g10
tp1044
Rp1045
(I1
(I3
tp1046
g14
(S'f8'
p1047
I0
I1
tp1048
Rp1049
(I3
S'<'
p1050
NNNI-1
I-1
I0
tp1051
bI00
S":'\x8b\xdd\x95\xaa\xfc\xbf.\xe0~\x16\x0b\x10L\xc0\x01\xe5pK\x1f\xf0\x18@"
p1052
tp1053
bsS'secnames'
p1054
S'Cell[1].axon[6]'
p1055
sI67
I29
tp1056
a(F2.4326505917849857
S'Cell[0].dend[15] syn_ = new AmpaNmda(0.5)'
p1057
I0
(dp1058
S'seg'
p1059
F0.5
sS'hostfrom'
p1060
F20.0
sS'gid'
p1061
I68
sS'coords'
p1062
g7
(g8
(I0
tp1063
g10
tp1064
Rp1065
(I1
(I3
tp1066
g14
(S'f8'
p1067
I0
I1
tp1068
Rp1069
(I3
S'<'
p1070
NNNI-1
I-1
I0
tp1071
bI00
S'0(\xfa\xcc\xf1\xaeF@\xb6N\xb56Q\x8bO\xc0L \xed\xa6\xb5\x8c\xe7\xbf'
p1072
tp1073
bsS'secnames'
p1074
S'Cell[1].axon[39]'
p1075
sI68
I29
tp1076
a(F1.7788264032082877
S'Cell[2].dend[18] syn_ = new FastInhib(0.3)'
p1077
I2
(dp1078
g1059
F0.30000000000000004
sg1060
F20.0
sg1061
I68
sg1062
g7
(g8
(I0
tp1079
g10
tp1080
Rp1081
(I1
(I3
tp1082
g1069
I00
S'xR\x0f\xf6\xbc\x9c8@\x90\xecFd\x92\x9bY\xc0\x00\x00\x00\x00\x00\x00$\xc0'
p1083
tp1084
bsg1074
S'Cell[1].axon[44]'
p1085
sI68
I125
tp1086
a(F2.1182493251273025
S'Cell[2].dend[21] syn_ = new FastInhib(0.166666666667)'
p1087
I2
(dp1088
g1059
F0.5
sg1060
F20.0
sg1061
I164
sg1062
g7
(g8
(I0
tp1089
g10
tp1090
Rp1091
(I1
(I3
tp1092
g1069
I00
S'H\x0e\x81\t\x07\xf75@\xf0=\xb1\x13\xa0\x88G\xc0J;\x05^\xbf\x826@'
p1093
tp1094
bsg1074
S'Cell[3].axon[0]'
p1095
sI164
I125
tp1096
a(F1.9347360152604052
S'Cell[3].dend[70] syn_ = new FastInhib(0.5)'
p1097
I3
(dp1098
g1059
F0.5
sg1060
F20.0
sg1061
I116
sg1062
g7
(g8
(I0
tp1099
g10
tp1100
Rp1101
(I1
(I3
tp1102
g1069
I00
S'\xcfH\xd1n(\xe8T\xc0=\x97\xbc\x16\x80&8@\xb2\xfc\x9cz\x9e\x99D\xc0'
p1103
tp1104
bsg1074
S'Cell[2].axon[66]'
p1105
sI116
I173
tp1106
a(F2.35218645392173
S'Cell[3].dend[79] syn_ = new FastInhib(0.5)'
p1107
I3
(dp1108
S'seg'
p1109
F0.5
sS'hostfrom'
p1110
F21.0
sS'gid'
p1111
I165
sS'coords'
p1112
g7
(g8
(I0
tp1113
g10
tp1114
Rp1115
(I1
(I3
tp1116
g14
(S'f8'
p1117
I0
I1
tp1118
Rp1119
(I3
S'<'
p1120
NNNI-1
I-1
I0
tp1121
bI00
S'!\x02\x00 \x81\xeb\xc1\xbf\x01\x00\x00\xe0zT?@\x01\x00\x00`\x8f\xc2 \xc0'
p1122
tp1123
bsS'secnames'
p1124
S'Cell[3].soma[0]'
p1125
sI165
I173
tp1126
a(F1.5030325616632207
S'Cell[1].dend[15] syn_ = new ExpSid(0.833333333333)'
p1127
I1
(dp1128
g1109
F0.16666666666666666
sg1110
F21.0
sg1111
I165
sg1112
g7
(g8
(I0
tp1129
g10
tp1130
Rp1131
(I1
(I3
tp1132
g1119
I00
S'\x1e\xc5\x8e\xb7eUD\xc0\xe2\x14E\xd0\r\xab\x05\xc0\x00\x00\x00\x80\xc2\xf5\x1d@'
p1133
tp1134
bsg1124
S'Cell[3].axon[84]'
p1135
sI165
I77
tp1136
a(F1.4110133454429772
S'Cell[3].dend[33] syn_ = new FastInhib(0.5)'
p1137
I3
(dp1138
g1109
F0.16666666666666666
sg1110
F21.0
sg1111
I165
sg1112
g7
(g8
(I0
tp1139
g10
tp1140
Rp1141
(I1
(I3
tp1142
g1119
I00
S'T\x0c\x82\xffi@#\xc0\xf9\x9a\xf3\xeb7\xb5F\xc0\x9b\x0c\xc9}\xd1\x87"@'
p1143
tp1144
bsg1124
S'Cell[3].axon[230]'
p1145
sI165
I173
tp1146
a(F1.6843441947513427
S'Cell[3].dend[34] syn_ = new FastInhib(0.5)'
p1147
I3
(dp1148
g1109
F0.16666666666666666
sg1110
F21.0
sg1111
I165
sg1112
g7
(g8
(I0
tp1149
g10
tp1150
Rp1151
(I1
(I3
tp1152
g1119
I00
S'\x83C\x86\x9d\x1c\xed$@\x8c\xc3\xd2\xfeF\x10K\xc0\x8e\xb3\x04\xa6\xa7\xae"\xc0'
p1153
tp1154
bsg1124
S'Cell[3].axon[236]'
p1155
sI165
I173
tp1156
a(F2.0948166779182444
S'Cell[3].dend[24] syn_ = new FastInhib(0.5)'
p1157
I3
(dp1158
g1109
F0.2777777777777778
sg1110
F21.0
sg1111
I165
sg1112
g7
(g8
(I0
tp1159
g10
tp1160
Rp1161
(I1
(I3
tp1162
g1119
I00
S"}\x7f[4\xf6\xa0@\xc0y\xed\xe4\x10\xc2\x1fd\xc0S\xfae'\x8f\x96-\xc0"
p1163
tp1164
bsg1124
S'Cell[3].axon[245]'
p1165
sI165
I173
tp1166
a(F2.3177582295993853
S'Cell[1].apic[32] syn_ = new ExpSid(0.5)'
p1167
I1
(dp1168
g1109
F0.5
sg1110
F21.0
sg1111
I117
sg1112
g7
(g8
(I0
tp1169
g10
tp1170
Rp1171
(I1
(I3
tp1172
g1119
I00
S'\xcdk3\xd9<Ha@\xeb\xfd-\xf5\x1cAA@\x00\x00\x00\x80\xc2u9\xc0'
p1173
tp1174
bsg1124
S'Cell[2].axon[371]'
p1175
sI117
I77
tp1176
a(F2.2079022957819583
S'Cell[2].dend[5] syn_ = new FastInhib(0.5)'
p1177
I2
(dp1178
g1109
F0.21428571428571427
sg1110
F21.0
sg1111
I21
sg1112
g7
(g8
(I0
tp1179
g10
tp1180
Rp1181
(I1
(I3
tp1182
g1119
I00
S'~v\xf3\x83\xaerU@(\xeb\x15\xbbH_[\xc0\xf88L\n\\\xfe\x1a\xc0'
p1183
tp1184
bsg1124
S'Cell[0].axon[28]'
p1185
sI21
I125
tp1186
a(F1.7062950435059714
S'Cell[3].dend[32] syn_ = new FastInhib(0.5)'
p1187
I3
(dp1188
g1109
F0.2777777777777778
sg1110
F21.0
sg1111
I69
sg1112
g7
(g8
(I0
tp1189
g10
tp1190
Rp1191
(I1
(I3
tp1192
g1119
I00
S'\x98\xe8\nE\xf1\xc9 \xc0\xe5c\xae\x19\x052@\xc0\x00\x00\x00\x80\x14\xae @'
p1193
tp1194
bsg1124
S'Cell[1].axon[4]'
p1195
sI69
I173
tp1196
a(F2.3196547232674956
S'Cell[1].dend[23] syn_ = new AmpaNmda(0.7)'
p1197
I1
(dp1198
S'seg'
p1199
F0.5
sS'hostfrom'
p1200
F22.0
sS'gid'
p1201
I118
sS'coords'
p1202
g7
(g8
(I0
tp1203
g10
tp1204
Rp1205
(I1
(I3
tp1206
g14
(S'f8'
p1207
I0
I1
tp1208
Rp1209
(I3
S'<'
p1210
NNNI-1
I-1
I0
tp1211
bI00
S'\xdbo\xe6\n\x8f\xc9$\xc0x\xb1i\xe7\xc5\xa7K\xc0\xe3\x0e\x19cN\xec!@'
p1212
tp1213
bsS'secnames'
p1214
S'Cell[2].axon[52]'
p1215
sI118
I77
tp1216
a(F2.385104809348764
S'Cell[1].dend[28] syn_ = new AmpaNmda(0.3)'
p1217
I1
(dp1218
g1199
F0.1
sg1200
F22.0
sg1201
I118
sg1202
g7
(g8
(I0
tp1219
g10
tp1220
Rp1221
(I1
(I3
tp1222
g1209
I00
S'tk\x9e\xb3\xe5\x0bQ@\xe8\xde9\x87\xda\xbeR\xc0\xf5\xef\x15*\t0,\xc0'
p1223
tp1224
bsg1214
S'Cell[2].axon[220]'
p1225
sI118
I77
tp1226
a(F2.2534823518943963
S'Cell[3].dend[9] syn_ = new FastInhib(0.928571428571)'
p1227
I3
(dp1228
g1199
F0.5
sg1200
F22.0
sg1201
I166
sg1202
g7
(g8
(I0
tp1229
g10
tp1230
Rp1231
(I1
(I3
tp1232
g1209
I00
S'f\x89\xfeP\x81\x11Z\xc0\xb5\xf9X!>\xe5T\xc0\xceS\xb4\xdeK\xe6X\xc0'
p1233
tp1234
bsg1214
S'Cell[3].axon[146]'
p1235
sI166
I173
tp1236
a(F2.089792275188916
S'Cell[1].apic[9] syn_ = new ExpSid(0.5)'
p1237
I1
(dp1238
S'seg'
p1239
F0.5666666666666667
sS'hostfrom'
p1240
F23.0
sS'gid'
p1241
I119
sS'coords'
p1242
g7
(g8
(I0
tp1243
g10
tp1244
Rp1245
(I1
(I3
tp1246
g14
(S'f8'
p1247
I0
I1
tp1248
Rp1249
(I3
S'<'
p1250
NNNI-1
I-1
I0
tp1251
bI00
S'<\x83\xe8)\nmG@?m2\x93\xf1au@F\xba\xb2\xce\xe5V\x07@'
p1252
tp1253
bsS'secnames'
p1254
S'Cell[2].axon[111]'
p1255
sI119
I77
tp1256
a(F2.0096406272878693
S'Cell[3].dend[46] syn_ = new FastInhib(0.5)'
p1257
I3
(dp1258
g1239
F0.5
sg1240
F23.0
sg1241
I167
sg1242
g7
(g8
(I0
tp1259
g10
tp1260
Rp1261
(I1
(I3
tp1262
g1249
I00
S'\x90\x11\xbe\xe2 s2\xc0~\x05py\x05\xc2R\xc0\x00\x00\x00\xc0\xcc\xcc\x14\xc0'
p1263
tp1264
bsg1254
S'Cell[3].axon[21]'
p1265
sI167
I173
tp1266
a(F1.6418869264190583
S'Cell[3].dend[46] syn_ = new FastInhib(0.833333333333)'
p1267
I3
(dp1268
g1239
F0.8333333333333333
sg1240
F23.0
sg1241
I167
sg1242
g7
(g8
(I0
tp1269
g10
tp1270
Rp1271
(I1
(I3
tp1272
g1249
I00
S'\xb2\xf5\xeb J\xa56\xc06\x1eW\xde8\x99V\xc0\xff\xff\xff\xdf\xa3p\x0f\xc0'
p1273
tp1274
bsg1254
S'Cell[3].axon[21]'
p1275
sI167
I173
tp1276
a(F2.1689800233396683
S'Cell[3].dend[49] syn_ = new FastInhib(0.166666666667)'
p1277
I3
(dp1278
g1239
F0.19230769230769232
sg1240
F23.0
sg1241
I167
sg1242
g7
(g8
(I0
tp1279
g10
tp1280
Rp1281
(I1
(I3
tp1282
g1249
I00
S'4I.l\x1beA\xc0\x8b_*\xb7\xb8$\\\xc0\x0eR(\xa5\x9f\x9a$\xc0'
p1283
tp1284
bsg1254
S'Cell[3].axon[159]'
p1285
sI167
I173
tp1286
a(F1.7713407033036874
S'Cell[1].apic[4] syn_ = new AmpaNmda(0.166666666667)'
p1287
I1
(dp1288
S'seg'
p1289
F0.36666666666666664
sS'hostfrom'
p1290
F24.0
sS'gid'
p1291
I72
sS'coords'
p1292
g7
(g8
(I0
tp1293
g10
tp1294
Rp1295
(I1
(I3
tp1296
g14
(S'f8'
p1297
I0
I1
tp1298
Rp1299
(I3
S'<'
p1300
NNNI-1
I-1
I0
tp1301
bI00
S'V\x80?\x93]\xa1I@\xf6\x05\x10\x99\xbd b@\x00\x00\x00\x00{\x94+@'
p1302
tp1303
bsS'secnames'
p1304
S'Cell[1].axon[3]'
p1305
sI72
I77
tp1306
a(F0.8930962336978597
S'Cell[0].dend[15] syn_ = new AmpaNmda(0.1)'
p1307
I0
(dp1308
g1289
F0.8333333333333333
sg1290
F24.0
sg1291
I72
sg1292
g7
(g8
(I0
tp1309
g10
tp1310
Rp1311
(I1
(I3
tp1312
g1299
I00
S'\x8c\x87\x9e\xf6\n\x9a\x15@\x84g\x8a\x9c\x1a\x08L\xc0\xde\xd7M\xf1\x8e*\x11@'
p1313
tp1314
bsg1304
S'Cell[1].axon[64]'
p1315
sI72
I29
tp1316
a(F2.3089757392592665
S'Cell[3].dend[16] syn_ = new FastInhib(0.166666666667)'
p1317
I3
(dp1318
g1289
F0.2692307692307693
sg1290
F24.0
sg1291
I120
sg1292
g7
(g8
(I0
tp1319
g10
tp1320
Rp1321
(I1
(I3
tp1322
g1299
I00
S'\x90{]\x04=\x0f\xfa\xbf\xfa{\x97\xd0\xffFU\xc0^\xb2\xd1z\x98\x93<\xc0'
p1323
tp1324
bsg1304
S'Cell[2].axon[36]'
p1325
sI120
I173
tp1326
a(F2.4915761960652554
S'Cell[0].dend[21] syn_ = new AmpaNmda(0.833333333333)'
p1327
I0
(dp1328
g1289
F0.16666666666666666
sg1290
F24.0
sg1291
I120
sg1292
g7
(g8
(I0
tp1329
g10
tp1330
Rp1331
(I1
(I3
tp1332
g1299
I00
S'3\x0fB\xa3\x89\x90:@\xa4\x13\xec.b\xb1;\xc0\x00\x00\x00\xa0\x99\x99\x1a\xc0'
p1333
tp1334
bsg1304
S'Cell[2].axon[45]'
p1335
sI120
I29
tp1336
a(F1.5214051132996698
S'Cell[1].dend[27] syn_ = new AmpaNmda(0.5)'
p1337
I1
(dp1338
g1289
F0.5
sg1290
F24.0
sg1291
I120
sg1292
g7
(g8
(I0
tp1339
g10
tp1340
Rp1341
(I1
(I3
tp1342
g1299
I00
S'W\x86\xcd\x11;.@@`\x9d\xa8=\x89\xf9S\xc0\x9a\xa4\x972\x01D)\xc0'
p1343
tp1344
bsg1304
S'Cell[2].axon[83]'
p1345
sI120
I77
tp1346
a(F1.8527205942270346
S'Cell[2].dend[13] syn_ = new FastInhib(0.166666666667)'
p1347
I2
(dp1348
g1289
F0.8333333333333333
sg1290
F24.0
sg1291
I120
sg1292
g7
(g8
(I0
tp1349
g10
tp1350
Rp1351
(I1
(I3
tp1352
g1299
I00
S'\x99:\x03\xd9\xfe\x15@@\xefJ}\xbeh\xf4R\xc0\x88l\x16\x18\xa4\x83J\xc0'
p1353
tp1354
bsg1304
S'Cell[2].axon[94]'
p1355
sI120
I125
tp1356
a(F2.248179818263195
S'Cell[0].dend[7] syn_ = new AmpaNmda(0.5)'
p1357
I0
(dp1358
g1289
F0.5
sg1290
F24.0
sg1291
I120
sg1292
g7
(g8
(I0
tp1359
g10
tp1360
Rp1361
(I1
(I3
tp1362
g1299
I00
S'\x00\x00\x00P\xcd\x8c$\xc0\x00\x00\x00\x80\xebQI\xc0\x00\x00\x00\x10\xd7\xe3*\xc0'
p1363
tp1364
bsg1304
S'Cell[2].axon[128]'
p1365
sI120
I29
tp1366
a(F0.9985281377190682
S'Cell[3].dend[2] syn_ = new FastInhib(0.5)'
p1367
I3
(dp1368
g1289
F0.5
sg1290
F24.0
sg1291
I120
sg1292
g7
(g8
(I0
tp1369
g10
tp1370
Rp1371
(I1
(I3
tp1372
g1299
I00
S'uL\x15\xfc\x8f\x060\xc0>\xf5\xd3\xb0\xdf\xa8B\xc0N\x8e\xc5}B\xcc\x08\xc0'
p1373
tp1374
bsg1304
S'Cell[2].axon[129]'
p1375
sI120
I173
tp1376
a(F1.656311645412495
S'Cell[3].dend[1] syn_ = new FastInhib(0.5)'
p1377
I3
(dp1378
g1289
F0.5
sg1290
F24.0
sg1291
I120
sg1292
g7
(g8
(I0
tp1379
g10
tp1380
Rp1381
(I1
(I3
tp1382
g1299
I00
S'~\x1b\x16e+b$\xc0\xf0^\xbe\xd4\xef\x17>\xc0\x19\xea\x08^\x9c\x05\xe4?'
p1383
tp1384
bsg1304
S'Cell[2].axon[288]'
p1385
sI120
I173
tp1386
a(F2.4152521194488963
S'Cell[0].apic[16] syn_ = new ExpSid(0.166666666667)'
p1387
I0
(dp1388
S'seg'
p1389
F0.03333333333333333
sS'hostfrom'
p1390
F25.0
sS'gid'
p1391
I121
sS'coords'
p1392
g7
(g8
(I0
tp1393
g10
tp1394
Rp1395
(I1
(I3
tp1396
g14
(S'f8'
p1397
I0
I1
tp1398
Rp1399
(I3
S'<'
p1400
NNNI-1
I-1
I0
tp1401
bI00
S'\x88U\x8fI\x86\x973@E\xb1\xf7j\x9f]-@\xa6\x1e\xbdb\x00\x86\x0e\xc0'
p1402
tp1403
bsS'secnames'
p1404
S'Cell[2].axon[6]'
p1405
sI121
I29
tp1406
a(F1.5526010578057574
S'Cell[3].dend[18] syn_ = new FastInhib(0.5)'
p1407
I3
(dp1408
g1389
F0.5
sg1390
F25.0
sg1391
I169
sg1392
g7
(g8
(I0
tp1409
g10
tp1410
Rp1411
(I1
(I3
tp1412
g1399
I00
S'\x8a\x05\xad+\xbc\xf2*\xc0\x16\xef\x82=\xa8\xf5W\xc0\x00\x00\x00@\nw@\xc0'
p1413
tp1414
bsg1404
S'Cell[3].axon[124]'
p1415
sI169
I173
tp1416
a(F2.0685543811240548
S'Cell[0].apic[15] syn_ = new AmpaNmda(0.833333333333)'
p1417
I0
(dp1418
S'seg'
p1419
F0.8333333333333333
sS'hostfrom'
p1420
F26.0
sS'gid'
p1421
I26
sS'coords'
p1422
g7
(g8
(I0
tp1423
g10
tp1424
Rp1425
(I1
(I3
tp1426
g14
(S'f8'
p1427
I0
I1
tp1428
Rp1429
(I3
S'<'
p1430
NNNI-1
I-1
I0
tp1431
bI00
S'|\xd42\xb6\xf9\x9b.@2T\xe8+7\x894@J@$T8\x9b,@'
p1432
tp1433
bsS'secnames'
p1434
S'Cell[0].axon[5]'
p1435
sI26
I29
tp1436
a(F1.45619674240471
S'Cell[3].dend[23] syn_ = new FastInhib(0.5)'
p1437
I3
(dp1438
g1419
F0.21428571428571427
sg1420
F26.0
sg1421
I26
sg1422
g7
(g8
(I0
tp1439
g10
tp1440
Rp1441
(I1
(I3
tp1442
g1429
I00
S'\x9a\x9aK\xb2\xa2\x18C\xc04j!\x95\xd9\\c\xc0e\xb0E6\xdb"-\xc0'
p1443
tp1444
bsg1434
S'Cell[0].axon[35]'
p1445
sI26
I173
tp1446
a(F1.936666244582566
S'Cell[3].dend[88] syn_ = new FastInhib(0.5)'
p1447
I3
(dp1448
g1419
F0.5
sg1420
F26.0
sg1421
I170
sg1422
g7
(g8
(I0
tp1449
g10
tp1450
Rp1451
(I1
(I3
tp1452
g1429
I00
S"\xed\x8d\xba5 \xcd3\xc02a\x8c\x8cV\x8d`@\x00\x00\x00\xa0\x99\x99'\xc0"
p1453
tp1454
bsg1434
S'Cell[3].axon[312]'
p1455
sI170
I173
tp1456
a(F2.0049527493884396
S'Cell[0].apic[33] syn_ = new AmpaNmda(0.166666666667)'
p1457
I0
(dp1458
g1419
F0.8333333333333333
sg1420
F26.0
sg1421
I170
sg1422
g7
(g8
(I0
tp1459
g10
tp1460
Rp1461
(I1
(I3
tp1462
g1429
I00
S'\x12(Q\x0e\xad\x8e\t@S\xbe\x83=\x92\xcdc@\xe6z\x85"\x92\x96*@'
p1463
tp1464
bsg1434
S'Cell[3].axon[313]'
p1465
sI170
I29
tp1466
a(F2.44641451463495
S'Cell[1].dend[10] syn_ = new AmpaNmda(0.3)'
p1467
I1
(dp1468
g1419
F0.5
sg1420
F26.0
sg1421
I170
sg1422
g7
(g8
(I0
tp1469
g10
tp1470
Rp1471
(I1
(I3
tp1472
g1429
I00
S'\xa5\xf1B,~\xcf+@i*\x87K\x08)G@\x00\x00\x00\xe0\xa3\xb04\xc0'
p1473
tp1474
bsg1434
S'Cell[3].axon[469]'
p1475
sI170
I77
tp1476
a(F1.2829624304509422
S'Cell[3].dend[19] syn_ = new FastInhib(0.5)'
p1477
I3
(dp1478
S'seg'
p1479
F0.1
sS'hostfrom'
p1480
F27.0
sS'gid'
p1481
I123
sS'coords'
p1482
g7
(g8
(I0
tp1483
g10
tp1484
Rp1485
(I1
(I3
tp1486
g14
(S'f8'
p1487
I0
I1
tp1488
Rp1489
(I3
S'<'
p1490
NNNI-1
I-1
I0
tp1491
bI00
S"\x96f\xe5\x10\x07\x9e'\xc0\x00\x00\x00`f\xd6X\xc0\x00\x00\x00\x00\xd7\xe3?\xc0"
p1492
tp1493
bsS'secnames'
p1494
S'Cell[2].axon[42]'
p1495
sI123
I173
tp1496
a(F2.149252498592154
S'Cell[3].dend[73] syn_ = new FastInhib(0.5)'
p1497
I3
(dp1498
g1479
F0.3888888888888889
sg1480
F27.0
sg1481
I75
sg1482
g7
(g8
(I0
tp1499
g10
tp1500
Rp1501
(I1
(I3
tp1502
g1489
I00
S'\x9d\xc4\xe2\xdc\x08\xebJ@\x18\xc13\xe7L\xcfJ@-B\r\x82\xcc\xe3\x11\xc0'
p1503
tp1504
bsg1494
S'Cell[1].axon[2]'
p1505
sI75
I173
tp1506
a(F1.4975708500294558
S'Cell[2].dend[10] syn_ = new FastInhib(0.5)'
p1507
I2
(dp1508
g1479
F0.045454545454545456
sg1480
F27.0
sg1481
I75
sg1482
g7
(g8
(I0
tp1509
g10
tp1510
Rp1511
(I1
(I3
tp1512
g1489
I00
S"i\x92\x129E\xae:@\xa9<\x8f8\xb1EE\xc0T\xf8U\x19L\x9b'\xc0"
p1513
tp1514
bsg1494
S'Cell[1].axon[14]'
p1515
sI75
I125
tp1516
a(F1.6370008568810894
S'Cell[3].dend[15] syn_ = new FastInhib(0.5)'
p1517
I3
(dp1518
g1479
F0.16666666666666666
sg1480
F27.0
sg1481
I27
sg1482
g7
(g8
(I0
tp1519
g10
tp1520
Rp1521
(I1
(I3
tp1522
g1489
I00
S'\xbe\xcew\xe3\xe8\xaf\x1d\xc0#1=\xea\xfb\x01T\xc0\x00\x00\x00\x80\x14\xae\x1e\xc0'
p1523
tp1524
bsg1494
S'Cell[0].axon[8]'
p1525
sI27
I173
tp1526
a(F0.6138615879734767
S'Cell[0].apic[36] syn_ = new ExpSid(0.166666666667)'
p1527
I0
(dp1528
g1479
F0.30000000000000004
sg1480
F27.0
sg1481
I171
sg1482
g7
(g8
(I0
tp1529
g10
tp1530
Rp1531
(I1
(I3
tp1532
g1489
I00
S'\xe1\xb1s\xd1\x05$4@rX\xf4\x1fm\x1dh@\x92~7\r<\x0f\xdd?'
p1533
tp1534
bsg1494
S'Cell[3].axon[67]'
p1535
sI171
I29
tp1536
a(F1.9743787131828905
S'Cell[1].dend[4] syn_ = new AmpaNmda(0.3)'
p1537
I1
(dp1538
S'seg'
p1539
F0.5
sS'hostfrom'
p1540
F28.0
sS'gid'
p1541
I172
sS'coords'
p1542
g7
(g8
(I0
tp1543
g10
tp1544
Rp1545
(I1
(I3
tp1546
g14
(S'f8'
p1547
I0
I1
tp1548
Rp1549
(I3
S'<'
p1550
NNNI-1
I-1
I0
tp1551
bI00
S'\xdb\xd1\xac\x15\x9b1*\xc0\x8dG\xed\x19\xc4} @\x00\x00\x00`\xb8\x1e;\xc0'
p1552
tp1553
bsS'secnames'
p1554
S'Cell[3].axon[66]'
p1555
sI172
I77
tp1556
a(F1.909071425251416
S'Cell[0].apic[13] syn_ = new AmpaNmda(0.5)'
p1557
I0
(dp1558
g1539
F0.1
sg1540
F28.0
sg1541
I172
sg1542
g7
(g8
(I0
tp1559
g10
tp1560
Rp1561
(I1
(I3
tp1562
g1549
I00
S'\x00\x04\xe5\xc5\xb7\xeb\x1f\xc0\x03\xfc\x17h\xda\x0f\x12@\\\xb9\x98L\xdeN,\xc0'
p1563
tp1564
bsg1554
S'Cell[3].axon[67]'
p1565
sI172
I29
tp1566
a(F0.8504391370692794
S'Cell[2].dend[34] syn_ = new FastInhib(0.0714285714286)'
p1567
I2
(dp1568
S'seg'
p1569
F0.5
sS'hostfrom'
p1570
F29.0
sS'gid'
p1571
I173
sS'coords'
p1572
g7
(g8
(I0
tp1573
g10
tp1574
Rp1575
(I1
(I3
tp1576
g14
(S'f8'
p1577
I0
I1
tp1578
Rp1579
(I3
S'<'
p1580
NNNI-1
I-1
I0
tp1581
bI00
S'*\xac\xe2a{\x9c8@B\x94\x84\\D\xbaH@\x8c\xed\xa2\x11l84\xc0'
p1582
tp1583
bsS'secnames'
p1584
S'Cell[3].axon[41]'
p1585
sI173
I125
tp1586
a(F1.6000733280684576
S'Cell[1].dend[27] syn_ = new AmpaNmda(0.7)'
p1587
I1
(dp1588
S'seg'
p1589
F0.16666666666666666
sS'hostfrom'
p1590
F30.0
sS'gid'
p1591
I126
sS'coords'
p1592
g7
(g8
(I0
tp1593
g10
tp1594
Rp1595
(I1
(I3
tp1596
g14
(S'f8'
p1597
I0
I1
tp1598
Rp1599
(I3
S'<'
p1600
NNNI-1
I-1
I0
tp1601
bI00
S'\xd7\xb7\x8cp\xf1\xbe4@~\x96\xfc=\xda\xc6X\xc0l\x85\xd8\n\x96+-\xc0'
p1602
tp1603
bsS'secnames'
p1604
S'Cell[2].axon[8]'
p1605
sI126
I77
tp1606
a(F2.475979824832101
S'Cell[1].dend[27] syn_ = new AmpaNmda(0.9)'
p1607
I1
(dp1608
g1589
F0.8333333333333333
sg1590
F30.0
sg1591
I126
sg1592
g7
(g8
(I0
tp1609
g10
tp1610
Rp1611
(I1
(I3
tp1612
g1599
I00
S'\xc8?\x11]\xf5|6@\xe8\x8c\xdaq\xbe\x12\\\xc0\x8c\xe0T\xc7\xa4^:\xc0'
p1613
tp1614
bsg1604
S'Cell[2].axon[8]'
p1615
sI126
I77
tp1616
a(F2.276552104633642
S'Cell[3].dend[9] syn_ = new FastInhib(0.214285714286)'
p1617
I3
(dp1618
g1589
F0.5
sg1590
F30.0
sg1591
I126
sg1592
g7
(g8
(I0
tp1619
g10
tp1620
Rp1621
(I1
(I3
tp1622
g1599
I00
S'\x8elj\xe7M,G\xc0\xa9\xe8\xc6\xccW\x89H\xc0\x9a\x06\xf1],\x9d5\xc0'
p1623
tp1624
bsg1604
S'Cell[2].axon[37]'
p1625
sI126
I173
tp1626
a(F1.6784230779302285
S'Cell[0].apic[1] syn_ = new AmpaNmda(0.5)'
p1627
I0
(dp1628
g1589
F0.16666666666666666
sg1590
F30.0
sg1591
I126
sg1592
g7
(g8
(I0
tp1629
g10
tp1630
Rp1631
(I1
(I3
tp1632
g1599
I00
S'\xd2K\xe2\xde\x17\xed.\xc0\x96\xa5fF\xe9\xfc*\xc0_\xfe\xf8\xba~L3\xc0'
p1633
tp1634
bsg1604
S'Cell[2].axon[39]'
p1635
sI126
I29
tp1636
a(F2.4208397363722796
S'Cell[0].apic[2] syn_ = new AmpaNmda(0.5)'
p1637
I0
(dp1638
g1589
F0.5
sg1590
F30.0
sg1591
I126
sg1592
g7
(g8
(I0
tp1639
g10
tp1640
Rp1641
(I1
(I3
tp1642
g1599
I00
S'\xb3\x8df\r\x87\xfc#\xc0!\xce\xbd\xc61#&\xc0nY\xa9\xbd\xbf\x1cB\xc0'
p1643
tp1644
bsg1604
S'Cell[2].axon[46]'
p1645
sI126
I29
tp1646
a(F1.6701695989455287
S'Cell[3].dend[64] syn_ = new FastInhib(0.5)'
p1647
I3
(dp1648
g1589
F0.1
sg1590
F30.0
sg1591
I126
sg1592
g7
(g8
(I0
tp1649
g10
tp1650
Rp1651
(I1
(I3
tp1652
g1599
I00
S'}\xed\xf3\x08+:5\xc0\x9c\xe5\xc2\x96\xba\x851@0\x84/<T\x860\xc0'
p1653
tp1654
bsg1604
S'Cell[2].axon[50]'
p1655
sI126
I173
tp1656
a(F1.5948145421026585
S'Cell[1].apic[35] syn_ = new AmpaNmda(0.5)'
p1657
I1
(dp1658
g1589
F0.5
sg1590
F30.0
sg1591
I126
sg1592
g7
(g8
(I0
tp1659
g10
tp1660
Rp1661
(I1
(I3
tp1662
g1599
I00
S'\x0c<\xa5C\x07^0\xc0TJW\xae\xe1\x15K@\xa2$\xba`\xd7\xeaR\xc0'
p1663
tp1664
bsg1604
S'Cell[2].axon[103]'
p1665
sI126
I77
tp1666
a(F1.4478140691960355
S'Cell[1].dend[10] syn_ = new AmpaNmda(0.3)'
p1667
I1
(dp1668
g1589
F0.1
sg1590
F30.0
sg1591
I174
sg1592
g7
(g8
(I0
tp1669
g10
tp1670
Rp1671
(I1
(I3
tp1672
g1599
I00
S'M\xcb\xc6k@C*@\xdc\xbb\x01o\xaf\x06F@C\x11\xa4\x98\x1b;5\xc0'
p1673
tp1674
bsg1604
S'Cell[3].axon[151]'
p1675
sI174
I77
tp1676
a(F1.898987385845807
S'Cell[1].dend[23] syn_ = new AmpaNmda(0.3)'
p1677
I1
(dp1678
g1589
F0.5
sg1590
F30.0
sg1591
I174
sg1592
g7
(g8
(I0
tp1679
g10
tp1680
Rp1681
(I1
(I3
tp1682
g1599
I00
S"\xce%\xe0|\xcf\xb7 @\x85\x126[\nL&\xc0\x00\x00\x00\xe0\xa3\xf0'@"
p1683
tp1684
bsg1604
S'Cell[3].axon[270]'
p1685
sI174
I77
tp1686
a(F0.9518947597063792
S'Cell[0].apic[50] syn_ = new ExpSid(0.9)'
p1687
I0
(dp1688
S'seg'
p1689
F0.7857142857142856
sS'hostfrom'
p1690
F31.0
sS'gid'
p1691
I175
sS'coords'
p1692
g7
(g8
(I0
tp1693
g10
tp1694
Rp1695
(I1
(I3
tp1696
g14
(S'f8'
p1697
I0
I1
tp1698
Rp1699
(I3
S'<'
p1700
NNNI-1
I-1
I0
tp1701
bI00
S'\x0c\xab\x15\x97PNO\xc0\x10\xca\xd2(\xdc\x88m@\xce-0\xde\xcf\xbaW\xc0'
p1702
tp1703
bsS'secnames'
p1704
S'Cell[3].axon[153]'
p1705
sI175
I29
tp1706
a(F1.437818947611663
S'Cell[3].dend[10] syn_ = new FastInhib(0.5)'
p1707
I3
(dp1708
S'seg'
p1709
F0.5
sS'hostfrom'
p1710
F32.0
sS'gid'
p1711
I176
sS'coords'
p1712
g7
(g8
(I0
tp1713
g10
tp1714
Rp1715
(I1
(I3
tp1716
g14
(S'f8'
p1717
I0
I1
tp1718
Rp1719
(I3
S'<'
p1720
NNNI-1
I-1
I0
tp1721
bI00
S'20\xda\x1a\x8a\x805\xc0\x9c\x9efI\xea)H\xc0\x1d5"\xea\xb5~!\xc0'
p1722
tp1723
bsS'secnames'
p1724
S'Cell[3].axon[11]'
p1725
sI176
I173
tp1726
a(F2.454843373822565
S'Cell[2].dend[18] syn_ = new FastInhib(0.5)'
p1727
I2
(dp1728
g1709
F0.5
sg1710
F32.0
sg1711
I176
sg1712
g7
(g8
(I0
tp1729
g10
tp1730
Rp1731
(I1
(I3
tp1732
g1719
I00
S'\xcc\x1c\xc3?\xc9\xd85@\xf7\xc6\nOJ\x0b_\xc0\x00\x00\x00 \xaeG1\xc0'
p1733
tp1734
bsg1724
S'Cell[3].axon[82]'
p1735
sI176
I125
tp1736
a(F2.1269635024371016
S'Cell[1].dend[39] syn_ = new AmpaNmda(0.1)'
p1737
I1
(dp1738
g1709
F0.5
sg1710
F32.0
sg1711
I176
sg1712
g7
(g8
(I0
tp1739
g10
tp1740
Rp1741
(I1
(I3
tp1742
g1719
I00
S'\tzQJ\xb0FT@*0\\G%HD@\x00\x00\x00@33\xeb\xbf'
p1743
tp1744
bsg1724
S'Cell[3].axon[113]'
p1745
sI176
I77
tp1746
a(F1.3058328447736145
S'Cell[1].dend[18] syn_ = new AmpaNmda(0.5)'
p1747
I1
(dp1748
g1709
F0.5
sg1710
F32.0
sg1711
I176
sg1712
g7
(g8
(I0
tp1749
g10
tp1750
Rp1751
(I1
(I3
tp1752
g1719
I00
S'F\x82,\xc8\x7fhJ@Sr\xbb\xdf\xb8<)@\x00\x00\x00 \x85+;@'
p1753
tp1754
bsg1724
S'Cell[3].axon[128]'
p1755
sI176
I77
tp1756
a(F2.179507693837147
S'Cell[3].dend[86] syn_ = new FastInhib(0.1)'
p1757
I3
(dp1758
S'seg'
p1759
F0.16666666666666666
sS'hostfrom'
p1760
F33.0
sS'gid'
p1761
I129
sS'coords'
p1762
g7
(g8
(I0
tp1763
g10
tp1764
Rp1765
(I1
(I3
tp1766
g14
(S'f8'
p1767
I0
I1
tp1768
Rp1769
(I3
S'<'
p1770
NNNI-1
I-1
I0
tp1771
bI00
S'>\x15\xba\xfb\xbe)+\xc0\xd7\xc8\x82\t\xa9\x97Q@"u\xa8\xbd\xba\xe8#\xc0'
p1772
tp1773
bsS'secnames'
p1774
S'Cell[2].axon[30]'
p1775
sI129
I173
tp1776
a(F1.3264889598412604
S'Cell[3].dend[74] syn_ = new FastInhib(0.5)'
p1777
I3
(dp1778
g1759
F0.16666666666666666
sg1760
F33.0
sg1761
I129
sg1762
g7
(g8
(I0
tp1779
g10
tp1780
Rp1781
(I1
(I3
tp1782
g1769
I00
S'\x8e\xb3\x97I6jQ@\xde`\xf3\x8c\xf2\x8dM@F\tC\x16\x89\xa9\x1b\xc0'
p1783
tp1784
bsg1774
S'Cell[2].axon[34]'
p1785
sI129
I173
tp1786
a(F2.1395099402839826
S'Cell[2].dend[19] syn_ = new FastInhib(0.357142857143)'
p1787
I2
(dp1788
g1759
F0.8333333333333333
sg1760
F33.0
sg1761
I129
sg1762
g7
(g8
(I0
tp1789
g10
tp1790
Rp1791
(I1
(I3
tp1792
g1769
I00
S'\xc8\xb6\xbb!\xb2\xbe\x13\xc0\xa4\xaa\xde\x03%HQ\xc0\x00\x00\x00 \x85\x8bF\xc0'
p1793
tp1794
bsg1774
S'Cell[2].axon[46]'
p1795
sI129
I125
tp1796
a(F1.6056983864195575
S'Cell[2].dend[5] syn_ = new FastInhib(0.214285714286)'
p1797
I2
(dp1798
g1759
F0.16666666666666666
sg1760
F33.0
sg1761
I33
sg1762
g7
(g8
(I0
tp1799
g10
tp1800
Rp1801
(I1
(I3
tp1802
g1769
I00
S',~\x8ar\xcd\\Q@h\xa7\x0f\x97\x81\xabQ\xc0\x11\xe2\x99\x90\xc2 "\xc0'
p1803
tp1804
bsg1774
S'Cell[0].axon[1]'
p1805
sI33
I125
tp1806
a(F2.4078515898433297
S'Cell[1].apic[31] syn_ = new ExpSid(0.166666666667)'
p1807
I1
(dp1808
g1759
F0.5
sg1760
F33.0
sg1761
I177
sg1762
g7
(g8
(I0
tp1809
g10
tp1810
Rp1811
(I1
(I3
tp1812
g1769
I00
S'\x82\xb19pv\x1eN@\x98\xe4\x991\x16\xb8N@\x00\x00\x00\x00\xd7\xa3\x00@'
p1813
tp1814
bsg1774
S'Cell[3].axon[138]'
p1815
sI177
I77
tp1816
a(F2.3436050568663553
S'Cell[1].dend[28] syn_ = new AmpaNmda(0.1)'
p1817
I1
(dp1818
S'seg'
p1819
F0.5
sS'hostfrom'
p1820
F34.0
sS'gid'
p1821
I34
sS'coords'
p1822
g7
(g8
(I0
tp1823
g10
tp1824
Rp1825
(I1
(I3
tp1826
g14
(S'f8'
p1827
I0
I1
tp1828
Rp1829
(I3
S'<'
p1830
NNNI-1
I-1
I0
tp1831
bI00
S"\xc6\xb9\xcf`\x12\xb5P@?FV\xdcc\xbfI\xc0\xc2u\x86\x1c\x00\x10'\xc0"
p1832
tp1833
bsS'secnames'
p1834
S'Cell[0].axon[0]'
p1835
sI34
I77
tp1836
a(F2.329054555936194
S'Cell[3].dend[24] syn_ = new FastInhib(0.5)'
p1837
I3
(dp1838
g1819
F0.8333333333333333
sg1820
F34.0
sg1821
I82
sg1822
g7
(g8
(I0
tp1839
g10
tp1840
Rp1841
(I1
(I3
tp1842
g1829
I00
S'w\xa0\x82e:&@\xc0\xc7\x053V\xa1\xffc\xc0\x00\x00\x00`ff*\xc0'
p1843
tp1844
bsg1834
S'Cell[1].axon[271]'
p1845
sI82
I173
tp1846
a(F1.7106650002223616
S'Cell[3].dend[32] syn_ = new FastInhib(0.5)'
p1847
I3
(dp1848
S'seg'
p1849
F0.5
sS'hostfrom'
p1850
F35.0
sS'gid'
p1851
I83
sS'coords'
p1852
g7
(g8
(I0
tp1853
g10
tp1854
Rp1855
(I1
(I3
tp1856
g14
(S'f8'
p1857
I0
I1
tp1858
Rp1859
(I3
S'<'
p1860
NNNI-1
I-1
I0
tp1861
bI00
S'7\xd6X\xfe\xe8\x9f"\xc0\xb2\xc0\xee\xd6\xb8i@\xc0\xe0%\x06&\x06\xeb\x14@'
p1862
tp1863
bsS'secnames'
p1864
S'Cell[1].axon[3]'
p1865
sI83
I173
tp1866
a(F1.698519111834913
S'Cell[0].dend[15] syn_ = new ExpSid(0.3)'
p1867
I0
(dp1868
g1849
F0.16666666666666666
sg1850
F35.0
sg1851
I83
sg1852
g7
(g8
(I0
tp1869
g10
tp1870
Rp1871
(I1
(I3
tp1872
g1859
I00
S'HR\x9c\xea\xf2@:@\x81\xbb\xb8\xd5k2M\xc0A\x9c\xc5B9h\xf1?'
p1873
tp1874
bsg1864
S'Cell[1].axon[51]'
p1875
sI83
I29
tp1876
a(F2.385214721454038
S'Cell[2].dend[2] syn_ = new FastInhib(0.3)'
p1877
I2
(dp1878
g1849
F0.8333333333333333
sg1850
F35.0
sg1851
I83
sg1852
g7
(g8
(I0
tp1879
g10
tp1880
Rp1881
(I1
(I3
tp1882
g1859
I00
S'(\x1b\xa2\x16P~R@\x94\x1f\xdb*\x8e\xdeM\xc0}\x8d4\x17Ms0\xc0'
p1883
tp1884
bsg1864
S'Cell[1].axon[164]'
p1885
sI83
I125
tp1886
a(F2.4756744094474814
S'Cell[3].dend[62] syn_ = new FastInhib(0.5)'
p1887
I3
(dp1888
g1849
F0.5
sg1850
F35.0
sg1851
I83
sg1852
g7
(g8
(I0
tp1889
g10
tp1890
Rp1891
(I1
(I3
tp1892
g1859
I00
S'X-\xe6\x95X\x02\x14@\x94H\x9dK\xc0\xcdM\xc0\xc5\xab\xfa\xa3D\xbd6@'
p1893
tp1894
bsg1864
S'Cell[1].axon[194]'
p1895
sI83
I173
tp1896
a(F1.8131132801740333
S'Cell[3].dend[11] syn_ = new FastInhib(0.642857142857)'
p1897
I3
(dp1898
g1849
F0.07142857142857142
sg1850
F35.0
sg1851
I83
sg1852
g7
(g8
(I0
tp1899
g10
tp1900
Rp1901
(I1
(I3
tp1902
g1859
I00
S'\xa6\x17iK\xaf\x86E\xc0\x08\x16]z\nV\\\xc0+\x80\xd4\x020\x7fR\xc0'
p1903
tp1904
bsg1864
S'Cell[1].axon[244]'
p1905
sI83
I173
tp1906
a(F1.5489771479702619
S'Cell[2].dend[8] syn_ = new FastInhib(0.214285714286)'
p1907
I2
(dp1908
g1849
F0.5
sg1850
F35.0
sg1851
I35
sg1852
g7
(g8
(I0
tp1909
g10
tp1910
Rp1911
(I1
(I3
tp1912
g1859
I00
S'5\xef/]\xa9[\x11\xc0>\x0f\x04\xfc\x11\xd5I\xc0\xae\x8e,\xb2`M\x1c@'
p1913
tp1914
bsg1864
S'Cell[0].axon[10]'
p1915
sI35
I125
tp1916
a(F2.3628268795687988
S'Cell[0].apic[57] syn_ = new ExpSid(0.5)'
p1917
I0
(dp1918
g1849
F0.7
sg1850
F35.0
sg1851
I179
sg1852
g7
(g8
(I0
tp1919
g10
tp1920
Rp1921
(I1
(I3
tp1922
g1859
I00
S'\x825\x81y\xfc\xb6\x17\xc0\x9a7XV!%.@n\xbau\x11_\xba\x1c@'
p1923
tp1924
bsg1864
S'Cell[3].axon[33]'
p1925
sI179
I29
tp1926
a(F2.3301178139802112
S'Cell[2].dend[27] syn_ = new FastInhib(0.5)'
p1927
I2
(dp1928
g1849
F0.5
sg1850
F35.0
sg1851
I179
sg1852
g7
(g8
(I0
tp1929
g10
tp1930
Rp1931
(I1
(I3
tp1932
g1859
I00
S'\x9a\xd3\x15/\x0b\xc6X@\xb4\x7f\xaa\x85\x8f9`@\x00\x00\x00\xa0\x99\x997\xc0'
p1933
tp1934
bsg1864
S'Cell[3].axon[59]'
p1935
sI179
I125
tp1936
a(F2.0149852358140596
S'Cell[0].dend[22] syn_ = new AmpaNmda(0.5)'
p1937
I0
(dp1938
S'seg'
p1939
F0.8333333333333333
sS'hostfrom'
p1940
F36.0
sS'gid'
p1941
I84
sS'coords'
p1942
g7
(g8
(I0
tp1943
g10
tp1944
Rp1945
(I1
(I3
tp1946
g14
(S'f8'
p1947
I0
I1
tp1948
Rp1949
(I3
S'<'
p1950
NNNI-1
I-1
I0
tp1951
bI00
S'\xbe\xf4\x8c/\x04\x16M@\xe4(\x8c\xc7\xb89.@p\x9b\x9ch\x15\xfe\x16\xc0'
p1952
tp1953
bsS'secnames'
p1954
S'Cell[1].axon[283]'
p1955
sI84
I29
tp1956
a(F1.0542344286154748
S'Cell[2].dend[36] syn_ = new FastInhib(0.833333333333)'
p1957
I2
(dp1958
g1939
F0.7
sg1940
F36.0
sg1941
I84
sg1942
g7
(g8
(I0
tp1959
g10
tp1960
Rp1961
(I1
(I3
tp1962
g1949
I00
S'An!\xba\xaa\x99(@\xf2\xe04\xca\x9e\x93a@0^\xf4\xfa3\x9d)@'
p1963
tp1964
bsg1954
S'Cell[1].axon[406]'
p1965
sI84
I125
tp1966
a(F2.2841161242122388
S'Cell[1].dend[10] syn_ = new AmpaNmda(0.7)'
p1967
I1
(dp1968
g1939
F0.16666666666666666
sg1940
F36.0
sg1941
I84
sg1942
g7
(g8
(I0
tp1969
g10
tp1970
Rp1971
(I1
(I3
tp1972
g1949
I00
S'\x84\x01$p5\xee\x19\xc0\xcb\x13RRTw@@+\xdb\xfeu\nhE\xc0'
p1973
tp1974
bsg1954
S'Cell[1].axon[602]'
p1975
sI84
I77
tp1976
a(F1.5073147306259096
S'Cell[3].dend[87] syn_ = new FastInhib(0.166666666667)'
p1977
I3
(dp1978
g1939
F0.5
sg1940
F36.0
sg1941
I132
sg1942
g7
(g8
(I0
tp1979
g10
tp1980
Rp1981
(I1
(I3
tp1982
g1949
I00
S'\xf4\x9e9\xc3\xbd6\x10\xc0\xf6\xbc\xbe\x96\xb4!R@e\xa8\xe5\xb6NW!\xc0'
p1983
tp1984
bsg1954
S'Cell[2].axon[27]'
p1985
sI132
I173
tp1986
a(F1.0708150078237555
S'Cell[3].dend[72] syn_ = new FastInhib(0.166666666667)'
p1987
I3
(dp1988
g1939
F0.8333333333333333
sg1940
F36.0
sg1941
I132
sg1942
g7
(g8
(I0
tp1989
g10
tp1990
Rp1991
(I1
(I3
tp1992
g1949
I00
S'\x98\xb5\xf1\x9e-\xd0#@\x0e\x1b;J\xf6\xeb@@%\x98\xfb\xe2A\x95\xe9\xbf'
p1993
tp1994
bsg1954
S'Cell[2].axon[69]'
p1995
sI132
I173
tp1996
a(F1.9911909945402244
S'Cell[0].apic[34] syn_ = new AmpaNmda(0.166666666667)'
p1997
I0
(dp1998
g1939
F0.16666666666666666
sg1940
F36.0
sg1941
I132
sg1942
g7
(g8
(I0
tp1999
g10
tp2000
Rp2001
(I1
(I3
tp2002
g1949
I00
S'\xaa\x91&\x06S \x18@\x10\x0c\x95z\x08\xbac@\xce\x92\x98\x8f\x96#\x12@'
p2003
tp2004
bsg1954
S'Cell[2].axon[91]'
p2005
sI132
I29
tp2006
a(F1.2490921047091896
S'Cell[1].apic[36] syn_ = new AmpaNmda(0.166666666667)'
p2007
I1
(dp2008
g1939
F0.16666666666666666
sg1940
F36.0
sg1941
I132
sg1942
g7
(g8
(I0
tp2009
g10
tp2010
Rp2011
(I1
(I3
tp2012
g1949
I00
S'36\xb5\xa0\xd9\xd7\x1d@X\xf6\xa4\x08\x82\xe1P@\x86x\x92F\xb1W;\xc0'
p2013
tp2014
bsg1954
S'Cell[2].axon[143]'
p2015
sI132
I77
tp2016
a(F1.0907535389184408
S'Cell[3].dend[72] syn_ = new FastInhib(0.833333333333)'
p2017
I3
(dp2018
g1939
F0.5
sg1940
F36.0
sg1941
I132
sg1942
g7
(g8
(I0
tp2019
g10
tp2020
Rp2021
(I1
(I3
tp2022
g1949
I00
S'\xfa\x1f\x00\xe2\x8b\x80G@8\x81\xed\x1d\xf1sI@\x00\x00\x00\x00\x00\x00\x00@'
p2023
tp2024
bsg1954
S'Cell[2].axon[151]'
p2025
sI132
I173
tp2026
a(F1.8643545488017625
S'Cell[1].dend[14] syn_ = new AmpaNmda(0.5)'
p2027
I1
(dp2028
g1939
F0.16666666666666666
sg1940
F36.0
sg1941
I180
sg1942
g7
(g8
(I0
tp2029
g10
tp2030
Rp2031
(I1
(I3
tp2032
g1949
I00
S'\x98\xc9\x7f\xf3+\x00B\xc0\xe3\xdbs\x900\xd4=\xc0\x90\xaf\xfb\xb0z\x101\xc0'
p2033
tp2034
bsg1954
S'Cell[3].axon[68]'
p2035
sI180
I77
tp2036
a(F1.8421469649827478
S'Cell[0].apic[29] syn_ = new AmpaNmda(0.5)'
p2037
I0
(dp2038
g1939
F0.5
sg1940
F36.0
sg1941
I180
sg1942
g7
(g8
(I0
tp2039
g10
tp2040
Rp2041
(I1
(I3
tp2042
g1949
I00
S'\xbd\\uS\xefO$\xc0\x95\x01M\xde\xf8\x1aW@\x00\x00\x00@\xe1\xfa-\xc0'
p2043
tp2044
bsg1954
S'Cell[3].axon[167]'
p2045
sI180
I29
tp2046
a(F0.7442237668061991
S'Cell[0].dend[21] syn_ = new ExpSid(0.166666666667)'
p2047
I0
(dp2048
S'seg'
p2049
F0.1
sS'hostfrom'
p2050
F37.0
sS'gid'
p2051
I133
sS'coords'
p2052
g7
(g8
(I0
tp2053
g10
tp2054
Rp2055
(I1
(I3
tp2056
g14
(S'f8'
p2057
I0
I1
tp2058
Rp2059
(I3
S'<'
p2060
NNNI-1
I-1
I0
tp2061
bI00
S' I\xbcA`l\x13\xc0\x1a\x02=\xcc\x97cD\xc0\n\xdb\xe4ER3\x12\xc0'
p2062
tp2063
bsS'secnames'
p2064
S'Cell[2].axon[119]'
p2065
sI133
I29
tp2066
a(F2.44773745861052
S'Cell[0].apic[44] syn_ = new ExpSid(0.5)'
p2067
I0
(dp2068
g2049
F0.5
sg2050
F37.0
sg2051
I181
sg2052
g7
(g8
(I0
tp2069
g10
tp2070
Rp2071
(I1
(I3
tp2072
g2059
I00
S'd\x96C\x02N}!\xc0X-\x7f\xf1\x8f\xb6m@73\xf7$?\xebY\xc0'
p2073
tp2074
bsg2064
S'Cell[3].axon[84]'
p2075
sI181
I29
tp2076
a(F2.127250092289728
S'Cell[0].apic[16] syn_ = new ExpSid(0.166666666667)'
p2077
I0
(dp2078
g2049
F0.8999999999999999
sg2050
F37.0
sg2051
I181
sg2052
g7
(g8
(I0
tp2079
g10
tp2080
Rp2081
(I1
(I3
tp2082
g2059
I00
S'\xbcC\xf3F\x85\x1d2@\x9c\xa9\x8bx!\x03.@\x00\x00\x00`\xb8\x1e\xd5?'
p2083
tp2084
bsg2064
S'Cell[3].axon[155]'
p2085
sI181
I29
tp2086
a(F2.2279674358464074
S'Cell[2].dend[37] syn_ = new FastInhib(0.1)'
p2087
I2
(dp2088
g2049
F0.5
sg2050
F37.0
sg2051
I181
sg2052
g7
(g8
(I0
tp2089
g10
tp2090
Rp2091
(I1
(I3
tp2092
g2059
I00
S'\xd9S\x0e\xcd\xa7ZD@\xe9\xa1\x9b\x90\xe3mT@\x00\x00\x00`\xb8\x1e\xd5?'
p2093
tp2094
bsg2064
S'Cell[3].axon[164]'
p2095
sI181
I125
tp2096
a(F2.2025960991151656
S'Cell[0].apic[16] syn_ = new ExpSid(0.166666666667)'
p2097
I0
(dp2098
g2049
F0.8999999999999999
sg2050
F37.0
sg2051
I181
sg2052
g7
(g8
(I0
tp2099
g10
tp2100
Rp2101
(I1
(I3
tp2102
g2059
I00
S'O8\xc9\xe1\xa4s3@\xfc\x99\xdb\nf\xde*@\x00\x00\x00`\xb8\x1e\xd5?'
p2103
tp2104
bsg2064
S'Cell[3].axon[165]'
p2105
sI181
I29
tp2106
a(F2.4243701733322522
S'Cell[3].dend[80] syn_ = new FastInhib(0.833333333333)'
p2107
I3
(dp2108
g2049
F0.16666666666666666
sg2050
F37.0
sg2051
I181
sg2052
g7
(g8
(I0
tp2109
g10
tp2110
Rp2111
(I1
(I3
tp2112
g2059
I00
S'\xf0^\xb9A\x05\x97A@B\x03\x84\xd7\xdd\xf5O@4G/\x1e;\x8f\x16@'
p2113
tp2114
bsg2064
S'Cell[3].axon[203]'
p2115
sI181
I173
tp2116
a(F2.3562510301454473
S'Cell[0].dend[6] syn_ = new ExpSid(0.5)'
p2117
I0
(dp2118
g2049
F0.5
sg2050
F37.0
sg2051
I37
sg2052
g7
(g8
(I0
tp2119
g10
tp2120
Rp2121
(I1
(I3
tp2122
g2059
I00
S'\xef\xc3S\xc3\xfa\xbaX\xc0\xaes\x06\xd5\x16\x05!@\x86\xf7m#@U2\xc0'
p2123
tp2124
bsg2064
S'Cell[0].axon[9]'
p2125
sI37
I29
tp2126
a(F1.5889241507559098
S'Cell[0].apic[33] syn_ = new ExpSid(0.5)'
p2127
I0
(dp2128
g2049
F0.16666666666666666
sg2050
F37.0
sg2051
I85
sg2052
g7
(g8
(I0
tp2129
g10
tp2130
Rp2131
(I1
(I3
tp2132
g2059
I00
S'.;\x15\xfaw\xc1\x17@Rv\xfe]W\xd5d@\xf8)\x9d|\xfe\x1a8@'
p2133
tp2134
bsg2064
S'Cell[1].axon[217]'
p2135
sI85
I29
tp2136
a(F2.4418753532013837
S'Cell[0].apic[26] syn_ = new ExpSid(0.5)'
p2137
I0
(dp2138
g2049
F0.49999999999999994
sg2050
F37.0
sg2051
I85
sg2052
g7
(g8
(I0
tp2139
g10
tp2140
Rp2141
(I1
(I3
tp2142
g2059
I00
S"*\x95}FIv3\xc0\xfc\x81\x0emE'I@JU\xc5\xdc\x85$%\xc0"
p2143
tp2144
bsg2064
S'Cell[1].axon[229]'
p2145
sI85
I29
tp2146
a(F2.359700574194193
S'Cell[1].dend[15] syn_ = new ExpSid(0.5)'
p2147
I1
(dp2148
g2049
F0.07142857142857142
sg2050
F37.0
sg2051
I85
sg2052
g7
(g8
(I0
tp2149
g10
tp2150
Rp2151
(I1
(I3
tp2152
g2059
I00
S'\xeb\xa4\xeb\xaa\x9a\xf81\xc0\xe7R\xaa/"6\x1b\xc0\xa9\xc8q\x08\x9d\xbc\xe7\xbf'
p2153
tp2154
bsg2064
S'Cell[1].axon[230]'
p2155
sI85
I77
tp2156
a(F2.1495775924954756
S'Cell[0].apic[58] syn_ = new AmpaNmda(0.5)'
p2157
I0
(dp2158
S'seg'
p2159
F0.5
sS'hostfrom'
p2160
F38.0
sS'gid'
p2161
I182
sS'coords'
p2162
g7
(g8
(I0
tp2163
g10
tp2164
Rp2165
(I1
(I3
tp2166
g14
(S'f8'
p2167
I0
I1
tp2168
Rp2169
(I3
S'<'
p2170
NNNI-1
I-1
I0
tp2171
bI00
S'\x00\x00\x00\xb0\x1e\x85%@\x00\x00\x00\xc0\xf5\xe84@\x00\x00\x00\xa0p=\x1a@'
p2172
tp2173
bsS'secnames'
p2174
S'Cell[3].soma[0]'
p2175
sI182
I29
tp2176
a(F1.9154347656587338
S'Cell[0].apic[23] syn_ = new AmpaNmda(0.3)'
p2177
I0
(dp2178
g2159
F0.8333333333333333
sg2160
F38.0
sg2161
I182
sg2162
g7
(g8
(I0
tp2179
g10
tp2180
Rp2181
(I1
(I3
tp2182
g2169
I00
S'\x94\xbb8\x9d\xfd\x99G\xc0\x0e\xf1dd\xc9KC@\xa6"\x92J\x94FP\xc0'
p2183
tp2184
bsg2174
S'Cell[3].axon[126]'
p2185
sI182
I29
tp2186
a(F0.8040433698394838
S'Cell[3].dend[74] syn_ = new FastInhib(0.5)'
p2187
I3
(dp2188
g2159
F0.5
sg2160
F38.0
sg2161
I182
sg2162
g7
(g8
(I0
tp2189
g10
tp2190
Rp2191
(I1
(I3
tp2192
g2169
I00
S'\x15\xe6\x83\xbb\xc44Q@tLG\x89%\x0cN@\xecW\xf3\xa4C\x0f\x16\xc0'
p2193
tp2194
bsg2174
S'Cell[3].axon[278]'
p2195
sI182
I173
tp2196
a(F1.8076300394094098
S'Cell[1].dend[11] syn_ = new AmpaNmda(0.833333333333)'
p2197
I1
(dp2198
g2159
F0.5
sg2160
F38.0
sg2161
I86
sg2162
g7
(g8
(I0
tp2199
g10
tp2200
Rp2201
(I1
(I3
tp2202
g2169
I00
S'\x00\x00\x00\xd0\xccL0@\x01\x00\x00\xe0Q8*@\x00\x00\x00 \\\x8f\x08\xc0'
p2203
tp2204
bsg2174
S'Cell[1].soma[0]'
p2205
sI86
I77
tp2206
a(F1.973955618932967
S'Cell[3].dend[40] syn_ = new FastInhib(0.9)'
p2207
I3
(dp2208
g2159
F0.5
sg2160
F38.0
sg2161
I86
sg2162
g7
(g8
(I0
tp2209
g10
tp2210
Rp2211
(I1
(I3
tp2212
g2169
I00
S'\x08\xc63\xb2\x1ba]@fj\xff\x86]\x91S\xc0A\x89Y\x14\xb6\x19H\xc0'
p2213
tp2214
bsg2174
S'Cell[1].axon[201]'
p2215
sI86
I173
tp2216
a(F2.037742655201397
S'Cell[1].dend[27] syn_ = new AmpaNmda(0.3)'
p2217
I1
(dp2218
g2159
F0.16666666666666666
sg2160
F38.0
sg2161
I38
sg2162
g7
(g8
(I0
tp2219
g10
tp2220
Rp2221
(I1
(I3
tp2222
g2169
I00
S'V\x1f\xe0c\xdfCG@\xe8\xa4\xb2\xc5{dO\xc0d\xa5l\xfel\x04\x19\xc0'
p2223
tp2224
bsg2174
S'Cell[0].axon[35]'
p2225
sI38
I77
tp2226
a(F1.4287224751464185
S'Cell[0].apic[11] syn_ = new ExpSid(0.3)'
p2227
I0
(dp2228
S'seg'
p2229
F0.16666666666666666
sS'hostfrom'
p2230
F39.0
sS'gid'
p2231
I87
sS'coords'
p2232
g7
(g8
(I0
tp2233
g10
tp2234
Rp2235
(I1
(I3
tp2236
g14
(S'f8'
p2237
I0
I1
tp2238
Rp2239
(I3
S'<'
p2240
NNNI-1
I-1
I0
tp2241
bI00
S"x_\xba\xd5\x08>9@\xac\xa9CD'j\n\xc0\xc9\xe2\xa06`\x96H\xc0"
p2242
tp2243
bsS'secnames'
p2244
S'Cell[1].axon[54]'
p2245
sI87
I29
tp2246
a(F0.9280910812698191
S'Cell[0].dend[12] syn_ = new ExpSid(0.5)'
p2247
I0
(dp2248
g2229
F0.5
sg2230
F39.0
sg2231
I87
sg2232
g7
(g8
(I0
tp2249
g10
tp2250
Rp2251
(I1
(I3
tp2252
g2239
I00
S'\xf3\x18] \xbc(D@+k` \x084P\xc0\t\xc0J\xe3\xeb\xaaB\xc0'
p2253
tp2254
bsg2244
S'Cell[1].axon[72]'
p2255
sI87
I29
tp2256
a(F1.4496497068844705
S'Cell[0].apic[16] syn_ = new ExpSid(0.5)'
p2257
I0
(dp2258
g2229
F0.5
sg2230
F39.0
sg2231
I87
sg2232
g7
(g8
(I0
tp2259
g10
tp2260
Rp2261
(I1
(I3
tp2262
g2239
I00
S'@\xc7\xc2R{jE@\xe0.\x96\xac,I6@\x82\xb0\xe1\xbb\xfa\xb8\x16@'
p2263
tp2264
bsg2244
S'Cell[1].axon[82]'
p2265
sI87
I29
tp2266
a(F2.363621922151215
S'Cell[3].dend[40] syn_ = new FastInhib(0.1)'
p2267
I3
(dp2268
g2229
F0.5
sg2230
F39.0
sg2231
I87
sg2232
g7
(g8
(I0
tp2269
g10
tp2270
Rp2271
(I1
(I3
tp2272
g2239
I00
S'\x85\x1c}\xdc\x95;<@N|z\xeb\x0b\x99Q\xc0I\r\xf5QE\xab-\xc0'
p2273
tp2274
bsg2244
S'Cell[1].axon[146]'
p2275
sI87
I173
tp2276
a(F2.42555862393882
S'Cell[3].dend[16] syn_ = new FastInhib(0.833333333333)'
p2277
I3
(dp2278
g2229
F0.8333333333333333
sg2230
F39.0
sg2231
I87
sg2232
g7
(g8
(I0
tp2279
g10
tp2280
Rp2281
(I1
(I3
tp2282
g2239
I00
S'\x00\xc2\xea\xe5n\xbe:@6\xc1\x98\x82{\xaeV\xc0\x94\xa2O$)2H\xc0'
p2283
tp2284
bsg2244
S'Cell[1].axon[147]'
p2285
sI87
I173
tp2286
a(F2.0986360786284064
S'Cell[2].dend[18] syn_ = new FastInhib(0.1)'
p2287
I2
(dp2288
g2229
F0.8333333333333333
sg2230
F39.0
sg2231
I87
sg2232
g7
(g8
(I0
tp2289
g10
tp2290
Rp2291
(I1
(I3
tp2292
g2239
I00
S'\xa8\x1a\xf0J\xa5"6@\x08Z%\x18?\xf2R\xc0B\xdb#\x9f\xf4\x12\n\xc0'
p2293
tp2294
bsg2244
S'Cell[1].axon[160]'
p2295
sI87
I125
tp2296
a(F2.065862530426924
S'Cell[1].apic[30] syn_ = new ExpSid(0.5)'
p2297
I1
(dp2298
g2229
F0.5
sg2230
F39.0
sg2231
I183
sg2232
g7
(g8
(I0
tp2299
g10
tp2300
Rp2301
(I1
(I3
tp2302
g2239
I00
S'\x00\x00\x00\xe0z\xf4O@\x00\x00\x00`fNV@\x00\x00\x00p=\n1@'
p2303
tp2304
bsg2244
S'Cell[3].axon[23]'
p2305
sI183
I77
tp2306
a(F2.1940545852063713
S'Cell[3].dend[80] syn_ = new FastInhib(0.166666666667)'
p2307
I3
(dp2308
g2229
F0.16666666666666666
sg2230
F39.0
sg2231
I183
sg2232
g7
(g8
(I0
tp2309
g10
tp2310
Rp2311
(I1
(I3
tp2312
g2239
I00
S'\x0cR\xc9\xdb*W\x16@\xea\xf9p`[TE@\x0f\x81\xe5z\xf3\xb5\x11\xc0'
p2313
tp2314
bsg2244
S'Cell[3].axon[32]'
p2315
sI183
I173
tp2316
a(F2.105410614380109
S'Cell[0].apic[16] syn_ = new ExpSid(0.833333333333)'
p2317
I0
(dp2318
g2229
F0.7
sg2230
F39.0
sg2231
I183
sg2232
g7
(g8
(I0
tp2319
g10
tp2320
Rp2321
(I1
(I3
tp2322
g2239
I00
S'd\x85\x0c\x9e\xa4\xf2P@\xc9pI\xec\xaaV:@\x8b\xdb6)S\xd5"@'
p2323
tp2324
bsg2244
S'Cell[3].axon[61]'
p2325
sI183
I29
tp2326
a(F2.2958733158047018
S'Cell[2].dend[37] syn_ = new FastInhib(0.5)'
p2327
I2
(dp2328
g2229
F0.5
sg2230
F39.0
sg2231
I183
sg2232
g7
(g8
(I0
tp2329
g10
tp2330
Rp2331
(I1
(I3
tp2332
g2239
I00
S'\x00\x00\x00@\nWT@\x00\x00\x00@\n\x9fb@\xf0\t\xad\xffi*\x0c@'
p2333
tp2334
bsg2244
S'Cell[3].axon[75]'
p2335
sI183
I125
tp2336
a(F1.9476022263795565
S'Cell[2].dend[12] syn_ = new FastInhib(0.166666666667)'
p2337
I2
(dp2338
g2229
F0.5
sg2230
F39.0
sg2231
I39
sg2232
g7
(g8
(I0
tp2339
g10
tp2340
Rp2341
(I1
(I3
tp2342
g2239
I00
S' \\\xa8\nX\x9d6@p\x06\x1d\x0b/\x80W\xc0\x81;-b\xdbtS\xc0'
p2343
tp2344
bsg2244
S'Cell[0].axon[8]'
p2345
sI39
I125
tp2346
a(F2.4361340423852273
S'Cell[2].dend[17] syn_ = new FastInhib(0.3)'
p2347
I2
(dp2348
S'seg'
p2349
F0.5
sS'hostfrom'
p2350
F40.0
sS'gid'
p2351
I40
sS'coords'
p2352
g7
(g8
(I0
tp2353
g10
tp2354
Rp2355
(I1
(I3
tp2356
g14
(S'f8'
p2357
I0
I1
tp2358
Rp2359
(I3
S'<'
p2360
NNNI-1
I-1
I0
tp2361
bI00
S';\xec\xab\x7f\xded\xf7?H\x8c.z\xa8OR\xc0\x98\xddF\xb6z\xd6@\xc0'
p2362
tp2363
bsS'secnames'
p2364
S'Cell[0].axon[23]'
p2365
sI40
I125
tp2366
a(F2.4042638327429646
S'Cell[1].dend[14] syn_ = new AmpaNmda(0.5)'
p2367
I1
(dp2368
g2349
F0.16666666666666666
sg2350
F40.0
sg2351
I88
sg2352
g7
(g8
(I0
tp2369
g10
tp2370
Rp2371
(I1
(I3
tp2372
g2359
I00
S'\x16\xc3\xf7m\x1c}C\xc0t\xd9\xadqc<?\xc0\x8c2\xfb\xed\xb6-3\xc0'
p2373
tp2374
bsg2364
S'Cell[1].axon[76]'
p2375
sI88
I77
tp2376
a(F2.2524732951606223
S'Cell[1].dend[13] syn_ = new AmpaNmda(0.166666666667)'
p2377
I1
(dp2378
g2349
F0.8333333333333333
sg2350
F40.0
sg2351
I136
sg2352
g7
(g8
(I0
tp2379
g10
tp2380
Rp2381
(I1
(I3
tp2382
g2359
I00
S'\xa4?I\xe8\xc8\xc9A\xc0\xcd\xd2o\x813\x1cE\xc0q\xd9-\xe9{=<\xc0'
p2383
tp2384
bsg2364
S'Cell[2].axon[97]'
p2385
sI136
I77
tp2386
a(F1.0984210230206486
S'Cell[1].dend[15] syn_ = new AmpaNmda(0.166666666667)'
p2387
I1
(dp2388
g2349
F0.5
sg2350
F40.0
sg2351
I184
sg2352
g7
(g8
(I0
tp2389
g10
tp2390
Rp2391
(I1
(I3
tp2392
g2359
I00
S'\xee\x1a\rh-l\xea?\n\x91\\\xaeV\xce\t@\x00\x00\x00\xc0\x1e\x85\x03\xc0'
p2393
tp2394
bsg2364
S'Cell[3].axon[62]'
p2395
sI184
I77
tp2396
a(F1.7238044871411866
S'Cell[0].apic[18] syn_ = new ExpSid(0.5)'
p2397
I0
(dp2398
S'seg'
p2399
F0.5
sS'hostfrom'
p2400
F41.0
sS'gid'
p2401
I185
sS'coords'
p2402
g7
(g8
(I0
tp2403
g10
tp2404
Rp2405
(I1
(I3
tp2406
g14
(S'f8'
p2407
I0
I1
tp2408
Rp2409
(I3
S'<'
p2410
NNNI-1
I-1
I0
tp2411
bI00
S'\xef}\xc4\x01O\x0e-\xc0\xd9\xfc\x9a\xce\xa6\xa2\x11@\x8a\xb0\xd3N\x18\xfa%\xc0'
p2412
tp2413
bsS'secnames'
p2414
S'Cell[3].axon[88]'
p2415
sI185
I29
tp2416
a(F1.3811834464120696
S'Cell[1].apic[34] syn_ = new ExpSid(0.5)'
p2417
I1
(dp2418
g2399
F0.8333333333333333
sg2400
F41.0
sg2401
I185
sg2402
g7
(g8
(I0
tp2419
g10
tp2420
Rp2421
(I1
(I3
tp2422
g2409
I00
S'*\x00]\xb1:\x86C@F\n\xe9=\xda\xa0P@\x00\x00\x00 \x85\xeb#\xc0'
p2423
tp2424
bsg2414
S'Cell[3].axon[217]'
p2425
sI185
I77
tp2426
a(F1.180542545733261
S'Cell[0].apic[45] syn_ = new ExpSid(0.5)'
p2427
I0
(dp2428
g2399
F0.9285714285714284
sg2400
F41.0
sg2401
I89
sg2402
g7
(g8
(I0
tp2429
g10
tp2430
Rp2431
(I1
(I3
tp2432
g2409
I00
S'#\x00\x8a\xf1\xd9n!@ wm\x82\xdfDn@\xf8k\xb0U\xb9\x0bV\xc0'
p2433
tp2434
bsg2414
S'Cell[1].axon[37]'
p2435
sI89
I29
tp2436
a(F2.4477202440186634
S'Cell[3].dend[9] syn_ = new FastInhib(0.214285714286)'
p2437
I3
(dp2438
g2399
F0.7
sg2400
F41.0
sg2401
I89
sg2402
g7
(g8
(I0
tp2439
g10
tp2440
Rp2441
(I1
(I3
tp2442
g2409
I00
S'\x9a\x1a}Y\x8c\xdcE\xc0\x10\x1c}*\xb6EI\xc0\x84\xfaHfL\x9f8\xc0'
p2443
tp2444
bsg2414
S'Cell[1].axon[103]'
p2445
sI89
I173
tp2446
a(F1.6351459073952324
S'Cell[3].dend[76] syn_ = new FastInhib(0.3)'
p2447
I3
(dp2448
g2399
F0.8333333333333333
sg2400
F41.0
sg2401
I89
sg2402
g7
(g8
(I0
tp2449
g10
tp2450
Rp2451
(I1
(I3
tp2452
g2409
I00
S"y\x04\x98\xfd\xa6^Z@\x86h'\x84\xd9\x1bS@\xe0J\x06\x05\x84\x8f\xe9?"
p2453
tp2454
bsg2414
S'Cell[1].axon[169]'
p2455
sI89
I173
tp2456
a(F1.853590151858035
S'Cell[3].dend[15] syn_ = new FastInhib(0.5)'
p2457
I3
(dp2458
g2399
F0.5
sg2400
F41.0
sg2401
I89
sg2402
g7
(g8
(I0
tp2459
g10
tp2460
Rp2461
(I1
(I3
tp2462
g2409
I00
S'@\xc9j\xfe\xfa\xcd\x17\xc0\x7f\x81\xbas\xd6XT\xc0\x85\xe8E\x9a\\t$\xc0'
p2463
tp2464
bsg2414
S'Cell[1].axon[175]'
p2465
sI89
I173
tp2466
a(F2.0463705707187843
S'Cell[3].dend[46] syn_ = new FastInhib(0.166666666667)'
p2467
I3
(dp2468
S'seg'
p2469
F0.8333333333333333
sS'hostfrom'
p2470
F42.0
sS'gid'
p2471
I90
sS'coords'
p2472
g7
(g8
(I0
tp2473
g10
tp2474
Rp2475
(I1
(I3
tp2476
g14
(S'f8'
p2477
I0
I1
tp2478
Rp2479
(I3
S'<'
p2480
NNNI-1
I-1
I0
tp2481
bI00
S'\xdd\xc9\x8ei\xed\x1c0\xc0\xdf\xa0II\xca\xe7K\xc0X\x92\x8d\x83tf\xf7?'
p2482
tp2483
bsS'secnames'
p2484
S'Cell[1].axon[23]'
p2485
sI90
I173
tp2486
a(F2.319045769027433
S'Cell[2].dend[22] syn_ = new FastInhib(0.166666666667)'
p2487
I2
(dp2488
g2469
F0.5
sg2470
F42.0
sg2471
I90
sg2472
g7
(g8
(I0
tp2489
g10
tp2490
Rp2491
(I1
(I3
tp2492
g2479
I00
S'\x00\x00\x00p\x8f\x02.@\x00\x00\x00\xb0p\rL\xc0\x00\x00\x00@3\xf30@'
p2493
tp2494
bsg2484
S'Cell[1].axon[129]'
p2495
sI90
I125
tp2496
a(F2.4242279268887392
S'Cell[3].dend[37] syn_ = new FastInhib(0.5)'
p2497
I3
(dp2498
g2469
F0.7
sg2470
F42.0
sg2471
I90
sg2472
g7
(g8
(I0
tp2499
g10
tp2500
Rp2501
(I1
(I3
tp2502
g2479
I00
S'%\xee\xe1<\x0f\x062@\xf8\x8c\x1e\xdd$\x1eW\xc0\xb4a\x84\xf2\xbc>>\xc0'
p2503
tp2504
bsg2484
S'Cell[1].axon[131]'
p2505
sI90
I173
tp2506
a(F1.7259439897512094
S'Cell[3].dend[62] syn_ = new FastInhib(0.5)'
p2507
I3
(dp2508
g2469
F0.30000000000000004
sg2470
F42.0
sg2471
I90
sg2472
g7
(g8
(I0
tp2509
g10
tp2510
Rp2511
(I1
(I3
tp2512
g2479
I00
S'\xb8\xd6k\xc8\x93\x9d\x1c@:\xfd\xf3\xfc\xfa\x8cN\xc0\xbd\th\xb14\x137@'
p2513
tp2514
bsg2484
S'Cell[1].axon[147]'
p2515
sI90
I173
tp2516
a(F2.184925159956537
S'Cell[0].dend[18] syn_ = new AmpaNmda(0.5)'
p2517
I0
(dp2518
g2469
F0.8333333333333333
sg2470
F42.0
sg2471
I138
sg2472
g7
(g8
(I0
tp2519
g10
tp2520
Rp2521
(I1
(I3
tp2522
g2479
I00
S'\xad\x04/R\x1b\x130@{\xdd\x9e\xca\x18:*\xc0\x7f+\xbfT\xa3\x17F\xc0'
p2523
tp2524
bsg2484
S'Cell[2].axon[74]'
p2525
sI138
I29
tp2526
a(F2.213486519765526
S'Cell[2].dend[8] syn_ = new FastInhib(0.214285714286)'
p2527
I2
(dp2528
g2469
F0.5
sg2470
F42.0
sg2471
I186
sg2472
g7
(g8
(I0
tp2529
g10
tp2530
Rp2531
(I1
(I3
tp2532
g2479
I00
S'~\x0b\xbb\x18\xb4\x10\xfd\xbf\xcb \xd1\xe9jGJ\xc0\xc0\x82 _\x19\xaa\x1b@'
p2533
tp2534
bsg2484
S'Cell[3].axon[86]'
p2535
sI186
I125
tp2536
a(F2.30983494714425
S'Cell[3].dend[49] syn_ = new FastInhib(0.166666666667)'
p2537
I3
(dp2538
g2469
F0.49999999999999994
sg2470
F42.0
sg2471
I186
sg2472
g7
(g8
(I0
tp2539
g10
tp2540
Rp2541
(I1
(I3
tp2542
g2479
I00
S'\xa1\xeb\x90\xfe\xadHA\xc0U\xfd\xe9~P\x98\\\xc0\xfc\x8e\xa4\xa1\x1d\x80(\xc0'
p2543
tp2544
bsg2484
S'Cell[3].axon[87]'
p2545
sI186
I173
tp2546
a(F2.4995826534579044
S'Cell[1].apic[33] syn_ = new ExpSid(0.1)'
p2547
I1
(dp2548
S'seg'
p2549
F0.5
sS'hostfrom'
p2550
F43.0
sS'gid'
p2551
I91
sS'coords'
p2552
g7
(g8
(I0
tp2553
g10
tp2554
Rp2555
(I1
(I3
tp2556
g14
(S'f8'
p2557
I0
I1
tp2558
Rp2559
(I3
S'<'
p2560
NNNI-1
I-1
I0
tp2561
bI00
S'\xaa\xb2\xae\xca\x10\x94X@\xfc\x9f\x17\xe4VKO@\x00\x00\x00`f\xa6?\xc0'
p2562
tp2563
bsS'secnames'
p2564
S'Cell[1].axon[95]'
p2565
sI91
I77
tp2566
a(F2.16994174346285
S'Cell[0].dend[13] syn_ = new ExpSid(0.5)'
p2567
I0
(dp2568
g2549
F0.5
sg2550
F43.0
sg2551
I187
sg2552
g7
(g8
(I0
tp2569
g10
tp2570
Rp2571
(I1
(I3
tp2572
g2559
I00
S'\x1am\x1e\xaf?\x04A@v\xe0\x14\xa5ebM\xc0.\xce\x912\xf1\xfb;\xc0'
p2573
tp2574
bsg2564
S'Cell[3].axon[146]'
p2575
sI187
I29
tp2576
a(F2.4913949529069948
S'Cell[2].dend[12] syn_ = new FastInhib(0.0555555555556)'
p2577
I2
(dp2578
S'seg'
p2579
F0.30000000000000004
sS'hostfrom'
p2580
F44.0
sS'gid'
p2581
I92
sS'coords'
p2582
g7
(g8
(I0
tp2583
g10
tp2584
Rp2585
(I1
(I3
tp2586
g14
(S'f8'
p2587
I0
I1
tp2588
Rp2589
(I3
S'<'
p2590
NNNI-1
I-1
I0
tp2591
bI00
S'\xcf;\xf3\x9b\x93\xd49@\x12\xeb\xa1\x9eN\xcfS\xc0La\x0e\tN\xb0N\xc0'
p2592
tp2593
bsS'secnames'
p2594
S'Cell[1].axon[105]'
p2595
sI92
I125
tp2596
a(F1.8063856468293427
S'Cell[2].dend[5] syn_ = new FastInhib(0.0714285714286)'
p2597
I2
(dp2598
g2579
F0.5
sg2580
F44.0
sg2581
I92
sg2582
g7
(g8
(I0
tp2599
g10
tp2600
Rp2601
(I1
(I3
tp2602
g2589
I00
S'K\x98\xde?\xf4\xc3N@\x8a\x10F\x1f\xf5\x92I\xc0\x00\x00\x00\xc0\xf5(\x14\xc0'
p2603
tp2604
bsg2594
S'Cell[1].axon[106]'
p2605
sI92
I125
tp2606
a(F1.9008571793829285
S'Cell[1].dend[4] syn_ = new AmpaNmda(0.3)'
p2607
I1
(dp2608
g2579
F0.5
sg2580
F44.0
sg2581
I92
sg2582
g7
(g8
(I0
tp2609
g10
tp2610
Rp2611
(I1
(I3
tp2612
g2589
I00
S'\xda%\x8b\xd4\xd9\x8b.\xc0\xdd\xc9\x0b\xefp\x0c$@\x84!>\xd3\x0by;\xc0'
p2613
tp2614
bsg2594
S'Cell[1].axon[216]'
p2615
sI92
I77
tp2616
a(F2.3830058721962843
S'Cell[2].dend[19] syn_ = new FastInhib(0.357142857143)'
p2617
I2
(dp2618
g2579
F0.5
sg2580
F44.0
sg2581
I92
sg2582
g7
(g8
(I0
tp2619
g10
tp2620
Rp2621
(I1
(I3
tp2622
g2589
I00
S'\x86\xc9_\xcb\xe8\xc9\x12\xc0cVc\xcfZ\x1bR\xc0$\x08\x92i\xca\x92G\xc0'
p2623
tp2624
bsg2594
S'Cell[1].axon[220]'
p2625
sI92
I125
tp2626
a(F1.6982374875280024
S'Cell[2].dend[7] syn_ = new FastInhib(0.5)'
p2627
I2
(dp2628
g2579
F0.5
sg2580
F44.0
sg2581
I188
sg2582
g7
(g8
(I0
tp2629
g10
tp2630
Rp2631
(I1
(I3
tp2632
g2589
I00
S'n\\\x0f\xa5\xb3\xdd6@\xee\x1d\x19\xf6\x11\xa5<\xc0\\F\xe4\xe3\xad\xdb\x0c@'
p2633
tp2634
bsg2594
S'Cell[3].axon[60]'
p2635
sI188
I125
tp2636
a(F1.3771348603219526
S'Cell[0].apic[24] syn_ = new AmpaNmda(0.5)'
p2637
I0
(dp2638
g2579
F0.8333333333333333
sg2580
F44.0
sg2581
I44
sg2582
g7
(g8
(I0
tp2639
g10
tp2640
Rp2641
(I1
(I3
tp2642
g2589
I00
S'\xba&o\x80\xbd\xc5)\xc0F\xb2\x06\xe5/\x1c!@\n\xf6\xe6\x18C)\x1e\xc0'
p2643
tp2644
bsg2594
S'Cell[0].axon[17]'
p2645
sI44
I29
tp2646
a(F1.9000505578394387
S'Cell[3].dend[4] syn_ = new FastInhib(0.5)'
p2647
I3
(dp2648
S'seg'
p2649
F0.5
sS'hostfrom'
p2650
F45.0
sS'gid'
p2651
I141
sS'coords'
p2652
g7
(g8
(I0
tp2653
g10
tp2654
Rp2655
(I1
(I3
tp2656
g14
(S'f8'
p2657
I0
I1
tp2658
Rp2659
(I3
S'<'
p2660
NNNI-1
I-1
I0
tp2661
bI00
S'v\xb0u\xd6?\xab\xf5?J\xf8(\xb8\xaf\x8bG\xc0\x1ai\xf7\x12+\x063\xc0'
p2662
tp2663
bsS'secnames'
p2664
S'Cell[2].axon[185]'
p2665
sI141
I173
tp2666
a(F1.9293957203391734
S'Cell[2].dend[34] syn_ = new FastInhib(0.214285714286)'
p2667
I2
(dp2668
g2649
F0.8333333333333333
sg2650
F45.0
sg2651
I141
sg2652
g7
(g8
(I0
tp2669
g10
tp2670
Rp2671
(I1
(I3
tp2672
g2659
I00
S'Hw\x8b\n\x87\xd1;@*#\x92"\xab\xbeT@\x00\x00\x00\x80\x14\xae<\xc0'
p2673
tp2674
bsg2664
S'Cell[2].axon[252]'
p2675
sI141
I125
tp2676
a(F1.3350390803104857
S'Cell[1].dend[10] syn_ = new ExpSid(0.1)'
p2677
I1
(dp2678
g2649
F0.5
sg2650
F45.0
sg2651
I189
sg2652
g7
(g8
(I0
tp2679
g10
tp2680
Rp2681
(I1
(I3
tp2682
g2659
I00
S'\x00\x00\x00@\xe1\x1a;@\x00\x00\x00`f\xa6B@\x00\x00\x00P\xb8\x1e,\xc0'
p2683
tp2684
bsg2664
S'Cell[3].axon[80]'
p2685
sI189
I77
tp2686
a(F1.4546821371246355
S'Cell[1].dend[26] syn_ = new ExpSid(0.166666666667)'
p2687
I1
(dp2688
g2649
F0.16666666666666666
sg2650
F45.0
sg2651
I189
sg2652
g7
(g8
(I0
tp2689
g10
tp2690
Rp2691
(I1
(I3
tp2692
g2659
I00
S"L\xb6\x01\xefk\xd4O@\xe87#o\x10\x0b'@\xa6\x90\x1d\xc8\x00Z'\xc0"
p2693
tp2694
bsg2664
S'Cell[3].axon[85]'
p2695
sI189
I77
tp2696
a(F1.3984005896106428
S'Cell[2].dend[35] syn_ = new FastInhib(0.5)'
p2697
I2
(dp2698
g2649
F0.8333333333333333
sg2650
F45.0
sg2651
I93
sg2652
g7
(g8
(I0
tp2699
g10
tp2700
Rp2701
(I1
(I3
tp2702
g2659
I00
S'\x92\xe6FT\xa9R=@\xf8\xe0 \xdd\n5J@\x94\x0e&,\x80{\xe2\xbf'
p2703
tp2704
bsg2664
S'Cell[1].axon[66]'
p2705
sI93
I125
tp2706
a(F2.4948814183678314
S'Cell[3].dend[9] syn_ = new FastInhib(0.0714285714286)'
p2707
I3
(dp2708
g2649
F0.7222222222222223
sg2650
F45.0
sg2651
I93
sg2652
g7
(g8
(I0
tp2709
g10
tp2710
Rp2711
(I1
(I3
tp2712
g2659
I00
S'\x83\n\x15\x98\xb5\xfa?\xc0a\xb8$\x9d\x12\xaaG\xc0\x00\x00\x00\xc0\xf5()\xc0'
p2713
tp2714
bsg2664
S'Cell[1].axon[166]'
p2715
sI93
I173
tp2716
a(F1.6561084973929774
S'Cell[3].dend[83] syn_ = new FastInhib(0.5)'
p2717
I3
(dp2718
g2649
F0.8333333333333333
sg2650
F45.0
sg2651
I93
sg2652
g7
(g8
(I0
tp2719
g10
tp2720
Rp2721
(I1
(I3
tp2722
g2659
I00
S'\x08\xe7[P\xf6\xe4\xc8?51o\x8b\x06\xf6D@V\n\x8a\xbeUc!\xc0'
p2723
tp2724
bsg2664
S'Cell[1].axon[178]'
p2725
sI93
I173
tp2726
a(F1.9226308919413841
S'Cell[1].dend[36] syn_ = new ExpSid(0.7)'
p2727
I1
(dp2728
g2649
F0.5
sg2650
F45.0
sg2651
I93
sg2652
g7
(g8
(I0
tp2729
g10
tp2730
Rp2731
(I1
(I3
tp2732
g2659
I00
S'\xebj(\xb4\x00\xfa]@kh\xcf\x90\x11\x11A@\xab\xb2b\xc4\x8b\x06P\xc0'
p2733
tp2734
bsg2664
S'Cell[1].axon[223]'
p2735
sI93
I77
tp2736
a(F1.5472123109647424
S'Cell[0].dend[21] syn_ = new AmpaNmda(0.166666666667)'
p2737
I0
(dp2738
S'seg'
p2739
F0.16666666666666666
sS'hostfrom'
p2740
F46.0
sS'gid'
p2741
I94
sS'coords'
p2742
g7
(g8
(I0
tp2743
g10
tp2744
Rp2745
(I1
(I3
tp2746
g14
(S'f8'
p2747
I0
I1
tp2748
Rp2749
(I3
S'<'
p2750
NNNI-1
I-1
I0
tp2751
bI00
S'\xaf\xdbC\xab\xc34\x13\xc0\xac\n\xb0\xc3\x91<E\xc0G\xf3\xea\xa0[J\r\xc0'
p2752
tp2753
bsS'secnames'
p2754
S'Cell[1].axon[0]'
p2755
sI94
I29
tp2756
a(F1.9746531196481936
S'Cell[3].dend[76] syn_ = new FastInhib(0.9)'
p2757
I3
(dp2758
g2739
F0.8333333333333333
sg2740
F46.0
sg2741
I94
sg2742
g7
(g8
(I0
tp2759
g10
tp2760
Rp2761
(I1
(I3
tp2762
g2749
I00
S'\xbe\xe8?\x04n$b@\x11?x\xec(IZ@N\x8eh\xbe\xd3u\x1e@'
p2763
tp2764
bsg2754
S'Cell[1].axon[94]'
p2765
sI94
I173
tp2766
a(F2.2696361738275566
S'Cell[3].dend[4] syn_ = new FastInhib(0.5)'
p2767
I3
(dp2768
g2739
F0.5
sg2740
F46.0
sg2741
I94
sg2742
g7
(g8
(I0
tp2769
g10
tp2770
Rp2771
(I1
(I3
tp2772
g2749
I00
S'\xcem3c\x0c\x9f\xf3\xbf\xf1W\xbb\x92w\xceF\xc0\x00\x00\x00\x80=\xca3\xc0'
p2773
tp2774
bsg2754
S'Cell[1].axon[180]'
p2775
sI94
I173
tp2776
a(F1.6215783581996943
S'Cell[3].dend[76] syn_ = new FastInhib(0.1)'
p2777
I3
(dp2778
g2739
F0.8333333333333333
sg2740
F46.0
sg2741
I94
sg2742
g7
(g8
(I0
tp2779
g10
tp2780
Rp2781
(I1
(I3
tp2782
g2749
I00
S'\xac\xe96\xfc\xd2\xfdV@\xaadgk\xeboP@\'B"^\xe0\xce\x11\xc0'
p2783
tp2784
bsg2754
S'Cell[1].axon[187]'
p2785
sI94
I173
tp2786
a(F1.6236405401545766
S'Cell[1].dend[28] syn_ = new ExpSid(0.9)'
p2787
I1
(dp2788
S'seg'
p2789
F0.6428571428571428
sS'hostfrom'
p2790
F47.0
sS'gid'
p2791
I95
sS'coords'
p2792
g7
(g8
(I0
tp2793
g10
tp2794
Rp2795
(I1
(I3
tp2796
g14
(S'f8'
p2797
I0
I1
tp2798
Rp2799
(I3
S'<'
p2800
NNNI-1
I-1
I0
tp2801
bI00
S'\xf1+\xac\xa6\xeeHU@G\xc4B\xef\x8f\xfa]\xc0\x05\x05\xd3[\x0f\x16A\xc0'
p2802
tp2803
bsS'secnames'
p2804
S'Cell[1].axon[16]'
p2805
sI95
I77
tp2806
a(F2.327510139429927
S'Cell[1].dend[36] syn_ = new ExpSid(0.3)'
p2807
I1
(dp2808
g2789
F0.5
sg2790
F47.0
sg2791
I95
sg2792
g7
(g8
(I0
tp2809
g10
tp2810
Rp2811
(I1
(I3
tp2812
g2799
I00
S'[Oj\xeeNbW@\x7f*1z[\xb42@"\xd1\nt^\x9c<\xc0'
p2813
tp2814
bsg2804
S'Cell[1].axon[46]'
p2815
sI95
I77
tp2816
a(F1.980333528803125
S'Cell[1].dend[10] syn_ = new ExpSid(0.1)'
p2817
I1
(dp2818
g2789
F0.8333333333333333
sg2790
F47.0
sg2791
I95
sg2792
g7
(g8
(I0
tp2819
g10
tp2820
Rp2821
(I1
(I3
tp2822
g2799
I00
S'\xba\x14\xec\xb3A\x18=@Z1\xc3\xce\xe8\xc6C@dbC\xa2\xc8\xd0)\xc0'
p2823
tp2824
bsg2804
S'Cell[1].axon[166]'
p2825
sI95
I77
tp2826
a(F2.1150409000664183
S'Cell[3].dend[39] syn_ = new FastInhib(0.166666666667)'
p2827
I3
(dp2828
g2789
F0.16666666666666666
sg2790
F47.0
sg2791
I95
sg2792
g7
(g8
(I0
tp2829
g10
tp2830
Rp2831
(I1
(I3
tp2832
g2799
I00
S'\x93\xd7\xbc\x9a\x19r9@]"\xe0\xefDs`\xc0\x00\x00\x00\x00\x00@I\xc0'
p2833
tp2834
bsg2804
S'Cell[1].axon[322]'
p2835
sI95
I173
tp2836
a(F2.3358077062503897
S'Cell[3].dend[66] syn_ = new FastInhib(0.5)'
p2837
I3
(dp2838
g2789
F0.5
sg2790
F47.0
sg2791
I143
sg2792
g7
(g8
(I0
tp2839
g10
tp2840
Rp2841
(I1
(I3
tp2842
g2799
I00
S'\x8d\xfc\n\x11\xaf3E\xc0\x82\x0f\xd8n\x84D:@\x00\x00\x00\x80\x14\xee0\xc0'
p2843
tp2844
bsg2804
S'Cell[2].axon[2]'
p2845
sI143
I173
tp2846
a(F2.422498857651987
S'Cell[0].apic[27] syn_ = new ExpSid(0.5)'
p2847
I0
(dp2848
g2789
F0.5
sg2790
F47.0
sg2791
I143
sg2792
g7
(g8
(I0
tp2849
g10
tp2850
Rp2851
(I1
(I3
tp2852
g2799
I00
S'\x00}\r\x8d\xef\xfcM\xc0C\x0bm\xb4\xafJU@\x1a\xff\x8a\r\\t\x19@'
p2853
tp2854
bsg2804
S'Cell[2].axon[59]'
p2855
sI143
I29
tp2856
a.