(lp0
(F2.227020900433199
S'Cell[3].dend[64] syn_ = new FastInhib(0.166666666667)'
p1
I3
(dp2
S'seg'
p3
F0.30000000000000004
sS'hostfrom'
p4
F1.0
sS'gid'
p5
I97
sS'coords'
p6
cnumpy.core.multiarray
_reconstruct
p7
(cnumpy
ndarray
p8
(I0
tp9
S'b'
p10
tp11
Rp12
(I1
(I3
tp13
cnumpy
dtype
p14
(S'f8'
p15
I0
I1
tp16
Rp17
(I3
S'<'
p18
NNNI-1
I-1
I0
tp19
bI00
S'\xc6N\xd9W\xc4\xb24@\xb0\xdf6\xa0]\xc8P@nA\xd8\xcc7\x9b\x1a\xc0'
p20
tp21
bsS'secnames'
p22
S'Cell[2].axon[8]'
p23
sI97
I156
tp24
a(F1.881603293974256
S'Cell[0].dend[26] syn_ = new ExpSid(0.5)'
p25
I0
(dp26
g3
F0.5
sg4
F1.0
sg5
I97
sg6
g7
(g8
(I0
tp27
g10
tp28
Rp29
(I1
(I3
tp30
g17
I00
S'\x1a\xb8\xf5\xcd\xcb\xa2\r\xc06\x98\xc5\rH\x00O\xc0\x9c\xea+\xa7x\x8a2\xc0'
p31
tp32
bsg22
S'Cell[2].axon[32]'
p33
sI97
I12
tp34
a(F1.8830063054516732
S'Cell[0].apic[98] syn_ = new AmpaNmda(0.5)'
p35
I0
(dp36
S'seg'
p37
F0.7
sS'hostfrom'
p38
F2.0
sS'gid'
p39
I98
sS'coords'
p40
g7
(g8
(I0
tp41
g10
tp42
Rp43
(I1
(I3
tp44
g14
(S'f8'
p45
I0
I1
tp46
Rp47
(I3
S'<'
p48
NNNI-1
I-1
I0
tp49
bI00
S'6\x9fC\x93\xad{R\xc0X\xad#\xd1\x9a$=@\x05\xe6pV\n\n-\xc0'
p50
tp51
bsS'secnames'
p52
S'Cell[2].axon[30]'
p53
sI98
I12
tp54
a(F2.377007973325279
S'Cell[0].apic[99] syn_ = new AmpaNmda(0.5)'
p55
I0
(dp56
g37
F0.8999999999999999
sg38
F2.0
sg39
I98
sg40
g7
(g8
(I0
tp57
g10
tp58
Rp59
(I1
(I3
tp60
g47
I00
S'Y\x1d\xb9\x9eO\xf9U\xc0B\x17P\xd0\x00\xc1<@\xee\xb7!U\x83\xa43\xc0'
p61
tp62
bsg52
S'Cell[2].axon[30]'
p63
sI98
I12
tp64
a(F1.4845361312890701
S'Cell[3].dend[33] syn_ = new FastInhib(0.5)'
p65
I3
(dp66
g37
F0.8333333333333333
sg38
F2.0
sg39
I98
sg40
g7
(g8
(I0
tp67
g10
tp68
Rp69
(I1
(I3
tp70
g47
I00
S':\xea\xff\xc9\xf9x\\@_\x92\x88\xbb\xd7\xf22@M\x1e\x1f\xa2\xd7\xae\x11@'
p71
tp72
bsg52
S'Cell[2].axon[173]'
p73
sI98
I156
tp74
a(F1.504180912181314
S'Cell[1].apic[8] syn_ = new AmpaNmda(0.5)'
p75
I1
(dp76
g37
F0.16666666666666666
sg38
F2.0
sg39
I98
sg40
g7
(g8
(I0
tp77
g10
tp78
Rp79
(I1
(I3
tp80
g47
I00
S'i\xbe\xf0\x0cNcE@C/.\xcf\xc3\x82S@\xf4\xe6\x9awP\x0c\xfe\xbf'
p81
tp82
bsg52
S'Cell[2].axon[411]'
p83
sI98
I60
tp84
a(F0.8836330351711249
S'Cell[3].dend[38] syn_ = new FastInhib(0.5)'
p85
I3
(dp86
g37
F0.5
sg38
F2.0
sg39
I98
sg40
g7
(g8
(I0
tp87
g10
tp88
Rp89
(I1
(I3
tp90
g47
I00
S'X_T\x01\x13,6\xc0\x9e\xb2\x026\x9a\x8c\n\xc0\xd8\xa3q\x13[4\x04@'
p91
tp92
bsg52
S'Cell[2].axon[470]'
p93
sI98
I156
tp94
a(F2.119689301370162
S'Cell[2].dend[1] syn_ = new FastInhib(0.0714285714286)'
p95
I2
(dp96
g37
F0.16666666666666666
sg38
F2.0
sg39
I98
sg40
g7
(g8
(I0
tp97
g10
tp98
Rp99
(I1
(I3
tp100
g47
I00
S'+\xff\x8b\xafp\xc0<\xc0Z\xe4Q\xd8\x13\xae4@z\x91\x8e(9j3\xc0'
p101
tp102
bsg52
S'Cell[2].axon[475]'
p103
sI98
I108
tp104
a(F1.6562919521891863
S'Cell[0].apic[101] syn_ = new AmpaNmda(0.166666666667)'
p105
I0
(dp106
g37
F0.8333333333333333
sg38
F2.0
sg39
I146
sg40
g7
(g8
(I0
tp107
g10
tp108
Rp109
(I1
(I3
tp110
g47
I00
S'\x18L\xa5\xc3\xdb\xc8P\xc0N\xad\x95`0IR@\x00\x00\x00\x80=J8\xc0'
p111
tp112
bsg52
S'Cell[3].axon[173]'
p113
sI146
I12
tp114
a(F2.218670872081758
S'Cell[3].dend[63] syn_ = new FastInhib(0.166666666667)'
p115
I3
(dp116
g37
F0.16666666666666666
sg38
F2.0
sg39
I146
sg40
g7
(g8
(I0
tp117
g10
tp118
Rp119
(I1
(I3
tp120
g47
I00
S'\xd3\xc4K\xd7d\xc5\x1e@\x0cA\x9c:\xf1\xd0R@\x15\x932\xf9B\xef8\xc0'
p121
tp122
bsg52
S'Cell[3].axon[196]'
p123
sI146
I156
tp124
a(F2.116994190777198
S'Cell[3].dend[51] syn_ = new FastInhib(0.5)'
p125
I3
(dp126
g37
F0.16666666666666666
sg38
F2.0
sg39
I146
sg40
g7
(g8
(I0
tp127
g10
tp128
Rp129
(I1
(I3
tp130
g47
I00
S'V\x9cv\xe9D\xc4X\xc0\xe2v1\xfb\x10\xf2U\xc0$S\x01\xea\xdd\xf6\x14@'
p131
tp132
bsg52
S'Cell[3].axon[376]'
p133
sI146
I156
tp134
a(F1.8830063054516732
S'Cell[0].apic[98] syn_ = new ExpSid(0.5)'
p135
I0
(dp136
S'seg'
p137
F0.7
sS'hostfrom'
p138
F3.0
sS'gid'
p139
I99
sS'coords'
p140
g7
(g8
(I0
tp141
g10
tp142
Rp143
(I1
(I3
tp144
g14
(S'f8'
p145
I0
I1
tp146
Rp147
(I3
S'<'
p148
NNNI-1
I-1
I0
tp149
bI00
S'6\x9fC\x93\xad{R\xc0X\xad#\xd1\x9a$=@\x05\xe6pV\n\n-\xc0'
p150
tp151
bsS'secnames'
p152
S'Cell[2].axon[30]'
p153
sI99
I12
tp154
a(F2.377007973325279
S'Cell[0].apic[99] syn_ = new ExpSid(0.5)'
p155
I0
(dp156
g137
F0.8999999999999999
sg138
F3.0
sg139
I99
sg140
g7
(g8
(I0
tp157
g10
tp158
Rp159
(I1
(I3
tp160
g147
I00
S'Y\x1d\xb9\x9eO\xf9U\xc0B\x17P\xd0\x00\xc1<@\xee\xb7!U\x83\xa43\xc0'
p161
tp162
bsg152
S'Cell[2].axon[30]'
p163
sI99
I12
tp164
a(F1.4845361312890701
S'Cell[3].dend[33] syn_ = new FastInhib(0.5)'
p165
I3
(dp166
g137
F0.8333333333333333
sg138
F3.0
sg139
I99
sg140
g7
(g8
(I0
tp167
g10
tp168
Rp169
(I1
(I3
tp170
g147
I00
S':\xea\xff\xc9\xf9x\\@_\x92\x88\xbb\xd7\xf22@M\x1e\x1f\xa2\xd7\xae\x11@'
p171
tp172
bsg152
S'Cell[2].axon[173]'
p173
sI99
I156
tp174
a(F1.504180912181314
S'Cell[1].apic[8] syn_ = new ExpSid(0.5)'
p175
I1
(dp176
g137
F0.16666666666666666
sg138
F3.0
sg139
I99
sg140
g7
(g8
(I0
tp177
g10
tp178
Rp179
(I1
(I3
tp180
g147
I00
S'i\xbe\xf0\x0cNcE@C/.\xcf\xc3\x82S@\xf4\xe6\x9awP\x0c\xfe\xbf'
p181
tp182
bsg152
S'Cell[2].axon[411]'
p183
sI99
I60
tp184
a(F0.8836330351711249
S'Cell[3].dend[38] syn_ = new FastInhib(0.5)'
p185
I3
(dp186
g137
F0.5
sg138
F3.0
sg139
I99
sg140
g7
(g8
(I0
tp187
g10
tp188
Rp189
(I1
(I3
tp190
g147
I00
S'X_T\x01\x13,6\xc0\x9e\xb2\x026\x9a\x8c\n\xc0\xd8\xa3q\x13[4\x04@'
p191
tp192
bsg152
S'Cell[2].axon[470]'
p193
sI99
I156
tp194
a(F2.119689301370162
S'Cell[2].dend[1] syn_ = new FastInhib(0.0714285714286)'
p195
I2
(dp196
g137
F0.16666666666666666
sg138
F3.0
sg139
I99
sg140
g7
(g8
(I0
tp197
g10
tp198
Rp199
(I1
(I3
tp200
g147
I00
S'+\xff\x8b\xafp\xc0<\xc0Z\xe4Q\xd8\x13\xae4@z\x91\x8e(9j3\xc0'
p201
tp202
bsg152
S'Cell[2].axon[475]'
p203
sI99
I108
tp204
a(F1.938387650302809
S'Cell[3].dend[68] syn_ = new FastInhib(0.166666666667)'
p205
I3
(dp206
g137
F0.1
sg138
F3.0
sg139
I147
sg140
g7
(g8
(I0
tp207
g10
tp208
Rp209
(I1
(I3
tp210
g147
I00
S'\n\x10m=\x02\xf2$\xc0\xac\xefl\x15c\xa2I@\x1d\x9e\xfbl\xe4\xcc\x0f@'
p211
tp212
bsg152
S'Cell[3].axon[6]'
p213
sI147
I156
tp214
a(F2.4910144993397836
S'Cell[3].dend[67] syn_ = new FastInhib(0.5)'
p215
I3
(dp216
g137
F0.30000000000000004
sg138
F3.0
sg139
I147
sg140
g7
(g8
(I0
tp217
g10
tp218
Rp219
(I1
(I3
tp220
g147
I00
S'\xb5\x96\xcf\x91"\x0f+\xc0\xac\x07\xdc\x95\x11\xf6B@0!\xe3k%\x93\x01@'
p221
tp222
bsg152
S'Cell[3].axon[6]'
p223
sI147
I156
tp224
a(F1.4798344359003204
S'Cell[3].dend[68] syn_ = new FastInhib(0.5)'
p225
I3
(dp226
g137
F0.5
sg138
F3.0
sg139
I147
sg140
g7
(g8
(I0
tp227
g10
tp228
Rp229
(I1
(I3
tp230
g147
I00
S'\xb1\xb0s\x88.\x89\x19\xc0\xcd3[\xf05\xbfQ@\x1a\x88f\x9b\xf3\x95\x10@'
p231
tp232
bsg152
S'Cell[3].axon[88]'
p233
sI147
I156
tp234
a(F2.2633820512486547
S'Cell[3].dend[50] syn_ = new FastInhib(0.166666666667)'
p235
I3
(dp236
g137
F0.8333333333333333
sg138
F3.0
sg139
I147
sg140
g7
(g8
(I0
tp237
g10
tp238
Rp239
(I1
(I3
tp240
g147
I00
S'\n5S\n\x92\x0cK\xc0\xfe\x90\x84\xfc|\xecJ\xc0\xc0\xa4g\x8dE\xf0 \xc0'
p241
tp242
bsg152
S'Cell[3].axon[97]'
p243
sI147
I156
tp244
a(F1.6777891178438211
S'Cell[2].dend[45] syn_ = new FastInhib(0.1)'
p245
I2
(dp246
g137
F0.5
sg138
F3.0
sg139
I147
sg140
g7
(g8
(I0
tp247
g10
tp248
Rp249
(I1
(I3
tp250
g147
I00
S'\x1b\xff\x82e\xad\xec,\xc0\x18\xef;\x00\xfa\xdci\xc03\xb4\xe6\xe4j\xa7@\xc0'
p251
tp252
bsg152
S'Cell[3].axon[104]'
p253
sI147
I108
tp254
a(F1.0504683809170143
S'Cell[0].dend[41] syn_ = new ExpSid(0.7)'
p255
I0
(dp256
g137
F0.6428571428571428
sg138
F3.0
sg139
I147
sg140
g7
(g8
(I0
tp257
g10
tp258
Rp259
(I1
(I3
tp260
g147
I00
S'\xe7{\xac\x80\xd2\x84F@\xd9\xa8\x83Q\xf0\xf1\xf0\xbfT\x9f\xee\x1cQ\xc5,@'
p261
tp262
bsg152
S'Cell[3].axon[136]'
p263
sI147
I12
tp264
a(F2.487797944667669
S'Cell[3].dend[62] syn_ = new FastInhib(0.5)'
p265
I3
(dp266
S'seg'
p267
F0.5
sS'hostfrom'
p268
F4.0
sS'gid'
p269
I4
sS'coords'
p270
g7
(g8
(I0
tp271
g10
tp272
Rp273
(I1
(I3
tp274
g14
(S'f8'
p275
I0
I1
tp276
Rp277
(I3
S'<'
p278
NNNI-1
I-1
I0
tp279
bI00
S'E\x8dL\xa1\xa8[;@|`_\xd8\x08A]@e\x9c\xca\xfb+\xa53\xc0'
p280
tp281
bsS'secnames'
p282
S'Cell[0].axon[30]'
p283
sI4
I156
tp284
a(F2.1848771371997278
S'Cell[0].apic[70] syn_ = new AmpaNmda(0.5)'
p285
I0
(dp286
g267
F0.8333333333333333
sg268
F4.0
sg269
I100
sg270
g7
(g8
(I0
tp287
g10
tp288
Rp289
(I1
(I3
tp290
g277
I00
S'\xf8\xf8\xa7>lPB\xc0\xac\xef\x19r2Jq@\xc0\xcf\x1a\xf9\xf3LP\xc0'
p291
tp292
bsg282
S'Cell[2].axon[60]'
p293
sI100
I12
tp294
a(F1.4700301276371588
S'Cell[0].dend[22] syn_ = new ExpSid(0.833333333333)'
p295
I0
(dp296
S'seg'
p297
F0.5
sS'hostfrom'
p298
F5.0
sS'gid'
p299
I149
sS'coords'
p300
g7
(g8
(I0
tp301
g10
tp302
Rp303
(I1
(I3
tp304
g14
(S'f8'
p305
I0
I1
tp306
Rp307
(I3
S'<'
p308
NNNI-1
I-1
I0
tp309
bI00
S'\x9a\x07\xee=\x96%\x01\xc0d\xed\x02\x9b\x94\xb8[\xc0\x00\x00\x00\xa0G\x81@\xc0'
p310
tp311
bsS'secnames'
p312
S'Cell[3].axon[4]'
p313
sI149
I12
tp314
a(F2.039548657981263
S'Cell[1].apic[8] syn_ = new ExpSid(0.5)'
p315
I1
(dp316
g297
F0.045454545454545456
sg298
F5.0
sg299
I5
sg300
g7
(g8
(I0
tp317
g10
tp318
Rp319
(I1
(I3
tp320
g307
I00
S'\xdd9\x8b\xf6\x10uF@W\xad\xd7@O\xb0S@\x00\x00\x00\xc0\x1e\x85\xf7\xbf'
p321
tp322
bsg312
S'Cell[0].axon[70]'
p323
sI5
I60
tp324
a(F2.238110883469778
S'Cell[3].dend[37] syn_ = new FastInhib(0.5)'
p325
I3
(dp326
S'seg'
p327
F0.5
sS'hostfrom'
p328
F6.0
sS'gid'
p329
I102
sS'coords'
p330
g7
(g8
(I0
tp331
g10
tp332
Rp333
(I1
(I3
tp334
g14
(S'f8'
p335
I0
I1
tp336
Rp337
(I3
S'<'
p338
NNNI-1
I-1
I0
tp339
bI00
S'\x10\xe7Kx\x9f$1\xc04\x05\xe5\x84\xd2\x0cM\xc0\x02\x18d\x0f\xab<2\xc0'
p340
tp341
bsS'secnames'
p342
S'Cell[2].axon[39]'
p343
sI102
I156
tp344
a(F1.1164985211086873
S'Cell[2].dend[20] syn_ = new FastInhib(0.5)'
p345
I2
(dp346
g327
F0.30000000000000004
sg328
F6.0
sg329
I102
sg330
g7
(g8
(I0
tp347
g10
tp348
Rp349
(I1
(I3
tp350
g337
I00
S'q4\xf3\xa7\xf8\xe1+\xc0\x04e(\x1e\xc3\xfe.\xc0H\xac\x01tq\xf9\x14@'
p351
tp352
bsg342
S'Cell[2].axon[77]'
p353
sI102
I108
tp354
a(F1.9661548007943865
S'Cell[0].dend[25] syn_ = new AmpaNmda(0.833333333333)'
p355
I0
(dp356
g327
F0.8333333333333333
sg328
F6.0
sg329
I102
sg330
g7
(g8
(I0
tp357
g10
tp358
Rp359
(I1
(I3
tp360
g337
I00
S'\x16\x95U\xc5f\xa5R\xc0\x04*\xaa\xa7d\xa9^\xc0\x00\x00\x00\x80\x14\xae%@'
p361
tp362
bsg342
S'Cell[2].axon[79]'
p363
sI102
I12
tp364
a(F2.3966943334558306
S'Cell[0].dend[30] syn_ = new AmpaNmda(0.5)'
p365
I0
(dp366
g327
F0.5
sg328
F6.0
sg329
I102
sg330
g7
(g8
(I0
tp367
g10
tp368
Rp369
(I1
(I3
tp370
g337
I00
S'\x00\x00\x00\xb0Ga\x1b@\x00\x00\x0003\xf3V\xc0\x00\x00\x00 \x85k\x13\xc0'
p371
tp372
bsg342
S'Cell[2].axon[102]'
p373
sI102
I12
tp374
a(F1.83991404835049
S'Cell[0].dend[30] syn_ = new AmpaNmda(0.5)'
p375
I0
(dp376
g327
F0.5
sg328
F6.0
sg329
I102
sg330
g7
(g8
(I0
tp377
g10
tp378
Rp379
(I1
(I3
tp380
g337
I00
S'\xde\xdd\xc0\xd8m?\x1e@\xf5\xad\x88\x9c\x90\xb5W\xc0\x00\x00\x00\x00\xd7\xa3\x17\xc0'
p381
tp382
bsg342
S'Cell[2].axon[103]'
p383
sI102
I12
tp384
a(F1.4062844811918649
S'Cell[0].dend[20] syn_ = new AmpaNmda(0.3)'
p385
I0
(dp386
g327
F0.8333333333333333
sg328
F6.0
sg329
I150
sg330
g7
(g8
(I0
tp387
g10
tp388
Rp389
(I1
(I3
tp390
g337
I00
S'Q@$\x1b}\xb7J\xc0\xd4qO\xfd\n\xb7Q\xc0\xbe\xe5"\xb9;\x8d?\xc0'
p391
tp392
bsg342
S'Cell[3].axon[105]'
p393
sI150
I12
tp394
a(F1.3901766472110657
S'Cell[2].dend[3] syn_ = new FastInhib(0.5)'
p395
I2
(dp396
g327
F0.5
sg328
F6.0
sg329
I150
sg330
g7
(g8
(I0
tp397
g10
tp398
Rp399
(I1
(I3
tp400
g337
I00
S'\t\xfdm<\x9d\rP\xc0M\xaf\xca\xc2\x97\x88Q@\xff\xff\xff\x7f\x14\xee>\xc0'
p401
tp402
bsg342
S'Cell[3].axon[144]'
p403
sI150
I108
tp404
a(F2.2178746788956762
S'Cell[3].dend[19] syn_ = new FastInhib(0.5)'
p405
I3
(dp406
S'seg'
p407
F0.5
sS'hostfrom'
p408
F7.0
sS'gid'
p409
I103
sS'coords'
p410
g7
(g8
(I0
tp411
g10
tp412
Rp413
(I1
(I3
tp414
g14
(S'f8'
p415
I0
I1
tp416
Rp417
(I3
S'<'
p418
NNNI-1
I-1
I0
tp419
bI00
S'\x00\x00\x00\x80\xeb\xd10\xc0\x00\x00\x00`\x8fB-\xc0\x00\x00\x00\x00\xd7\xa3\xf0?'
p420
tp421
bsS'secnames'
p422
S'Cell[2].soma[0]'
p423
sI103
I156
tp424
a(F0.8982260312042899
S'Cell[3].dend[35] syn_ = new FastInhib(0.166666666667)'
p425
I3
g406
I103
I156
tp426
a(F1.241162532575755
S'Cell[3].dend[47] syn_ = new FastInhib(0.5)'
p427
I3
(dp428
g407
F0.5
sg408
F7.0
sg409
I103
sg410
g7
(g8
(I0
tp429
g10
tp430
Rp431
(I1
(I3
tp432
g417
I00
S'lc\xd02\xcf\x05>\xc0\xd0\rg\xe5\xc7\xa3Q\xc0\xb4:\x851\xd2\xe84\xc0'
p433
tp434
bsg422
S'Cell[2].axon[41]'
p435
sI103
I156
tp436
a(F1.1687260557420132
S'Cell[2].dend[40] syn_ = new FastInhib(0.5)'
p437
I2
(dp438
g407
F0.5
sg408
F7.0
sg409
I103
sg410
g7
(g8
(I0
tp439
g10
tp440
Rp441
(I1
(I3
tp442
g417
I00
S'\xda[_\x98F\xc12\xc0\xc1\x8a\xba\xa5\x8d\x04R\xc0\xfe\xb3\tdyx!\xc0'
p443
tp444
bsg422
S'Cell[2].axon[362]'
p445
sI103
I108
tp446
a(F1.9385675342600421
S'Cell[3].dend[20] syn_ = new FastInhib(0.166666666667)'
p447
I3
(dp448
g407
F0.5
sg408
F7.0
sg409
I103
sg410
g7
(g8
(I0
tp449
g10
tp450
Rp451
(I1
(I3
tp452
g417
I00
S'\xb4\x80<\x05\xab\xbc&\xc0L\xa1\xcd\xd4\x0e\xcd@\xc0\x00\x00\x00\x80=\n#\xc0'
p453
tp454
bsg422
S'Cell[2].axon[369]'
p455
sI103
I156
tp456
a(F0.8747442690700048
S'Cell[3].dend[30] syn_ = new FastInhib(0.5)'
p457
I3
(dp458
g407
F0.5
sg408
F7.0
sg409
I103
sg410
g7
(g8
(I0
tp459
g10
tp460
Rp461
(I1
(I3
tp462
g417
I00
S'M\xb6&C\xba}>@\xb5\xf2O,\xe1)5\xc0\xc8\x11\x8e\x9e\x83a$\xc0'
p463
tp464
bsg422
S'Cell[2].axon[381]'
p465
sI103
I156
tp466
a(F2.49777175498456
S'Cell[2].dend[13] syn_ = new FastInhib(0.5)'
p467
I2
(dp468
g407
F0.5
sg408
F7.0
sg409
I103
sg410
g7
(g8
(I0
tp469
g10
tp470
Rp471
(I1
(I3
tp472
g417
I00
S'\xccpc\xaa\xe9\xfa.@@\x99\xe70\xed\x96L@\x00\x00\x00\xc0\xcc\xcc\x18\xc0'
p473
tp474
bsg422
S'Cell[2].axon[437]'
p475
sI103
I108
tp476
a(F2.301992376440517
S'Cell[2].dend[21] syn_ = new FastInhib(0.833333333333)'
p477
I2
(dp478
g407
F0.16666666666666666
sg408
F7.0
sg409
I151
sg410
g7
(g8
(I0
tp479
g10
tp480
Rp481
(I1
(I3
tp482
g417
I00
S'\xbeI\xfe\xa8\x98j5@\x98/\xc9$\x11%F\xc0(\xe9\x08\xdb\xd0\x1c\xf1?'
p483
tp484
bsg422
S'Cell[3].axon[115]'
p485
sI151
I108
tp486
a(F1.2472515712007026
S'Cell[3].dend[62] syn_ = new FastInhib(0.1)'
p487
I3
(dp488
S'seg'
p489
F0.33999999999999997
sS'hostfrom'
p490
F8.0
sS'gid'
p491
I8
sS'coords'
p492
g7
(g8
(I0
tp493
g10
tp494
Rp495
(I1
(I3
tp496
g14
(S'f8'
p497
I0
I1
tp498
Rp499
(I3
S'<'
p500
NNNI-1
I-1
I0
tp501
bI00
S'\x1b|T\x86j4&@X\xf4\xcd\xcb\n\xd6T@u\xb5\\\xee\x90\x05*\xc0'
p502
tp503
bsS'secnames'
p504
S'Cell[0].axon[43]'
p505
sI8
I156
tp506
a(F2.3350614906317153
S'Cell[2].dend[15] syn_ = new FastInhib(0.5)'
p507
I2
(dp508
g489
F0.5
sg490
F8.0
sg491
I152
sg492
g7
(g8
(I0
tp509
g10
tp510
Rp511
(I1
(I3
tp512
g499
I00
S'\xb1`F%z\xdc>\xc0\xe4LCH\x03\xdc#@\x00J\xf4\xe8G\xec)@'
p513
tp514
bsg504
S'Cell[3].axon[84]'
p515
sI152
I108
tp516
a(F1.420173555011596
S'Cell[1].apic[10] syn_ = new AmpaNmda(0.5)'
p517
I1
(dp518
g489
F0.5
sg490
F8.0
sg491
I152
sg492
g7
(g8
(I0
tp519
g10
tp520
Rp521
(I1
(I3
tp522
g499
I00
S'bjK0m\xe3C@\x99\xfbjn\xc04Y@\xfc\x87M\x1a\xb7j\x10\xc0'
p523
tp524
bsg504
S'Cell[3].axon[126]'
p525
sI152
I60
tp526
a(F2.3897646797079317
S'Cell[2].dend[33] syn_ = new FastInhib(0.166666666667)'
p527
I2
(dp528
g489
F0.5
sg490
F8.0
sg491
I104
sg492
g7
(g8
(I0
tp529
g10
tp530
Rp531
(I1
(I3
tp532
g499
I00
S'\xe8\x00\xc5+\x04\x7f6\xc0\xcc7\x01\xb9\x8e\xa8B\xc0\xd0\xa8\xa8\x9ciL\xd6?'
p533
tp534
bsg504
S'Cell[2].axon[1]'
p535
sI104
I108
tp536
a(F2.2753561165411953
S'Cell[3].dend[14] syn_ = new FastInhib(0.833333333333)'
p537
I3
(dp538
g489
F0.8333333333333333
sg490
F8.0
sg491
I104
sg492
g7
(g8
(I0
tp539
g10
tp540
Rp541
(I1
(I3
tp542
g499
I00
S'\x06\x87,\xad\xe8\x193\xc0\xfe\xab\x8a\xee\xee\xefe\xc0_\xa6\x087\x8c\x1a \xc0'
p543
tp544
bsg504
S'Cell[2].axon[16]'
p545
sI104
I156
tp546
a(F2.163799287566871
S'Cell[0].apic[101] syn_ = new AmpaNmda(0.833333333333)'
p547
I0
(dp548
g489
F0.16666666666666666
sg490
F8.0
sg491
I104
sg492
g7
(g8
(I0
tp549
g10
tp550
Rp551
(I1
(I3
tp552
g499
I00
S'\xeeM\x02@\xec\xcaW\xc0\x82\xfe`\x9dg\x0cZ@pz\x8d\xee\x8d\x88\x17\xc0'
p553
tp554
bsg504
S'Cell[2].axon[214]'
p555
sI104
I12
tp556
a(F2.098476357051155
S'Cell[3].dend[69] syn_ = new FastInhib(0.1)'
p557
I3
(dp558
g489
F0.16666666666666666
sg490
F8.0
sg491
I104
sg492
g7
(g8
(I0
tp559
g10
tp560
Rp561
(I1
(I3
tp562
g499
I00
S'\\\xeb\xfc\xb1`z\xca\xbfF=\xb4\xd73,[@\xd5H\tb\x89i\xfd?'
p563
tp564
bsg504
S'Cell[2].axon[426]'
p565
sI104
I156
tp566
a(F1.838820933249975
S'Cell[3].dend[45] syn_ = new FastInhib(0.166666666667)'
p567
I3
(dp568
S'seg'
p569
F0.30000000000000004
sS'hostfrom'
p570
F9.0
sS'gid'
p571
I153
sS'coords'
p572
g7
(g8
(I0
tp573
g10
tp574
Rp575
(I1
(I3
tp576
g14
(S'f8'
p577
I0
I1
tp578
Rp579
(I3
S'<'
p580
NNNI-1
I-1
I0
tp581
bI00
S'wRj\x9b\x1c\xf0=\xc0s\x03}\xae\xa4I9\xc0\x01\x00\x00`\xb8\x1e/@'
p582
tp583
bsS'secnames'
p584
S'Cell[3].axon[30]'
p585
sI153
I156
tp586
a(F1.5046392351370173
S'Cell[1].apic[5] syn_ = new ExpSid(0.166666666667)'
p587
I1
(dp588
g569
F0.16666666666666666
sg570
F9.0
sg571
I153
sg572
g7
(g8
(I0
tp589
g10
tp590
Rp591
(I1
(I3
tp592
g579
I00
S'\xce\x1c\x9eg\xae\xaa@@\x0fu\x8bb>`Q@\x00\x00\x00\xc0\xcc\xcc*\xc0'
p593
tp594
bsg584
S'Cell[3].axon[80]'
p595
sI153
I60
tp596
a(F2.2222881265994125
S'Cell[0].apic[96] syn_ = new ExpSid(0.5)'
p597
I0
(dp598
g569
F0.16666666666666666
sg570
F9.0
sg571
I105
sg572
g7
(g8
(I0
tp599
g10
tp600
Rp601
(I1
(I3
tp602
g579
I00
S'V&\x85\xbd\x03\xb4=\xc0\xcf\xf9K\xcb\xfa\xbbQ@A\x0c\xee\x0bH\xdc;\xc0'
p603
tp604
bsg584
S'Cell[2].axon[25]'
p605
sI105
I12
tp606
a(F1.6585657228377695
S'Cell[0].dend[32] syn_ = new ExpSid(0.214285714286)'
p607
I0
(dp608
g569
F0.5
sg570
F9.0
sg571
I105
sg572
g7
(g8
(I0
tp609
g10
tp610
Rp611
(I1
(I3
tp612
g579
I00
S'\xbc\x90O\xfc4C4@\xb2\xd6L\xa0\x90\xceW\xc0\xee\xb4\x8e\xd5\xe3\x134\xc0'
p613
tp614
bsg584
S'Cell[2].axon[121]'
p615
sI105
I12
tp616
a(F1.9004637400936388
S'Cell[1].dend[13] syn_ = new ExpSid(0.7)'
p617
I1
(dp618
g569
F0.8333333333333333
sg570
F9.0
sg571
I105
sg572
g7
(g8
(I0
tp619
g10
tp620
Rp621
(I1
(I3
tp622
g579
I00
S'L0\xc8 *\xcf:\xc0\xfd\x96\xf4\x08\xe7\x82 \xc0\x05<\x12\xb1\xa6\x98L\xc0'
p623
tp624
bsg584
S'Cell[2].axon[260]'
p625
sI105
I60
tp626
a(F2.228409047949186
S'Cell[1].dend[7] syn_ = new AmpaNmda(0.357142857143)'
p627
I1
(dp628
S'seg'
p629
F0.8333333333333333
sS'hostfrom'
p630
F10.0
sS'gid'
p631
I10
sS'coords'
p632
g7
(g8
(I0
tp633
g10
tp634
Rp635
(I1
(I3
tp636
g14
(S'f8'
p637
I0
I1
tp638
Rp639
(I3
S'<'
p640
NNNI-1
I-1
I0
tp641
bI00
S'\xd1\xf0\x9b\xf5\xd1[:\xc0p\xdc\xde\xe5\x84\xd8K@\xce\xb3\xfee\xfe\x9cD\xc0'
p642
tp643
bsS'secnames'
p644
S'Cell[0].axon[17]'
p645
sI10
I60
tp646
a(F1.994573085796142
S'Cell[2].dend[26] syn_ = new FastInhib(0.166666666667)'
p647
I2
(dp648
g629
F0.5
sg630
F10.0
sg631
I106
sg632
g7
(g8
(I0
tp649
g10
tp650
Rp651
(I1
(I3
tp652
g639
I00
S'\x07\xfd\xae\xcf{\xd53\xc0\xd6i\xce;\xaf\xb9P\xc0\x03\xb5\xf7\xe9\xd1\xfaB\xc0'
p653
tp654
bsg644
S'Cell[2].axon[32]'
p655
sI106
I108
tp656
a(F2.0134201163044456
S'Cell[1].dend[1] syn_ = new AmpaNmda(0.5)'
p657
I1
(dp658
g629
F0.5
sg630
F10.0
sg631
I106
sg632
g7
(g8
(I0
tp659
g10
tp660
Rp661
(I1
(I3
tp662
g639
I00
S'\xfa1z\xf6?g<@n\xb2\x1f\xb5/\xc3<@\xee\x00(\xa8\x9f17\xc0'
p663
tp664
bsg644
S'Cell[2].axon[220]'
p665
sI106
I60
tp666
a(F2.4720520200488196
S'Cell[1].dend[13] syn_ = new AmpaNmda(0.3)'
p667
I1
(dp668
g629
F0.5
sg630
F10.0
sg631
I106
sg632
g7
(g8
(I0
tp669
g10
tp670
Rp671
(I1
(I3
tp672
g639
I00
S'\xca\x8a\xcb\xf9\xeb|\x19@\xdc/\x90\xfc\x9a\xa9\x1a@\xb6\xdc\xe0\x96\x07\nC\xc0'
p673
tp674
bsg644
S'Cell[2].axon[349]'
p675
sI106
I60
tp676
a(F2.4492215324734445
S'Cell[0].apic[122] syn_ = new ExpSid(0.5)'
p677
I0
(dp678
S'seg'
p679
F0.21428571428571427
sS'hostfrom'
p680
F11.0
sS'gid'
p681
I155
sS'coords'
p682
g7
(g8
(I0
tp683
g10
tp684
Rp685
(I1
(I3
tp686
g14
(S'f8'
p687
I0
I1
tp688
Rp689
(I3
S'<'
p690
NNNI-1
I-1
I0
tp691
bI00
S"%\x9f\x93H\xa5>\x1e\xc0T(\xfb'\xa1\x85=\xc0\xaa\xfd\xfa\xfd\x8e=L\xc0"
p692
tp693
bsS'secnames'
p694
S'Cell[3].axon[255]'
p695
sI155
I12
tp696
a(F2.177627006131826
S'Cell[0].apic[97] syn_ = new ExpSid(0.5)'
p697
I0
(dp698
g679
F0.16666666666666666
sg680
F11.0
sg681
I155
sg682
g7
(g8
(I0
tp699
g10
tp700
Rp701
(I1
(I3
tp702
g689
I00
S'\x02\xe6>\xc2\xdaWH\xc0\x95\xb9\xf2\x9dF\xfdD@\xda@N\x8a\xf4[3\xc0'
p703
tp704
bsg694
S'Cell[3].axon[283]'
p705
sI155
I12
tp706
a(F2.1825477615762807
S'Cell[2].dend[46] syn_ = new FastInhib(0.9)'
p707
I2
(dp708
S'seg'
p709
F0.16666666666666666
sS'hostfrom'
p710
F12.0
sS'gid'
p711
I156
sS'coords'
p712
g7
(g8
(I0
tp713
g10
tp714
Rp715
(I1
(I3
tp716
g14
(S'f8'
p717
I0
I1
tp718
Rp719
(I3
S'<'
p720
NNNI-1
I-1
I0
tp721
bI00
S'\xba+\xf1\xde1\xb8>\xc0\xce\xdaN\xd1a7r\xc0>7\x8f\xa4\xcd\xf3I\xc0'
p722
tp723
bsS'secnames'
p724
S'Cell[3].axon[512]'
p725
sI156
I108
tp726
a(F2.0495956103848334
S'Cell[3].dend[29] syn_ = new FastInhib(0.5)'
p727
I3
(dp728
g709
F0.16666666666666666
sg710
F12.0
sg711
I108
sg712
g7
(g8
(I0
tp729
g10
tp730
Rp731
(I1
(I3
tp732
g719
I00
S'\x064v\xaf\xaf\xe7&@\x1d\xe7\n.\xb9S4\xc0\xafy`f\xf9\xc5\x04\xc0'
p733
tp734
bsg724
S'Cell[2].axon[15]'
p735
sI108
I156
tp736
a(F0.5797792556518585
S'Cell[1].apic[5] syn_ = new AmpaNmda(0.166666666667)'
p737
I1
(dp738
g709
F0.16666666666666666
sg710
F12.0
sg711
I108
sg712
g7
(g8
(I0
tp739
g10
tp740
Rp741
(I1
(I3
tp742
g719
I00
S"\xa8+\x0f\xd9\x97\xe6@@\xdb\xbb\xe5Z!HQ@\xeb\xeb\xe2\xd8\x0c\x9b'\xc0"
p743
tp744
bsg724
S'Cell[2].axon[28]'
p745
sI108
I60
tp746
a(F2.462714231397725
S'Cell[1].apic[25] syn_ = new AmpaNmda(0.9)'
p747
I1
(dp748
g709
F0.16666666666666666
sg710
F12.0
sg711
I108
sg712
g7
(g8
(I0
tp749
g10
tp750
Rp751
(I1
(I3
tp752
g719
I00
S'\xa4u\xe2\xb0 }\x18\xc0\xe8\x02\xb5\xaa\xa6&x@\xa2l\xb3\xcf\xed`\x1c\xc0'
p753
tp754
bsg724
S'Cell[2].axon[134]'
p755
sI108
I60
tp756
a(F2.2044280932625453
S'Cell[0].apic[110] syn_ = new AmpaNmda(0.5)'
p757
I0
(dp758
g709
F0.8333333333333333
sg710
F12.0
sg711
I108
sg712
g7
(g8
(I0
tp759
g10
tp760
Rp761
(I1
(I3
tp762
g719
I00
S'@\xd7JC\x9f\x82\xa8\xbf5\x06\xa0\x08\x05i3@\\O=\x7f\x1d\xb4H\xc0'
p763
tp764
bsg724
S'Cell[2].axon[392]'
p765
sI108
I12
tp766
a(F2.469674216697679
S'Cell[2].dend[1] syn_ = new FastInhib(0.928571428571)'
p767
I2
(dp768
S'seg'
p769
F0.30000000000000004
sS'hostfrom'
p770
F13.0
sS'gid'
p771
I157
sS'coords'
p772
g7
(g8
(I0
tp773
g10
tp774
Rp775
(I1
(I3
tp776
g14
(S'f8'
p777
I0
I1
tp778
Rp779
(I3
S'<'
p780
NNNI-1
I-1
I0
tp781
bI00
S"\xb3'\n_\xaf\xfe\\\xc0_g\x9c\x1f6$\r@O%6\xae\xa6c[\xc0"
p782
tp783
bsS'secnames'
p784
S'Cell[3].axon[14]'
p785
sI157
I108
tp786
a(F1.7589926334256694
S'Cell[0].dend[22] syn_ = new ExpSid(0.166666666667)'
p787
I0
(dp788
g769
F0.49999999999999994
sg770
F13.0
sg771
I13
sg772
g7
(g8
(I0
tp789
g10
tp790
Rp791
(I1
(I3
tp792
g779
I00
S'\xe6U\xad\xd8j\t8\xc0F\x9a\x16%\x8a\x1dR\xc0\x00\x00\x00\x80=\x8a5\xc0'
p793
tp794
bsg784
S'Cell[0].axon[12]'
p795
sI13
I12
tp796
a(F1.499390141902759
S'Cell[0].dend[41] syn_ = new AmpaNmda(0.5)'
p797
I0
(dp798
S'seg'
p799
F0.5
sS'hostfrom'
p800
F14.0
sS'gid'
p801
I110
sS'coords'
p802
g7
(g8
(I0
tp803
g10
tp804
Rp805
(I1
(I3
tp806
g14
(S'f8'
p807
I0
I1
tp808
Rp809
(I3
S'<'
p810
NNNI-1
I-1
I0
tp811
bI00
S"\x00\x00\x00\xc0\xcc\x0c?@\xaa\xf2@\x1d&\xbd'\xc0\xfe\x93Y\xe1\xd0\xcd\x10\xc0"
p812
tp813
bsS'secnames'
p814
S'Cell[2].axon[68]'
p815
sI110
I12
tp816
a(F1.6198101459154957
S'Cell[0].apic[94] syn_ = new ExpSid(0.166666666667)'
p817
I0
(dp818
S'seg'
p819
F0.16666666666666666
sS'hostfrom'
p820
F15.0
sS'gid'
p821
I111
sS'coords'
p822
g7
(g8
(I0
tp823
g10
tp824
Rp825
(I1
(I3
tp826
g14
(S'f8'
p827
I0
I1
tp828
Rp829
(I3
S'<'
p830
NNNI-1
I-1
I0
tp831
bI00
S'9\xda\xad\x9b\x0cp:\xc0\x06\nf\xe0\xe8LV@\xc0\x8c\x9e\xc3\x0fNQ\xc0'
p832
tp833
bsS'secnames'
p834
S'Cell[2].axon[240]'
p835
sI111
I12
tp836
a(F2.2116389761411392
S'Cell[1].apic[1] syn_ = new ExpSid(0.3)'
p837
I1
(dp838
g819
F0.5
sg820
F15.0
sg821
I111
sg822
g7
(g8
(I0
tp839
g10
tp840
Rp841
(I1
(I3
tp842
g829
I00
S'\xdeZ\xce\xe0\x7f\xf1P@N\xa5J\xdc\xb3"O@\xd24\xb8\xe8\xefU1\xc0'
p843
tp844
bsg834
S'Cell[2].axon[269]'
p845
sI111
I60
tp846
a(F2.0716608368438623
S'Cell[0].dend[39] syn_ = new ExpSid(0.833333333333)'
p847
I0
(dp848
g819
F0.5
sg820
F15.0
sg821
I111
sg822
g7
(g8
(I0
tp849
g10
tp850
Rp851
(I1
(I3
tp852
g829
I00
S'\x1f\xf3\xb0EW\x1b7@R5T\xdd\n\x9c4\xc0n\x8b~>\xc5CF\xc0'
p853
tp854
bsg834
S'Cell[2].axon[286]'
p855
sI111
I12
tp856
a(F2.0745891828068035
S'Cell[3].dend[45] syn_ = new FastInhib(0.166666666667)'
p857
I3
(dp858
g819
F0.5
sg820
F15.0
sg821
I159
sg822
g7
(g8
(I0
tp859
g10
tp860
Rp861
(I1
(I3
tp862
g829
I00
S'\xcc3\xe2\x19;z=\xc0~\x81\xe9\xbfN\xac6\xc0\x88\xc55\x1a\xf55*@'
p863
tp864
bsg834
S'Cell[3].axon[334]'
p865
sI159
I156
tp866
a(F2.2028855068703908
S'Cell[1].dend[8] syn_ = new AmpaNmda(0.166666666667)'
p867
I1
(dp868
S'seg'
p869
F0.5
sS'hostfrom'
p870
F16.0
sS'gid'
p871
I160
sS'coords'
p872
g7
(g8
(I0
tp873
g10
tp874
Rp875
(I1
(I3
tp876
g14
(S'f8'
p877
I0
I1
tp878
Rp879
(I3
S'<'
p880
NNNI-1
I-1
I0
tp881
bI00
S'\xc5\x03\x9eU\xcc\x954@\xafv\x02ZCW5@\xe8\xf4\xb9\x10\x19\x0f/\xc0'
p882
tp883
bsS'secnames'
p884
S'Cell[3].axon[136]'
p885
sI160
I60
tp886
a(F1.788291412374955
S'Cell[3].dend[39] syn_ = new FastInhib(0.5)'
p887
I3
(dp888
g869
F0.5
sg870
F16.0
sg871
I112
sg872
g7
(g8
(I0
tp889
g10
tp890
Rp891
(I1
(I3
tp892
g879
I00
S'Q\xf6\x9f#\xcd@6\xc0\xabE@\x86\xbc\x03#\xc0^\x97\xad\x15\xaf\xbe(@'
p893
tp894
bsg884
S'Cell[2].axon[24]'
p895
sI112
I156
tp896
a(F0.5101110211763529
S'Cell[2].dend[10] syn_ = new FastInhib(0.5)'
p897
I2
(dp898
g869
F0.16666666666666666
sg870
F16.0
sg871
I112
sg872
g7
(g8
(I0
tp899
g10
tp900
Rp901
(I1
(I3
tp902
g879
I00
S'<\xa6\x17@\x0b\x12"\xc05\x9es@\x1co.@\x00\x00\x00\xc0\xcc\xcc\x11@'
p903
tp904
bsg884
S'Cell[2].axon[27]'
p905
sI112
I108
tp906
a(F1.8020892356007079
S'Cell[0].dend[42] syn_ = new AmpaNmda(0.5)'
p907
I0
(dp908
g869
F0.5
sg870
F16.0
sg871
I112
sg872
g7
(g8
(I0
tp909
g10
tp910
Rp911
(I1
(I3
tp912
g879
I00
S'\x9f\x06\x0b\x87\x1c(\x16@\x02\x80>\x06\xf7\\I\xc0)G\xfdy\x81+6\xc0'
p913
tp914
bsg884
S'Cell[2].axon[100]'
p915
sI112
I12
tp916
a(F1.40806800025703
S'Cell[0].dend[48] syn_ = new ExpSid(0.166666666667)'
p917
I0
(dp918
S'seg'
p919
F0.5
sS'hostfrom'
p920
F17.0
sS'gid'
p921
I113
sS'coords'
p922
g7
(g8
(I0
tp923
g10
tp924
Rp925
(I1
(I3
tp926
g14
(S'f8'
p927
I0
I1
tp928
Rp929
(I3
S'<'
p930
NNNI-1
I-1
I0
tp931
bI00
S',=a\xfc<#!@\x932\xe6\xbe\x00lO\xc0\xec\x06\xb8\x1d/\xc6\x02\xc0'
p932
tp933
bsS'secnames'
p934
S'Cell[2].axon[614]'
p935
sI113
I12
tp936
a(F0.9835784126089249
S'Cell[0].dend[32] syn_ = new ExpSid(0.0714285714286)'
p937
I0
(dp938
g919
F0.6428571428571428
sg920
F17.0
sg921
I113
sg922
g7
(g8
(I0
tp939
g10
tp940
Rp941
(I1
(I3
tp942
g929
I00
S'\x93\x82\x0f\xf8\xea\xbc%@\xbf\xbb\x121\xd6\x93R\xc0}l\xac\xf2\xfe\x849\xc0'
p943
tp944
bsg934
S'Cell[2].axon[758]'
p945
sI113
I12
tp946
a(F1.8032600287999858
S'Cell[1].apic[8] syn_ = new ExpSid(0.5)'
p947
I1
(dp948
g919
F0.8333333333333333
sg920
F17.0
sg921
I161
sg922
g7
(g8
(I0
tp949
g10
tp950
Rp951
(I1
(I3
tp952
g929
I00
S'\xaf\x93\xae\x83\\\xb0E@\xfez\xca\x109\x81S@\x00\x00\x00\x80\x14\xae\x01\xc0'
p953
tp954
bsg934
S'Cell[3].axon[110]'
p955
sI161
I60
tp956
a(F1.5329419555997255
S'Cell[0].dend[20] syn_ = new AmpaNmda(0.9)'
p957
I0
(dp958
S'seg'
p959
F0.07142857142857142
sS'hostfrom'
p960
F18.0
sS'gid'
p961
I114
sS'coords'
p962
g7
(g8
(I0
tp963
g10
tp964
Rp965
(I1
(I3
tp966
g14
(S'f8'
p967
I0
I1
tp968
Rp969
(I3
S'<'
p970
NNNI-1
I-1
I0
tp971
bI00
S'\xaa\xc9\xba\xe3$z\\\xc0\xe6J\x9cJ\xd6~V\xc0\xd8\x80z?\xce\xc5@\xc0'
p972
tp973
bsS'secnames'
p974
S'Cell[2].axon[31]'
p975
sI114
I12
tp976
a(F1.943095926536789
S'Cell[3].dend[47] syn_ = new FastInhib(0.3)'
p977
I3
(dp978
g959
F0.8333333333333333
sg960
F18.0
sg961
I66
sg962
g7
(g8
(I0
tp979
g10
tp980
Rp981
(I1
(I3
tp982
g969
I00
S"\xd3\xea\x87\xf8\xee\x11:\xc0w\xb1\xf7e\xf22I\xc0\xe9\xd3\xc7\xc9\xb2_'\xc0"
p983
tp984
bsg974
S'Cell[1].axon[14]'
p985
sI66
I156
tp986
a(F1.51514249229746
S'Cell[0].apic[96] syn_ = new AmpaNmda(0.5)'
p987
I0
(dp988
g959
F0.1
sg960
F18.0
sg961
I66
sg962
g7
(g8
(I0
tp989
g10
tp990
Rp991
(I1
(I3
tp992
g969
I00
S'\xf4[\x0cJ\xd2o=\xc0i\xc4\xa7\xbe\xd1\xa5Q@\x0c\x11t\x0f\x9e\x82:\xc0'
p993
tp994
bsg974
S'Cell[1].axon[30]'
p995
sI66
I12
tp996
a(F2.3434495149833605
S'Cell[0].apic[105] syn_ = new ExpSid(0.5)'
p997
I0
(dp998
S'seg'
p999
F0.07142857142857142
sS'hostfrom'
p1000
F19.0
sS'gid'
p1001
I115
sS'coords'
p1002
g7
(g8
(I0
tp1003
g10
tp1004
Rp1005
(I1
(I3
tp1006
g14
(S'f8'
p1007
I0
I1
tp1008
Rp1009
(I3
S'<'
p1010
NNNI-1
I-1
I0
tp1011
bI00
S'\xd6i\xb1O\xcc?T\xc0\xf3ukF2{M@\x00\x00\x00\x80=\x8a/@'
p1012
tp1013
bsS'secnames'
p1014
S'Cell[2].axon[75]'
p1015
sI115
I12
tp1016
a(F0.9557778763392969
S'Cell[3].dend[43] syn_ = new FastInhib(0.5)'
p1017
I3
(dp1018
g999
F0.1
sg1000
F19.0
sg1001
I67
sg1002
g7
(g8
(I0
tp1019
g10
tp1020
Rp1021
(I1
(I3
tp1022
g1009
I00
S'\xcd\xf3\xae.\xbc{\xf5?b\x06\x80\xbf<\xbdC\xc0>\r]\xdbMJ5@'
p1023
tp1024
bsg1014
S'Cell[1].axon[11]'
p1025
sI67
I156
tp1026
a(F2.4565024459197558
S'Cell[3].dend[11] syn_ = new FastInhib(0.5)'
p1027
I3
(dp1028
S'seg'
p1029
F0.16666666666666666
sS'hostfrom'
p1030
F20.0
sS'gid'
p1031
I68
sS'coords'
p1032
g7
(g8
(I0
tp1033
g10
tp1034
Rp1035
(I1
(I3
tp1036
g14
(S'f8'
p1037
I0
I1
tp1038
Rp1039
(I3
S'<'
p1040
NNNI-1
I-1
I0
tp1041
bI00
S'\xde6(\xd8S\xaf2\xc0c\xadBr\x17\x1c\t\xc0\x8c<P\xe2K\r\xfc?'
p1042
tp1043
bsS'secnames'
p1044
S'Cell[1].axon[23]'
p1045
sI68
I156
tp1046
a(F2.085460100676888
S'Cell[3].dend[17] syn_ = new FastInhib(0.5)'
p1047
I3
g1028
I68
I156
tp1048
a(F1.8757831614287117
S'Cell[0].dend[32] syn_ = new ExpSid(0.785714285714)'
p1049
I0
(dp1050
S'seg'
p1051
F0.8999999999999999
sS'hostfrom'
p1052
F21.0
sS'gid'
p1053
I165
sS'coords'
p1054
g7
(g8
(I0
tp1055
g10
tp1056
Rp1057
(I1
(I3
tp1058
g14
(S'f8'
p1059
I0
I1
tp1060
Rp1061
(I3
S'<'
p1062
NNNI-1
I-1
I0
tp1063
bI00
S'\x14<\xce\xa1\xfb\xcdP@\xd8\x80\x8b\xa5\xc8ve\xc0\xfb\xc7:\x84\xf0\n \xc0'
p1064
tp1065
bsS'secnames'
p1066
S'Cell[3].axon[43]'
p1067
sI165
I12
tp1068
a(F2.430316074923418
S'Cell[2].dend[9] syn_ = new FastInhib(0.5)'
p1069
I2
(dp1070
g1051
F0.5
sg1052
F21.0
sg1053
I165
sg1054
g7
(g8
(I0
tp1071
g10
tp1072
Rp1073
(I1
(I3
tp1074
g1061
I00
S'\x9e\n>`\xbcI\x06@\xcd\xecp\x1bL\xc2B@\x01\x83I\x1a\x7f\x9b2@'
p1075
tp1076
bsg1066
S'Cell[3].axon[103]'
p1077
sI165
I108
tp1078
a(F1.9378461645496838
S'Cell[0].apic[112] syn_ = new ExpSid(0.833333333333)'
p1079
I0
(dp1080
g1051
F0.2777777777777778
sg1052
F21.0
sg1053
I165
sg1054
g7
(g8
(I0
tp1081
g10
tp1082
Rp1083
(I1
(I3
tp1084
g1061
I00
S"\xa4\xa8Q\x90\xb8\xb9K@\x0e\x9a\xed\xa3\x12\x03>@na'+6\xecP\xc0"
p1085
tp1086
bsg1066
S'Cell[3].axon[153]'
p1087
sI165
I12
tp1088
a(F0.5031480526492269
S'Cell[2].dend[1] syn_ = new FastInhib(0.642857142857)'
p1089
I2
(dp1090
g1051
F0.7
sg1052
F21.0
sg1053
I165
sg1054
g7
(g8
(I0
tp1091
g10
tp1092
Rp1093
(I1
(I3
tp1094
g1061
I00
S'\xb8\xb3\x19\xc31\xd7T\xc0zi`\xd5\xb6Z\xd5\xbf\\(\x18j\x9dzU\xc0'
p1095
tp1096
bsg1066
S'Cell[3].axon[180]'
p1097
sI165
I108
tp1098
a(F2.3457121401893475
S'Cell[3].dend[49] syn_ = new FastInhib(0.5)'
p1099
I3
(dp1100
g1051
F0.1
sg1052
F21.0
sg1053
I165
sg1054
g7
(g8
(I0
tp1101
g10
tp1102
Rp1103
(I1
(I3
tp1104
g1061
I00
S'\xb2\xa1\x1a\x0b\xc5\xc5O\xc0$\xbc\xc8X:\x1bF\xc0\x00\x00\x00\xc0\x1e\x05.\xc0'
p1105
tp1106
bsg1066
S'Cell[3].axon[185]'
p1107
sI165
I156
tp1108
a(F1.6905125873344862
S'Cell[3].dend[63] syn_ = new FastInhib(0.166666666667)'
p1109
I3
(dp1110
g1051
F0.5
sg1052
F21.0
sg1053
I117
sg1054
g7
(g8
(I0
tp1111
g10
tp1112
Rp1113
(I1
(I3
tp1114
g1061
I00
S'\x84\xe5\x07\xc9\x99D @\xb2LpZa\x03R@\x00\x00\x00\x80\xc2u9\xc0'
p1115
tp1116
bsg1066
S'Cell[2].axon[266]'
p1117
sI117
I156
tp1118
a(F2.3173332549039083
S'Cell[3].dend[63] syn_ = new FastInhib(0.166666666667)'
p1119
I3
(dp1120
g1051
F0.5
sg1052
F21.0
sg1053
I117
sg1054
g7
(g8
(I0
tp1121
g10
tp1122
Rp1123
(I1
(I3
tp1124
g1061
I00
S'\xf2\xf1(\xa5\xcb\xa8"@\xa2\xf2@\xa9\xc1\x92R@\x00\x00\x00\x80\xc2u9\xc0'
p1125
tp1126
bsg1066
S'Cell[2].axon[280]'
p1127
sI117
I156
tp1128
a(F1.3252373589469322
S'Cell[2].dend[21] syn_ = new FastInhib(0.166666666667)'
p1129
I2
(dp1130
g1051
F0.2777777777777778
sg1052
F21.0
sg1053
I69
sg1054
g7
(g8
(I0
tp1131
g10
tp1132
Rp1133
(I1
(I3
tp1134
g1061
I00
S'\x98\xe8\nE\xf1\xc9 \xc0\xe5c\xae\x19\x052@\xc0\x00\x00\x00\x80\x14\xae @'
p1135
tp1136
bsg1066
S'Cell[1].axon[4]'
p1137
sI69
I108
tp1138
a(F2.3359918470729064
S'Cell[3].dend[12] syn_ = new FastInhib(0.5)'
p1139
I3
(dp1140
g1051
F0.3888888888888889
sg1052
F21.0
sg1053
I69
sg1054
g7
(g8
(I0
tp1141
g10
tp1142
Rp1143
(I1
(I3
tp1144
g1061
I00
S'\xaf\x9d\xf6G\xde\x901\xc0s\xaf\x14\xa5M\xf2.\xc0\x83\xc0\x1c\xe9\xd5d\t@'
p1145
tp1146
bsg1066
S'Cell[1].axon[4]'
p1147
sI69
I156
tp1148
a(F2.3406876753053316
S'Cell[3].dend[35] syn_ = new FastInhib(0.166666666667)'
p1149
I3
g1140
I69
I156
tp1150
a(F1.8060554487456588
S'Cell[0].dend[30] syn_ = new ExpSid(0.5)'
p1151
I0
(dp1152
S'seg'
p1153
F0.5
sS'hostfrom'
p1154
F23.0
sS'gid'
p1155
I71
sS'coords'
p1156
g7
(g8
(I0
tp1157
g10
tp1158
Rp1159
(I1
(I3
tp1160
g14
(S'f8'
p1161
I0
I1
tp1162
Rp1163
(I3
S'<'
p1164
NNNI-1
I-1
I0
tp1165
bI00
S'\x00\x00\x00\xd0\xcc\xcc\x14@\x00\x00\x00@\n\xcfW\xc0\x00\x00\x00\xeeQ8\x10\xc0'
p1166
tp1167
bsS'secnames'
p1168
S'Cell[1].axon[13]'
p1169
sI71
I12
tp1170
a(F2.2438381368699507
S'Cell[0].dend[23] syn_ = new ExpSid(0.833333333333)'
p1171
I0
(dp1172
g1153
F0.16666666666666666
sg1154
F23.0
sg1155
I167
sg1156
g7
(g8
(I0
tp1173
g10
tp1174
Rp1175
(I1
(I3
tp1176
g1163
I00
S'\xcc>\x04\xe1\xe2\x98D\xc0\xe0V\x06\xb2\xcd0R\xc0\x18\xae\xfa\xd4q\xc9\x16\xc0'
p1177
tp1178
bsg1168
S'Cell[3].axon[183]'
p1179
sI167
I12
tp1180
a(F2.428986963280825
S'Cell[3].dend[108] syn_ = new FastInhib(0.166666666667)'
p1181
I3
(dp1182
g1153
F0.6428571428571428
sg1154
F23.0
sg1155
I23
sg1156
g7
(g8
(I0
tp1183
g10
tp1184
Rp1185
(I1
(I3
tp1186
g1163
I00
S"\xce\xaf\x84N\xc3\xdb'\xc0\xf1\xe7\xcc\x11\x90\xf7X@\xdbq\xb0\xc9\x11\xb7\x19@"
p1187
tp1188
bsg1168
S'Cell[0].axon[3]'
p1189
sI23
I156
tp1190
a(F1.8382761586732328
S'Cell[0].dend[47] syn_ = new AmpaNmda(0.166666666667)'
p1191
I0
(dp1192
S'seg'
p1193
F0.8333333333333333
sS'hostfrom'
p1194
F24.0
sS'gid'
p1195
I72
sS'coords'
p1196
g7
(g8
(I0
tp1197
g10
tp1198
Rp1199
(I1
(I3
tp1200
g14
(S'f8'
p1201
I0
I1
tp1202
Rp1203
(I3
S'<'
p1204
NNNI-1
I-1
I0
tp1205
bI00
S'1\n\xed\x99\xff\xc2@@4\x19,\x12!\x95Q\xc0Ns\\\xb4\xc2\x7f\x12@'
p1206
tp1207
bsS'secnames'
p1208
S'Cell[1].axon[0]'
p1209
sI72
I12
tp1210
a(F2.3358090080041154
S'Cell[2].dend[26] syn_ = new FastInhib(0.611111111111)'
p1211
I2
(dp1212
g1193
F0.2692307692307693
sg1194
F24.0
sg1195
I72
sg1196
g7
(g8
(I0
tp1213
g10
tp1214
Rp1215
(I1
(I3
tp1216
g1203
I00
S'B\x0e$=$iK\xc0#\xc2C\xc8b4b\xc0%\xf5\xb1D:\xedT\xc0'
p1217
tp1218
bsg1208
S'Cell[1].axon[56]'
p1219
sI72
I108
tp1220
a(F1.156259634734815
S'Cell[2].dend[21] syn_ = new FastInhib(0.5)'
p1221
I2
(dp1222
g1193
F0.07142857142857142
sg1194
F24.0
sg1195
I72
sg1196
g7
(g8
(I0
tp1223
g10
tp1224
Rp1225
(I1
(I3
tp1226
g1203
I00
S'\x9c\xc9\xe7-P\xb5\x1d@\xe8}\xac4\x14\x06E\xc0\x89\xc0\xb6\x80\xec\xa0#@'
p1227
tp1228
bsg1208
S'Cell[1].axon[72]'
p1229
sI72
I108
tp1230
a(F1.7882246155681385
S'Cell[0].apic[95] syn_ = new AmpaNmda(0.833333333333)'
p1231
I0
(dp1232
g1193
F0.16666666666666666
sg1194
F24.0
sg1195
I168
sg1196
g7
(g8
(I0
tp1233
g10
tp1234
Rp1235
(I1
(I3
tp1236
g1203
I00
S'\xf4K\x93e\xebqH\xc0~\x11\x92\xb4\xa6\xcbW@\x00\x00\x00\xc0\xcc\xdcQ\xc0'
p1237
tp1238
bsg1208
S'Cell[3].axon[288]'
p1239
sI168
I12
tp1240
a(F2.155986771754374
S'Cell[0].apic[123] syn_ = new AmpaNmda(0.5)'
p1241
I0
(dp1242
g1193
F0.8999999999999999
sg1194
F24.0
sg1195
I168
sg1196
g7
(g8
(I0
tp1243
g10
tp1244
Rp1245
(I1
(I3
tp1246
g1203
I00
S'\xa8\xcb\xcc\x83\x92\x84"@\xb2dR\x0c\x18\x9d2\xc0\x00\x00\x00\xc0\xcc\xdcQ\xc0'
p1247
tp1248
bsg1208
S'Cell[3].axon[538]'
p1249
sI168
I12
tp1250
a(F2.0706402584447297
S'Cell[2].dend[2] syn_ = new FastInhib(0.5)'
p1251
I2
(dp1252
g1193
F0.7
sg1194
F24.0
sg1195
I120
sg1196
g7
(g8
(I0
tp1253
g10
tp1254
Rp1255
(I1
(I3
tp1256
g1203
I00
S'\x1fTU)\xbf\xfc4\xc0`\xb3\x1e\xc3\xb72>@\x86vFeft.\xc0'
p1257
tp1258
bsg1208
S'Cell[2].axon[46]'
p1259
sI120
I108
tp1260
a(F1.4137772484431534
S'Cell[0].dend[4] syn_ = new AmpaNmda(0.833333333333)'
p1261
I0
(dp1262
g1193
F0.8333333333333333
sg1194
F24.0
sg1195
I120
sg1196
g7
(g8
(I0
tp1263
g10
tp1264
Rp1265
(I1
(I3
tp1266
g1203
I00
S'\x8b\x8a\x81\x80-T1\xc0\xec\xb92a\x9chQ\xc0\x12O\xdb^\x1b\x06,@'
p1267
tp1268
bsg1208
S'Cell[2].axon[123]'
p1269
sI120
I12
tp1270
a(F2.3653020888208425
S'Cell[1].dend[17] syn_ = new AmpaNmda(0.833333333333)'
p1271
I1
(dp1272
g1193
F0.8333333333333333
sg1194
F24.0
sg1195
I120
sg1196
g7
(g8
(I0
tp1273
g10
tp1274
Rp1275
(I1
(I3
tp1276
g1203
I00
S'EA\x93\xda\xe8\xb3Q@^\x14\n\xbb\xb7\xe4H\xc0\x1d\x89x\xd3\x8biA\xc0'
p1277
tp1278
bsg1208
S'Cell[2].axon[234]'
p1279
sI120
I60
tp1280
a(F1.8537327587293975
S'Cell[3].dend[62] syn_ = new FastInhib(0.1)'
p1281
I3
(dp1282
S'seg'
p1283
F0.1
sS'hostfrom'
p1284
F25.0
sS'gid'
p1285
I121
sS'coords'
p1286
g7
(g8
(I0
tp1287
g10
tp1288
Rp1289
(I1
(I3
tp1290
g14
(S'f8'
p1291
I0
I1
tp1292
Rp1293
(I3
S'<'
p1294
NNNI-1
I-1
I0
tp1295
bI00
S'\xfc\xdc\x12\x12^J$@\x9eI\xea7`\xc8T@{\x96\x87,=\xb2)\xc0'
p1296
tp1297
bsS'secnames'
p1298
S'Cell[2].axon[29]'
p1299
sI121
I156
tp1300
a(F0.38541791108206974
S'Cell[3].dend[2] syn_ = new FastInhib(0.5)'
p1301
I3
(dp1302
g1283
F0.5
sg1284
F25.0
sg1285
I169
sg1286
g7
(g8
(I0
tp1303
g10
tp1304
Rp1305
(I1
(I3
tp1306
g1293
I00
S'\x00\x00\x000\\\xaf@\xc0\x00\x00\x00\xa0G\xe1*\xc0\x00\x00\x00\xc0\xf5(\x02@'
p1307
tp1308
bsg1298
S'Cell[3].soma[0]'
p1309
sI169
I156
tp1310
a(F1.4861641986072032
S'Cell[3].dend[46] syn_ = new FastInhib(0.5)'
p1311
I3
g1302
I169
I156
tp1312
a(F2.445415556597842
S'Cell[0].dend[20] syn_ = new ExpSid(0.3)'
p1313
I0
(dp1314
g1283
F0.21428571428571427
sg1284
F25.0
sg1285
I169
sg1286
g7
(g8
(I0
tp1315
g10
tp1316
Rp1317
(I1
(I3
tp1318
g1293
I00
S'\xf2\xf8){v\xd7K\xc0^\xdb\xe77C\\R\xc0\xff\xff\xff\xff\xd6c?\xc0'
p1319
tp1320
bsg1298
S'Cell[3].axon[171]'
p1321
sI169
I12
tp1322
a(F2.387719584820812
S'Cell[1].apic[10] syn_ = new AmpaNmda(0.5)'
p1323
I1
(dp1324
S'seg'
p1325
F0.3181818181818182
sS'hostfrom'
p1326
F26.0
sS'gid'
p1327
I26
sS'coords'
p1328
g7
(g8
(I0
tp1329
g10
tp1330
Rp1331
(I1
(I3
tp1332
g14
(S'f8'
p1333
I0
I1
tp1334
Rp1335
(I3
S'<'
p1336
NNNI-1
I-1
I0
tp1337
bI00
S'z\xe0\x87\x83K7E@\x92\x19\xfd\x11\xd9BY@\x00\x00\x00\x00\x00\x00\x00\xc0'
p1338
tp1339
bsS'secnames'
p1340
S'Cell[0].axon[7]'
p1341
sI26
I60
tp1342
a(F1.8728060726608882
S'Cell[3].dend[119] syn_ = new FastInhib(0.833333333333)'
p1343
I3
(dp1344
g1325
F0.6818181818181819
sg1326
F26.0
sg1327
I26
sg1328
g7
(g8
(I0
tp1345
g10
tp1346
Rp1347
(I1
(I3
tp1348
g1335
I00
S'\xf5\xaf:\x19\x9arB@*\xe1%!\x8a\xc2g@\x00\x00\x00\xc0\xcc\xcc\xec\xbf'
p1349
tp1350
bsg1340
S'Cell[0].axon[7]'
p1351
sI26
I156
tp1352
a(F0.6945200150223402
S'Cell[0].dend[43] syn_ = new AmpaNmda(0.5)'
p1353
I0
(dp1354
g1325
F0.07142857142857142
sg1326
F26.0
sg1327
I26
sg1328
g7
(g8
(I0
tp1355
g10
tp1356
Rp1357
(I1
(I3
tp1358
g1335
I00
S'\x17\xd0.$:\x8c<@\xf1\xef\xfa\xe43\xe6I\xc0s\x18\x9b\x08\x8bi0@'
p1359
tp1360
bsg1340
S'Cell[0].axon[46]'
p1361
sI26
I12
tp1362
a(F0.8489393437227213
S'Cell[2].dend[4] syn_ = new FastInhib(0.5)'
p1363
I2
(dp1364
g1325
F0.5
sg1326
F26.0
sg1327
I170
sg1328
g7
(g8
(I0
tp1365
g10
tp1366
Rp1367
(I1
(I3
tp1368
g1335
I00
S'\xce74K\xa3kA\xc0(\x87\x8c\x8e\xd0\xd1G@rU;\xf3\xab\xd0@\xc0'
p1369
tp1370
bsg1340
S'Cell[3].axon[506]'
p1371
sI170
I108
tp1372
a(F1.5533424049321436
S'Cell[1].dend[2] syn_ = new ExpSid(0.5)'
p1373
I1
(dp1374
S'seg'
p1375
F0.36666666666666664
sS'hostfrom'
p1376
F27.0
sS'gid'
p1377
I123
sS'coords'
p1378
g7
(g8
(I0
tp1379
g10
tp1380
Rp1381
(I1
(I3
tp1382
g14
(S'f8'
p1383
I0
I1
tp1384
Rp1385
(I3
S'<'
p1386
NNNI-1
I-1
I0
tp1387
bI00
S'#0\xed\x9f\x1e\r8@l,&\xe0\x06\xf8;@\xfb8\x0fN\x00\x925\xc0'
p1388
tp1389
bsS'secnames'
p1390
S'Cell[2].axon[32]'
p1391
sI123
I60
tp1392
a(F2.3308552945094116
S'Cell[3].dend[69] syn_ = new FastInhib(0.3)'
p1393
I3
(dp1394
g1375
F0.16666666666666666
sg1376
F27.0
sg1377
I171
sg1378
g7
(g8
(I0
tp1395
g10
tp1396
Rp1397
(I1
(I3
tp1398
g1385
I00
S'mp\x81\x8e\x1c".@\xb4\x11-\xf7\x96\xce^@U\xabp4\xbe\x1e\x00@'
p1399
tp1400
bsg1390
S'Cell[3].axon[4]'
p1401
sI171
I156
tp1402
a(F2.3499413884686615
S'Cell[3].dend[30] syn_ = new FastInhib(0.5)'
p1403
I3
(dp1404
g1375
F0.5
sg1376
F27.0
sg1377
I171
sg1378
g7
(g8
(I0
tp1405
g10
tp1406
Rp1407
(I1
(I3
tp1408
g1385
I00
S"\xa6\xac\xab\xf1\xd8\xd8=@\x8c\n\xc6E'\\6\xc0\x00\x00\x00\xc0\xf5(#\xc0"
p1409
tp1410
bsg1390
S'Cell[3].axon[30]'
p1411
sI171
I156
tp1412
a(F1.6436348770607292
S'Cell[2].dend[17] syn_ = new FastInhib(0.166666666667)'
p1413
I2
(dp1414
S'seg'
p1415
F0.5
sS'hostfrom'
p1416
F28.0
sS'gid'
p1417
I172
sS'coords'
p1418
g7
(g8
(I0
tp1419
g10
tp1420
Rp1421
(I1
(I3
tp1422
g14
(S'f8'
p1423
I0
I1
tp1424
Rp1425
(I3
S'<'
p1426
NNNI-1
I-1
I0
tp1427
bI00
S'\xd9"\x97\x13)HK\xc0\xd5\xc0\xf0\x8d\xab\x1d-@L\x93\xcc\xab\xeb\x9f$@'
p1428
tp1429
bsS'secnames'
p1430
S'Cell[3].axon[19]'
p1431
sI172
I108
tp1432
a(F2.2625858760662156
S'Cell[0].apic[107] syn_ = new AmpaNmda(0.833333333333)'
p1433
I0
(dp1434
g1415
F0.7
sg1416
F28.0
sg1417
I172
sg1418
g7
(g8
(I0
tp1435
g10
tp1436
Rp1437
(I1
(I3
tp1438
g1425
I00
S'\t\xf8\xf4\xff\x91\xc5(\xc0\xef\x9a\xa4\xfc\xf8\x1b:@\xb9\x05\xbe\xa9\xdb\x17O\xc0'
p1439
tp1440
bsg1430
S'Cell[3].axon[29]'
p1441
sI172
I12
tp1442
a(F2.4030793578949043
S'Cell[3].dend[45] syn_ = new FastInhib(0.166666666667)'
p1443
I3
(dp1444
g1415
F0.5
sg1416
F28.0
sg1417
I172
sg1418
g7
(g8
(I0
tp1445
g10
tp1446
Rp1447
(I1
(I3
tp1448
g1425
I00
S'\x00\x00\x00@\nw>\xc0\x00\x00\x00@\n\x976\xc0\x00\x00\x00`f\xe60@'
p1449
tp1450
bsg1430
S'Cell[3].axon[51]'
p1451
sI172
I156
tp1452
a(F2.142064459881787
S'Cell[0].dend[32] syn_ = new AmpaNmda(0.214285714286)'
p1453
I0
(dp1454
S'seg'
p1455
F0.5
sS'hostfrom'
p1456
F30.0
sS'gid'
p1457
I126
sS'coords'
p1458
g7
(g8
(I0
tp1459
g10
tp1460
Rp1461
(I1
(I3
tp1462
g14
(S'f8'
p1463
I0
I1
tp1464
Rp1465
(I3
S'<'
p1466
NNNI-1
I-1
I0
tp1467
bI00
S'F\t3YE\xa36@\xb4\x17\xcc\x90I\xcaW\xc0\x95*\x7f\xe5\x83\x8c1\xc0'
p1468
tp1469
bsS'secnames'
p1470
S'Cell[2].axon[7]'
p1471
sI126
I12
tp1472
a(F2.4674434921123374
S'Cell[0].apic[72] syn_ = new AmpaNmda(0.5)'
p1473
I0
(dp1474
g1455
F0.5
sg1456
F30.0
sg1457
I126
sg1458
g7
(g8
(I0
tp1475
g10
tp1476
Rp1477
(I1
(I3
tp1478
g1465
I00
S'P*\x88\xdc5\xf3\xcc?`\xb6\xf3|\x90\np@P\xdb\xb6?\tOJ\xc0'
p1479
tp1480
bsg1470
S'Cell[2].axon[119]'
p1481
sI126
I12
tp1482
a(F1.5546159481131456
S'Cell[3].dend[63] syn_ = new FastInhib(0.833333333333)'
p1483
I3
(dp1484
g1455
F0.16666666666666666
sg1456
F30.0
sg1457
I126
sg1458
g7
(g8
(I0
tp1485
g10
tp1486
Rp1487
(I1
(I3
tp1488
g1465
I00
S'\x83\x14#$\x12\x10\x07\xc0\xc7~\x83Y\xbf\xf4Y@\xcb\x82\xdf:Z\xf8F\xc0'
p1489
tp1490
bsg1470
S'Cell[2].axon[131]'
p1491
sI126
I156
tp1492
a(F0.9836688758404012
S'Cell[3].dend[7] syn_ = new FastInhib(0.5)'
p1493
I3
(dp1494
g1455
F0.8333333333333333
sg1456
F30.0
sg1457
I174
sg1458
g7
(g8
(I0
tp1495
g10
tp1496
Rp1497
(I1
(I3
tp1498
g1465
I00
S'\xd4\x97\x90\xc8&\x03\\\xc0X\xb3\xa3\xe3\x02\xb9C\xc0\x1ch\xc7\xb8o\xcc0@'
p1499
tp1500
bsg1470
S'Cell[3].axon[249]'
p1501
sI174
I156
tp1502
a(F2.071775971029733
S'Cell[0].dend[41] syn_ = new AmpaNmda(0.7)'
p1503
I0
(dp1504
g1455
F0.5
sg1456
F30.0
sg1457
I174
sg1458
g7
(g8
(I0
tp1505
g10
tp1506
Rp1507
(I1
(I3
tp1508
g1465
I00
S'\x00\x85\xe0\x0e\xf7\x86F@\x81\x14 \xed\x1d\xf5\xe5\xbf\x02}\x8e\xb8s70@'
p1509
tp1510
bsg1470
S'Cell[3].axon[267]'
p1511
sI174
I12
tp1512
a(F2.3038936279859303
S'Cell[1].apic[19] syn_ = new ExpSid(0.1)'
p1513
I1
(dp1514
S'seg'
p1515
F0.5909090909090909
sS'hostfrom'
p1516
F31.0
sS'gid'
p1517
I175
sS'coords'
p1518
g7
(g8
(I0
tp1519
g10
tp1520
Rp1521
(I1
(I3
tp1522
g14
(S'f8'
p1523
I0
I1
tp1524
Rp1525
(I3
S'<'
p1526
NNNI-1
I-1
I0
tp1527
bI00
S'\xd3\xda8\x0e\xa6\xe7P@\xf4\xbf\xef\xcfV|s@\xebr\xc4\x1f\xac\xabC\xc0'
p1528
tp1529
bsS'secnames'
p1530
S'Cell[3].axon[154]'
p1531
sI175
I60
tp1532
a(F1.4724273391059637
S'Cell[3].dend[27] syn_ = new FastInhib(0.833333333333)'
p1533
I3
(dp1534
g1515
F0.5
sg1516
F31.0
sg1517
I175
sg1518
g7
(g8
(I0
tp1535
g10
tp1536
Rp1537
(I1
(I3
tp1538
g1525
I00
S'\x0b\x8a\xedf\x10\x913@\xfc/\x94,\xea\x93\x1e\xc0jJ\x9a\x14\xdd\xf1H\xc0'
p1539
tp1540
bsg1530
S'Cell[3].axon[229]'
p1541
sI175
I156
tp1542
a(F1.6586769933907755
S'Cell[1].dend[17] syn_ = new AmpaNmda(0.5)'
p1543
I1
(dp1544
S'seg'
p1545
F0.7857142857142856
sS'hostfrom'
p1546
F32.0
sS'gid'
p1547
I32
sS'coords'
p1548
g7
(g8
(I0
tp1549
g10
tp1550
Rp1551
(I1
(I3
tp1552
g14
(S'f8'
p1553
I0
I1
tp1554
Rp1555
(I3
S'<'
p1556
NNNI-1
I-1
I0
tp1557
bI00
S'\x04\xd2\xc5\xdf]\x8bR@\xdc^\x9b\x0c\xa0oA\xc0\xa2\x1b\x13}$\xd1?\xc0'
p1558
tp1559
bsS'secnames'
p1560
S'Cell[0].axon[24]'
p1561
sI32
I60
tp1562
a(F1.750456123840126
S'Cell[0].dend[32] syn_ = new AmpaNmda(0.642857142857)'
p1563
I0
(dp1564
g1545
F0.5
sg1546
F32.0
sg1547
I176
sg1548
g7
(g8
(I0
tp1565
g10
tp1566
Rp1567
(I1
(I3
tp1568
g1555
I00
S'\xfa\xb6\xcd\xd0+\xc1J@$?\x85>@\xdfc\xc0t\xd0\x17\xbc\xa5\xb5\x1a\xc0'
p1569
tp1570
bsg1560
S'Cell[3].axon[19]'
p1571
sI176
I12
tp1572
a(F1.3675191703030543
S'Cell[3].dend[56] syn_ = new FastInhib(0.5)'
p1573
I3
(dp1574
S'seg'
p1575
F0.5
sS'hostfrom'
p1576
F33.0
sS'gid'
p1577
I177
sS'coords'
p1578
g7
(g8
(I0
tp1579
g10
tp1580
Rp1581
(I1
(I3
tp1582
g14
(S'f8'
p1583
I0
I1
tp1584
Rp1585
(I3
S'<'
p1586
NNNI-1
I-1
I0
tp1587
bI00
S'2\xb6\xd5U\x9e\x18"\xc0\x0b\xa6\xa4\xa5\xcc\x88I@\x00\x00\x00`\x8f\xc2\xc5\xbf'
p1588
tp1589
bsS'secnames'
p1590
S'Cell[3].axon[43]'
p1591
sI177
I156
tp1592
a(F1.686116940047566
S'Cell[3].dend[119] syn_ = new FastInhib(0.833333333333)'
p1593
I3
(dp1594
g1575
F0.8999999999999999
sg1576
F33.0
sg1577
I177
sg1578
g7
(g8
(I0
tp1595
g10
tp1596
Rp1597
(I1
(I3
tp1598
g1585
I00
S'\x8f\xb0\xcf\xfeE\xd3@@\t\xa9\x11\x93\xd7\xc2g@]\x8a\x93\x8b\x9cK\x01\xc0'
p1599
tp1600
bsg1590
S'Cell[3].axon[67]'
p1601
sI177
I156
tp1602
a(F2.092978013560008
S'Cell[3].dend[119] syn_ = new FastInhib(0.166666666667)'
p1603
I3
(dp1604
g1575
F0.7857142857142856
sg1576
F33.0
sg1577
I177
sg1578
g7
(g8
(I0
tp1605
g10
tp1606
Rp1607
(I1
(I3
tp1608
g1585
I00
S'\x08\xecDQ^*1@\x95H\xd5\xf3\xce\x99e@/d\x06\xe2K\x11\x0c@'
p1609
tp1610
bsg1590
S'Cell[3].axon[120]'
p1611
sI177
I156
tp1612
a(F1.6483963320029968
S'Cell[3].dend[64] syn_ = new FastInhib(0.5)'
p1613
I3
(dp1614
S'seg'
p1615
F0.7
sS'hostfrom'
p1616
F34.0
sS'gid'
p1617
I82
sS'coords'
p1618
g7
(g8
(I0
tp1619
g10
tp1620
Rp1621
(I1
(I3
tp1622
g14
(S'f8'
p1623
I0
I1
tp1624
Rp1625
(I3
S'<'
p1626
NNNI-1
I-1
I0
tp1627
bI00
S'\xf4\xefp\x91!\x15@@2y\xa0\x04=\xcdR@\x00\x00\x00\xc0\xcc\xcc0\xc0'
p1628
tp1629
bsS'secnames'
p1630
S'Cell[1].axon[78]'
p1631
sI82
I156
tp1632
a(F2.491091001609586
S'Cell[1].dend[20] syn_ = new AmpaNmda(0.833333333333)'
p1633
I1
(dp1634
g1615
F0.1
sg1616
F34.0
sg1617
I82
sg1618
g7
(g8
(I0
tp1635
g10
tp1636
Rp1637
(I1
(I3
tp1638
g1625
I00
S'A\xa1\x99X}\x9aR@!y_GFpG@\x99#\x81\xf4\xb2\x04E\xc0'
p1639
tp1640
bsg1630
S'Cell[1].axon[90]'
p1641
sI82
I60
tp1642
a(F1.952622527047618
S'Cell[3].dend[76] syn_ = new FastInhib(0.5)'
p1643
I3
(dp1644
g1615
F0.6111111111111112
sg1616
F34.0
sg1617
I178
sg1618
g7
(g8
(I0
tp1645
g10
tp1646
Rp1647
(I1
(I3
tp1648
g1625
I00
S'J\xe4\xd1\x91qj^\xc0\x985w"\x1e\tl@\x00\x00\x00`\x8fbJ\xc0'
p1649
tp1650
bsg1630
S'Cell[3].axon[244]'
p1651
sI178
I156
tp1652
a(F1.7853460860521637
S'Cell[0].apic[7] syn_ = new AmpaNmda(0.5)'
p1653
I0
(dp1654
g1615
F0.5
sg1616
F34.0
sg1617
I178
sg1618
g7
(g8
(I0
tp1655
g10
tp1656
Rp1657
(I1
(I3
tp1658
g1625
I00
S'g|\xdaAr\xc75\xc0\xe5;gw\x8b\xf7X@\x10\xdd\xe4H\xf4j?\xc0'
p1659
tp1660
bsg1630
S'Cell[3].axon[289]'
p1661
sI178
I12
tp1662
a(F1.3915907268696706
S'Cell[0].apic[90] syn_ = new AmpaNmda(0.214285714286)'
p1663
I0
(dp1664
g1615
F0.8333333333333333
sg1616
F34.0
sg1617
I178
sg1618
g7
(g8
(I0
tp1665
g10
tp1666
Rp1667
(I1
(I3
tp1668
g1625
I00
S'|\xad\xe2\x90j\xf2?\xc0.\x0c~\xcaH\x03_@\xdeS\x93#\xd6\xb0L\xc0'
p1669
tp1670
bsg1630
S'Cell[3].axon[290]'
p1671
sI178
I12
tp1672
a(F1.7209050395753733
S'Cell[3].dend[126] syn_ = new FastInhib(0.166666666667)'
p1673
I3
(dp1674
g1615
F0.5
sg1616
F34.0
sg1617
I178
sg1618
g7
(g8
(I0
tp1675
g10
tp1676
Rp1677
(I1
(I3
tp1678
g1625
I00
S'\x00\x00\x00\xf0Q\x18J@\x00\x00\x00\x90\xc2\xf7p@\x00\x00\x00\xd0\xcc\xcc\x04\xc0'
p1679
tp1680
bsg1630
S'Cell[3].axon[360]'
p1681
sI178
I156
tp1682
a(F2.4036755181750773
S'Cell[2].dend[21] syn_ = new FastInhib(0.833333333333)'
p1683
I2
(dp1684
S'seg'
p1685
F0.5
sS'hostfrom'
p1686
F35.0
sS'gid'
p1687
I83
sS'coords'
p1688
g7
(g8
(I0
tp1689
g10
tp1690
Rp1691
(I1
(I3
tp1692
g14
(S'f8'
p1693
I0
I1
tp1694
Rp1695
(I3
S'<'
p1696
NNNI-1
I-1
I0
tp1697
bI00
S'\x9d-\x1c\x036\x0b6@#\x99p\xf2+gF\xc0\x00\x00\x00 \xaeG\x03@'
p1698
tp1699
bsS'secnames'
p1700
S'Cell[1].axon[1]'
p1701
sI83
I108
tp1702
a(F2.2629424413543764
S'Cell[0].dend[25] syn_ = new ExpSid(0.166666666667)'
p1703
I0
(dp1704
g1685
F0.16666666666666666
sg1686
F35.0
sg1687
I83
sg1688
g7
(g8
(I0
tp1705
g10
tp1706
Rp1707
(I1
(I3
tp1708
g1695
I00
S'\xf2\x86|\x8f\xdf\xdfF\xc0\x1e*\x9fB\xf9*U\xc0\xc3\x0b[\xd0L\x8c2@'
p1709
tp1710
bsg1700
S'Cell[1].axon[43]'
p1711
sI83
I12
tp1712
a(F2.367259822396716
S'Cell[2].dend[22] syn_ = new FastInhib(0.5)'
p1713
I2
(dp1714
g1685
F0.5
sg1686
F35.0
sg1687
I83
sg1688
g7
(g8
(I0
tp1715
g10
tp1716
Rp1717
(I1
(I3
tp1718
g1695
I00
S'C\x06\xdes_oY@LTTZ\x17g]\xc0A\xbe"F\x08bN\xc0'
p1719
tp1720
bsg1700
S'Cell[1].axon[186]'
p1721
sI83
I108
tp1722
a(F2.1204676568605683
S'Cell[2].dend[38] syn_ = new FastInhib(0.5)'
p1723
I2
(dp1724
g1685
F0.5
sg1686
F35.0
sg1687
I83
sg1688
g7
(g8
(I0
tp1725
g10
tp1726
Rp1727
(I1
(I3
tp1728
g1695
I00
S'\x81\xa2\x9f\x88\x12\x97\x19@\xe7\x02-\x8f\xc7\xd5J\xc0\xf6\x14\x80y\x8c\xd96@'
p1729
tp1730
bsg1700
S'Cell[1].axon[201]'
p1731
sI83
I108
tp1732
a(F1.9521307843016804
S'Cell[0].apic[105] syn_ = new AmpaNmda(0.0714285714286)'
p1733
I0
(dp1734
S'seg'
p1735
F0.5
sS'hostfrom'
p1736
F36.0
sS'gid'
p1737
I84
sS'coords'
p1738
g7
(g8
(I0
tp1739
g10
tp1740
Rp1741
(I1
(I3
tp1742
g14
(S'f8'
p1743
I0
I1
tp1744
Rp1745
(I3
S'<'
p1746
NNNI-1
I-1
I0
tp1747
bI00
S'\x00\x00\x00\xb0\x1euG\xc0\x00\x00\x00\xd0\xcc,H@\x00\x00\x00\xd0\xcc\xcc<\xc0'
p1748
tp1749
bsS'secnames'
p1750
S'Cell[1].axon[285]'
p1751
sI84
I12
tp1752
a(F2.172386889353503
S'Cell[1].dend[4] syn_ = new AmpaNmda(0.5)'
p1753
I1
(dp1754
g1735
F0.30000000000000004
sg1736
F36.0
sg1737
I84
sg1738
g7
(g8
(I0
tp1755
g10
tp1756
Rp1757
(I1
(I3
tp1758
g1745
I00
S'$&\xe3\xc4\xc4t$\xc0\xf7\x0f\xe2\x0c\xac P@\x1a\xdd\x83\xba\xa4&I\xc0'
p1759
tp1760
bsg1750
S'Cell[1].axon[549]'
p1761
sI84
I60
tp1762
a(F2.1291488667356155
S'Cell[3].dend[42] syn_ = new FastInhib(0.5)'
p1763
I3
(dp1764
g1735
F0.8333333333333333
sg1736
F36.0
sg1737
I132
sg1738
g7
(g8
(I0
tp1765
g10
tp1766
Rp1767
(I1
(I3
tp1768
g1745
I00
S'K\x06\xc8*\xc1\xf1#\xc0\xf7\x88?\xd68\xa1A\xc0wh\x1b\x04\xca_1@'
p1769
tp1770
bsg1750
S'Cell[2].axon[10]'
p1771
sI132
I156
tp1772
a(F1.4723826268848532
S'Cell[2].dend[21] syn_ = new FastInhib(0.833333333333)'
p1773
I2
(dp1774
g1735
F0.5
sg1736
F36.0
sg1737
I132
sg1738
g7
(g8
(I0
tp1775
g10
tp1776
Rp1777
(I1
(I3
tp1778
g1745
I00
S'\xaa2\xfa\x9d/\xe74@f\x94;/a\xb7F\xc0\x00\x00\x00\xc0\x1e\x85\xfb?'
p1779
tp1780
bsg1750
S'Cell[2].axon[35]'
p1781
sI132
I108
tp1782
a(F1.867075377279249
S'Cell[3].dend[62] syn_ = new FastInhib(0.1)'
p1783
I3
(dp1784
g1735
F0.5
sg1736
F36.0
sg1737
I132
sg1738
g7
(g8
(I0
tp1785
g10
tp1786
Rp1787
(I1
(I3
tp1788
g1745
I00
S"\xa2w2\x9e\xdb\xe8'@\xf4\xe7\xa5@I>U@\x00\x00\x00\xe0\xa3\xf0%\xc0"
p1789
tp1790
bsg1750
S'Cell[2].axon[141]'
p1791
sI132
I156
tp1792
a(F1.7657281675511454
S'Cell[0].dend[41] syn_ = new AmpaNmda(0.5)'
p1793
I0
(dp1794
g1735
F0.16666666666666666
sg1736
F36.0
sg1737
I132
sg1738
g7
(g8
(I0
tp1795
g10
tp1796
Rp1797
(I1
(I3
tp1798
g1745
I00
S'b\xc9\x1a\x9e\xe1\x1c@@n\xcb\xe57hl*\xc0\x18B1\x8bQ\xc9\x16\xc0'
p1799
tp1800
bsg1750
S'Cell[2].axon[188]'
p1801
sI132
I12
tp1802
a(F1.6292421966815658
S'Cell[3].dend[31] syn_ = new FastInhib(0.166666666667)'
p1803
I3
(dp1804
g1735
F0.16666666666666666
sg1736
F36.0
sg1737
I132
sg1738
g7
(g8
(I0
tp1805
g10
tp1806
Rp1807
(I1
(I3
tp1808
g1745
I00
S'\x08\x19\xdaw\x1cvF@\xb3\xf6c\xacn\xea0\xc0\x07X\xe9o6\xab\xe7\xbf'
p1809
tp1810
bsg1750
S'Cell[2].axon[199]'
p1811
sI132
I156
tp1812
a(F1.7737319590561709
S'Cell[1].apic[3] syn_ = new AmpaNmda(0.166666666667)'
p1813
I1
(dp1814
g1735
F0.8333333333333333
sg1736
F36.0
sg1737
I132
sg1738
g7
(g8
(I0
tp1815
g10
tp1816
Rp1817
(I1
(I3
tp1818
g1745
I00
S'\xf4\xa3\xc1\x98\x9f3G@\xfa\xc8\x80K\xb6\xafN@\x12\x9d\xb5%\xe0s5\xc0'
p1819
tp1820
bsg1750
S'Cell[2].axon[206]'
p1821
sI132
I60
tp1822
a(F2.267386131900045
S'Cell[0].dend[14] syn_ = new AmpaNmda(0.5)'
p1823
I0
(dp1824
g1735
F0.8333333333333333
sg1736
F36.0
sg1737
I180
sg1738
g7
(g8
(I0
tp1825
g10
tp1826
Rp1827
(I1
(I3
tp1828
g1745
I00
S'(\xc0\x04\xf45\x9b6\xc0B6\tD{%N\xc0{4t\xd4m\xe5C\xc0'
p1829
tp1830
bsg1750
S'Cell[3].axon[59]'
p1831
sI180
I12
tp1832
a(F2.414277623112166
S'Cell[2].dend[14] syn_ = new FastInhib(0.1)'
p1833
I2
(dp1834
S'seg'
p1835
F0.49999999999999994
sS'hostfrom'
p1836
F37.0
sS'gid'
p1837
I133
sS'coords'
p1838
g7
(g8
(I0
tp1839
g10
tp1840
Rp1841
(I1
(I3
tp1842
g14
(S'f8'
p1843
I0
I1
tp1844
Rp1845
(I3
S'<'
p1846
NNNI-1
I-1
I0
tp1847
bI00
S'\xeaO\xe9/{\xdb\x1a\xc0\xd5gE\xac\x80,D@\x8d\xf8\x88\\\xd0\xfc\x0b@'
p1848
tp1849
bsS'secnames'
p1850
S'Cell[2].axon[3]'
p1851
sI133
I108
tp1852
a(F2.1215528151878655
S'Cell[3].dend[29] syn_ = new FastInhib(0.5)'
p1853
I3
(dp1854
g1835
F0.5
sg1836
F37.0
sg1837
I133
sg1838
g7
(g8
(I0
tp1855
g10
tp1856
Rp1857
(I1
(I3
tp1858
g1845
I00
S'\x18\n\xba\x92\xcd\x04"@@\xd3K%zq7\xc0-\xbb%\x1a\'\xd0\x07\xc0'
p1859
tp1860
bsg1850
S'Cell[2].axon[102]'
p1861
sI133
I156
tp1862
a(F2.1530048354176006
S'Cell[1].apic[14] syn_ = new ExpSid(0.5)'
p1863
I1
(dp1864
g1835
F0.5
sg1836
F37.0
sg1837
I181
sg1838
g7
(g8
(I0
tp1865
g10
tp1866
Rp1867
(I1
(I3
tp1868
g1845
I00
S'F\ndmD\xccD@$M\xb4\x84L\xd4c@\x00\x00\x00`\xb8\x1e\xd5?'
p1869
tp1870
bsg1850
S'Cell[3].axon[108]'
p1871
sI181
I60
tp1872
a(F2.2942256954715132
S'Cell[3].dend[139] syn_ = new FastInhib(0.166666666667)'
p1873
I3
(dp1874
g1835
F0.5
sg1836
F37.0
sg1837
I181
sg1838
g7
(g8
(I0
tp1875
g10
tp1876
Rp1877
(I1
(I3
tp1878
g1845
I00
S'@\xad%E\xc8\xa5F@\xabeF@+\xa4h@\x00\x00\x00`\xb8\x1e\xd5?'
p1879
tp1880
bsg1850
S'Cell[3].axon[137]'
p1881
sI181
I156
tp1882
a(F2.1059225367452274
S'Cell[3].dend[139] syn_ = new FastInhib(0.166666666667)'
p1883
I3
(dp1884
g1835
F0.16666666666666666
sg1836
F37.0
sg1837
I181
sg1838
g7
(g8
(I0
tp1885
g10
tp1886
Rp1887
(I1
(I3
tp1888
g1845
I00
S'\xf9\x90\xa2\xc5\xc1\xcbD@\x90\xae\xfew\xfa\xbeh@\x00\x00\x00`\xb8\x1e\xd5?'
p1889
tp1890
bsg1850
S'Cell[3].axon[150]'
p1891
sI181
I156
tp1892
a(F1.5444983812821935
S'Cell[1].dend[4] syn_ = new ExpSid(0.1)'
p1893
I1
(dp1894
g1835
F0.6111111111111112
sg1836
F37.0
sg1837
I37
sg1838
g7
(g8
(I0
tp1895
g10
tp1896
Rp1897
(I1
(I3
tp1898
g1845
I00
S'(\xf4\xf8\x9c\xcf\x87#@\x04\xf5\xc5hk5B@\x10]\xce\x8a\x95o?\xc0'
p1899
tp1900
bsg1850
S'Cell[0].axon[3]'
p1901
sI37
I60
tp1902
a(F2.3168420712686113
S'Cell[2].dend[0] syn_ = new FastInhib(0.5)'
p1903
I2
(dp1904
g1835
F0.7857142857142856
sg1836
F37.0
sg1837
I85
sg1838
g7
(g8
(I0
tp1905
g10
tp1906
Rp1907
(I1
(I3
tp1908
g1845
I00
S'\x86\xe83\x1f;\xf61\xc0X\xf53\x086\xb61@\xd3N\xb1\xbf\x033\x0e\xc0'
p1909
tp1910
bsg1850
S'Cell[1].axon[229]'
p1911
sI85
I108
tp1912
a(F1.77303179598977
S'Cell[2].dend[11] syn_ = new FastInhib(0.1)'
p1913
I2
(dp1914
S'seg'
p1915
F0.5
sS'hostfrom'
p1916
F38.0
sS'gid'
p1917
I182
sS'coords'
p1918
g7
(g8
(I0
tp1919
g10
tp1920
Rp1921
(I1
(I3
tp1922
g14
(S'f8'
p1923
I0
I1
tp1924
Rp1925
(I3
S'<'
p1926
NNNI-1
I-1
I0
tp1927
bI00
S'\xbc\xd5|jw\xab\x10@\tm\x17\x95356@\x05\x9f\xdf.\xce\x08\x00\xc0'
p1928
tp1929
bsS'secnames'
p1930
S'Cell[3].axon[293]'
p1931
sI182
I108
tp1932
a(F2.088105170388593
S'Cell[0].dend[45] syn_ = new AmpaNmda(0.5)'
p1933
I0
(dp1934
g1915
F0.5
sg1916
F38.0
sg1917
I182
sg1918
g7
(g8
(I0
tp1935
g10
tp1936
Rp1937
(I1
(I3
tp1938
g1925
I00
S'(\xb1\xc2oi\xc84@"\xd8\xe7\xa6z-P\xc0\x90\xcc\xb5z\xe2\xce\x18\xc0'
p1939
tp1940
bsg1930
S'Cell[3].axon[395]'
p1941
sI182
I12
tp1942
a(F1.3828015307791302
S'Cell[1].dend[19] syn_ = new AmpaNmda(0.5)'
p1943
I1
(dp1944
g1915
F0.5
sg1916
F38.0
sg1917
I86
sg1918
g7
(g8
(I0
tp1945
g10
tp1946
Rp1947
(I1
(I3
tp1948
g1925
I00
S'\x9a\xf3\xff\xd2f\xbdQ@\xe4\xfb]\x13\xf6\xa2L\xc0r\x1e\xa0C\xb91E\xc0'
p1949
tp1950
bsg1930
S'Cell[1].axon[2]'
p1951
sI86
I60
tp1952
a(F1.9659064774130834
S'Cell[1].apic[9] syn_ = new ExpSid(0.166666666667)'
p1953
I1
(dp1954
S'seg'
p1955
F0.8333333333333333
sS'hostfrom'
p1956
F39.0
sS'gid'
p1957
I135
sS'coords'
p1958
g7
(g8
(I0
tp1959
g10
tp1960
Rp1961
(I1
(I3
tp1962
g14
(S'f8'
p1963
I0
I1
tp1964
Rp1965
(I3
S'<'
p1966
NNNI-1
I-1
I0
tp1967
bI00
S'\x90\xab\xc0^M\xeeI@\xb3(q\xccC\xb8V@DC\xf40\xaa[\x12\xc0'
p1968
tp1969
bsS'secnames'
p1970
S'Cell[2].axon[89]'
p1971
sI135
I60
tp1972
a(F1.9845373454812831
S'Cell[2].dend[14] syn_ = new FastInhib(0.5)'
p1973
I2
(dp1974
g1955
F0.5
sg1956
F39.0
sg1957
I183
sg1958
g7
(g8
(I0
tp1975
g10
tp1976
Rp1977
(I1
(I3
tp1978
g1965
I00
S'\x00\x00\x00\x00\x00\x00\x0b\xc0\x00\x00\x00\x80\xc2\xc5S@\x00\x00\x00\x86\xc25"@'
p1979
tp1980
bsg1970
S'Cell[3].axon[2]'
p1981
sI183
I108
tp1982
a(F2.4927774576184416
S'Cell[3].dend[108] syn_ = new FastInhib(0.166666666667)'
p1983
I3
(dp1984
g1955
F0.16666666666666666
sg1956
F39.0
sg1957
I183
sg1958
g7
(g8
(I0
tp1985
g10
tp1986
Rp1987
(I1
(I3
tp1988
g1965
I00
S'V\xee\x1a\xd9\x1b\xad*\xc0M\xc4\x12o\xdd\xbbX@^`kL\x07\xf2\x10@'
p1989
tp1990
bsg1970
S'Cell[3].axon[50]'
p1991
sI183
I156
tp1992
a(F2.3530112285277816
S'Cell[3].dend[68] syn_ = new FastInhib(0.5)'
p1993
I3
(dp1994
g1955
F0.5
sg1956
F39.0
sg1957
I183
sg1958
g7
(g8
(I0
tp1995
g10
tp1996
Rp1997
(I1
(I3
tp1998
g1965
I00
S'\xe5z\xed\x83\x03\xf7\x11\xc0\x91xy\xcfm\xa7Q@e\x8a\x94;\x90\xcb\x14@'
p1999
tp2000
bsg1970
S'Cell[3].axon[53]'
p2001
sI183
I156
tp2002
a(F1.6433825757990093
S'Cell[1].dend[11] syn_ = new ExpSid(0.5)'
p2003
I1
(dp2004
g1955
F0.5
sg1956
F39.0
sg1957
I183
sg1958
g7
(g8
(I0
tp2005
g10
tp2006
Rp2007
(I1
(I3
tp2008
g1965
I00
S'+m\xdfn\x9f\x913@\x94rM\x8d\xbd9\x1a@+8\x86\xf4r|1\xc0'
p2009
tp2010
bsg1970
S'Cell[3].axon[119]'
p2011
sI183
I60
tp2012
a(F1.9184847811038888
S'Cell[3].dend[1] syn_ = new FastInhib(0.5)'
p2013
I3
(dp2014
g1955
F0.11538461538461539
sg1956
F39.0
sg1957
I183
sg1958
g7
(g8
(I0
tp2015
g10
tp2016
Rp2017
(I1
(I3
tp2018
g1965
I00
S'B\xcd\\Bs\xc63\xc0\x006s\x80%\x89\xc4?x\x16\xd5\xb6\xa4c\x10@'
p2019
tp2020
bsg1970
S'Cell[3].axon[143]'
p2021
sI183
I156
tp2022
a(F1.9776068299672573
S'Cell[3].dend[34] syn_ = new FastInhib(0.5)'
p2023
I3
g2014
I183
I156
tp2024
a(F1.712601705083219
S'Cell[0].dend[48] syn_ = new ExpSid(0.166666666667)'
p2025
I0
(dp2026
g1955
F0.5
sg1956
F39.0
sg1957
I39
sg1958
g7
(g8
(I0
tp2027
g10
tp2028
Rp2029
(I1
(I3
tp2030
g1965
I00
S'\xd1\x8d\xa3^N\xf8\x19@D\x91@\xaa\x8a\xafO\xc0D\xe5]\x12\x95+\xe9\xbf'
p2031
tp2032
bsg1970
S'Cell[0].axon[0]'
p2033
sI39
I12
tp2034
a(F2.32343417476068
S'Cell[0].dend[22] syn_ = new ExpSid(0.833333333333)'
p2035
I0
(dp2036
g1955
F0.30000000000000004
sg1956
F39.0
sg1957
I39
sg1958
g7
(g8
(I0
tp2037
g10
tp2038
Rp2039
(I1
(I3
tp2040
g1965
I00
S'T\x07rG\xf4X\xe2\xbf\x80\xeb\xe3[S\\[\xc0\x93\xf7`\xb0\xc1\x9fA\xc0'
p2041
tp2042
bsg1970
S'Cell[0].axon[44]'
p2043
sI39
I12
tp2044
a(F2.117852342503987
S'Cell[0].dend[44] syn_ = new AmpaNmda(0.5)'
p2045
I0
(dp2046
S'seg'
p2047
F0.13636363636363635
sS'hostfrom'
p2048
F40.0
sS'gid'
p2049
I40
sS'coords'
p2050
g7
(g8
(I0
tp2051
g10
tp2052
Rp2053
(I1
(I3
tp2054
g14
(S'f8'
p2055
I0
I1
tp2056
Rp2057
(I3
S'<'
p2058
NNNI-1
I-1
I0
tp2059
bI00
S'\xfe\xd4`\xae~6\xf7?KO\xb5\x88\xfeFK\xc08\xd0\xceH8\x922\xc0'
p2060
tp2061
bsS'secnames'
p2062
S'Cell[0].axon[16]'
p2063
sI40
I12
tp2064
a(F2.144943507908293
S'Cell[2].dend[43] syn_ = new FastInhib(0.0555555555556)'
p2065
I2
(dp2066
g2047
F0.5
sg2048
F40.0
sg2049
I88
sg2050
g7
(g8
(I0
tp2067
g10
tp2068
Rp2069
(I1
(I3
tp2070
g2057
I00
S'\xf5\x93f{t\xe1\\\xc0u\xfe\xeb\x0c#8d\xc0\xf4\xbe[\x98\xd8yE\xc0'
p2071
tp2072
bsg2062
S'Cell[1].axon[35]'
p2073
sI88
I108
tp2074
a(F1.6544119630224057
S'Cell[0].dend[23] syn_ = new AmpaNmda(0.5)'
p2075
I0
(dp2076
g2047
F0.5
sg2048
F40.0
sg2049
I88
sg2050
g7
(g8
(I0
tp2077
g10
tp2078
Rp2079
(I1
(I3
tp2080
g2057
I00
S'N3\x87\x82\x9d\x1aD\xc0\xb0p\xb5\xaeD0R\xc0\x00\x00\x00\x80\xeb\xd1$\xc0'
p2081
tp2082
bsg2062
S'Cell[1].axon[80]'
p2083
sI88
I12
tp2084
a(F2.1054140267796537
S'Cell[0].apic[99] syn_ = new AmpaNmda(0.5)'
p2085
I0
(dp2086
g2047
F0.1
sg2048
F40.0
sg2049
I88
sg2050
g7
(g8
(I0
tp2087
g10
tp2088
Rp2089
(I1
(I3
tp2090
g2057
I00
S'\x05_2\x89v\x91V\xc0(\xed\xf8\x95\xf6\xd29@\x01\x94\x17\xac\x11$4\xc0'
p2091
tp2092
bsg2062
S'Cell[1].axon[93]'
p2093
sI88
I12
tp2094
a(F2.0092504706572267
S'Cell[0].apic[112] syn_ = new AmpaNmda(0.5)'
p2095
I0
(dp2096
g2047
F0.16666666666666666
sg2048
F40.0
sg2049
I88
sg2050
g7
(g8
(I0
tp2097
g10
tp2098
Rp2099
(I1
(I3
tp2100
g2057
I00
S'\xdb\xebe\xcf&\x15C@\x7f8^V\x83\x8d>@}\xcc\xd1\xa8\x12#M\xc0'
p2101
tp2102
bsg2062
S'Cell[1].axon[109]'
p2103
sI88
I12
tp2104
a(F1.690479529504237
S'Cell[0].apic[97] syn_ = new AmpaNmda(0.166666666667)'
p2105
I0
(dp2106
g2047
F0.5
sg2048
F40.0
sg2049
I88
sg2050
g7
(g8
(I0
tp2107
g10
tp2108
Rp2109
(I1
(I3
tp2110
g2057
I00
S'\x15\xfb\x02\xbe\x8e\x01E\xc0\xfa\x1d\x86\x00"\x1bO@\x05R\xc0q\xf8\x1a8\xc0'
p2111
tp2112
bsg2062
S'Cell[1].axon[133]'
p2113
sI88
I12
tp2114
a(F2.3420537343947503
S'Cell[0].apic[100] syn_ = new AmpaNmda(0.5)'
p2115
I0
(dp2116
g2047
F0.07142857142857142
sg2048
F40.0
sg2049
I88
sg2050
g7
(g8
(I0
tp2117
g10
tp2118
Rp2119
(I1
(I3
tp2120
g2057
I00
S'\xea\x91V\x047gG\xc0U\xe5\xc1\x8e\xf7\xd1R@\xcc\xf7\x8a8\xa1\xb80\xc0'
p2121
tp2122
bsg2062
S'Cell[1].axon[147]'
p2123
sI88
I12
tp2124
a(F2.0343351072477702
S'Cell[3].dend[68] syn_ = new FastInhib(0.5)'
p2125
I3
(dp2126
g2047
F0.8999999999999999
sg2048
F40.0
sg2049
I88
sg2050
g7
(g8
(I0
tp2127
g10
tp2128
Rp2129
(I1
(I3
tp2130
g2057
I00
S'\xe3\xff\xc0\x90\x9e:\x13\xc0xUM\x84.\xa7Q@?\xd3\x06\xb2\xaa\x15\x10@'
p2131
tp2132
bsg2062
S'Cell[1].axon[341]'
p2133
sI88
I156
tp2134
a(F1.7060301777404703
S'Cell[0].apic[89] syn_ = new AmpaNmda(0.5)'
p2135
I0
(dp2136
g2047
F0.6428571428571428
sg2048
F40.0
sg2049
I136
sg2050
g7
(g8
(I0
tp2137
g10
tp2138
Rp2139
(I1
(I3
tp2140
g2057
I00
S'\x91\x1eZ\x83\xf5)1\xc00\xd7f\x08v\xe7Y@\x8e`\xec\xbdF\xfcO\xc0'
p2141
tp2142
bsg2062
S'Cell[2].axon[38]'
p2143
sI136
I12
tp2144
a(F2.496792939601357
S'Cell[0].dend[24] syn_ = new AmpaNmda(0.3)'
p2145
I0
(dp2146
g2047
F0.8333333333333333
sg2048
F40.0
sg2049
I136
sg2050
g7
(g8
(I0
tp2147
g10
tp2148
Rp2149
(I1
(I3
tp2150
g2057
I00
S'\x93~\xc3\x13.OO\xc0Kf\x01\x1b\xb4UX\xc0\xa6\xbex\x8b\ng7@'
p2151
tp2152
bsg2062
S'Cell[2].axon[115]'
p2153
sI136
I12
tp2154
a(F2.425543704280224
S'Cell[1].apic[11] syn_ = new ExpSid(0.642857142857)'
p2155
I1
(dp2156
S'seg'
p2157
F0.5
sS'hostfrom'
p2158
F41.0
sS'gid'
p2159
I185
sS'coords'
p2160
g7
(g8
(I0
tp2161
g10
tp2162
Rp2163
(I1
(I3
tp2164
g14
(S'f8'
p2165
I0
I1
tp2166
Rp2167
(I3
S'<'
p2168
NNNI-1
I-1
I0
tp2169
bI00
S'\xfar\xd5!`\xa5V@sc\xb2\x1aU\xa1V@\x00\x00\x00@\n\x87P\xc0'
p2170
tp2171
bsS'secnames'
p2172
S'Cell[3].axon[34]'
p2173
sI185
I60
tp2174
a(F2.3758182305662645
S'Cell[3].dend[78] syn_ = new FastInhib(0.833333333333)'
p2175
I3
(dp2176
g2157
F0.8999999999999999
sg2158
F41.0
sg2159
I185
sg2160
g7
(g8
(I0
tp2177
g10
tp2178
Rp2179
(I1
(I3
tp2180
g2167
I00
S'Zp\xc1\xddu\xb6\x10\xc0\xe9\x93A\xad\xb3\xf1d@\x00\x00\x00\xe0\xa3\xf01@'
p2181
tp2182
bsg2172
S'Cell[3].axon[188]'
p2183
sI185
I156
tp2184
a(F2.201942264961783
S'Cell[1].dend[0] syn_ = new ExpSid(0.5)'
p2185
I1
(dp2186
g2157
F0.16666666666666666
sg2158
F41.0
sg2159
I185
sg2160
g7
(g8
(I0
tp2187
g10
tp2188
Rp2189
(I1
(I3
tp2190
g2167
I00
S"\x90M\xfe\x9a\xf8D6@\xce\xba\xca'\x92\xd8A@\x00\x00\x00\xa0Ga0\xc0"
p2191
tp2192
bsg2172
S'Cell[3].axon[209]'
p2193
sI185
I60
tp2194
a(F2.0320242845215777
S'Cell[1].dend[2] syn_ = new ExpSid(0.5)'
p2195
I1
(dp2196
g2157
F0.5
sg2158
F41.0
sg2159
I185
sg2160
g7
(g8
(I0
tp2197
g10
tp2198
Rp2199
(I1
(I3
tp2200
g2167
I00
S'~\xc6\xa1\xea\xea\x1d9@T\xba\xd9\x90d\x15<@\x00\x00\x00\x80\xeb\x915\xc0'
p2201
tp2202
bsg2172
S'Cell[3].axon[209]'
p2203
sI185
I60
tp2204
a(F1.1976307290055885
S'Cell[0].apic[3] syn_ = new ExpSid(0.5)'
p2205
I0
(dp2206
g2157
F0.16666666666666666
sg2158
F41.0
sg2159
I185
sg2160
g7
(g8
(I0
tp2207
g10
tp2208
Rp2209
(I1
(I3
tp2210
g2167
I00
S'\xa2P7\xff\xf9\xee-\xc0\x18gx5\x8fn9@\x00\x00\x00\xc0\xf5(<\xc0'
p2211
tp2212
bsg2172
S'Cell[3].axon[240]'
p2213
sI185
I12
tp2214
a(F2.3211349512473918
S'Cell[3].dend[40] syn_ = new FastInhib(0.5)'
p2215
I3
(dp2216
g2157
F0.16666666666666666
sg2158
F41.0
sg2159
I185
sg2160
g7
(g8
(I0
tp2217
g10
tp2218
Rp2219
(I1
(I3
tp2220
g2167
I00
S'\x84%N\x89z\xbf0\xc0<c\xb7\x8c\x84\xd85\xc0\x1f\xe5\xea\xc4e\xd5(@'
p2221
tp2222
bsg2172
S'Cell[3].axon[290]'
p2223
sI185
I156
tp2224
a(F0.57925084671545
S'Cell[0].dend[45] syn_ = new AmpaNmda(0.833333333333)'
p2225
I0
(dp2226
S'seg'
p2227
F0.5
sS'hostfrom'
p2228
F42.0
sS'gid'
p2229
I90
sS'coords'
p2230
g7
(g8
(I0
tp2231
g10
tp2232
Rp2233
(I1
(I3
tp2234
g14
(S'f8'
p2235
I0
I1
tp2236
Rp2237
(I3
S'<'
p2238
NNNI-1
I-1
I0
tp2239
bI00
S'\xf8<\xff\xa8[\xd3:@\xbbr\x9c\t}vO\xc0\xbc\xfc\xf9<L\xd1\x06\xc0'
p2240
tp2241
bsS'secnames'
p2242
S'Cell[1].axon[236]'
p2243
sI90
I12
tp2244
a(F2.0605705336749667
S'Cell[2].dend[32] syn_ = new FastInhib(0.5)'
p2245
I2
(dp2246
g2227
F0.8333333333333333
sg2228
F42.0
sg2229
I138
sg2230
g7
(g8
(I0
tp2247
g10
tp2248
Rp2249
(I1
(I3
tp2250
g2237
I00
S'\x00\x00\x00\xe0z\x14*\xc0\xab\xaa\xaa\xaa\rd@\xc0TUUU\xa7\x8d\x13@'
p2251
tp2252
bsg2242
S'Cell[2].axon[70]'
p2253
sI138
I108
tp2254
a(F2.154578980258739
S'Cell[2].dend[36] syn_ = new FastInhib(0.5)'
p2255
I2
g2246
I138
I108
tp2256
a(F0.9023144376934614
S'Cell[1].apic[6] syn_ = new AmpaNmda(0.5)'
p2257
I1
(dp2258
g2227
F0.8333333333333333
sg2228
F42.0
sg2229
I138
sg2230
g7
(g8
(I0
tp2259
g10
tp2260
Rp2261
(I1
(I3
tp2262
g2237
I00
S'\x98\xea\xa0\x0c\x8e\xe1"\xc0\xcc@\xa8f\xd1\x0fX@\xe1\xb9\xf0\xfeW$\xf7?'
p2263
tp2264
bsg2242
S'Cell[2].axon[157]'
p2265
sI138
I60
tp2266
a(F2.386062238103742
S'Cell[1].apic[25] syn_ = new ExpSid(0.5)'
p2267
I1
(dp2268
S'seg'
p2269
F0.8333333333333333
sS'hostfrom'
p2270
F43.0
sS'gid'
p2271
I91
sS'coords'
p2272
g7
(g8
(I0
tp2273
g10
tp2274
Rp2275
(I1
(I3
tp2276
g14
(S'f8'
p2277
I0
I1
tp2278
Rp2279
(I3
S'<'
p2280
NNNI-1
I-1
I0
tp2281
bI00
S'N\x1d\x02)e\xea%@\xf4w\xbd\xe5KJv@\x00\x00\x00 \x85+9\xc0'
p2282
tp2283
bsS'secnames'
p2284
S'Cell[1].axon[8]'
p2285
sI91
I60
tp2286
a(F1.757475606868812
S'Cell[1].apic[3] syn_ = new ExpSid(0.166666666667)'
p2287
I1
(dp2288
g2269
F0.16666666666666666
sg2270
F43.0
sg2271
I91
sg2272
g7
(g8
(I0
tp2289
g10
tp2290
Rp2291
(I1
(I3
tp2292
g2279
I00
S'\x86\xa8\xb8\x00\xf4FG@\xb9\xa1\x16\xfe\xbe\xabN@\x00\x00\x00\x80\xc2u3\xc0'
p2293
tp2294
bsg2284
S'Cell[1].axon[121]'
p2295
sI91
I60
tp2296
a(F1.4000977360596147
S'Cell[3].dend[62] syn_ = new FastInhib(0.3)'
p2297
I3
(dp2298
g2269
F0.5
sg2270
F43.0
sg2271
I91
sg2272
g7
(g8
(I0
tp2299
g10
tp2300
Rp2301
(I1
(I3
tp2302
g2279
I00
S'\xd8\xf6\x0b\xc2\xb2\xa3+@\x8a\xef\xbd\x1b\xc9\xd6Y@\xd8\xe9\xc7\xea+\xc43\xc0'
p2303
tp2304
bsg2284
S'Cell[1].axon[205]'
p2305
sI91
I156
tp2306
a(F0.9780544497239229
S'Cell[1].apic[17] syn_ = new ExpSid(0.5)'
p2307
I1
(dp2308
g2269
F0.8333333333333333
sg2270
F43.0
sg2271
I139
sg2272
g7
(g8
(I0
tp2309
g10
tp2310
Rp2311
(I1
(I3
tp2312
g2279
I00
S"']`\x918NO@\xb3\xc3\x0b<\x15\x8dq@\x00\x00\x00 \x85\xab9\xc0"
p2313
tp2314
bsg2284
S'Cell[2].axon[114]'
p2315
sI139
I60
tp2316
a(F2.0834915411589354
S'Cell[3].dend[119] syn_ = new FastInhib(0.166666666667)'
p2317
I3
(dp2318
g2269
F0.8999999999999999
sg2270
F43.0
sg2271
I139
sg2272
g7
(g8
(I0
tp2319
g10
tp2320
Rp2321
(I1
(I3
tp2322
g2279
I00
S'$\xf2o\xb5\x81\xed1@\x93\xa5L^\xaa-e@o+\xaf\xdcx\xf9\xf8?'
p2323
tp2324
bsg2284
S'Cell[2].axon[272]'
p2325
sI139
I156
tp2326
a(F1.608232628852285
S'Cell[3].dend[27] syn_ = new FastInhib(0.166666666667)'
p2327
I3
(dp2328
g2269
F0.16666666666666666
sg2270
F43.0
sg2271
I139
sg2272
g7
(g8
(I0
tp2329
g10
tp2330
Rp2331
(I1
(I3
tp2332
g2279
I00
S'"C\xe9(\xb3k#@\x06\xc4\xc2=\xa6\x10E\xc0\x00\x00\x00\x00)\x9cF\xc0'
p2333
tp2334
bsg2284
S'Cell[2].axon[277]'
p2335
sI139
I156
tp2336
a(F2.1871207002700572
S'Cell[0].apic[2] syn_ = new ExpSid(0.5)'
p2337
I0
(dp2338
g2269
F0.16666666666666666
sg2270
F43.0
sg2271
I139
sg2272
g7
(g8
(I0
tp2339
g10
tp2340
Rp2341
(I1
(I3
tp2342
g2279
I00
S'\x95\xa0\x18\xa6\xec0+\xc0\x9b\xd4\xe9\x81\xf4\t\xe0\xbf=\x8f\xfdb5\\F\xc0'
p2343
tp2344
bsg2284
S'Cell[2].axon[290]'
p2345
sI139
I12
tp2346
a(F2.3210595079439837
S'Cell[0].dend[28] syn_ = new ExpSid(0.833333333333)'
p2347
I0
(dp2348
g2269
F0.5
sg2270
F43.0
sg2271
I139
sg2272
g7
(g8
(I0
tp2349
g10
tp2350
Rp2351
(I1
(I3
tp2352
g2279
I00
S"\x00\x00\x00@\n\xf7A@\x00\x00\x00\x90\xc2\xddT\xc0\x00\x00\x00\xe8(\x1c'\xc0"
p2353
tp2354
bsg2284
S'Cell[2].axon[351]'
p2355
sI139
I12
tp2356
a(F2.1307151323203155
S'Cell[0].apic[2] syn_ = new ExpSid(0.5)'
p2357
I0
(dp2358
g2269
F0.5
sg2270
F43.0
sg2271
I139
sg2272
g7
(g8
(I0
tp2359
g10
tp2360
Rp2361
(I1
(I3
tp2362
g2279
I00
S'\xdd\xc8\t\x9b\xefq*\xc0\x83p\xed7B\n\x0b@\x9a\xe3\xfb\xa0\xe6\xa9F\xc0'
p2363
tp2364
bsg2284
S'Cell[2].axon[402]'
p2365
sI139
I12
tp2366
a(F0.678198981465132
S'Cell[1].dend[12] syn_ = new ExpSid(0.166666666667)'
p2367
I1
(dp2368
g2269
F0.05555555555555555
sg2270
F43.0
sg2271
I187
sg2272
g7
(g8
(I0
tp2369
g10
tp2370
Rp2371
(I1
(I3
tp2372
g2279
I00
S"e\xdd\xdb\xdf\xc5z8@\xf6k]\xb8\xe0\xad\n@\x00\x00\x00\xc0\xf5('\xc0"
p2373
tp2374
bsg2284
S'Cell[3].axon[119]'
p2375
sI187
I60
tp2376
a(F2.300085254790558
S'Cell[2].dend[14] syn_ = new FastInhib(0.1)'
p2377
I2
(dp2378
S'seg'
p2379
F0.1
sS'hostfrom'
p2380
F44.0
sS'gid'
p2381
I92
sS'coords'
p2382
g7
(g8
(I0
tp2383
g10
tp2384
Rp2385
(I1
(I3
tp2386
g14
(S'f8'
p2387
I0
I1
tp2388
Rp2389
(I3
S'<'
p2390
NNNI-1
I-1
I0
tp2391
bI00
S'\xd4\xc8E\xdc<\xc0\x10\xc0\xca\x93\xc7\xc1\xc3uC@d\x1a\xadx\xb7a\x12@'
p2392
tp2393
bsS'secnames'
p2394
S'Cell[1].axon[211]'
p2395
sI92
I108
tp2396
a(F2.350502070494896
S'Cell[3].dend[2] syn_ = new FastInhib(0.166666666667)'
p2397
I3
(dp2398
g2379
F0.16666666666666666
sg2380
F44.0
sg2381
I188
sg2382
g7
(g8
(I0
tp2399
g10
tp2400
Rp2401
(I1
(I3
tp2402
g2389
I00
S'\x1c\xe6b\x83\xb4\xd75\xc0h&\x0e\xeb$\xe4\x13\xc0\x17\x19X\x02M\xa5\r\xc0'
p2403
tp2404
bsg2394
S'Cell[3].axon[38]'
p2405
sI188
I156
tp2406
a(F1.5744906472847668
S'Cell[3].dend[61] syn_ = new FastInhib(0.5)'
p2407
I3
(dp2408
g2379
F0.5
sg2380
F44.0
sg2381
I188
sg2382
g7
(g8
(I0
tp2409
g10
tp2410
Rp2411
(I1
(I3
tp2412
g2389
I00
S'<]^\xb5f=\x1a@\x1d\xb5\xcc\xa1\x976Q@\xf2\xa7\xad\xeb\xd5\xfd$\xc0'
p2413
tp2414
bsg2394
S'Cell[3].axon[116]'
p2415
sI188
I156
tp2416
a(F1.8042517315104125
S'Cell[2].dend[9] syn_ = new FastInhib(0.166666666667)'
p2417
I2
(dp2418
g2379
F0.8333333333333333
sg2380
F44.0
sg2381
I188
sg2382
g7
(g8
(I0
tp2419
g10
tp2420
Rp2421
(I1
(I3
tp2422
g2389
I00
S"\x8c`^\xdc\xdbZ\x12\xc04\xdc\x1f\xf7\x87\xa28@\xb7s\xeb\\\xc2\xa8'@"
p2423
tp2424
bsg2394
S'Cell[3].axon[183]'
p2425
sI188
I108
tp2426
a(F1.9226132151238355
S'Cell[3].dend[2] syn_ = new FastInhib(0.166666666667)'
p2427
I3
(dp2428
g2379
F0.5
sg2380
F44.0
sg2381
I44
sg2382
g7
(g8
(I0
tp2429
g10
tp2430
Rp2431
(I1
(I3
tp2432
g2389
I00
S'\xa3\x80\x00\xc6\xcdi5\xc0#\xce<9\x85\xe4\x1a\xc0\x02D?\xd1\x964\xde\xbf'
p2433
tp2434
bsg2394
S'Cell[0].axon[17]'
p2435
sI44
I156
tp2436
a(F2.3733717123529785
S'Cell[1].dend[12] syn_ = new ExpSid(0.166666666667)'
p2437
I1
(dp2438
S'seg'
p2439
F0.5
sS'hostfrom'
p2440
F45.0
sS'gid'
p2441
I141
sS'coords'
p2442
g7
(g8
(I0
tp2443
g10
tp2444
Rp2445
(I1
(I3
tp2446
g14
(S'f8'
p2447
I0
I1
tp2448
Rp2449
(I3
S'<'
p2450
NNNI-1
I-1
I0
tp2451
bI00
S'n\xda >5\xef7@\x83\xfc\xad\x96~\x11\x04@\x00\x00\x00\xc0\xf5("\xc0'
p2452
tp2453
bsS'secnames'
p2454
S'Cell[2].axon[69]'
p2455
sI141
I60
tp2456
a(F2.495762367721866
S'Cell[1].dend[20] syn_ = new ExpSid(0.166666666667)'
p2457
I1
(dp2458
g2439
F0.5
sg2440
F45.0
sg2441
I141
sg2442
g7
(g8
(I0
tp2459
g10
tp2460
Rp2461
(I1
(I3
tp2462
g2449
I00
S'\xe1>rb\xd3\xc0I@*\xde\xf8I\xbd\xa5B@\xfe(_\xd1\xb4\xafA\xc0'
p2463
tp2464
bsg2454
S'Cell[2].axon[126]'
p2465
sI141
I60
tp2466
a(F2.1172473862085246
S'Cell[0].dend[38] syn_ = new ExpSid(0.5)'
p2467
I0
(dp2468
g2439
F0.5
sg2440
F45.0
sg2441
I141
sg2442
g7
(g8
(I0
tp2469
g10
tp2470
Rp2471
(I1
(I3
tp2472
g2449
I00
S'4\x88V\xb9\x9f\x97\x03\xc0&\xd1\xd8\x8d\xd5rH\xc0/\x13\xab\xcf\xefe5\xc0'
p2473
tp2474
bsg2454
S'Cell[2].axon[184]'
p2475
sI141
I12
tp2476
a(F2.210708430166434
S'Cell[2].dend[44] syn_ = new FastInhib(0.166666666667)'
p2477
I2
(dp2478
g2439
F0.16666666666666666
sg2440
F45.0
sg2441
I141
sg2442
g7
(g8
(I0
tp2479
g10
tp2480
Rp2481
(I1
(I3
tp2482
g2449
I00
S'k\xeb\x92\x81D\xc71\xc0\xd1\xb9y\x95\xa9\x80_\xc0@\x16}\xee\x13\x91#\xc0'
p2483
tp2484
bsg2454
S'Cell[2].axon[200]'
p2485
sI141
I108
tp2486
a(F1.8962750983215055
S'Cell[2].dend[2] syn_ = new FastInhib(0.5)'
p2487
I2
(dp2488
g2439
F0.8333333333333333
sg2440
F45.0
sg2441
I93
sg2442
g7
(g8
(I0
tp2489
g10
tp2490
Rp2491
(I1
(I3
tp2492
g2449
I00
S'<hk\xa5\x85D6\xc0<f\x9bs1\t=@\xaa!\x8d&\xa3k-\xc0'
p2493
tp2494
bsg2454
S'Cell[1].axon[145]'
p2495
sI93
I108
tp2496
a(F1.4273723867357626
S'Cell[0].dend[0] syn_ = new ExpSid(0.214285714286)'
p2497
I0
(dp2498
g2439
F0.9444444444444446
sg2440
F45.0
sg2441
I93
sg2442
g7
(g8
(I0
tp2499
g10
tp2500
Rp2501
(I1
(I3
tp2502
g2449
I00
S'\x026\xf8\xb4$\x9eH\xc0\x94)/\xc7\xd9TU\xc0T\xd5Wc^\x89(\xc0'
p2503
tp2504
bsg2454
S'Cell[1].axon[166]'
p2505
sI93
I12
tp2506
a(F2.2468436492590653
S'Cell[2].dend[1] syn_ = new FastInhib(0.214285714286)'
p2507
I2
(dp2508
g2439
F0.7
sg2440
F45.0
sg2441
I93
sg2442
g7
(g8
(I0
tp2509
g10
tp2510
Rp2511
(I1
(I3
tp2512
g2449
I00
S'H\xd6>\xc3b\xd2B\xc0\xf6M\xfb\x1e\xb8J.@s\xc1\xae\x02\x14\xb8C\xc0'
p2513
tp2514
bsg2454
S'Cell[1].axon[194]'
p2515
sI93
I108
tp2516
a(F1.7938670135864836
S'Cell[3].dend[57] syn_ = new FastInhib(0.214285714286)'
p2517
I3
(dp2518
g2439
F0.16666666666666666
sg2440
F45.0
sg2441
I93
sg2442
g7
(g8
(I0
tp2519
g10
tp2520
Rp2521
(I1
(I3
tp2522
g2449
I00
S'\xf2\x97C\xa4\xf8\x97A@\x80\xc2\xf8\xbe\x82\xe5P@#F\xb6\\w\xe1\xfe?'
p2523
tp2524
bsg2454
S'Cell[1].axon[266]'
p2525
sI93
I156
tp2526
a(F1.038723426727283
S'Cell[0].dend[43] syn_ = new AmpaNmda(0.3)'
p2527
I0
(dp2528
S'seg'
p2529
F0.8333333333333333
sS'hostfrom'
p2530
F46.0
sS'gid'
p2531
I94
sS'coords'
p2532
g7
(g8
(I0
tp2533
g10
tp2534
Rp2535
(I1
(I3
tp2536
g14
(S'f8'
p2537
I0
I1
tp2538
Rp2539
(I3
S'<'
p2540
NNNI-1
I-1
I0
tp2541
bI00
S':y@\x173\xe76@\x03]\xecw\xcd\xceL\xc0aH\x12\x0e\xd6\xdf\xf3\xbf'
p2542
tp2543
bsS'secnames'
p2544
S'Cell[1].axon[102]'
p2545
sI94
I12
tp2546
a(F1.310970214919763
S'Cell[3].dend[4] syn_ = new FastInhib(0.166666666667)'
p2547
I3
(dp2548
g2529
F0.8333333333333333
sg2530
F46.0
sg2531
I94
sg2532
g7
(g8
(I0
tp2549
g10
tp2550
Rp2551
(I1
(I3
tp2552
g2539
I00
S'Odt:\x0b P\xc0J\xcb9\xe1{\xe98\xc0\xc6\xe8LzEy\x1f@'
p2553
tp2554
bsg2544
S'Cell[1].axon[308]'
p2555
sI94
I156
tp2556
a(F1.2124716275919285
S'Cell[2].dend[4] syn_ = new FastInhib(0.5)'
p2557
I2
(dp2558
g2529
F0.16666666666666666
sg2530
F46.0
sg2531
I94
sg2532
g7
(g8
(I0
tp2559
g10
tp2560
Rp2561
(I1
(I3
tp2562
g2539
I00
S'Re\xce\xd0\xd4\xe7@\xc0\xad\x9cz\x1a\x9d\x1cG@n\x85\xc9\xc1\x01\xe5@\xc0'
p2563
tp2564
bsg2544
S'Cell[1].axon[341]'
p2565
sI94
I108
tp2566
a(F2.0019456981713293
S'Cell[0].apic[100] syn_ = new ExpSid(0.5)'
p2567
I0
(dp2568
S'seg'
p2569
F0.16666666666666666
sS'hostfrom'
p2570
F47.0
sS'gid'
p2571
I143
sS'coords'
p2572
g7
(g8
(I0
tp2573
g10
tp2574
Rp2575
(I1
(I3
tp2576
g14
(S'f8'
p2577
I0
I1
tp2578
Rp2579
(I3
S'<'
p2580
NNNI-1
I-1
I0
tp2581
bI00
S'\xda\xd7\xb8\x85\x98(G\xc0\xb3\xafq\x0b\x97\x87R@\x00\x00\x00\xc0\xf5\xa82\xc0'
p2582
tp2583
bsS'secnames'
p2584
S'Cell[2].axon[0]'
p2585
sI143
I12
tp2586
a(F1.170418601505273
S'Cell[3].dend[48] syn_ = new FastInhib(0.5)'
p2587
I3
(dp2588
g2569
F0.5
sg2570
F47.0
sg2571
I143
sg2572
g7
(g8
(I0
tp2589
g10
tp2590
Rp2591
(I1
(I3
tp2592
g2579
I00
S',x\x9a\x02\xef\xb8F\xc0\x82\x87\x17h\x9cpB\xc0\x9d\xf8\x12\x8b \xc7\x11\xc0'
p2593
tp2594
bsg2584
S'Cell[2].axon[77]'
p2595
sI143
I156
tp2596
a(F0.9213185764388248
S'Cell[1].dend[4] syn_ = new ExpSid(0.3)'
p2597
I1
(dp2598
g2569
F0.5
sg2570
F47.0
sg2571
I143
sg2572
g7
(g8
(I0
tp2599
g10
tp2600
Rp2601
(I1
(I3
tp2602
g2579
I00
S'8=\xc7\xef\xb2\x84\xeb\xbf\xdc\xd47\x89\x15<G@\x1c\xf3{F\xd2\x04F\xc0'
p2603
tp2604
bsg2584
S'Cell[2].axon[232]'
p2605
sI143
I60
tp2606
a.