(lp0
(F2.096736017141413
S'Cell[2].dend[35] syn_ = new FastInhib(0.5)'
p1
I2
(dp2
S'seg'
p3
F0.5
sS'hostfrom'
p4
F1.0
sS'gid'
p5
I97
sS'coords'
p6
cnumpy.core.multiarray
_reconstruct
p7
(cnumpy
ndarray
p8
(I0
tp9
S'b'
p10
tp11
Rp12
(I1
(I3
tp13
cnumpy
dtype
p14
(S'f8'
p15
I0
I1
tp16
Rp17
(I3
S'<'
p18
NNNI-1
I-1
I0
tp19
bI00
S'\xdev,\x9c\x81\xab#@\x7f,\xabO\xf5\xa8?\xc0\x93\x81d\xee\x8d2\x1a@'
p20
tp21
bsS'secnames'
p22
S'Cell[2].axon[164]'
p23
sI97
I98
tp24
a(F1.0586957215484738
S'Cell[0].dend[24] syn_ = new AmpaNmda(0.5)'
p25
I0
(dp26
S'seg'
p27
F0.5
sS'hostfrom'
p28
F2.0
sS'gid'
p29
I98
sS'coords'
p30
g7
(g8
(I0
tp31
g10
tp32
Rp33
(I1
(I3
tp34
g14
(S'f8'
p35
I0
I1
tp36
Rp37
(I3
S'<'
p38
NNNI-1
I-1
I0
tp39
bI00
S"p7\xca\xa5\xce\xbeJ\xc0\x86\xc1:`\xb6\xe8\x10\xc0rQ\xd6\xe5\x03\xc3'@"
p40
tp41
bsS'secnames'
p42
S'Cell[2].axon[24]'
p43
sI98
I2
tp44
a(F0.795487774285069
S'Cell[3].dend[4] syn_ = new FastInhib(0.166666666667)'
p45
I3
(dp46
g27
F0.8333333333333333
sg28
F2.0
sg29
I98
sg30
g7
(g8
(I0
tp47
g10
tp48
Rp49
(I1
(I3
tp50
g37
I00
S'\x00\x00\x00 \x85\xebY\xc0\xb1H\xe6\xd3\x9c\x15X\xc0 \xdf\xf2}FHb\xc0'
p51
tp52
bsg42
S'Cell[2].axon[333]'
p53
sI98
I146
tp54
a(F0.36539618197819107
S'Cell[1].dend[21] syn_ = new AmpaNmda(0.166666666667)'
p55
I1
(dp56
g27
F0.5
sg28
F2.0
sg29
I146
sg30
g7
(g8
(I0
tp57
g10
tp58
Rp59
(I1
(I3
tp60
g37
I00
S'\x7f0)\xd0\x90[K\xc0\xca\x1b\xb5\xd0\xab@Y\xc0\x00\xdey\xcf\x96e5@'
p61
tp62
bsg42
S'Cell[3].axon[17]'
p63
sI146
I50
tp64
a(F1.8150892421358513
S'Cell[0].dend[2] syn_ = new AmpaNmda(0.833333333333)'
p65
I0
(dp66
g27
F0.8333333333333333
sg28
F2.0
sg29
I146
sg30
g7
(g8
(I0
tp67
g10
tp68
Rp69
(I1
(I3
tp70
g37
I00
S'\xf8\x1b,\xa8\x08\t:@\x9c\x13\xa4\xaa2\xceJ\xc0\x9ey\x0f\t\xa8]0@'
p71
tp72
bsg42
S'Cell[3].axon[80]'
p73
sI146
I2
tp74
a(F1.0586957215484738
S'Cell[0].dend[24] syn_ = new ExpSid(0.5)'
p75
I0
(dp76
S'seg'
p77
F0.5
sS'hostfrom'
p78
F3.0
sS'gid'
p79
I99
sS'coords'
p80
g7
(g8
(I0
tp81
g10
tp82
Rp83
(I1
(I3
tp84
g14
(S'f8'
p85
I0
I1
tp86
Rp87
(I3
S'<'
p88
NNNI-1
I-1
I0
tp89
bI00
S"p7\xca\xa5\xce\xbeJ\xc0\x86\xc1:`\xb6\xe8\x10\xc0rQ\xd6\xe5\x03\xc3'@"
p90
tp91
bsS'secnames'
p92
S'Cell[2].axon[24]'
p93
sI99
I2
tp94
a(F0.795487774285069
S'Cell[3].dend[4] syn_ = new FastInhib(0.166666666667)'
p95
I3
(dp96
g77
F0.8333333333333333
sg78
F3.0
sg79
I99
sg80
g7
(g8
(I0
tp97
g10
tp98
Rp99
(I1
(I3
tp100
g87
I00
S'\x00\x00\x00 \x85\xebY\xc0\xb1H\xe6\xd3\x9c\x15X\xc0 \xdf\xf2}FHb\xc0'
p101
tp102
bsg92
S'Cell[2].axon[333]'
p103
sI99
I146
tp104
a(F2.4466882874637883
S'Cell[0].dend[14] syn_ = new AmpaNmda(0.5)'
p105
I0
(dp106
S'seg'
p107
F0.30000000000000004
sS'hostfrom'
p108
F4.0
sS'gid'
p109
I148
sS'coords'
p110
g7
(g8
(I0
tp111
g10
tp112
Rp113
(I1
(I3
tp114
g14
(S'f8'
p115
I0
I1
tp116
Rp117
(I3
S'<'
p118
NNNI-1
I-1
I0
tp119
bI00
S'\xce!yBH\xf4R\xc0\x13!\xf8\xca\x7f\xc6\x1a\xc0\x84\xfc\x99\x7f\xc0\xe2>\xc0'
p120
tp121
bsS'secnames'
p122
S'Cell[3].axon[88]'
p123
sI148
I2
tp124
a(F2.496140056824514
S'Cell[1].dend[26] syn_ = new AmpaNmda(0.5)'
p125
I1
(dp126
g107
F0.30000000000000004
sg108
F4.0
sg109
I148
sg110
g7
(g8
(I0
tp127
g10
tp128
Rp129
(I1
(I3
tp130
g117
I00
S'\xb5\xde]\xedG\x979\xc0~\x9f-\xb3\xa2\x08a\xc04%\xa22\x0bD\x11@'
p131
tp132
bsg122
S'Cell[3].axon[118]'
p133
sI148
I50
tp134
a(F1.977328308539367
S'Cell[3].dend[5] syn_ = new FastInhib(0.7)'
p135
I3
(dp136
g107
F0.3571428571428571
sg108
F4.0
sg109
I148
sg110
g7
(g8
(I0
tp137
g10
tp138
Rp139
(I1
(I3
tp140
g117
I00
S'*\xa4\x1b\xd7\xb3\xb6(\xc0\x84\x0b\xf9k\xfc\xb4a\xc0m\x8c\xf9Ij\xde1\xc0'
p141
tp142
bsg122
S'Cell[3].axon[172]'
p143
sI148
I146
tp144
a(F2.1879084824342856
S'Cell[0].dend[12] syn_ = new AmpaNmda(0.3)'
p145
I0
(dp146
S'seg'
p147
F0.5
sS'hostfrom'
p148
F6.0
sS'gid'
p149
I150
sS'coords'
p150
g7
(g8
(I0
tp151
g10
tp152
Rp153
(I1
(I3
tp154
g14
(S'f8'
p155
I0
I1
tp156
Rp157
(I3
S'<'
p158
NNNI-1
I-1
I0
tp159
bI00
S'\x00\x00\x00\xe0Q\xa0Y\xc0\x00\x00\x000\\\x8f9\xc0\x00\x00\x00\xd0\xa3@B\xc0'
p160
tp161
bsS'secnames'
p162
S'Cell[3].axon[4]'
p163
sI150
I2
tp164
a(F1.4526297859817807
S'Cell[2].dend[44] syn_ = new FastInhib(0.5)'
p165
I2
(dp166
S'seg'
p167
F0.7
sS'hostfrom'
p168
F7.0
sS'gid'
p169
I103
sS'coords'
p170
g7
(g8
(I0
tp171
g10
tp172
Rp173
(I1
(I3
tp174
g14
(S'f8'
p175
I0
I1
tp176
Rp177
(I3
S'<'
p178
NNNI-1
I-1
I0
tp179
bI00
S'c\xda\x86\x9f\xec\xb7F\xc0\x1f\xcd=\xd2>\xc3\x03\xc0\x00\x00\x00\x80\xc2\xf5"\xc0'
p180
tp181
bsS'secnames'
p182
S'Cell[2].axon[88]'
p183
sI103
I98
tp184
a(F2.117642899072051
S'Cell[0].apic[21] syn_ = new ExpSid(0.5)'
p185
I0
(dp186
g167
F0.30000000000000004
sg168
F7.0
sg169
I103
sg170
g7
(g8
(I0
tp187
g10
tp188
Rp189
(I1
(I3
tp190
g177
I00
S'\x8c\x1c\xd9q\x91\xdfP\xc0\x1fTO\x9e\xcd\x08S@\xda\x8dK\xf4s\x05\x19\xc0'
p191
tp192
bsg182
S'Cell[2].axon[125]'
p193
sI103
I2
tp194
a(F2.4139654431253756
S'Cell[0].apic[21] syn_ = new ExpSid(0.5)'
p195
I0
(dp196
g167
F0.8333333333333333
sg168
F7.0
sg169
I103
sg170
g7
(g8
(I0
tp197
g10
tp198
Rp199
(I1
(I3
tp200
g177
I00
S'\x12\xb2\xac\xd8\x8b\xbaP\xc0f(Hsr\xedR@\x00\x00\x00\x80\xebQ\x16\xc0'
p201
tp202
bsg182
S'Cell[2].axon[126]'
p203
sI103
I2
tp204
a(F1.7362810591495341
S'Cell[0].dend[3] syn_ = new AmpaNmda(0.5)'
p205
I0
(dp206
S'seg'
p207
F0.5
sS'hostfrom'
p208
F8.0
sS'gid'
p209
I152
sS'coords'
p210
g7
(g8
(I0
tp211
g10
tp212
Rp213
(I1
(I3
tp214
g14
(S'f8'
p215
I0
I1
tp216
Rp217
(I3
S'<'
p218
NNNI-1
I-1
I0
tp219
bI00
S'\xb4\xd3j\x15\xca\xf4Q\xc0\x18L\x07\r\xed@&\xc0\xe1\xcc{\t\x05e8@'
p220
tp221
bsS'secnames'
p222
S'Cell[3].axon[512]'
p223
sI152
I2
tp224
a(F1.705405870020931
S'Cell[0].dend[4] syn_ = new AmpaNmda(0.5)'
p225
I0
g206
I152
I2
tp226
a(F1.4553237236244232
S'Cell[0].dend[24] syn_ = new AmpaNmda(0.5)'
p227
I0
(dp228
g207
F0.5
sg208
F8.0
sg209
I152
sg210
g7
(g8
(I0
tp229
g10
tp230
Rp231
(I1
(I3
tp232
g217
I00
S'\xcfdD\xc9\x8bmJ\xc0\x88l\x80-[F\x11\xc06\x12\xcb\xc00i&@'
p233
tp234
bsg222
S'Cell[3].axon[516]'
p235
sI152
I2
tp236
a(F2.406794339667425
S'Cell[0].apic[19] syn_ = new AmpaNmda(0.5)'
p237
I0
(dp238
g207
F0.5
sg208
F8.0
sg209
I152
sg210
g7
(g8
(I0
tp239
g10
tp240
Rp241
(I1
(I3
tp242
g217
I00
S'\xfe\x92\x0f\xe4K\xfcM\xc0B\xbaP{\x14\xf1P@\x01\x00\x00\x80=\n5\xc0'
p243
tp244
bsg222
S'Cell[3].axon[597]'
p245
sI152
I2
tp246
a(F1.9386745955264113
S'Cell[0].apic[26] syn_ = new AmpaNmda(0.5)'
p247
I0
(dp248
g207
F0.7857142857142856
sg208
F8.0
sg209
I104
sg210
g7
(g8
(I0
tp249
g10
tp250
Rp251
(I1
(I3
tp252
g217
I00
S'u\xdf\xaa}\x81\xf6L\xc0R\xa4Q?\x8e\x88@@"\xe9\xaa\x80\xb9Q,\xc0'
p253
tp254
bsg222
S'Cell[2].axon[119]'
p255
sI104
I2
tp256
a(F2.255802870413166
S'Cell[1].dend[12] syn_ = new ExpSid(0.166666666667)'
p257
I1
(dp258
S'seg'
p259
F0.8333333333333333
sS'hostfrom'
p260
F9.0
sS'gid'
p261
I105
sS'coords'
p262
g7
(g8
(I0
tp263
g10
tp264
Rp265
(I1
(I3
tp266
g14
(S'f8'
p267
I0
I1
tp268
Rp269
(I3
S'<'
p270
NNNI-1
I-1
I0
tp271
bI00
S'?r\xa2\xceZ:I\xc04\xfe&\xca\xd4\xebb\xc0\x95\x8b5\x9d\xf5AD\xc0'
p272
tp273
bsS'secnames'
p274
S'Cell[2].axon[92]'
p275
sI105
I50
tp276
a(F2.173983109384463
S'Cell[1].apic[9] syn_ = new ExpSid(0.5)'
p277
I1
(dp278
g259
F0.6111111111111112
sg260
F9.0
sg261
I105
sg262
g7
(g8
(I0
tp279
g10
tp280
Rp281
(I1
(I3
tp282
g269
I00
S'\\z\x18\x17\xb3\xa7Z\xc0\x00\x18\xad\xb7>\xfcA\xc0\x88\x06\x97\xae\xc2\xef\x00@'
p283
tp284
bsg274
S'Cell[2].axon[210]'
p285
sI105
I50
tp286
a(F1.4401512418388287
S'Cell[2].dend[11] syn_ = new FastInhib(0.833333333333)'
p287
I2
(dp288
S'seg'
p289
F0.5
sS'hostfrom'
p290
F10.0
sS'gid'
p291
I106
sS'coords'
p292
g7
(g8
(I0
tp293
g10
tp294
Rp295
(I1
(I3
tp296
g14
(S'f8'
p297
I0
I1
tp298
Rp299
(I3
S'<'
p300
NNNI-1
I-1
I0
tp301
bI00
S"\x98\xa9\xceR\xf5\x80\x10@\xde\xf9\x9b\x19\xe2\x9ad@h(&\xbc\x8b\xa0'@"
p302
tp303
bsS'secnames'
p304
S'Cell[2].axon[65]'
p305
sI106
I98
tp306
a(F1.6755271749669385
S'Cell[2].dend[39] syn_ = new FastInhib(0.166666666667)'
p307
I2
(dp308
g289
F0.16666666666666666
sg290
F10.0
sg291
I106
sg292
g7
(g8
(I0
tp309
g10
tp310
Rp311
(I1
(I3
tp312
g299
I00
S'h=\xb0u\xdc\xb32@K\x8e\x866t-:\xc0\xf4\x93a\xf6\x91\x11\x1d@'
p313
tp314
bsg304
S'Cell[2].axon[182]'
p315
sI106
I98
tp316
a(F0.9549732001403064
S'Cell[2].dend[26] syn_ = new FastInhib(0.5)'
p317
I2
(dp318
g289
F0.8333333333333333
sg290
F10.0
sg291
I106
sg292
g7
(g8
(I0
tp319
g10
tp320
Rp321
(I1
(I3
tp322
g299
I00
S'\xec\xdd&\x087`\x1d@{yn\xb3O\x13!@\x97\xaa\x18\xc5%\xaaB\xc0'
p323
tp324
bsg304
S'Cell[2].axon[337]'
p325
sI106
I98
tp326
a(F2.159035580206186
S'Cell[2].dend[26] syn_ = new FastInhib(0.5)'
p327
I2
(dp328
g289
F0.5
sg290
F10.0
sg291
I106
sg292
g7
(g8
(I0
tp329
g10
tp330
Rp331
(I1
(I3
tp332
g299
I00
S'\xca\x8a\xcb\xf9\xeb|\x19@\xdc/\x90\xfc\x9a\xa9\x1a@\xb6\xdc\xe0\x96\x07\nC\xc0'
p333
tp334
bsg304
S'Cell[2].axon[349]'
p335
sI106
I98
tp336
a(F0.9089141740913812
S'Cell[2].dend[36] syn_ = new FastInhib(0.1)'
p337
I2
(dp338
g289
F0.5
sg290
F10.0
sg291
I58
sg292
g7
(g8
(I0
tp339
g10
tp340
Rp341
(I1
(I3
tp342
g299
I00
S'\x8f\xff&\x81Y\xe7$@\xad}\xea\xb9\x87VF\xc0\xe7\x87\xd0\xcd\xb9\xf1\x19@'
p343
tp344
bsg304
S'Cell[1].axon[9]'
p345
sI58
I98
tp346
a(F2.4587096985043457
S'Cell[0].dend[35] syn_ = new ExpSid(0.833333333333)'
p347
I0
(dp348
S'seg'
p349
F0.5
sS'hostfrom'
p350
F11.0
sS'gid'
p351
I155
sS'coords'
p352
g7
(g8
(I0
tp353
g10
tp354
Rp355
(I1
(I3
tp356
g14
(S'f8'
p357
I0
I1
tp358
Rp359
(I3
S'<'
p360
NNNI-1
I-1
I0
tp361
bI00
S'\xb1\xe1\xf8\x1e\xad\xd9\x11@\x08\xa0\x0e\x93&4F\xc0:W\x8aT\xb54\x16\xc0'
p362
tp363
bsS'secnames'
p364
S'Cell[3].axon[26]'
p365
sI155
I2
tp366
a(F1.3645344925012861
S'Cell[1].apic[14] syn_ = new ExpSid(0.833333333333)'
p367
I1
(dp368
g349
F0.5
sg350
F11.0
sg351
I155
sg352
g7
(g8
(I0
tp369
g10
tp370
Rp371
(I1
(I3
tp372
g359
I00
S'\x16( .\x9c\x00V\xc0<HkKE\x0cH\xc0\x00\x00\x00 \xaeG3@'
p373
tp374
bsg364
S'Cell[3].axon[34]'
p375
sI155
I50
tp376
a(F1.602193367050675
S'Cell[0].apic[17] syn_ = new ExpSid(0.166666666667)'
p377
I0
(dp378
g349
F0.8333333333333333
sg350
F11.0
sg351
I155
sg352
g7
(g8
(I0
tp379
g10
tp380
Rp381
(I1
(I3
tp382
g359
I00
S'\xdb\xc7\xf9\x1d3~J\xc0\x9c4\xc4\xb1\xd2\xf8_@\xbc\x81I=\x9a?F\xc0'
p383
tp384
bsg364
S'Cell[3].axon[278]'
p385
sI155
I2
tp386
a(F2.161894424751758
S'Cell[0].apic[1] syn_ = new ExpSid(0.5)'
p387
I0
(dp388
g349
F0.5
sg350
F11.0
sg351
I155
sg352
g7
(g8
(I0
tp389
g10
tp390
Rp391
(I1
(I3
tp392
g359
I00
S'\xb7\xb7\xdb\xa8\xb3kP\xc0q-\xdd\x01\xccd@@\xc3#iY`\xd0)\xc0'
p393
tp394
bsg364
S'Cell[3].axon[282]'
p395
sI155
I2
tp396
a(F2.326094297683809
S'Cell[0].apic[26] syn_ = new ExpSid(0.5)'
p397
I0
(dp398
g349
F0.8333333333333333
sg350
F11.0
sg351
I155
sg352
g7
(g8
(I0
tp399
g10
tp400
Rp401
(I1
(I3
tp402
g359
I00
S'\xbe#\xa2\xa7c\xf4M\xc0_\x93E2\xa3\xe9A@\xd8\xfd%\xd8\x8c\xab/\xc0'
p403
tp404
bsg364
S'Cell[3].axon[282]'
p405
sI155
I2
tp406
a(F2.458139160527655
S'Cell[2].dend[44] syn_ = new FastInhib(0.5)'
p407
I2
(dp408
S'seg'
p409
F0.5
sS'hostfrom'
p410
F12.0
sS'gid'
p411
I156
sS'coords'
p412
g7
(g8
(I0
tp413
g10
tp414
Rp415
(I1
(I3
tp416
g14
(S'f8'
p417
I0
I1
tp418
Rp419
(I3
S'<'
p420
NNNI-1
I-1
I0
tp421
bI00
S'z\x175\x9f\x1b\xc6F\xc0 \x17\x1b\x7f\x9c\xee\xbe?\xfa\x9f\xdd\xd6\xb3\xaf!\xc0'
p422
tp423
bsS'secnames'
p424
S'Cell[3].axon[623]'
p425
sI156
I98
tp426
a(F2.394752776750109
S'Cell[1].dend[28] syn_ = new ExpSid(0.9)'
p427
I1
(dp428
S'seg'
p429
F0.5
sS'hostfrom'
p430
F13.0
sS'gid'
p431
I157
sS'coords'
p432
g7
(g8
(I0
tp433
g10
tp434
Rp435
(I1
(I3
tp436
g14
(S'f8'
p437
I0
I1
tp438
Rp439
(I3
S'<'
p440
NNNI-1
I-1
I0
tp441
bI00
S'*\xfbJr\xa8\x1eM@\xec\xbf"u\x87\xb5^\xc0\x00\x00\x00@\n\'W\xc0'
p442
tp443
bsS'secnames'
p444
S'Cell[3].axon[35]'
p445
sI157
I50
tp446
a(F2.1430325648678052
S'Cell[1].apic[2] syn_ = new ExpSid(0.5)'
p447
I1
(dp448
g429
F0.49999999999999994
sg430
F13.0
sg431
I13
sg432
g7
(g8
(I0
tp449
g10
tp450
Rp451
(I1
(I3
tp452
g439
I00
S'\xe6U\xad\xd8j\t8\xc0F\x9a\x16%\x8a\x1dR\xc0\x00\x00\x00\x80=\x8a5\xc0'
p453
tp454
bsg444
S'Cell[0].axon[12]'
p455
sI13
I50
tp456
a(F2.1945885411080033
S'Cell[1].apic[5] syn_ = new AmpaNmda(0.5)'
p457
I1
(dp458
S'seg'
p459
F0.5
sS'hostfrom'
p460
F16.0
sS'gid'
p461
I112
sS'coords'
p462
g7
(g8
(I0
tp463
g10
tp464
Rp465
(I1
(I3
tp466
g14
(S'f8'
p467
I0
I1
tp468
Rp469
(I3
S'<'
p470
NNNI-1
I-1
I0
tp471
bI00
S"'r`\xb1z[S\xc0]\xac~\xe6\xda\xc3P\xc0\x9agb\x17\xca\x88*\xc0"
p472
tp473
bsS'secnames'
p474
S'Cell[2].axon[13]'
p475
sI112
I50
tp476
a(F2.3806392062572033
S'Cell[1].apic[6] syn_ = new AmpaNmda(0.5)'
p477
I1
(dp478
g459
F0.6428571428571428
sg460
F16.0
sg461
I112
sg462
g7
(g8
(I0
tp479
g10
tp480
Rp481
(I1
(I3
tp482
g469
I00
S'\x00\x00\x00\x00\xd7SS\xc0\x19\xc2\x84\x8f\xafZO\xc0O\xd8Z\x08T=)\xc0'
p483
tp484
bsg474
S'Cell[2].axon[200]'
p485
sI112
I50
tp486
a(F1.6389414376352403
S'Cell[1].apic[2] syn_ = new ExpSid(0.9)'
p487
I1
(dp488
S'seg'
p489
F0.5
sS'hostfrom'
p490
F17.0
sS'gid'
p491
I113
sS'coords'
p492
g7
(g8
(I0
tp493
g10
tp494
Rp495
(I1
(I3
tp496
g14
(S'f8'
p497
I0
I1
tp498
Rp499
(I3
S'<'
p500
NNNI-1
I-1
I0
tp501
bI00
S'\xc249F{D3@A\xf3S"\x15OP\xc0\x00\x00\x00\x80\xc2\xf5\x1f\xc0'
p502
tp503
bsS'secnames'
p504
S'Cell[2].axon[8]'
p505
sI113
I50
tp506
a(F2.431711702728574
S'Cell[1].dend[30] syn_ = new ExpSid(0.5)'
p507
I1
(dp508
g489
F0.16666666666666666
sg490
F17.0
sg491
I113
sg492
g7
(g8
(I0
tp509
g10
tp510
Rp511
(I1
(I3
tp512
g499
I00
S'P8I*\xed\x07\x98?.V\xc5\xb1}QU\xc0\x97m*\xc0\xbavH\xc0'
p513
tp514
bsg504
S'Cell[2].axon[66]'
p515
sI113
I50
tp516
a(F2.1896839041604585
S'Cell[3].dend[5] syn_ = new FastInhib(0.3)'
p517
I3
(dp518
g489
F0.5
sg490
F17.0
sg491
I113
sg492
g7
(g8
(I0
tp519
g10
tp520
Rp521
(I1
(I3
tp522
g499
I00
S"8\x82\x8f3\x10\x92)\xc0\x18\x83 .'pT\xc0\x82jH=\xa1\xec \xc0"
p523
tp524
bsg504
S'Cell[2].axon[163]'
p525
sI113
I146
tp526
a(F1.8514044707990542
S'Cell[2].dend[31] syn_ = new FastInhib(0.1)'
p527
I2
(dp528
g489
F0.8333333333333333
sg490
F17.0
sg491
I113
sg492
g7
(g8
(I0
tp529
g10
tp530
Rp531
(I1
(I3
tp532
g499
I00
S'\xee*\xcf\xa1m\xa7\x1e\xc0C\n\x8cY]p%\xc0^\x99:\x91\x87\xe6\xf3\xbf'
p533
tp534
bsg504
S'Cell[2].axon[496]'
p535
sI113
I98
tp536
a(F1.2554113919560668
S'Cell[3].dend[5] syn_ = new FastInhib(0.1)'
p537
I3
(dp538
g489
F0.5
sg490
F17.0
sg491
I113
sg492
g7
(g8
(I0
tp539
g10
tp540
Rp541
(I1
(I3
tp542
g499
I00
S'47\x06\x11C\xe9)\xc0p%\xbb\\~\xd0H\xc0\xcb\nM\xd3\xa2\xc1,\xc0'
p543
tp544
bsg504
S'Cell[2].axon[611]'
p545
sI113
I146
tp546
a(F2.241579591323284
S'Cell[0].apic[3] syn_ = new ExpSid(0.5)'
p547
I0
(dp548
g489
F0.8333333333333333
sg490
F17.0
sg491
I161
sg492
g7
(g8
(I0
tp549
g10
tp550
Rp551
(I1
(I3
tp552
g499
I00
S'\xc3\xf9\x89\xf3\x1e{O\xc00\xca\xbe3\x8c\x1aO@Jq\x1a\xeb\xaf\xc19\xc0'
p553
tp554
bsg504
S'Cell[3].axon[57]'
p555
sI161
I2
tp556
a(F2.2195358827301033
S'Cell[0].dend[22] syn_ = new AmpaNmda(0.5)'
p557
I0
(dp558
S'seg'
p559
F0.8333333333333333
sS'hostfrom'
p560
F18.0
sS'gid'
p561
I114
sS'coords'
p562
g7
(g8
(I0
tp563
g10
tp564
Rp565
(I1
(I3
tp566
g14
(S'f8'
p567
I0
I1
tp568
Rp569
(I3
S'<'
p570
NNNI-1
I-1
I0
tp571
bI00
S'.z\x0bi\x9b\xefH\xc0u\x85[\n[\xe9D\xc0\xeb&#\xfc\xcd\xb2;\xc0'
p572
tp573
bsS'secnames'
p574
S'Cell[2].axon[2]'
p575
sI114
I2
tp576
a(F2.2242213316722776
S'Cell[3].dend[8] syn_ = new FastInhib(0.928571428571)'
p577
I3
(dp578
g559
F0.16666666666666666
sg560
F18.0
sg561
I114
sg562
g7
(g8
(I0
tp579
g10
tp580
Rp581
(I1
(I3
tp582
g569
I00
S')\xbc,@\x8dL+@\xdc)\x81\xdb>\xd0k\xc0\xda\x9e\xdc\xd6\x97H<@'
p583
tp584
bsg574
S'Cell[2].axon[69]'
p585
sI114
I146
tp586
a(F2.4317366843293793
S'Cell[2].dend[2] syn_ = new FastInhib(0.166666666667)'
p587
I2
(dp588
g559
F0.8333333333333333
sg560
F18.0
sg561
I162
sg562
g7
(g8
(I0
tp589
g10
tp590
Rp591
(I1
(I3
tp592
g569
I00
S'\x16l\x14\xbaG\xc7\x10@8\x9f\x8a\xd2\x91*:@\xe5\xd0\xa0o\t\xc11@'
p593
tp594
bsg574
S'Cell[3].axon[181]'
p595
sI162
I98
tp596
a(F2.034157530730278
S'Cell[1].dend[21] syn_ = new ExpSid(0.5)'
p597
I1
(dp598
S'seg'
p599
F0.5
sS'hostfrom'
p600
F19.0
sS'gid'
p601
I163
sS'coords'
p602
g7
(g8
(I0
tp603
g10
tp604
Rp605
(I1
(I3
tp606
g14
(S'f8'
p607
I0
I1
tp608
Rp609
(I3
S'<'
p610
NNNI-1
I-1
I0
tp611
bI00
S'\x10d\x8aYjzI\xc0l7\xcb\xba\xaf\x1eW\xc0\xf0\xeb\xc8zZ\xf8<@'
p612
tp613
bsS'secnames'
p614
S'Cell[3].axon[43]'
p615
sI163
I50
tp616
a(F2.3501782152038033
S'Cell[2].dend[21] syn_ = new FastInhib(0.5)'
p617
I2
(dp618
S'seg'
p619
F0.1
sS'hostfrom'
p620
F20.0
sS'gid'
p621
I164
sS'coords'
p622
g7
(g8
(I0
tp623
g10
tp624
Rp625
(I1
(I3
tp626
g14
(S'f8'
p627
I0
I1
tp628
Rp629
(I3
S'<'
p630
NNNI-1
I-1
I0
tp631
bI00
S'\x14\xcd\xb9\xcfQ83@;\xb8|\x1eO5\r@\x00\x00\x00\xe0zT8@'
p632
tp633
bsS'secnames'
p634
S'Cell[3].axon[0]'
p635
sI164
I98
tp636
a(F1.3238356368932942
S'Cell[0].dend[23] syn_ = new AmpaNmda(0.166666666667)'
p637
I0
(dp638
g619
F0.5
sg620
F20.0
sg621
I116
sg622
g7
(g8
(I0
tp639
g10
tp640
Rp641
(I1
(I3
tp642
g629
I00
S'x\xe0\x98\xec\xb7kI\xc0\xc9\xfb\xcd<oF \xc0p\xe0\x88h/\x03C\xc0'
p643
tp644
bsg634
S'Cell[2].axon[201]'
p645
sI116
I2
tp646
a(F2.3818470503558236
S'Cell[2].dend[48] syn_ = new FastInhib(0.5)'
p647
I2
(dp648
S'seg'
p649
F0.7857142857142856
sS'hostfrom'
p650
F21.0
sS'gid'
p651
I21
sS'coords'
p652
g7
(g8
(I0
tp653
g10
tp654
Rp655
(I1
(I3
tp656
g14
(S'f8'
p657
I0
I1
tp658
Rp659
(I3
S'<'
p660
NNNI-1
I-1
I0
tp661
bI00
S' \x94\xa7\x05v]P@\x9c\xc3\x07\x91\xc2]4@\x00\x00\x00\xe0\xa3p0@'
p662
tp663
bsS'secnames'
p664
S'Cell[0].axon[62]'
p665
sI21
I98
tp666
a(F1.4333689707107422
S'Cell[3].dend[8] syn_ = new FastInhib(0.0714285714286)'
p667
I3
(dp668
g649
F0.2777777777777778
sg650
F21.0
sg651
I69
sg652
g7
(g8
(I0
tp669
g10
tp670
Rp671
(I1
(I3
tp672
g659
I00
S'\x98\xe8\nE\xf1\xc9 \xc0\xe5c\xae\x19\x052@\xc0\x00\x00\x00\x80\x14\xae @'
p673
tp674
bsg664
S'Cell[1].axon[4]'
p675
sI69
I146
tp676
a(F1.1070894962340805
S'Cell[1].dend[25] syn_ = new AmpaNmda(0.833333333333)'
p677
I1
(dp678
S'seg'
p679
F0.16666666666666666
sS'hostfrom'
p680
F22.0
sS'gid'
p681
I70
sS'coords'
p682
g7
(g8
(I0
tp683
g10
tp684
Rp685
(I1
(I3
tp686
g14
(S'f8'
p687
I0
I1
tp688
Rp689
(I3
S'<'
p690
NNNI-1
I-1
I0
tp691
bI00
S'\x9b\x8f\x1a\x83\x82\xfd7\xc0={\xa4c\xb6tf\xc0\x00\x00\x00 \xae\x073@'
p692
tp693
bsS'secnames'
p694
S'Cell[1].axon[28]'
p695
sI70
I50
tp696
a(F0.9577309701643252
S'Cell[2].dend[6] syn_ = new FastInhib(0.5)'
p697
I2
(dp698
g679
F0.6428571428571428
sg680
F22.0
sg681
I166
sg682
g7
(g8
(I0
tp699
g10
tp700
Rp701
(I1
(I3
tp702
g689
I00
S'?[\x144\xb1\xd96\xc0\x0c\xf8\x11#MCm@\x1c\xb85\xc1\nCM\xc0'
p703
tp704
bsg694
S'Cell[3].axon[6]'
p705
sI166
I98
tp706
a(F1.5771910334134664
S'Cell[2].dend[30] syn_ = new FastInhib(0.5)'
p707
I2
(dp708
S'seg'
p709
F0.5
sS'hostfrom'
p710
F23.0
sS'gid'
p711
I71
sS'coords'
p712
g7
(g8
(I0
tp713
g10
tp714
Rp715
(I1
(I3
tp716
g14
(S'f8'
p717
I0
I1
tp718
Rp719
(I3
S'<'
p720
NNNI-1
I-1
I0
tp721
bI00
S'P@\xc3*\xf5\xa6\x0c@J2\xb4\x85\x8f\xca\x11\xc0\x1e\xef\xe0C\xc8\xb4\x15@'
p722
tp723
bsS'secnames'
p724
S'Cell[1].axon[0]'
p725
sI71
I98
tp726
a(F2.006346536480548
S'Cell[0].dend[25] syn_ = new ExpSid(0.5)'
p727
I0
(dp728
g709
F0.045454545454545456
sg710
F23.0
sg711
I167
sg712
g7
(g8
(I0
tp729
g10
tp730
Rp731
(I1
(I3
tp732
g719
I00
S'}8N\xc4\xc1\x97H\xc0q\x9e\xab\x07\x80\x03\xfd\xbfUn\xbc3\xd7#"@'
p733
tp734
bsg724
S'Cell[3].axon[158]'
p735
sI167
I2
tp736
a(F2.4047548286968103
S'Cell[1].apic[25] syn_ = new AmpaNmda(0.5)'
p737
I1
(dp738
S'seg'
p739
F0.5
sS'hostfrom'
p740
F24.0
sS'gid'
p741
I168
sS'coords'
p742
g7
(g8
(I0
tp743
g10
tp744
Rp745
(I1
(I3
tp746
g14
(S'f8'
p747
I0
I1
tp748
Rp749
(I3
S'<'
p750
NNNI-1
I-1
I0
tp751
bI00
S'.9\xc5\xe9\xe1"U\xc0\x8fEHuh\xd2P\xc0\x00\x00\x00\xc0\xcc\xdcQ\xc0'
p752
tp753
bsS'secnames'
p754
S'Cell[3].axon[31]'
p755
sI168
I50
tp756
a(F2.27694236868329
S'Cell[1].apic[19] syn_ = new AmpaNmda(0.833333333333)'
p757
I1
(dp758
g739
F0.16666666666666666
sg740
F24.0
sg741
I168
sg742
g7
(g8
(I0
tp759
g10
tp760
Rp761
(I1
(I3
tp762
g749
I00
S'\xcc\xf5\xb0\x8f\xc9\x1cT\xc0 \x19\xfb"\xbadd@\x00\x00\x00\xc0\xcc\xdcQ\xc0'
p763
tp764
bsg754
S'Cell[3].axon[457]'
p765
sI168
I50
tp766
a(F1.6674458170766666
S'Cell[0].apic[27] syn_ = new AmpaNmda(0.166666666667)'
p767
I0
(dp768
g739
F0.5
sg740
F24.0
sg741
I120
sg742
g7
(g8
(I0
tp769
g10
tp770
Rp771
(I1
(I3
tp772
g749
I00
S'\x1b\xf1\x17\xe7\xb0\xc7F\xc0\x04\x8f\x05!\xaf\xebH@,\x08\x8ax\\F1\xc0'
p773
tp774
bsg754
S'Cell[2].axon[48]'
p775
sI120
I2
tp776
a(F2.1932855220023635
S'Cell[3].dend[5] syn_ = new FastInhib(0.1)'
p777
I3
(dp778
g739
F0.5
sg740
F24.0
sg741
I120
sg742
g7
(g8
(I0
tp779
g10
tp780
Rp781
(I1
(I3
tp782
g749
I00
S'\x00\x00\x00P\xcd\x8c$\xc0\x00\x00\x00\x80\xebQI\xc0\x00\x00\x00\x10\xd7\xe3*\xc0'
p783
tp784
bsg754
S'Cell[2].axon[128]'
p785
sI120
I146
tp786
a(F1.312815020515801
S'Cell[1].dend[27] syn_ = new AmpaNmda(0.5)'
p787
I1
(dp788
g739
F0.49999999999999994
sg740
F24.0
sg741
I120
sg742
g7
(g8
(I0
tp789
g10
tp790
Rp791
(I1
(I3
tp792
g749
I00
S'\xaa\xadS\x1f\x17\tD\xc0\xb9\x10\xce\x1b\xf0oZ\xc0\x00\x00\x00`\x8fB(\xc0'
p793
tp794
bsg754
S'Cell[2].axon[263]'
p795
sI120
I50
tp796
a(F1.875323283606838
S'Cell[2].dend[25] syn_ = new FastInhib(0.3)'
p797
I2
(dp798
S'seg'
p799
F0.5
sS'hostfrom'
p800
F25.0
sS'gid'
p801
I121
sS'coords'
p802
g7
(g8
(I0
tp803
g10
tp804
Rp805
(I1
(I3
tp806
g14
(S'f8'
p807
I0
I1
tp808
Rp809
(I3
S'<'
p810
NNNI-1
I-1
I0
tp811
bI00
S'\xf4\x11\xaa\x98#\x80A@\xef\xe0O\xdaK|\x1e\xc0Q\xd1\x10"\xf4^R\xc0'
p812
tp813
bsS'secnames'
p814
S'Cell[2].axon[100]'
p815
sI121
I98
tp816
a(F1.998935089635243
S'Cell[0].dend[28] syn_ = new ExpSid(0.166666666667)'
p817
I0
(dp818
g799
F0.5
sg800
F25.0
sg801
I121
sg802
g7
(g8
(I0
tp819
g10
tp820
Rp821
(I1
(I3
tp822
g809
I00
S'\xd6\xec\x99H\xf3\xd6E\xc0,\xffZ-\xcf\xc4\xeb\xbf\xc6\xd7p\x05*\x0b2@'
p823
tp824
bsg814
S'Cell[2].axon[331]'
p825
sI121
I2
tp826
a(F2.4767064126607368
S'Cell[2].dend[13] syn_ = new FastInhib(0.5)'
p827
I2
(dp828
S'seg'
p829
F0.5
sS'hostfrom'
p830
F26.0
sS'gid'
p831
I170
sS'coords'
p832
g7
(g8
(I0
tp833
g10
tp834
Rp835
(I1
(I3
tp836
g14
(S'f8'
p837
I0
I1
tp838
Rp839
(I3
S'<'
p840
NNNI-1
I-1
I0
tp841
bI00
S'\x14\x83B(\xd4\xde\x13@`\xa2\xef\xc2\x9d\x13l@`\x95\x1d"\x13\x82\xd6\xbf'
p842
tp843
bsS'secnames'
p844
S'Cell[3].axon[412]'
p845
sI170
I98
tp846
a(F2.4399142714730266
S'Cell[0].dend[12] syn_ = new AmpaNmda(0.5)'
p847
I0
(dp848
S'seg'
p849
F0.2777777777777778
sS'hostfrom'
p850
F28.0
sS'gid'
p851
I76
sS'coords'
p852
g7
(g8
(I0
tp853
g10
tp854
Rp855
(I1
(I3
tp856
g14
(S'f8'
p857
I0
I1
tp858
Rp859
(I3
S'<'
p860
NNNI-1
I-1
I0
tp861
bI00
S'\xfbl]\xd9\xe5c]\xc01\xbc?\xf6\x9f\xb2A\xc0\x00\x00\x00 \x85KD\xc0'
p862
tp863
bsS'secnames'
p864
S'Cell[1].axon[70]'
p865
sI76
I2
tp866
a(F1.8498933048429773
S'Cell[2].dend[31] syn_ = new FastInhib(0.1)'
p867
I2
(dp868
S'seg'
p869
F0.5
sS'hostfrom'
p870
F29.0
sS'gid'
p871
I173
sS'coords'
p872
g7
(g8
(I0
tp873
g10
tp874
Rp875
(I1
(I3
tp876
g14
(S'f8'
p877
I0
I1
tp878
Rp879
(I3
S'<'
p880
NNNI-1
I-1
I0
tp881
bI00
S'\x00\x00\x00\xa0\x99\x99"\xc0\x00\x00\x00\xe0Q\xb8"\xc0\x00\x00\x00\x80=\n\xd7\xbf'
p882
tp883
bsS'secnames'
p884
S'Cell[3].soma[0]'
p885
sI173
I98
tp886
a(F2.488839649511164
S'Cell[1].apic[24] syn_ = new ExpSid(0.5)'
p887
I1
(dp888
g869
F0.16666666666666666
sg870
F29.0
sg871
I125
sg872
g7
(g8
(I0
tp889
g10
tp890
Rp891
(I1
(I3
tp892
g879
I00
S'\xae;\xae\x8a\xde\xb2S\xc0\xf8\xeb\x8f\x08\xfc\x86T\xc0\xf2\xb4\x8c\x8b\x18D\x15\xc0'
p893
tp894
bsg884
S'Cell[2].axon[194]'
p895
sI125
I50
tp896
a(F2.217256381733083
S'Cell[0].apic[21] syn_ = new AmpaNmda(0.5)'
p897
I0
(dp898
S'seg'
p899
F0.8333333333333333
sS'hostfrom'
p900
F30.0
sS'gid'
p901
I174
sS'coords'
p902
g7
(g8
(I0
tp903
g10
tp904
Rp905
(I1
(I3
tp906
g14
(S'f8'
p907
I0
I1
tp908
Rp909
(I3
S'<'
p910
NNNI-1
I-1
I0
tp911
bI00
S'\xa0lH\x03\x8a\xafP\xc0d\x1a\x80\xa8\xf2\xc1R@\xd9S[-_\x89!\xc0'
p912
tp913
bsS'secnames'
p914
S'Cell[3].axon[122]'
p915
sI174
I2
tp916
a(F1.01275399539255
S'Cell[2].dend[31] syn_ = new FastInhib(0.7)'
p917
I2
(dp918
g899
F0.5
sg900
F30.0
sg901
I174
sg902
g7
(g8
(I0
tp919
g10
tp920
Rp921
(I1
(I3
tp922
g909
I00
S'\xe0\xc0)\xe12QQ\xc0\xc3*\xa5\x0e\xe3\xd1)@\xb4]\xfb\x9fUdD\xc0'
p923
tp924
bsg914
S'Cell[3].axon[167]'
p925
sI174
I98
tp926
a(F1.6970738949726627
S'Cell[2].dend[38] syn_ = new FastInhib(0.9)'
p927
I2
(dp928
S'seg'
p929
F0.5
sS'hostfrom'
p930
F31.0
sS'gid'
p931
I127
sS'coords'
p932
g7
(g8
(I0
tp933
g10
tp934
Rp935
(I1
(I3
tp936
g14
(S'f8'
p937
I0
I1
tp938
Rp939
(I3
S'<'
p940
NNNI-1
I-1
I0
tp941
bI00
S'\xe5J\x8b\x95@."\xc0\xe7\xfe\xf1\xf9J\x1ac\xc0\xd3\xa29V\xd6\x17.\xc0'
p942
tp943
bsS'secnames'
p944
S'Cell[2].axon[19]'
p945
sI127
I98
tp946
a(F0.7804968944496804
S'Cell[3].dend[15] syn_ = new FastInhib(0.357142857143)'
p947
I3
(dp948
g929
F0.1
sg930
F31.0
sg931
I127
sg932
g7
(g8
(I0
tp949
g10
tp950
Rp951
(I1
(I3
tp952
g939
I00
S'A\x9d\x1c\xb7\xaa\xebQ@\x84_\x15\xe0\xee\xbaE\xc0\xf7\x90\x1a\xf8\x1c%0@'
p953
tp954
bsg944
S'Cell[2].axon[91]'
p955
sI127
I146
tp956
a(F1.6374472976031818
S'Cell[1].apic[20] syn_ = new ExpSid(0.9)'
p957
I1
(dp958
g929
F0.9285714285714284
sg930
F31.0
sg931
I175
sg932
g7
(g8
(I0
tp959
g10
tp960
Rp961
(I1
(I3
tp962
g939
I00
S'\x7f$\x14#`xH\xc0^U\xd7(\x9d\xf8n@\xa9\x08\xe3\x91\x1b\x7fZ\xc0'
p963
tp964
bsg944
S'Cell[3].axon[153]'
p965
sI175
I50
tp966
a(F1.137754536292371
S'Cell[2].dend[25] syn_ = new FastInhib(0.1)'
p967
I2
(dp968
g929
F0.8333333333333333
sg930
F31.0
sg931
I175
sg932
g7
(g8
(I0
tp969
g10
tp970
Rp971
(I1
(I3
tp972
g939
I00
S'\xac\x189\xbbz\x7f@@\xa7\x82\x87\xc6u\xee\xf4\xbf\xa3\x10\x83\x0f+\xd3K\xc0'
p973
tp974
bsg944
S'Cell[3].axon[229]'
p975
sI175
I98
tp976
a(F0.9878085644255786
S'Cell[2].dend[15] syn_ = new FastInhib(0.5)'
p977
I2
(dp978
S'seg'
p979
F0.16666666666666666
sS'hostfrom'
p980
F33.0
sS'gid'
p981
I129
sS'coords'
p982
g7
(g8
(I0
tp983
g10
tp984
Rp985
(I1
(I3
tp986
g14
(S'f8'
p987
I0
I1
tp988
Rp989
(I3
S'<'
p990
NNNI-1
I-1
I0
tp991
bI00
S'p\xe0\xe06\xd1\xb9D\xc0m\x86Y9\x07\xd8R@]\xab\xedw\x99\xd1&@'
p992
tp993
bsS'secnames'
p994
S'Cell[2].axon[71]'
p995
sI129
I98
tp996
a(F2.4134036547450677
S'Cell[3].dend[16] syn_ = new FastInhib(0.5)'
p997
I3
(dp998
g979
F0.16666666666666666
sg980
F33.0
sg981
I177
sg982
g7
(g8
(I0
tp999
g10
tp1000
Rp1001
(I1
(I3
tp1002
g989
I00
S'\xad\x86?\x87\xe8{7\xc0\xb9+j1\xde\xb9>@~cx\xd8\x9a\xc8\x04\xc0'
p1003
tp1004
bsg994
S'Cell[3].axon[46]'
p1005
sI177
I146
tp1006
a(F1.484509874413033
S'Cell[3].dend[2] syn_ = new FastInhib(0.0714285714286)'
p1007
I3
(dp1008
g979
F0.07142857142857142
sg980
F33.0
sg981
I81
sg982
g7
(g8
(I0
tp1009
g10
tp1010
Rp1011
(I1
(I3
tp1012
g989
I00
S'\x8a\x07\x80\xca!\xbb1\xc0\x90\xae\xe8\xc7WqC\xc0q<k-\xb3\x80:\xc0'
p1013
tp1014
bsg994
S'Cell[1].axon[73]'
p1015
sI81
I146
tp1016
a(F1.6755300646948916
S'Cell[2].dend[24] syn_ = new FastInhib(0.166666666667)'
p1017
I2
(dp1018
S'seg'
p1019
F0.5
sS'hostfrom'
p1020
F34.0
sS'gid'
p1021
I178
sS'coords'
p1022
g7
(g8
(I0
tp1023
g10
tp1024
Rp1025
(I1
(I3
tp1026
g14
(S'f8'
p1027
I0
I1
tp1028
Rp1029
(I3
S'<'
p1030
NNNI-1
I-1
I0
tp1031
bI00
S'\x00\x00\x00\x90\xc2%C@\x00\x00\x00\xe8Q8\x13@\x00\x00\x00\x80\xebaE\xc0'
p1032
tp1033
bsS'secnames'
p1034
S'Cell[3].axon[27]'
p1035
sI178
I98
tp1036
a(F1.6608709972197504
S'Cell[0].apic[3] syn_ = new AmpaNmda(0.5)'
p1037
I0
(dp1038
g1019
F0.8333333333333333
sg1020
F34.0
sg1021
I178
sg1022
g7
(g8
(I0
tp1039
g10
tp1040
Rp1041
(I1
(I3
tp1042
g1029
I00
S'\xaaY\x14ESwP\xc0&\x9c\x06\xd6\x06gO@\x00\x00\x00@\nW:\xc0'
p1043
tp1044
bsg1034
S'Cell[3].axon[346]'
p1045
sI178
I2
tp1046
a(F2.3541045380548185
S'Cell[0].apic[0] syn_ = new AmpaNmda(0.5)'
p1047
I0
(dp1048
S'seg'
p1049
F0.8333333333333333
sS'hostfrom'
p1050
F36.0
sS'gid'
p1051
I84
sS'coords'
p1052
g7
(g8
(I0
tp1053
g10
tp1054
Rp1055
(I1
(I3
tp1056
g14
(S'f8'
p1057
I0
I1
tp1058
Rp1059
(I3
S'<'
p1060
NNNI-1
I-1
I0
tp1061
bI00
S'U\xd3-p\xeb)P\xc0\xffA\xadK\x8e~0@3\xd5_\xbf\xb8b \xc0'
p1062
tp1063
bsS'secnames'
p1064
S'Cell[1].axon[286]'
p1065
sI84
I2
tp1066
a(F2.342774858000582
S'Cell[1].apic[15] syn_ = new AmpaNmda(0.3)'
p1067
I1
(dp1068
g1049
F0.8333333333333333
sg1050
F36.0
sg1051
I84
sg1052
g7
(g8
(I0
tp1069
g10
tp1070
Rp1071
(I1
(I3
tp1072
g1059
I00
S'\x84\x167\xf7\xf1YQ\xc0b\xce\xab\x075\xef*@\x9e\x91\x13\x0b(\xcf*\xc0'
p1073
tp1074
bsg1064
S'Cell[1].axon[433]'
p1075
sI84
I50
tp1076
a(F0.825486789566591
S'Cell[1].apic[22] syn_ = new AmpaNmda(0.5)'
p1077
I1
(dp1078
g1049
F0.49999999999999994
sg1050
F36.0
sg1051
I84
sg1052
g7
(g8
(I0
tp1079
g10
tp1080
Rp1081
(I1
(I3
tp1082
g1059
I00
S':~\xfa\x15\xd2\x87Z\xc0\xc26\xe7\x198/k@\xf8Rd\xd1\x8ejY\xc0'
p1083
tp1084
bsg1064
S'Cell[1].axon[465]'
p1085
sI84
I50
tp1086
a(F1.9327122654520739
S'Cell[2].dend[46] syn_ = new FastInhib(0.5)'
p1087
I2
(dp1088
g1049
F0.16666666666666666
sg1050
F36.0
sg1051
I180
sg1052
g7
(g8
(I0
tp1089
g10
tp1090
Rp1091
(I1
(I3
tp1092
g1059
I00
S'\xc7a\xcbu\xb6#>@\xa6\x1c\x9ak\x11\xf9.@<)\xbd0>\xeb.@'
p1093
tp1094
bsg1064
S'Cell[3].axon[195]'
p1095
sI180
I98
tp1096
a(F1.759731525441754
S'Cell[2].dend[49] syn_ = new FastInhib(0.5)'
p1097
I2
(dp1098
g1049
F0.5
sg1050
F36.0
sg1051
I180
sg1052
g7
(g8
(I0
tp1099
g10
tp1100
Rp1101
(I1
(I3
tp1102
g1059
I00
S'^\xe0\x89\x81\x03\xf8>@\xc6\xc2\xa9Pm\xdb;@\xff\xff\xff\x7f\xebQ/@'
p1103
tp1104
bsg1064
S'Cell[3].axon[195]'
p1105
sI180
I98
tp1106
a(F1.567680781326882
S'Cell[2].dend[32] syn_ = new FastInhib(0.3)'
p1107
I2
(dp1108
g1049
F0.5
sg1050
F36.0
sg1051
I180
sg1052
g7
(g8
(I0
tp1109
g10
tp1110
Rp1111
(I1
(I3
tp1112
g1059
I00
S'\xe6Psh\x00i\xf8\xbf\xf8\xd5\xbfm=\x00=\xc0\xce\x171\x0ce\x00<\xc0'
p1113
tp1114
bsg1064
S'Cell[3].axon[271]'
p1115
sI180
I98
tp1116
a(F2.11875069475082
S'Cell[2].dend[37] syn_ = new FastInhib(0.1)'
p1117
I2
(dp1118
g1049
F0.5
sg1050
F36.0
sg1051
I36
sg1052
g7
(g8
(I0
tp1119
g10
tp1120
Rp1121
(I1
(I3
tp1122
g1059
I00
S'\x08\x00\x00\x10\x85\xab3@\x00\x00\x00@\nwD\xc0\x00\x00\x00`\xb8\x1e @'
p1123
tp1124
bsg1064
S'Cell[0].soma[0]'
p1125
sI36
I98
tp1126
a(F2.2595009723704083
S'Cell[0].dend[35] syn_ = new ExpSid(0.166666666667)'
p1127
I0
(dp1128
S'seg'
p1129
F0.16666666666666666
sS'hostfrom'
p1130
F37.0
sS'gid'
p1131
I85
sS'coords'
p1132
g7
(g8
(I0
tp1133
g10
tp1134
Rp1135
(I1
(I3
tp1136
g14
(S'f8'
p1137
I0
I1
tp1138
Rp1139
(I3
S'<'
p1140
NNNI-1
I-1
I0
tp1141
bI00
S'\x1c.p\xac\x81\x039\xc0Vr\x8c\x12\xca\x00*\xc0*\x9bt\xf7\xa7\xad*\xc0'
p1142
tp1143
bsS'secnames'
p1144
S'Cell[1].axon[231]'
p1145
sI85
I2
tp1146
a(F2.3615195656268617
S'Cell[0].dend[36] syn_ = new ExpSid(0.5)'
p1147
I0
(dp1148
S'seg'
p1149
F0.5
sS'hostfrom'
p1150
F39.0
sS'gid'
p1151
I87
sS'coords'
p1152
g7
(g8
(I0
tp1153
g10
tp1154
Rp1155
(I1
(I3
tp1156
g14
(S'f8'
p1157
I0
I1
tp1158
Rp1159
(I3
S'<'
p1160
NNNI-1
I-1
I0
tp1161
bI00
S'\xfe\x0fxJ.\xa8!@\xd8]i\x0b\n+\x11\xc0\x00\x00\x00@\nW3\xc0'
p1162
tp1163
bsS'secnames'
p1164
S'Cell[1].axon[105]'
p1165
sI87
I2
tp1166
a(F2.463004460165244
S'Cell[2].dend[19] syn_ = new FastInhib(0.5)'
p1167
I2
(dp1168
S'seg'
p1169
F0.8333333333333333
sS'hostfrom'
p1170
F40.0
sS'gid'
p1171
I184
sS'coords'
p1172
g7
(g8
(I0
tp1173
g10
tp1174
Rp1175
(I1
(I3
tp1176
g14
(S'f8'
p1177
I0
I1
tp1178
Rp1179
(I3
S'<'
p1180
NNNI-1
I-1
I0
tp1181
bI00
S'\xd0\xd1\x00\xbc\x9e\xab#@\xa8\xb5\xdc\xa3\xb3\x8f\xc0?\xd7\xf7\x88\x8f5\xc87@'
p1182
tp1183
bsS'secnames'
p1184
S'Cell[3].axon[29]'
p1185
sI184
I98
tp1186
a(F1.6369068917290932
S'Cell[3].dend[18] syn_ = new FastInhib(0.0555555555556)'
p1187
I3
(dp1188
S'seg'
p1189
F0.5
sS'hostfrom'
p1190
F41.0
sS'gid'
p1191
I185
sS'coords'
p1192
g7
(g8
(I0
tp1193
g10
tp1194
Rp1195
(I1
(I3
tp1196
g14
(S'f8'
p1197
I0
I1
tp1198
Rp1199
(I3
S'<'
p1200
NNNI-1
I-1
I0
tp1201
bI00
S'P\x8f\xf6\x07Y\x02;\xc0\x02\xb8\x98\xfe\xb5\nN@\xbe\xabj\xd7\xb6\x921\xc0'
p1202
tp1203
bsS'secnames'
p1204
S'Cell[3].axon[105]'
p1205
sI185
I146
tp1206
a(F0.8967323900360492
S'Cell[3].dend[20] syn_ = new FastInhib(0.0555555555556)'
p1207
I3
(dp1208
g1189
F0.5
sg1190
F41.0
sg1191
I185
sg1192
g7
(g8
(I0
tp1209
g10
tp1210
Rp1211
(I1
(I3
tp1212
g1199
I00
S'\x00\x00\x00\xd0\xa3\xe0A\xc0\x00\x00\x00\x00)LL@\x00\x00\x00\xa8Ga \xc0'
p1213
tp1214
bsg1204
S'Cell[3].axon[111]'
p1215
sI185
I146
tp1216
a(F1.8300759739156418
S'Cell[0].apic[28] syn_ = new ExpSid(0.5)'
p1217
I0
(dp1218
g1189
F0.16666666666666666
sg1190
F41.0
sg1191
I185
sg1192
g7
(g8
(I0
tp1219
g10
tp1220
Rp1221
(I1
(I3
tp1222
g1199
I00
S'\xc8g\xc9\x15`\x90F\xc0<\xaa\xbbR\x8e\x00P@\x00\x00\x00\xa0G!9\xc0'
p1223
tp1224
bsg1204
S'Cell[3].axon[160]'
p1225
sI185
I2
tp1226
a(F2.0674667920149994
S'Cell[2].dend[23] syn_ = new FastInhib(0.166666666667)'
p1227
I2
(dp1228
g1189
F0.5
sg1190
F41.0
sg1191
I89
sg1192
g7
(g8
(I0
tp1229
g10
tp1230
Rp1231
(I1
(I3
tp1232
g1199
I00
S'\x00\x9fa\xd2]\x0e)@\x86\xe0\x88\x81\x86i$\xc0\x00\x00\x00\xc0\xf5(1\xc0'
p1233
tp1234
bsg1204
S'Cell[1].axon[158]'
p1235
sI89
I98
tp1236
a(F2.2675578750907177
S'Cell[1].dend[15] syn_ = new AmpaNmda(0.1)'
p1237
I1
(dp1238
S'seg'
p1239
F0.5
sS'hostfrom'
p1240
F42.0
sS'gid'
p1241
I186
sS'coords'
p1242
g7
(g8
(I0
tp1243
g10
tp1244
Rp1245
(I1
(I3
tp1246
g14
(S'f8'
p1247
I0
I1
tp1248
Rp1249
(I3
S'<'
p1250
NNNI-1
I-1
I0
tp1251
bI00
S'&\xe0\x10\xd82\xb4Y\xc0\xde*\xc1\xea+\xf5X\xc0N2z[j\x03#@'
p1252
tp1253
bsS'secnames'
p1254
S'Cell[3].axon[13]'
p1255
sI186
I50
tp1256
a(F2.4879271994677508
S'Cell[1].dend[4] syn_ = new AmpaNmda(0.5)'
p1257
I1
(dp1258
g1239
F0.16666666666666666
sg1240
F42.0
sg1241
I186
sg1242
g7
(g8
(I0
tp1259
g10
tp1260
Rp1261
(I1
(I3
tp1262
g1249
I00
S'\xf2?A6\x14\xbaT\xc0\x0f\xc0\xbe\xc9\x99\xbdZ\xc0\xe3H\xab\x8a\xe1!7\xc0'
p1263
tp1264
bsg1254
S'Cell[3].axon[23]'
p1265
sI186
I50
tp1266
a(F2.2571395472887126
S'Cell[0].apic[0] syn_ = new AmpaNmda(0.5)'
p1267
I0
(dp1268
g1239
F0.5
sg1240
F42.0
sg1241
I186
sg1242
g7
(g8
(I0
tp1269
g10
tp1270
Rp1271
(I1
(I3
tp1272
g1249
I00
S'\xc3\xe6\xd8*I^P\xc0Z\\}=o\xd41@\x00\x00\x00 \x85\xeb$\xc0'
p1273
tp1274
bsg1254
S'Cell[3].axon[49]'
p1275
sI186
I2
tp1276
a(F0.9907549742786691
S'Cell[0].dend[29] syn_ = new AmpaNmda(0.166666666667)'
p1277
I0
(dp1278
g1239
F0.8333333333333333
sg1240
F42.0
sg1241
I186
sg1242
g7
(g8
(I0
tp1279
g10
tp1280
Rp1281
(I1
(I3
tp1282
g1249
I00
S'\x88+\x10\xdbn\xe9D\xc0\n\xba\x84\xcc!J\xf6?\xb8\xa0:\xf5\xad{-@'
p1283
tp1284
bsg1254
S'Cell[3].axon[66]'
p1285
sI186
I2
tp1286
a(F1.7534433511804328
S'Cell[1].apic[0] syn_ = new AmpaNmda(0.5)'
p1287
I1
(dp1288
g1239
F0.5
sg1240
F42.0
sg1241
I186
sg1242
g7
(g8
(I0
tp1289
g10
tp1290
Rp1291
(I1
(I3
tp1292
g1249
I00
S'\x9c1\xe9`\t\xfcR\xc0\x00\x00\x00\xe0Q\x88U\xc0\x00\x00\x00\x00\xd7\xa3\x1a\xc0'
p1293
tp1294
bsg1254
S'Cell[3].axon[116]'
p1295
sI186
I50
tp1296
a(F1.183282728194952
S'Cell[3].dend[18] syn_ = new FastInhib(0.611111111111)'
p1297
I3
(dp1298
S'seg'
p1299
F0.5
sS'hostfrom'
p1300
F43.0
sS'gid'
p1301
I91
sS'coords'
p1302
g7
(g8
(I0
tp1303
g10
tp1304
Rp1305
(I1
(I3
tp1306
g14
(S'f8'
p1307
I0
I1
tp1308
Rp1309
(I3
S'<'
p1310
NNNI-1
I-1
I0
tp1311
bI00
S'\xbcq\xdc`\xe2\xde/@a=o\xb6N\xa6[@\x00\x00\x00\xa0\x99yV\xc0'
p1312
tp1313
bsS'secnames'
p1314
S'Cell[1].axon[501]'
p1315
sI91
I146
tp1316
a(F1.1129582922399943
S'Cell[3].dend[18] syn_ = new FastInhib(0.166666666667)'
p1317
I3
(dp1318
g1299
F0.5
sg1300
F43.0
sg1301
I91
sg1302
g7
(g8
(I0
tp1319
g10
tp1320
Rp1321
(I1
(I3
tp1322
g1309
I00
S'\x00\x00\x00\x00\x85\x0b2\xc0\x00\x00\x00`\x8f\nR@\x00\x00\x00p=\xca?\xc0'
p1323
tp1324
bsg1314
S'Cell[1].axon[512]'
p1325
sI91
I146
tp1326
a(F1.8965746656728752
S'Cell[0].apic[23] syn_ = new ExpSid(0.5)'
p1327
I0
(dp1328
g1299
F0.5
sg1300
F43.0
sg1301
I187
sg1302
g7
(g8
(I0
tp1329
g10
tp1330
Rp1331
(I1
(I3
tp1332
g1309
I00
S'\x00\x00\x00\xf0Q\xa8R\xc0\x00\x00\x00p\x14~E@\x00\x00\x00\x90\x99\x99-\xc0'
p1333
tp1334
bsg1314
S'Cell[3].axon[191]'
p1335
sI187
I2
tp1336
a(F2.0577788826599095
S'Cell[3].dend[18] syn_ = new FastInhib(0.0555555555556)'
p1337
I3
(dp1338
S'seg'
p1339
F0.1
sS'hostfrom'
p1340
F44.0
sS'gid'
p1341
I140
sS'coords'
p1342
g7
(g8
(I0
tp1343
g10
tp1344
Rp1345
(I1
(I3
tp1346
g14
(S'f8'
p1347
I0
I1
tp1348
Rp1349
(I3
S'<'
p1350
NNNI-1
I-1
I0
tp1351
bI00
S'O\x9b@\t\xeay;\xc0/\xca\x9c\xec\xf3AN@\xa5\xecc\xda\x1eV1\xc0'
p1352
tp1353
bsS'secnames'
p1354
S'Cell[2].axon[24]'
p1355
sI140
I146
tp1356
a(F1.3303214887778971
S'Cell[1].apic[14] syn_ = new ExpSid(0.166666666667)'
p1357
I1
(dp1358
S'seg'
p1359
F0.5
sS'hostfrom'
p1360
F45.0
sS'gid'
p1361
I141
sS'coords'
p1362
g7
(g8
(I0
tp1363
g10
tp1364
Rp1365
(I1
(I3
tp1366
g14
(S'f8'
p1367
I0
I1
tp1368
Rp1369
(I3
S'<'
p1370
NNNI-1
I-1
I0
tp1371
bI00
S'.ML$\x87\x0cS\xc0\xbc\xf8\\V\xad\xc0C\xc0\xc3\xc9\xe6\xee\x0bP\x16\xc0'
p1372
tp1373
bsS'secnames'
p1374
S'Cell[2].axon[22]'
p1375
sI141
I50
tp1376
a(F1.299523457699623
S'Cell[2].dend[38] syn_ = new FastInhib(0.3)'
p1377
I2
(dp1378
g1359
F0.5
sg1360
F45.0
sg1361
I141
sg1362
g7
(g8
(I0
tp1379
g10
tp1380
Rp1381
(I1
(I3
tp1382
g1369
I00
S'\x00\x00\x00\x00\xd7\xa3\xb0\xbf\x00\x00\x00\x80\xeb\xd1Q\xc0\x00\x00\x00P\x8f\xc2\x13\xc0'
p1383
tp1384
bsg1374
S'Cell[2].axon[205]'
p1385
sI141
I98
tp1386
a(F1.4585879916864084
S'Cell[0].dend[35] syn_ = new ExpSid(0.166666666667)'
p1387
I0
(dp1388
g1359
F0.8333333333333333
sg1360
F45.0
sg1361
I141
sg1362
g7
(g8
(I0
tp1389
g10
tp1390
Rp1391
(I1
(I3
tp1392
g1369
I00
S'\x86\x95$.\xf6\x04;\xc00i\x91\xde\x1as)\xc0D\x8c\x94.\xb5y-\xc0'
p1393
tp1394
bsg1374
S'Cell[2].axon[473]'
p1395
sI141
I2
tp1396
a(F1.4487096050908521
S'Cell[1].apic[19] syn_ = new ExpSid(0.5)'
p1397
I1
(dp1398
g1359
F0.2777777777777778
sg1360
F45.0
sg1361
I189
sg1362
g7
(g8
(I0
tp1399
g10
tp1400
Rp1401
(I1
(I3
tp1402
g1369
I00
S'\x04\xd1\x16\xa5\x877S\xc0\xd8\xb9,x:\x88b@\xaake\xd1~RO\xc0'
p1403
tp1404
bsg1374
S'Cell[3].axon[100]'
p1405
sI189
I50
tp1406
a(F2.036412445566626
S'Cell[2].dend[48] syn_ = new FastInhib(0.166666666667)'
p1407
I2
(dp1408
S'seg'
p1409
F0.5
sS'hostfrom'
p1410
F46.0
sS'gid'
p1411
I94
sS'coords'
p1412
g7
(g8
(I0
tp1413
g10
tp1414
Rp1415
(I1
(I3
tp1416
g14
(S'f8'
p1417
I0
I1
tp1418
Rp1419
(I3
S'<'
p1420
NNNI-1
I-1
I0
tp1421
bI00
S'\x1a+\xbc\x08\x96uG@D\xd5Se\xda\x880@\xa7\xc0\x9c\xb7G\x0e0@'
p1422
tp1423
bsS'secnames'
p1424
S'Cell[1].axon[200]'
p1425
sI94
I98
tp1426
a(F1.9217224654551988
S'Cell[2].dend[36] syn_ = new FastInhib(0.1)'
p1427
I2
(dp1428
g1409
F0.16666666666666666
sg1410
F46.0
sg1411
I94
sg1412
g7
(g8
(I0
tp1429
g10
tp1430
Rp1431
(I1
(I3
tp1432
g1419
I00
S"e\xa0\rx_\xd2'@\xd4%A\xe5\x87\xc3E\xc0\x00\x00\x00\xe0Q\xb8\x1e@"
p1433
tp1434
bsg1424
S'Cell[1].axon[217]'
p1435
sI94
I98
tp1436
a(F2.04964997217304
S'Cell[3].dend[17] syn_ = new FastInhib(0.5)'
p1437
I3
(dp1438
g1409
F0.5
sg1410
F46.0
sg1411
I94
sg1412
g7
(g8
(I0
tp1439
g10
tp1440
Rp1441
(I1
(I3
tp1442
g1419
I00
S'\x00\x00\x00\xf0(\xbc>\xc0\x00\x00\x0003#K@\x00\x00\x00p=\n\x15\xc0'
p1443
tp1444
bsg1424
S'Cell[1].axon[357]'
p1445
sI94
I146
tp1446
a(F1.9872012088620712
S'Cell[1].apic[11] syn_ = new ExpSid(0.5)'
p1447
I1
(dp1448
S'seg'
p1449
F0.5
sS'hostfrom'
p1450
F47.0
sS'gid'
p1451
I143
sS'coords'
p1452
g7
(g8
(I0
tp1453
g10
tp1454
Rp1455
(I1
(I3
tp1456
g14
(S'f8'
p1457
I0
I1
tp1458
Rp1459
(I3
S'<'
p1460
NNNI-1
I-1
I0
tp1461
bI00
S'\xa7\x0b_d\xeeKR\xc0\x85C\xc6\x02\x0caJ\xc0\x00\x00\x00`\xb8\x1e.\xc0'
p1462
tp1463
bsS'secnames'
p1464
S'Cell[2].axon[79]'
p1465
sI143
I50
tp1466
a(F0.7218036390960308
S'Cell[1].apic[9] syn_ = new ExpSid(0.5)'
p1467
I1
(dp1468
g1449
F0.8999999999999999
sg1450
F47.0
sg1451
I143
sg1452
g7
(g8
(I0
tp1469
g10
tp1470
Rp1471
(I1
(I3
tp1472
g1459
I00
S'\xb1\xe4\xe6\xda\xf0\xb0Z\xc0\x86\x98E\xbc\x92\x13B\xc0\x00\x00\x00\xc0\xcc\xcc\x0c@'
p1473
tp1474
bsg1464
S'Cell[2].axon[103]'
p1475
sI143
I50
tp1476
a(F0.6216967452346882
S'Cell[0].apic[16] syn_ = new ExpSid(0.833333333333)'
p1477
I0
(dp1478
g1449
F0.7
sg1450
F47.0
sg1451
I47
sg1452
g7
(g8
(I0
tp1479
g10
tp1480
Rp1481
(I1
(I3
tp1482
g1459
I00
S'\xc4iB\xaf\xbfFB\xc0\x1e2\xd211_`@\xe8\xe6\xe7\x0ep\x840\xc0'
p1483
tp1484
bsg1464
S'Cell[0].axon[37]'
p1485
sI47
I2
tp1486
a.