(lp0
(F1.92101865164979
S'Cell[1].dend[51] syn_ = new FastInhib(0.5)'
p1
I1
(dp2
S'seg'
p3
F0.5
sS'hostfrom'
p4
F1.0
sS'gid'
p5
I145
sS'coords'
p6
cnumpy.core.multiarray
_reconstruct
p7
(cnumpy
ndarray
p8
(I0
tp9
S'b'
p10
tp11
Rp12
(I1
(I3
tp13
cnumpy
dtype
p14
(S'f8'
p15
I0
I1
tp16
Rp17
(I3
S'<'
p18
NNNI-1
I-1
I0
tp19
bI00
S'\x1e\x8e\xcd;s\x0f"@\xb6\t\xf9\x90\xa3\xc0?\xc0\x11\xae\t\xddr\'\xe9?'
p20
tp21
bsS'secnames'
p22
S'Cell[3].axon[160]'
p23
sI145
I94
tp24
a(F2.29802271903784
S'Cell[1].dend[40] syn_ = new FastInhib(0.5)'
p25
I1
(dp26
g3
F0.8333333333333333
sg4
F1.0
sg5
I1
sg6
g7
(g8
(I0
tp27
g10
tp28
Rp29
(I1
(I3
tp30
g17
I00
S"\xac\xbf'\x8b&sU@\xfaA\x98\xda\x12\x01L\xc0\x00\x00\x00@33/\xc0"
p31
tp32
bsg22
S'Cell[0].axon[54]'
p33
sI1
I94
tp34
a(F1.3759706219116257
S'Cell[0].apic[52] syn_ = new ExpSid(0.5)'
p35
I0
(dp36
g3
F0.16666666666666666
sg4
F1.0
sg5
I97
sg6
g7
(g8
(I0
tp37
g10
tp38
Rp39
(I1
(I3
tp40
g17
I00
S'\\$J\xb6\xa9\x8f.@:\xb0\xb4\xb1\xfe\xed]\xc00\\\x81#\xb6\xc0\x1d@'
p41
tp42
bsg22
S'Cell[2].axon[64]'
p43
sI97
I46
tp44
a(F2.1225788243740293
S'Cell[1].dend[27] syn_ = new FastInhib(0.833333333333)'
p45
I1
(dp46
S'seg'
p47
F0.5
sS'hostfrom'
p48
F2.0
sS'gid'
p49
I2
sS'coords'
p50
g7
(g8
(I0
tp51
g10
tp52
Rp53
(I1
(I3
tp54
g14
(S'f8'
p55
I0
I1
tp56
Rp57
(I3
S'<'
p58
NNNI-1
I-1
I0
tp59
bI00
S'\xe8\x04V\x99\xce\xd8Q\xc0\x9e\x0e\xb0\x1bRvV\xc0\xc0_\xcd^5y7@'
p60
tp61
bsS'secnames'
p62
S'Cell[0].axon[7]'
p63
sI2
I94
tp64
a(F1.8947224134854823
S'Cell[1].dend[27] syn_ = new FastInhib(0.833333333333)'
p65
I1
(dp66
g47
F0.5
sg48
F2.0
sg49
I2
sg50
g7
(g8
(I0
tp67
g10
tp68
Rp69
(I1
(I3
tp70
g57
I00
S'\x00\x00\x00\xe0\xa3xR\xc0\x00\x00\x00\x10\xae\xb7V\xc0\x00\x00\x00\xd0\xccL9@'
p71
tp72
bsg62
S'Cell[0].axon[12]'
p73
sI2
I94
tp74
a(F2.3395128616977017
S'Cell[1].dend[73] syn_ = new FastInhib(0.1)'
p75
I1
(dp76
g47
F0.5
sg48
F2.0
sg49
I98
sg50
g7
(g8
(I0
tp77
g10
tp78
Rp79
(I1
(I3
tp80
g57
I00
S'CH\xc5|\xe6v1@\xa6\xc8\xff\xc1MkM@\x9e\xec\x9a\xcb\x19_\x10@'
p81
tp82
bsg62
S'Cell[2].axon[373]'
p83
sI98
I94
tp84
a(F1.0059393653875883
S'Cell[2].dend[20] syn_ = new FastInhib(0.833333333333)'
p85
I2
(dp86
g47
F0.5
sg48
F2.0
sg49
I98
sg50
g7
(g8
(I0
tp87
g10
tp88
Rp89
(I1
(I3
tp90
g57
I00
S'?\xe2\xa4N\xb7-(\xc0}\xfb\xb3\xad\x19\xecK\xc0\xfal\t\x83\xe6\x02&@'
p91
tp92
bsg62
S'Cell[2].axon[466]'
p93
sI98
I142
tp94
a(F2.3101943161055014
S'Cell[0].apic[102] syn_ = new AmpaNmda(0.3)'
p95
I0
(dp96
g47
F0.30000000000000004
sg48
F2.0
sg49
I146
sg50
g7
(g8
(I0
tp97
g10
tp98
Rp99
(I1
(I3
tp100
g57
I00
S']\x8d\x04(\xa53\x0c\xc0\x10\x99\xbb\x81a\xf2P\xc0{\n1K\xad\x931@'
p101
tp102
bsg62
S'Cell[3].axon[117]'
p103
sI146
I46
tp104
a(F2.3395128616977017
S'Cell[1].dend[73] syn_ = new FastInhib(0.1)'
p105
I1
(dp106
S'seg'
p107
F0.5
sS'hostfrom'
p108
F3.0
sS'gid'
p109
I99
sS'coords'
p110
g7
(g8
(I0
tp111
g10
tp112
Rp113
(I1
(I3
tp114
g14
(S'f8'
p115
I0
I1
tp116
Rp117
(I3
S'<'
p118
NNNI-1
I-1
I0
tp119
bI00
S'CH\xc5|\xe6v1@\xa6\xc8\xff\xc1MkM@\x9e\xec\x9a\xcb\x19_\x10@'
p120
tp121
bsS'secnames'
p122
S'Cell[2].axon[373]'
p123
sI99
I94
tp124
a(F1.0059393653875883
S'Cell[2].dend[20] syn_ = new FastInhib(0.833333333333)'
p125
I2
(dp126
g107
F0.5
sg108
F3.0
sg109
I99
sg110
g7
(g8
(I0
tp127
g10
tp128
Rp129
(I1
(I3
tp130
g117
I00
S'?\xe2\xa4N\xb7-(\xc0}\xfb\xb3\xad\x19\xecK\xc0\xfal\t\x83\xe6\x02&@'
p131
tp132
bsg122
S'Cell[2].axon[466]'
p133
sI99
I142
tp134
a(F2.32656833491388
S'Cell[0].apic[49] syn_ = new ExpSid(0.5)'
p135
I0
(dp136
g107
F0.21428571428571427
sg108
F3.0
sg109
I3
sg110
g7
(g8
(I0
tp137
g10
tp138
Rp139
(I1
(I3
tp140
g117
I00
S'|3[v\xaf\x93\x0b\xc0Z\xb2\x14\x05\xbf%a\xc00\x0c\x9f~Q\x07\x19\xc0'
p141
tp142
bsg122
S'Cell[0].axon[77]'
p143
sI3
I46
tp144
a(F2.32727990150712
S'Cell[1].dend[40] syn_ = new FastInhib(0.833333333333)'
p145
I1
(dp146
S'seg'
p147
F0.8333333333333333
sS'hostfrom'
p148
F4.0
sS'gid'
p149
I52
sS'coords'
p150
g7
(g8
(I0
tp151
g10
tp152
Rp153
(I1
(I3
tp154
g14
(S'f8'
p155
I0
I1
tp156
Rp157
(I3
S'<'
p158
NNNI-1
I-1
I0
tp159
bI00
S'\xb8y\xbf\xf5y\xe3Y@\xb8\xe1\xe0\r\xd6\xadO\xc0\xc2\x03\xd1\xc1\x0b\x93)\xc0'
p160
tp161
bsS'secnames'
p162
S'Cell[1].axon[23]'
p163
sI52
I94
tp164
a(F2.4023193509690146
S'Cell[1].dend[19] syn_ = new FastInhib(0.5)'
p165
I1
(dp166
g147
F0.5
sg148
F4.0
sg149
I148
sg150
g7
(g8
(I0
tp167
g10
tp168
Rp169
(I1
(I3
tp170
g157
I00
S'\x97:ZS\xdd\xecS\xc0\xaaD\xc0IF\xf2]\xc0\x0f^\x83\xa1\x13\x171\xc0'
p171
tp172
bsg162
S'Cell[3].axon[97]'
p173
sI148
I94
tp174
a(F1.7864207627505437
S'Cell[0].apic[46] syn_ = new AmpaNmda(0.5)'
p175
I0
(dp176
g147
F0.8333333333333333
sg148
F4.0
sg149
I148
sg150
g7
(g8
(I0
tp177
g10
tp178
Rp179
(I1
(I3
tp180
g157
I00
S'\xa0\xbex\xcd\x9e\x1c\xdf\xbf%_\x06\xb2\x06\xbba\xc0\xdbk\x8b\x98R\xb6\x19\xc0'
p181
tp182
bsg162
S'Cell[3].axon[117]'
p183
sI148
I46
tp184
a(F1.877273796079582
S'Cell[2].dend[6] syn_ = new FastInhib(0.166666666667)'
p185
I2
(dp186
g147
F0.8333333333333333
sg148
F4.0
sg149
I148
sg150
g7
(g8
(I0
tp187
g10
tp188
Rp189
(I1
(I3
tp190
g157
I00
S"X\x80\x89\x99\x9b'F@\x04d[\xb7\xdd*l\xc0Xb\xf7bd\xf2M\xc0"
p191
tp192
bsg162
S'Cell[3].axon[311]'
p193
sI148
I142
tp194
a(F1.820364612388191
S'Cell[2].dend[22] syn_ = new FastInhib(0.5)'
p195
I2
(dp196
S'seg'
p197
F0.1
sS'hostfrom'
p198
F5.0
sS'gid'
p199
I149
sS'coords'
p200
g7
(g8
(I0
tp201
g10
tp202
Rp203
(I1
(I3
tp204
g14
(S'f8'
p205
I0
I1
tp206
Rp207
(I3
S'<'
p208
NNNI-1
I-1
I0
tp209
bI00
S'pB\xaa\xca\x87\x0b\x07@\xbb\xf1\xbb^\x0f3R\xc0\xdf\xfa\xdb\xcf\xba\xb0;\xc0'
p210
tp211
bsS'secnames'
p212
S'Cell[3].axon[38]'
p213
sI149
I142
tp214
a(F1.420406071411241
S'Cell[1].dend[1] syn_ = new FastInhib(0.5)'
p215
I1
(dp216
S'seg'
p217
F0.8333333333333333
sS'hostfrom'
p218
F6.0
sS'gid'
p219
I102
sS'coords'
p220
g7
(g8
(I0
tp221
g10
tp222
Rp223
(I1
(I3
tp224
g14
(S'f8'
p225
I0
I1
tp226
Rp227
(I3
S'<'
p228
NNNI-1
I-1
I0
tp229
bI00
S'\x07:T\xb0\xe5d;\xc0\xfe\xea1\xf7\xa2\xbf?\xc0$\xdfa\xe9\xe9H.\xc0'
p230
tp231
bsS'secnames'
p232
S'Cell[2].axon[46]'
p233
sI102
I94
tp234
a(F2.1712586046167464
S'Cell[1].dend[74] syn_ = new FastInhib(0.1)'
p235
I1
(dp236
g217
F0.5
sg218
F6.0
sg219
I150
sg220
g7
(g8
(I0
tp237
g10
tp238
Rp239
(I1
(I3
tp240
g227
I00
S'K\x00\x00 G\xe1\xfe\xbf\x00\x00\x00\xa0p\x1dB@\x01\x00\x00 \x85\xeb\xe1?'
p241
tp242
bsg232
S'Cell[3].soma[0]'
p243
sI150
I94
tp244
a(F2.436124547089558
S'Cell[1].dend[38] syn_ = new FastInhib(0.5)'
p245
I1
(dp246
g217
F0.16666666666666666
sg218
F6.0
sg219
I150
sg220
g7
(g8
(I0
tp247
g10
tp248
Rp249
(I1
(I3
tp250
g227
I00
S'r\x8b\n\xee\xfcs>@\xb5L\xa4\xed\x1eb \xc0\x00\x00\x00\x80\x14\xee>\xc0'
p251
tp252
bsg232
S'Cell[3].axon[175]'
p253
sI150
I94
tp254
a(F2.4377539124263037
S'Cell[1].dend[51] syn_ = new FastInhib(0.5)'
p255
I1
(dp256
S'seg'
p257
F0.16666666666666666
sS'hostfrom'
p258
F7.0
sS'gid'
p259
I103
sS'coords'
p260
g7
(g8
(I0
tp261
g10
tp262
Rp263
(I1
(I3
tp264
g14
(S'f8'
p265
I0
I1
tp266
Rp267
(I3
S'<'
p268
NNNI-1
I-1
I0
tp269
bI00
S'\xc4F:l\xc5S\x1c@\x03[S\xbb4\x00A\xc0\x00\x00\x00\x80\xebQ\xf8?'
p270
tp271
bsS'secnames'
p272
S'Cell[2].axon[262]'
p273
sI103
I94
tp274
a(F1.8485823032882005
S'Cell[1].dend[66] syn_ = new FastInhib(0.166666666667)'
p275
I1
(dp276
g257
F0.5
sg258
F7.0
sg259
I103
sg260
g7
(g8
(I0
tp277
g10
tp278
Rp279
(I1
(I3
tp280
g267
I00
S'\x05\xe8\xb7\x08`\xa21@`\xd3\xc5\x98qeZ@\x00\x00\x00`\x8f\xc2\x17\xc0'
p281
tp282
bsg272
S'Cell[2].axon[406]'
p283
sI103
I94
tp284
a(F2.2231583687333076
S'Cell[2].dend[22] syn_ = new FastInhib(0.833333333333)'
p285
I2
(dp286
g257
F0.5
sg258
F7.0
sg259
I151
sg260
g7
(g8
(I0
tp287
g10
tp288
Rp289
(I1
(I3
tp290
g267
I00
S'\x9e\xed\xc7\xd4\xd8$(\xc0|\xdc\xc49X=O\xc0\xeb\xe8\x19\xf5\r\x163\xc0'
p291
tp292
bsg272
S'Cell[3].axon[256]'
p293
sI151
I142
tp294
a(F1.7182695816953777
S'Cell[2].dend[11] syn_ = new FastInhib(0.833333333333)'
p295
I2
(dp296
S'seg'
p297
F0.5
sS'hostfrom'
p298
F9.0
sS'gid'
p299
I105
sS'coords'
p300
g7
(g8
(I0
tp301
g10
tp302
Rp303
(I1
(I3
tp304
g14
(S'f8'
p305
I0
I1
tp306
Rp307
(I3
S'<'
p308
NNNI-1
I-1
I0
tp309
bI00
S'\x93_XSM\xb9]@\xb4\x81\x9er\xf3vm\xc0\xa4~L\xf07\xec1@'
p310
tp311
bsS'secnames'
p312
S'Cell[2].axon[131]'
p313
sI105
I142
tp314
a(F1.840368046666397
S'Cell[0].dend[15] syn_ = new ExpSid(0.166666666667)'
p315
I0
(dp316
g297
F0.5
sg298
F9.0
sg299
I105
sg300
g7
(g8
(I0
tp317
g10
tp318
Rp319
(I1
(I3
tp320
g307
I00
S'\x9c\xfcY-\xa9\x9fD@\x80Q5\xf0\xb5kr\xc0\xd2.\xcc\xd8\xdd\xa8\x0e\xc0'
p321
tp322
bsg312
S'Cell[2].axon[176]'
p323
sI105
I46
tp324
a(F2.180900278073868
S'Cell[0].dend[8] syn_ = new AmpaNmda(0.166666666667)'
p325
I0
(dp326
S'seg'
p327
F0.6904761904761905
sS'hostfrom'
p328
F10.0
sS'gid'
p329
I154
sS'coords'
p330
g7
(g8
(I0
tp331
g10
tp332
Rp333
(I1
(I3
tp334
g14
(S'f8'
p335
I0
I1
tp336
Rp337
(I3
S'<'
p338
NNNI-1
I-1
I0
tp339
bI00
S'\xf9\x12\xdd\xca\x84pI@\xe6\xa0f\xb0\x82kr\xc0\x82\xe7I\xbe\x93\x1c\xdf?'
p340
tp341
bsS'secnames'
p342
S'Cell[3].axon[21]'
p343
sI154
I46
tp344
a(F1.5433841681154155
S'Cell[1].dend[61] syn_ = new FastInhib(0.833333333333)'
p345
I1
(dp346
g327
F0.5
sg328
F10.0
sg329
I154
sg330
g7
(g8
(I0
tp347
g10
tp348
Rp349
(I1
(I3
tp350
g337
I00
S"6\xe1*Mx\xd0\x12@\x0e\x7f\xf7y\xc1Vg@\x9cP'\xa1?\xea @"
p351
tp352
bsg342
S'Cell[3].axon[95]'
p353
sI154
I94
tp354
a(F2.1260581667723235
S'Cell[1].dend[56] syn_ = new FastInhib(0.5)'
p355
I1
(dp356
S'seg'
p357
F0.16666666666666666
sS'hostfrom'
p358
F11.0
sS'gid'
p359
I59
sS'coords'
p360
g7
(g8
(I0
tp361
g10
tp362
Rp363
(I1
(I3
tp364
g14
(S'f8'
p365
I0
I1
tp366
Rp367
(I3
S'<'
p368
NNNI-1
I-1
I0
tp369
bI00
S'\xaa\x06H\x9cw.&@\xb2\xa1\xf6\xa0j{I\xc0\xf9\x82\xbe"\xc1I$@'
p370
tp371
bsS'secnames'
p372
S'Cell[1].axon[7]'
p373
sI59
I94
tp374
a(F2.120094543287164
S'Cell[1].dend[53] syn_ = new FastInhib(0.166666666667)'
p375
I1
(dp376
g357
F0.5
sg358
F11.0
sg359
I59
sg360
g7
(g8
(I0
tp377
g10
tp378
Rp379
(I1
(I3
tp380
g367
I00
S'\xf2\xb94Q\xd9\xa0$@\xc21\xfcb\x9d]N\xc0j\xdd\xcb\x0fU\xb1$@'
p381
tp382
bsg372
S'Cell[1].axon[7]'
p383
sI59
I94
tp384
a(F1.6016593631640939
S'Cell[1].dend[53] syn_ = new FastInhib(0.833333333333)'
p385
I1
(dp386
g357
F0.5
sg358
F11.0
sg359
I59
sg360
g7
(g8
(I0
tp387
g10
tp388
Rp389
(I1
(I3
tp390
g367
I00
S'\xe8\r\x98\xb6:\xdf+@4\xb6\xdc\x9a4\xf5R\xc0(E j9H,@'
p391
tp392
bsg372
S'Cell[1].axon[8]'
p393
sI59
I94
tp394
a(F1.601221185232526
S'Cell[0].apic[61] syn_ = new ExpSid(0.5)'
p395
I0
(dp396
g357
F0.16666666666666666
sg358
F11.0
sg359
I155
sg360
g7
(g8
(I0
tp397
g10
tp398
Rp399
(I1
(I3
tp400
g367
I00
S"JT*\xa2R\xaa'@\xc2\xc2\x1f\xb1\xed^)@?\x1c\xc0\x80\xf8\x1a6@"
p401
tp402
bsg372
S'Cell[3].axon[170]'
p403
sI155
I46
tp404
a(F1.1090883593273626
S'Cell[1].dend[11] syn_ = new FastInhib(0.5)'
p405
I1
(dp406
g357
F0.1
sg358
F11.0
sg359
I155
sg360
g7
(g8
(I0
tp407
g10
tp408
Rp409
(I1
(I3
tp410
g367
I00
S'\xd3\xb2\xf1\xa5\x15*P\xc0Y\xe3\xfc<\xc4\x1dQ\xc0C\xdd\xf4\xf9=%6\xc0'
p411
tp412
bsg372
S'Cell[3].axon[262]'
p413
sI155
I94
tp414
a(F1.2747182061921558
S'Cell[0].apic[91] syn_ = new AmpaNmda(0.5)'
p415
I0
(dp416
S'seg'
p417
F0.30000000000000004
sS'hostfrom'
p418
F12.0
sS'gid'
p419
I108
sS'coords'
p420
g7
(g8
(I0
tp421
g10
tp422
Rp423
(I1
(I3
tp424
g14
(S'f8'
p425
I0
I1
tp426
Rp427
(I3
S'<'
p428
NNNI-1
I-1
I0
tp429
bI00
S'\t\x89U\x88(\x85;@a)\x1a\xf2I\xcdx@\x00\x00\x00\xe0\xa3p\x03\xc0'
p430
tp431
bsS'secnames'
p432
S'Cell[2].axon[92]'
p433
sI108
I46
tp434
a(F1.7875232044284517
S'Cell[0].apic[92] syn_ = new AmpaNmda(0.5)'
p435
I0
g416
I108
I46
tp436
a(F2.2344110310262244
S'Cell[1].dend[65] syn_ = new FastInhib(0.833333333333)'
p437
I1
(dp438
g417
F0.16666666666666666
sg418
F12.0
sg419
I108
sg420
g7
(g8
(I0
tp439
g10
tp440
Rp441
(I1
(I3
tp442
g427
I00
S'h:\xefA\x1b\x10/@?:6O\xa5\xd2q@X\x16\xa7\x97\xd2\x05?@'
p443
tp444
bsg432
S'Cell[2].axon[307]'
p445
sI108
I94
tp446
a(F2.0268026841004634
S'Cell[2].dend[39] syn_ = new FastInhib(0.3)'
p447
I2
(dp448
S'seg'
p449
F0.05555555555555555
sS'hostfrom'
p450
F13.0
sS'gid'
p451
I13
sS'coords'
p452
g7
(g8
(I0
tp453
g10
tp454
Rp455
(I1
(I3
tp456
g14
(S'f8'
p457
I0
I1
tp458
Rp459
(I3
S'<'
p460
NNNI-1
I-1
I0
tp461
bI00
S'^\x9f\x19\n\x9f\x15Z@\xc2U\xec\x7f\x87iZ@\xf5\xaax\xf3\x80\xd9W\xc0'
p462
tp463
bsS'secnames'
p464
S'Cell[0].axon[25]'
p465
sI13
I142
tp466
a(F2.1665322617308327
S'Cell[0].apic[13] syn_ = new ExpSid(0.5)'
p467
I0
(dp468
g449
F0.5
sg450
F13.0
sg451
I13
sg452
g7
(g8
(I0
tp469
g10
tp470
Rp471
(I1
(I3
tp472
g459
I00
S'\x95\x0bIba\xf8N@\xbe)oc\xcc\xe6i\xc0\xec\xe5\x1cX\x85]\xaa\xbf'
p473
tp474
bsg464
S'Cell[0].axon[28]'
p475
sI13
I46
tp476
a(F2.313386967317822
S'Cell[0].apic[35] syn_ = new AmpaNmda(0.166666666667)'
p477
I0
(dp478
S'seg'
p479
F0.5
sS'hostfrom'
p480
F14.0
sS'gid'
p481
I14
sS'coords'
p482
g7
(g8
(I0
tp483
g10
tp484
Rp485
(I1
(I3
tp486
g14
(S'f8'
p487
I0
I1
tp488
Rp489
(I3
S'<'
p490
NNNI-1
I-1
I0
tp491
bI00
S"\x00\x00\x00\xd0\x99\x99'@\x00\x00\x00 \x85\x13e\xc0\x00\x00\x00\xb0\x1eE!@"
p492
tp493
bsS'secnames'
p494
S'Cell[0].axon[7]'
p495
sI14
I46
tp496
a(F2.4555251111642824
S'Cell[1].dend[47] syn_ = new FastInhib(0.3)'
p497
I1
(dp498
g479
F0.07142857142857142
sg480
F14.0
sg481
I158
sg482
g7
(g8
(I0
tp499
g10
tp500
Rp501
(I1
(I3
tp502
g489
I00
S' \xa0]\xd9@\x8e@@\x06\xe9\xa7\x9f]9V\xc0\x00\x00\x00@\n\x97>\xc0'
p503
tp504
bsg494
S'Cell[3].axon[86]'
p505
sI158
I94
tp506
a(F2.170266149215217
S'Cell[1].dend[37] syn_ = new FastInhib(0.3)'
p507
I1
(dp508
S'seg'
p509
F0.16666666666666666
sS'hostfrom'
p510
F15.0
sS'gid'
p511
I111
sS'coords'
p512
g7
(g8
(I0
tp513
g10
tp514
Rp515
(I1
(I3
tp516
g14
(S'f8'
p517
I0
I1
tp518
Rp519
(I3
S'<'
p520
NNNI-1
I-1
I0
tp521
bI00
S'\xa6\xe8\xc8\xf2\x0e\xf0E@\x82\xb1\xb5\xa2#\xd46@\x83A{P\x9e\xd52\xc0'
p522
tp523
bsS'secnames'
p524
S'Cell[2].axon[0]'
p525
sI111
I94
tp526
a(F2.3886824236544615
S'Cell[0].apic[39] syn_ = new ExpSid(0.5)'
p527
I0
(dp528
g509
F0.8333333333333333
sg510
F15.0
sg511
I159
sg512
g7
(g8
(I0
tp529
g10
tp530
Rp531
(I1
(I3
tp532
g519
I00
S'\x91o\x90\x95\x16}R\xc0\xde\xc2d\xe4y\x11C\xc0\x00\x00\x00 \x85\xeb\x0f@'
p533
tp534
bsg524
S'Cell[3].axon[294]'
p535
sI159
I46
tp536
a(F1.4324852880746286
S'Cell[0].apic[39] syn_ = new ExpSid(0.166666666667)'
p537
I0
(dp538
g509
F0.5
sg510
F15.0
sg511
I159
sg512
g7
(g8
(I0
tp539
g10
tp540
Rp541
(I1
(I3
tp542
g519
I00
S"\x01\xfb\xf9\x1ff\xe1R\xc0n\xd8'\xe7\xaf<I\xc0#\x9a\x89U\x824 @"
p543
tp544
bsg524
S'Cell[3].axon[295]'
p545
sI159
I46
tp546
a(F2.268300926097057
S'Cell[1].dend[41] syn_ = new FastInhib(0.5)'
p547
I1
(dp548
S'seg'
p549
F0.7
sS'hostfrom'
p550
F16.0
sS'gid'
p551
I64
sS'coords'
p552
g7
(g8
(I0
tp553
g10
tp554
Rp555
(I1
(I3
tp556
g14
(S'f8'
p557
I0
I1
tp558
Rp559
(I3
S'<'
p560
NNNI-1
I-1
I0
tp561
bI00
S'/\xd1\x9cS\xe4\x90P@*\x80\x04\x01\x7f\xc6G\xc0\xa4}5!\xc0?@\xc0'
p562
tp563
bsS'secnames'
p564
S'Cell[1].axon[11]'
p565
sI64
I94
tp566
a(F2.263046389922876
S'Cell[1].dend[55] syn_ = new FastInhib(0.5)'
p567
I1
(dp568
g549
F0.30000000000000004
sg550
F16.0
sg551
I64
sg552
g7
(g8
(I0
tp569
g10
tp570
Rp571
(I1
(I3
tp572
g559
I00
S'\x18\x87\t@\xad31@\xdb\x98\xd9\xd6P\xa1W\xc0\x00\x00\x00\x00\xd7#1@'
p573
tp574
bsg564
S'Cell[1].axon[14]'
p575
sI64
I94
tp576
a(F1.2850674384104537
S'Cell[0].apic[28] syn_ = new ExpSid(0.5)'
p577
I0
(dp578
S'seg'
p579
F0.5
sS'hostfrom'
p580
F17.0
sS'gid'
p581
I113
sS'coords'
p582
g7
(g8
(I0
tp583
g10
tp584
Rp585
(I1
(I3
tp586
g14
(S'f8'
p587
I0
I1
tp588
Rp589
(I3
S'<'
p590
NNNI-1
I-1
I0
tp591
bI00
S"\xaa\t\xf4\xf3\x8d\xc6\x16@7\xb6\x9c\xc25\xc8l\xc0}F\x1e\x99_'\x02@"
p592
tp593
bsS'secnames'
p594
S'Cell[2].axon[470]'
p595
sI113
I46
tp596
a(F1.8528702945787876
S'Cell[0].apic[47] syn_ = new ExpSid(0.5)'
p597
I0
(dp598
g579
F0.5
sg580
F17.0
sg581
I113
sg582
g7
(g8
(I0
tp599
g10
tp600
Rp601
(I1
(I3
tp602
g589
I00
S"cb}\x1ab>\x01\xc0v\xb7^\xb0}\xb9c\xc0\xc1W\x86\xe0\xc6\xd7'\xc0"
p603
tp604
bsg594
S'Cell[2].axon[485]'
p605
sI113
I46
tp606
a(F1.4158907214224379
S'Cell[1].dend[56] syn_ = new FastInhib(0.5)'
p607
I1
(dp608
g579
F0.5
sg580
F17.0
sg581
I113
sg582
g7
(g8
(I0
tp609
g10
tp610
Rp611
(I1
(I3
tp612
g589
I00
S'\x00\x00\x00p=J&@\x00\x00\x0003SJ\xc0\x00\x00\x00\x80\xebQ&@'
p613
tp614
bsg594
S'Cell[2].axon[492]'
p615
sI113
I94
tp616
a(F1.6772274080295473
S'Cell[1].dend[52] syn_ = new FastInhib(0.5)'
p617
I1
(dp618
g579
F0.5
sg580
F17.0
sg581
I113
sg582
g7
(g8
(I0
tp619
g10
tp620
Rp621
(I1
(I3
tp622
g589
I00
S'\x00\x00\x00\x90\xeb\x11#@\x00\x00\x00\xe0z\xc4H\xc0\x00\x00\x00x\x14\xae"@'
p623
tp624
bsg594
S'Cell[2].axon[493]'
p625
sI113
I94
tp626
a(F1.861334924660686
S'Cell[1].dend[60] syn_ = new FastInhib(0.5)'
p627
I1
(dp628
g579
F0.5
sg580
F17.0
sg581
I161
sg582
g7
(g8
(I0
tp629
g10
tp630
Rp631
(I1
(I3
tp632
g589
I00
S"\xab\x04\xa8\x83\xdc9$@\x14\x9bg\xc9H'Q@\x01\x00\x00@\xe1z\n\xc0"
p633
tp634
bsg594
S'Cell[3].axon[2]'
p635
sI161
I94
tp636
a(F2.420482624019848
S'Cell[1].dend[66] syn_ = new FastInhib(0.5)'
p637
I1
(dp638
g579
F0.5
sg580
F17.0
sg581
I161
sg582
g7
(g8
(I0
tp639
g10
tp640
Rp641
(I1
(I3
tp642
g589
I00
S'\x12\x93\x8a\xcd\x00\xe63@\xc8\xc9\xf5\x1d&\x12b@\xf0b#\xab\xe6\xa3+\xc0'
p643
tp644
bsg594
S'Cell[3].axon[222]'
p645
sI161
I94
tp646
a(F1.6570392528480822
S'Cell[1].dend[46] syn_ = new FastInhib(0.5)'
p647
I1
(dp648
g579
F0.5
sg580
F17.0
sg581
I65
sg582
g7
(g8
(I0
tp649
g10
tp650
Rp651
(I1
(I3
tp652
g589
I00
S't\xbfK\xbf\xe1\xa4\x14@9\xe2\xbc\xae\x11;A\xc0\xeaui\x82,K+\xc0'
p653
tp654
bsg594
S'Cell[1].axon[24]'
p655
sI65
I94
tp656
a(F1.8104340657689373
S'Cell[0].apic[46] syn_ = new AmpaNmda(0.5)'
p657
I0
(dp658
S'seg'
p659
F0.2692307692307693
sS'hostfrom'
p660
F18.0
sS'gid'
p661
I18
sS'coords'
p662
g7
(g8
(I0
tp663
g10
tp664
Rp665
(I1
(I3
tp666
g14
(S'f8'
p667
I0
I1
tp668
Rp669
(I3
S'<'
p670
NNNI-1
I-1
I0
tp671
bI00
S'\xec\xa1\xdfi\xccq\xda\xbf\xf5S\xf6\x10\x18\xd0a\xc0\x00\x00\x00\xe0Q\xb8\x1b\xc0'
p672
tp673
bsS'secnames'
p674
S'Cell[0].axon[4]'
p675
sI18
I46
tp676
a(F1.9041052550541302
S'Cell[1].dend[22] syn_ = new FastInhib(0.166666666667)'
p677
I1
(dp678
g659
F0.5
sg660
F18.0
sg661
I114
sg662
g7
(g8
(I0
tp679
g10
tp680
Rp681
(I1
(I3
tp682
g669
I00
S'\r\xc1\x18\xa0\x08D=\xc0H\x0f\xfdh\xf0\x80U\xc0\xf4\xb7\x01\xfd"\x19\xf6?'
p683
tp684
bsg674
S'Cell[2].axon[91]'
p685
sI114
I94
tp686
a(F1.996705544095582
S'Cell[0].apic[102] syn_ = new AmpaNmda(0.9)'
p687
I0
(dp688
g659
F0.5
sg660
F18.0
sg661
I114
sg662
g7
(g8
(I0
tp689
g10
tp690
Rp691
(I1
(I3
tp692
g669
I00
S'L\xd2D\x9f\x84\xbcI\xc0*\xc6\xe0p\xf1fF\xc0\x00\x00\x00`ff\x1a@'
p693
tp694
bsg674
S'Cell[2].axon[93]'
p695
sI114
I46
tp696
a(F1.4180140078340153
S'Cell[0].apic[39] syn_ = new AmpaNmda(0.166666666667)'
p697
I0
(dp698
g659
F0.5
sg660
F18.0
sg661
I114
sg662
g7
(g8
(I0
tp699
g10
tp700
Rp701
(I1
(I3
tp702
g669
I00
S'\xd6\x80\xce(\x06\xeaR\xc0\xb0\r\xdbG\xaexI\xc0k\xb5\xa4\x1e~\x8f\x16@'
p703
tp704
bsg674
S'Cell[2].axon[94]'
p705
sI114
I46
tp706
a(F2.3204676915272344
S'Cell[1].dend[0] syn_ = new FastInhib(0.5)'
p707
I1
(dp708
S'seg'
p709
F0.30000000000000004
sS'hostfrom'
p710
F19.0
sS'gid'
p711
I19
sS'coords'
p712
g7
(g8
(I0
tp713
g10
tp714
Rp715
(I1
(I3
tp716
g14
(S'f8'
p717
I0
I1
tp718
Rp719
(I3
S'<'
p720
NNNI-1
I-1
I0
tp721
bI00
S'\xeb\x9a\xc0\xb9?P\xe4\xbf\x07]\x81\xdf\xcf\x1b5\xc0\xecA\xa1}3\xe8\x14\xc0'
p722
tp723
bsS'secnames'
p724
S'Cell[0].axon[0]'
p725
sI19
I94
tp726
a(F1.6372036814177073
S'Cell[1].dend[25] syn_ = new FastInhib(0.5)'
p727
I1
(dp728
g709
F0.5
sg710
F19.0
sg711
I163
sg712
g7
(g8
(I0
tp729
g10
tp730
Rp731
(I1
(I3
tp732
g719
I00
S'j\xfc=y\xf3\xf6D\xc0\xdf8y\x0e\x07*T\xc0\x9c?\xd0\xf0\xe6\xca\x07@'
p733
tp734
bsg724
S'Cell[3].axon[7]'
p735
sI163
I94
tp736
a(F2.1351539134597193
S'Cell[0].apic[102] syn_ = new ExpSid(0.9)'
p737
I0
(dp738
S'seg'
p739
F0.7
sS'hostfrom'
p740
F21.0
sS'gid'
p741
I165
sS'coords'
p742
g7
(g8
(I0
tp743
g10
tp744
Rp745
(I1
(I3
tp746
g14
(S'f8'
p747
I0
I1
tp748
Rp749
(I3
S'<'
p750
NNNI-1
I-1
I0
tp751
bI00
S'\x8bep]X\xb2J\xc07\x93\xa6\x8c\xe6\xfdF\xc0\xac\x96[n\xf2\xb4\x0e@'
p752
tp753
bsS'secnames'
p754
S'Cell[3].axon[296]'
p755
sI165
I46
tp756
a(F1.8942209255066307
S'Cell[0].apic[44] syn_ = new ExpSid(0.166666666667)'
p757
I0
(dp758
g739
F0.16666666666666666
sg740
F21.0
sg741
I69
sg742
g7
(g8
(I0
tp759
g10
tp760
Rp761
(I1
(I3
tp762
g749
I00
S'\xf6\xb8\x9b\xfcyI\x15\xc0_\xb5gB\xf8\x84b\xc0\xac\xb5^\xa4QA\x1b@'
p763
tp764
bsg754
S'Cell[1].axon[27]'
p765
sI69
I46
tp766
a(F1.9462366422854347
S'Cell[1].dend[8] syn_ = new FastInhib(0.5)'
p767
I1
(dp768
S'seg'
p769
F0.1
sS'hostfrom'
p770
F22.0
sS'gid'
p771
I118
sS'coords'
p772
g7
(g8
(I0
tp773
g10
tp774
Rp775
(I1
(I3
tp776
g14
(S'f8'
p777
I0
I1
tp778
Rp779
(I3
S'<'
p780
NNNI-1
I-1
I0
tp781
bI00
S'<ZDj158\xc0KZ\x02\x16\x81*O\xc0rT\xfd%k\xd4\xf7?'
p782
tp783
bsS'secnames'
p784
S'Cell[2].axon[54]'
p785
sI118
I94
tp786
a(F1.8741228845777362
S'Cell[1].dend[59] syn_ = new FastInhib(0.5)'
p787
I1
(dp788
S'seg'
p789
F0.8636363636363638
sS'hostfrom'
p790
F23.0
sS'gid'
p791
I23
sS'coords'
p792
g7
(g8
(I0
tp793
g10
tp794
Rp795
(I1
(I3
tp796
g14
(S'f8'
p797
I0
I1
tp798
Rp799
(I3
S'<'
p800
NNNI-1
I-1
I0
tp801
bI00
S'\xecN9=le!@Q\xb8\xbb\x0bC\xbfB@\x81h\xd5\xa0\xc2v\xf0?'
p802
tp803
bsS'secnames'
p804
S'Cell[0].axon[8]'
p805
sI23
I94
tp806
a(F1.1389459057318234
S'Cell[0].apic[56] syn_ = new AmpaNmda(0.5)'
p807
I0
(dp808
S'seg'
p809
F0.5
sS'hostfrom'
p810
F24.0
sS'gid'
p811
I72
sS'coords'
p812
g7
(g8
(I0
tp813
g10
tp814
Rp815
(I1
(I3
tp816
g14
(S'f8'
p817
I0
I1
tp818
Rp819
(I3
S'<'
p820
NNNI-1
I-1
I0
tp821
bI00
S'\x08\xb3D\x08\xe2\x82+@4\xe2\xc8\x9d^.W\xc0y\xd7\x9c\xee\xdc\xc21@'
p822
tp823
bsS'secnames'
p824
S'Cell[1].axon[27]'
p825
sI72
I46
tp826
a(F1.3905877915558877
S'Cell[0].apic[23] syn_ = new AmpaNmda(0.833333333333)'
p827
I0
(dp828
g809
F0.5
sg810
F24.0
sg811
I72
sg812
g7
(g8
(I0
tp829
g10
tp830
Rp831
(I1
(I3
tp832
g819
I00
S'x\xf5\xf7\xe2I"F@\xd9#T\xd9\xd9nk\xc0\x8b[\x9f\xa0\xbb+.@'
p833
tp834
bsg824
S'Cell[1].axon[57]'
p835
sI72
I46
tp836
a(F1.505524958394463
S'Cell[1].dend[36] syn_ = new FastInhib(0.3)'
p837
I1
(dp838
g809
F0.30000000000000004
sg810
F24.0
sg811
I120
sg812
g7
(g8
(I0
tp839
g10
tp840
Rp841
(I1
(I3
tp842
g819
I00
S'\xba\x98\xc0\xc6k+>@\x98\xee\x11\xe2p\x1a!@\x00\x00\x00@\xe1\xdaK\xc0'
p843
tp844
bsg824
S'Cell[2].axon[53]'
p845
sI120
I94
tp846
a(F2.338887842366922
S'Cell[1].dend[34] syn_ = new FastInhib(0.5)'
p847
I1
(dp848
g809
F0.8333333333333333
sg810
F24.0
sg811
I120
sg812
g7
(g8
(I0
tp849
g10
tp850
Rp851
(I1
(I3
tp852
g819
I00
S'\x98\x10\xb9\x08\xa8\xf2V@\x0bt\xe1M\n\xfd)\xc0W\xc3i$@\xdeT\xc0'
p853
tp854
bsg824
S'Cell[2].axon[251]'
p855
sI120
I94
tp856
a(F0.9978050815918479
S'Cell[2].dend[28] syn_ = new FastInhib(0.1)'
p857
I2
(dp858
S'seg'
p859
F0.16666666666666666
sS'hostfrom'
p860
F25.0
sS'gid'
p861
I169
sS'coords'
p862
g7
(g8
(I0
tp863
g10
tp864
Rp865
(I1
(I3
tp866
g14
(S'f8'
p867
I0
I1
tp868
Rp869
(I3
S'<'
p870
NNNI-1
I-1
I0
tp871
bI00
S'r\xef\xfeH\x03\xde?@J\n\xc0\xafQ,V\xc0\x1c\x99\x7f\xa2\xf7\x80A\xc0'
p872
tp873
bsS'secnames'
p874
S'Cell[3].axon[44]'
p875
sI169
I142
tp876
a(F2.1657202139931537
S'Cell[2].dend[35] syn_ = new FastInhib(0.0714285714286)'
p877
I2
(dp878
g859
F0.1
sg860
F25.0
sg861
I169
sg862
g7
(g8
(I0
tp879
g10
tp880
Rp881
(I1
(I3
tp882
g869
I00
S'\x8e.\xfa\xf9\x19\xacI@\xce7L\x889\x99X\xc00\t\xce}*6R\xc0'
p883
tp884
bsg874
S'Cell[3].axon[108]'
p885
sI169
I142
tp886
a(F1.9903723235121102
S'Cell[2].dend[30] syn_ = new FastInhib(0.5)'
p887
I2
(dp888
S'seg'
p889
F0.5
sS'hostfrom'
p890
F26.0
sS'gid'
p891
I26
sS'coords'
p892
g7
(g8
(I0
tp893
g10
tp894
Rp895
(I1
(I3
tp896
g14
(S'f8'
p897
I0
I1
tp898
Rp899
(I3
S'<'
p900
NNNI-1
I-1
I0
tp901
bI00
S'Jp\xe4\xb2\x10X-\xc0\xb3\xa2R\x8cR\xceP\xc0M\xd2\xc5\xd1m2L\xc0'
p902
tp903
bsS'secnames'
p904
S'Cell[0].axon[56]'
p905
sI26
I142
tp906
a(F0.7861545827085059
S'Cell[0].apic[37] syn_ = new ExpSid(0.3)'
p907
I0
(dp908
S'seg'
p909
F0.5
sS'hostfrom'
p910
F27.0
sS'gid'
p911
I75
sS'coords'
p912
g7
(g8
(I0
tp913
g10
tp914
Rp915
(I1
(I3
tp916
g14
(S'f8'
p917
I0
I1
tp918
Rp919
(I3
S'<'
p920
NNNI-1
I-1
I0
tp921
bI00
S'D9c\xbd\xb1%0\xc0\xeb\x10`\x8a\x02oa\xc0\xee\x04JW\x03\xc2\xf6?'
p922
tp923
bsS'secnames'
p924
S'Cell[1].axon[23]'
p925
sI75
I46
tp926
a(F2.4555479270877276
S'Cell[1].dend[1] syn_ = new FastInhib(0.166666666667)'
p927
I1
(dp928
g909
F0.5
sg910
F27.0
sg911
I27
sg912
g7
(g8
(I0
tp929
g10
tp930
Rp931
(I1
(I3
tp932
g919
I00
S" \xfcbW\xfd\x93'\xc0\xca751pK6\xc0c\xf4\xf5k\x17\x14%\xc0"
p933
tp934
bsg924
S'Cell[0].axon[6]'
p935
sI27
I94
tp936
a(F1.7797947509468544
S'Cell[1].dend[58] syn_ = new FastInhib(0.5)'
p937
I1
(dp938
g909
F0.5
sg910
F27.0
sg911
I171
sg912
g7
(g8
(I0
tp939
g10
tp940
Rp941
(I1
(I3
tp942
g919
I00
S'\x00\x00\x00\xe0z\x14\x1b@\x00\x00\x00\xe0Q\xb80@\x00\x00\x00 \xaeG\x03\xc0'
p943
tp944
bsg924
S'Cell[3].soma[0]'
p945
sI171
I94
tp946
a(F1.8440295502694177
S'Cell[1].dend[66] syn_ = new FastInhib(0.166666666667)'
p947
I1
(dp948
g909
F0.5
sg910
F27.0
sg911
I171
sg912
g7
(g8
(I0
tp949
g10
tp950
Rp951
(I1
(I3
tp952
g919
I00
S'\x0e\x1f\xb9\xcd\x99\x92-@0\xd0\xdaO/\tZ@\x00\x00\x00`ff\x1a\xc0'
p953
tp954
bsg924
S'Cell[3].axon[35]'
p955
sI171
I94
tp956
a(F0.8001018411276806
S'Cell[2].dend[10] syn_ = new FastInhib(0.166666666667)'
p957
I2
(dp958
S'seg'
p959
F0.5
sS'hostfrom'
p960
F29.0
sS'gid'
p961
I77
sS'coords'
p962
g7
(g8
(I0
tp963
g10
tp964
Rp965
(I1
(I3
tp966
g14
(S'f8'
p967
I0
I1
tp968
Rp969
(I3
S'<'
p970
NNNI-1
I-1
I0
tp971
bI00
S'\xdcd\xce\x1d&\xacI@/\x1fg\x95\xe5@h\xc0\xba\x90I\xbd\xf4\x92D\xc0'
p972
tp973
bsS'secnames'
p974
S'Cell[1].axon[46]'
p975
sI77
I142
tp976
a(F2.3320642944034367
S'Cell[1].dend[30] syn_ = new FastInhib(0.5)'
p977
I1
(dp978
S'seg'
p979
F0.8333333333333333
sS'hostfrom'
p980
F30.0
sS'gid'
p981
I126
sS'coords'
p982
g7
(g8
(I0
tp983
g10
tp984
Rp985
(I1
(I3
tp986
g14
(S'f8'
p987
I0
I1
tp988
Rp989
(I3
S'<'
p990
NNNI-1
I-1
I0
tp991
bI00
S'\xa2\xfeo\xaeo\x8b1@\xe7~\x03/M\x08\x13\xc0\xfd\xc1\xb8$\xdfg3\xc0'
p992
tp993
bsS'secnames'
p994
S'Cell[2].axon[3]'
p995
sI126
I94
tp996
a(F1.5970095889562812
S'Cell[1].dend[1] syn_ = new FastInhib(0.833333333333)'
p997
I1
(dp998
g979
F0.8999999999999999
sg980
F30.0
sg981
I126
sg982
g7
(g8
(I0
tp999
g10
tp1000
Rp1001
(I1
(I3
tp1002
g989
I00
S'\xe2\xa6L\x7f\xed\xc0F\xc0\x86,P\x97Y\xb4B\xc0v\x97\xca$-W2\xc0'
p1003
tp1004
bsg994
S'Cell[2].axon[50]'
p1005
sI126
I94
tp1006
a(F1.7875282054703652
S'Cell[1].dend[44] syn_ = new FastInhib(0.3)'
p1007
I1
(dp1008
g979
F0.5
sg980
F30.0
sg981
I126
sg982
g7
(g8
(I0
tp1009
g10
tp1010
Rp1011
(I1
(I3
tp1012
g989
I00
S'\x98\xfdb\xacT\xdc2\xc0\x804\xb9\xde\xc6:A@\xb6\xb0\xebe\x14\xdbM\xc0'
p1013
tp1014
bsg994
S'Cell[2].axon[101]'
p1015
sI126
I94
tp1016
a(F2.390126878230856
S'Cell[0].apic[62] syn_ = new AmpaNmda(0.5)'
p1017
I0
(dp1018
g979
F0.5
sg980
F30.0
sg981
I174
sg982
g7
(g8
(I0
tp1019
g10
tp1020
Rp1021
(I1
(I3
tp1022
g989
I00
S'\xfdgU,\x85\xa31@\xc6X\n\x19DbR@\xfc\x18\x91\xc1\xcd\xf5\x10\xc0'
p1023
tp1024
bsg994
S'Cell[3].axon[151]'
p1025
sI174
I46
tp1026
a(F1.4295271761466917
S'Cell[1].dend[17] syn_ = new FastInhib(0.166666666667)'
p1027
I1
(dp1028
g979
F0.5
sg980
F30.0
sg981
I174
sg982
g7
(g8
(I0
tp1029
g10
tp1030
Rp1031
(I1
(I3
tp1032
g989
I00
S'\xe1\xa3\xacp4rH\xc0W\xbe\xafz\xc2\xd9V\xc0F`n\xc1w\xa8#\xc0'
p1033
tp1034
bsg994
S'Cell[3].axon[225]'
p1035
sI174
I94
tp1036
a(F1.2105581390263658
S'Cell[2].dend[19] syn_ = new FastInhib(0.5)'
p1037
I2
(dp1038
S'seg'
p1039
F0.8333333333333333
sS'hostfrom'
p1040
F31.0
sS'gid'
p1041
I175
sS'coords'
p1042
g7
(g8
(I0
tp1043
g10
tp1044
Rp1045
(I1
(I3
tp1046
g14
(S'f8'
p1047
I0
I1
tp1048
Rp1049
(I3
S'<'
p1050
NNNI-1
I-1
I0
tp1051
bI00
S'\xd0\xabq\xfe\x00\xb6)@\x06\xdb\x85X\xb0\xfaT\xc02\x9f\xdfS\xd6\x0fC\xc0'
p1052
tp1053
bsS'secnames'
p1054
S'Cell[3].axon[363]'
p1055
sI175
I142
tp1056
a(F1.3996359910496687
S'Cell[2].dend[23] syn_ = new FastInhib(0.166666666667)'
p1057
I2
(dp1058
S'seg'
p1059
F0.5
sS'hostfrom'
p1060
F34.0
sS'gid'
p1061
I130
sS'coords'
p1062
g7
(g8
(I0
tp1063
g10
tp1064
Rp1065
(I1
(I3
tp1066
g14
(S'f8'
p1067
I0
I1
tp1068
Rp1069
(I3
S'<'
p1070
NNNI-1
I-1
I0
tp1071
bI00
S'\xf2R)_\xd5N6\xc0W\xea\xa0\x18\x80\x9aK\xc0\x00\x00\x00\x80\xebQ\x15\xc0'
p1072
tp1073
bsS'secnames'
p1074
S'Cell[2].axon[41]'
p1075
sI130
I142
tp1076
a(F1.8046951574823238
S'Cell[1].dend[44] syn_ = new FastInhib(0.1)'
p1077
I1
(dp1078
g1059
F0.5
sg1060
F34.0
sg1061
I178
sg1062
g7
(g8
(I0
tp1079
g10
tp1080
Rp1081
(I1
(I3
tp1082
g1069
I00
S'Q\xe5~n\xdd\x90&\xc0\x1bo\xcaH\x96j4@\x00\x00\x00\xe0QxJ\xc0'
p1083
tp1084
bsg1074
S'Cell[3].axon[1]'
p1085
sI178
I94
tp1086
a(F2.284851348432929
S'Cell[1].dend[2] syn_ = new FastInhib(0.5)'
p1087
I1
(dp1088
S'seg'
p1089
F0.16666666666666666
sS'hostfrom'
p1090
F35.0
sS'gid'
p1091
I83
sS'coords'
p1092
g7
(g8
(I0
tp1093
g10
tp1094
Rp1095
(I1
(I3
tp1096
g14
(S'f8'
p1097
I0
I1
tp1098
Rp1099
(I3
S'<'
p1100
NNNI-1
I-1
I0
tp1101
bI00
S'\x00\xc4\xb2!\x89\x90\x11\xc0\x07+\xc4Xw\xa89\xc0\x9eF\xeci\x08[\x08\xc0'
p1102
tp1103
bsS'secnames'
p1104
S'Cell[1].axon[3]'
p1105
sI83
I94
tp1106
a(F1.8804773258749876
S'Cell[2].dend[23] syn_ = new FastInhib(0.166666666667)'
p1107
I2
(dp1108
g1089
F0.5
sg1090
F35.0
sg1091
I83
sg1092
g7
(g8
(I0
tp1109
g10
tp1110
Rp1111
(I1
(I3
tp1112
g1099
I00
S'\xc6c\x00\r~\xac4\xc0\x86\x8a+Ds\xfaK\xc0g\xbaWW\x88!\x05\xc0'
p1113
tp1114
bsg1104
S'Cell[1].axon[4]'
p1115
sI83
I142
tp1116
a(F2.119223248676649
S'Cell[2].dend[28] syn_ = new FastInhib(0.5)'
p1117
I2
(dp1118
g1089
F0.5
sg1090
F35.0
sg1091
I83
sg1092
g7
(g8
(I0
tp1119
g10
tp1120
Rp1121
(I1
(I3
tp1122
g1099
I00
S'D\r\xe4F\t\xf5P@\xefK*2\xe0\xdbN\xc0(IT\xd2\xb1\x8a#\xc0'
p1123
tp1124
bsg1104
S'Cell[1].axon[164]'
p1125
sI83
I142
tp1126
a(F1.3295150413578158
S'Cell[1].dend[74] syn_ = new FastInhib(0.3)'
p1127
I1
(dp1128
S'seg'
p1129
F0.5
sS'hostfrom'
p1130
F36.0
sS'gid'
p1131
I84
sS'coords'
p1132
g7
(g8
(I0
tp1133
g10
tp1134
Rp1135
(I1
(I3
tp1136
g14
(S'f8'
p1137
I0
I1
tp1138
Rp1139
(I3
S'<'
p1140
NNNI-1
I-1
I0
tp1141
bI00
S'\xde\xd1\xdb(G\x9f:\xc0\xc58.\x02\xf2\xe9H@d\x1e\x170Vv @'
p1142
tp1143
bsS'secnames'
p1144
S'Cell[1].axon[482]'
p1145
sI84
I94
tp1146
a(F1.976726390622834
S'Cell[0].apic[24] syn_ = new AmpaNmda(0.166666666667)'
p1147
I0
(dp1148
g1129
F0.5
sg1130
F36.0
sg1131
I180
sg1132
g7
(g8
(I0
tp1149
g10
tp1150
Rp1151
(I1
(I3
tp1152
g1139
I00
S'T4|7\xb9\xd1H@\\a8s!zj\xc0\xec\x97\xb18(\xab<@'
p1153
tp1154
bsg1144
S'Cell[3].axon[106]'
p1155
sI180
I46
tp1156
a(F0.7279147988078578
S'Cell[2].dend[3] syn_ = new FastInhib(0.5)'
p1157
I2
(dp1158
g1129
F0.5
sg1130
F36.0
sg1131
I180
sg1132
g7
(g8
(I0
tp1159
g10
tp1160
Rp1161
(I1
(I3
tp1162
g1139
I00
S'\x00\x00\x00p=\xeaF@\x00\x00\x00P\x8f\xceh\xc0\x00\x00\x00\xd0\xcc<C\xc0'
p1163
tp1164
bsg1144
S'Cell[3].axon[112]'
p1165
sI180
I142
tp1166
a(F1.9231001440729667
S'Cell[0].apic[26] syn_ = new AmpaNmda(0.5)'
p1167
I0
(dp1168
g1129
F0.5
sg1130
F36.0
sg1131
I180
sg1132
g7
(g8
(I0
tp1169
g10
tp1170
Rp1171
(I1
(I3
tp1172
g1139
I00
S'\x00\x00\x00\xb0p\xcdX@\x00\x00\x00\xf0Q\\e\xc0\x00\x00\x00`\x8fB9@'
p1173
tp1174
bsg1144
S'Cell[3].axon[310]'
p1175
sI180
I46
tp1176
a(F1.8875193457894532
S'Cell[0].apic[66] syn_ = new ExpSid(0.357142857143)'
p1177
I0
(dp1178
S'seg'
p1179
F0.9285714285714284
sS'hostfrom'
p1180
F37.0
sS'gid'
p1181
I133
sS'coords'
p1182
g7
(g8
(I0
tp1183
g10
tp1184
Rp1185
(I1
(I3
tp1186
g14
(S'f8'
p1187
I0
I1
tp1188
Rp1189
(I3
S'<'
p1190
NNNI-1
I-1
I0
tp1191
bI00
S'\xac\xef\xa9\x10S3,@<\x90\xc5\xe6\x9aH`@R\xb2\xd6b\x0edH@'
p1192
tp1193
bsS'secnames'
p1194
S'Cell[2].axon[91]'
p1195
sI133
I46
tp1196
a(F1.8675251657831902
S'Cell[1].dend[46] syn_ = new FastInhib(0.5)'
p1197
I1
(dp1198
g1179
F0.5
sg1180
F37.0
sg1181
I181
sg1182
g7
(g8
(I0
tp1199
g10
tp1200
Rp1201
(I1
(I3
tp1202
g1189
I00
S"5\n\x1a\x87s=\x12@_\x8b'\xb9{FA\xc0\xe4lU~rI+\xc0"
p1203
tp1204
bsg1194
S'Cell[3].axon[269]'
p1205
sI181
I94
tp1206
a(F1.8675251657831902
S'Cell[1].dend[46] syn_ = new FastInhib(0.5)'
p1207
I1
(dp1208
g1179
F0.5
sg1180
F37.0
sg1181
I181
sg1182
g7
(g8
(I0
tp1209
g10
tp1210
Rp1211
(I1
(I3
tp1212
g1189
I00
S"5\n\x1a\x87s=\x12@_\x8b'\xb9{FA\xc0\xe4lU~rI+\xc0"
p1213
tp1214
bsg1194
S'Cell[3].axon[286]'
p1215
sI181
I94
tp1216
a(F1.8100626184757607
S'Cell[1].dend[63] syn_ = new FastInhib(0.5)'
p1217
I1
(dp1218
g1179
F0.8333333333333333
sg1180
F37.0
sg1181
I85
sg1182
g7
(g8
(I0
tp1219
g10
tp1220
Rp1221
(I1
(I3
tp1222
g1189
I00
S'j\xfb\xc1^\xd6\xbb\x1a@\xef\xcdF\xc9\x16,l@\x00\x00\x00\x80\x14.%@'
p1223
tp1224
bsg1194
S'Cell[1].axon[5]'
p1225
sI85
I94
tp1226
a(F0.9382846448619292
S'Cell[2].dend[30] syn_ = new FastInhib(0.7)'
p1227
I2
(dp1228
S'seg'
p1229
F0.8333333333333333
sS'hostfrom'
p1230
F38.0
sS'gid'
p1231
I86
sS'coords'
p1232
g7
(g8
(I0
tp1233
g10
tp1234
Rp1235
(I1
(I3
tp1236
g14
(S'f8'
p1237
I0
I1
tp1238
Rp1239
(I3
S'<'
p1240
NNNI-1
I-1
I0
tp1241
bI00
S'\xd5\xc5\xcb\xe0\xde\x0f@\xc0\x8e\x02\x15\xa4\xc2\xa3K\xc0\x85\x187\xbc\x129K\xc0'
p1242
tp1243
bsS'secnames'
p1244
S'Cell[1].axon[79]'
p1245
sI86
I142
tp1246
a(F2.3483839059207083
S'Cell[2].dend[28] syn_ = new FastInhib(0.3)'
p1247
I2
(dp1248
g1229
F0.16666666666666666
sg1230
F38.0
sg1231
I86
sg1232
g7
(g8
(I0
tp1249
g10
tp1250
Rp1251
(I1
(I3
tp1252
g1239
I00
S'\xca\x95\xe2\xe2N\x1fI@j\xc1G\x1ec\xb5R\xc0Yy\xac\t\xb9-:\xc0'
p1253
tp1254
bsg1244
S'Cell[1].axon[216]'
p1255
sI86
I142
tp1256
a(F1.5456647349332195
S'Cell[2].dend[9] syn_ = new FastInhib(0.5)'
p1257
I2
(dp1258
g1229
F0.5
sg1230
F38.0
sg1231
I38
sg1232
g7
(g8
(I0
tp1259
g10
tp1260
Rp1261
(I1
(I3
tp1262
g1239
I00
S'\t\x1a\xc9\xeb\xae\xac>@&\xab\xe1\xe0\x07_m\xc0\x84\xfc\xb4\x06\xa5\xadR\xc0'
p1263
tp1264
bsg1244
S'Cell[0].axon[21]'
p1265
sI38
I142
tp1266
a(F0.48131368697669874
S'Cell[2].dend[26] syn_ = new FastInhib(0.5)'
p1267
I2
(dp1268
g1229
F0.5
sg1230
F38.0
sg1231
I38
sg1232
g7
(g8
(I0
tp1269
g10
tp1270
Rp1271
(I1
(I3
tp1272
g1239
I00
S"\xd9\xf7c\xd4/\xb9,\xc0\xd4\x95\x9b!\xa0\x17L\xc0T\x10\x07h\xe9/'\xc0"
p1273
tp1274
bsg1244
S'Cell[0].axon[36]'
p1275
sI38
I142
tp1276
a(F1.473436057981836
S'Cell[1].dend[32] syn_ = new FastInhib(0.5)'
p1277
I1
(dp1278
S'seg'
p1279
F0.8333333333333333
sS'hostfrom'
p1280
F39.0
sS'gid'
p1281
I135
sS'coords'
p1282
g7
(g8
(I0
tp1283
g10
tp1284
Rp1285
(I1
(I3
tp1286
g14
(S'f8'
p1287
I0
I1
tp1288
Rp1289
(I3
S'<'
p1290
NNNI-1
I-1
I0
tp1291
bI00
S'\xaa\x81C\xb4\x03\xc2:@\xd05\x0f\xfd\x0b\xb0\x15@\x98\xe1O\x97\xe8>7\xc0'
p1292
tp1293
bsS'secnames'
p1294
S'Cell[2].axon[157]'
p1295
sI135
I94
tp1296
a(F2.0549576771461875
S'Cell[1].dend[56] syn_ = new FastInhib(0.5)'
p1297
I1
(dp1298
g1279
F0.3461538461538462
sg1280
F39.0
sg1281
I183
sg1282
g7
(g8
(I0
tp1299
g10
tp1300
Rp1301
(I1
(I3
tp1302
g1289
I00
S'n\xec\xf8i\xd6%&@\x1c\x91\xdbI\x9f\xc4J\xc0\x00\x00\x00\x80=\n @'
p1303
tp1304
bsg1294
S'Cell[3].axon[143]'
p1305
sI183
I94
tp1306
a(F2.2942436242917057
S'Cell[2].dend[20] syn_ = new FastInhib(0.166666666667)'
p1307
I2
(dp1308
S'seg'
p1309
F0.16666666666666666
sS'hostfrom'
p1310
F40.0
sS'gid'
p1311
I40
sS'coords'
p1312
g7
(g8
(I0
tp1313
g10
tp1314
Rp1315
(I1
(I3
tp1316
g14
(S'f8'
p1317
I0
I1
tp1318
Rp1319
(I3
S'<'
p1320
NNNI-1
I-1
I0
tp1321
bI00
S"\xea\xcd\x1b\xfe_\xab\x18@\xfeSfg\xae'T\xc0T\xbc\xfe\x8c\xe3\xd18\xc0"
p1322
tp1323
bsS'secnames'
p1324
S'Cell[0].axon[23]'
p1325
sI40
I142
tp1326
a(F1.8381607510617364
S'Cell[1].dend[8] syn_ = new FastInhib(0.5)'
p1327
I1
(dp1328
g1309
F0.07142857142857142
sg1310
F40.0
sg1311
I88
sg1312
g7
(g8
(I0
tp1329
g10
tp1330
Rp1331
(I1
(I3
tp1332
g1319
I00
S'\x9d/\xea\xd2c\x0c5\xc0\x9e\x0cf\xd8xGN\xc0\x00\x00\x00\x80\xebQ\xf4?'
p1333
tp1334
bsg1324
S'Cell[1].axon[158]'
p1335
sI88
I94
tp1336
a(F1.794905181099599
S'Cell[1].dend[36] syn_ = new FastInhib(0.7)'
p1337
I1
(dp1338
g1309
F0.6428571428571428
sg1310
F40.0
sg1311
I88
sg1312
g7
(g8
(I0
tp1339
g10
tp1340
Rp1341
(I1
(I3
tp1342
g1319
I00
S"\xd0\xe9\xf5\xc1\xb3\x16E@\xf9)\x86S\x99\xc1\t@\x98!\xde\xfb'\x03W\xc0"
p1343
tp1344
bsg1324
S'Cell[1].axon[202]'
p1345
sI88
I94
tp1346
a(F2.473526100594272
S'Cell[1].dend[53] syn_ = new FastInhib(0.833333333333)'
p1347
I1
(dp1348
g1309
F0.16666666666666666
sg1310
F40.0
sg1311
I88
sg1312
g7
(g8
(I0
tp1349
g10
tp1350
Rp1351
(I1
(I3
tp1352
g1319
I00
S'\xc0\x8bX8\x1f\xb1+@\x05\x94L\xfd\xe4QS\xc0\x1b\xb8\x84e`t)@'
p1353
tp1354
bsg1324
S'Cell[1].axon[305]'
p1355
sI88
I94
tp1356
a(F1.1976829877747082
S'Cell[1].dend[37] syn_ = new FastInhib(0.3)'
p1357
I1
(dp1358
g1309
F0.16666666666666666
sg1310
F40.0
sg1311
I88
sg1312
g7
(g8
(I0
tp1359
g10
tp1360
Rp1361
(I1
(I3
tp1362
g1319
I00
S"I\x98\xbc\xa9\xfd\x16E@I\x98\xbc\x89'S6@\x00\x00\x00\x00)\x9c5\xc0"
p1363
tp1364
bsg1324
S'Cell[1].axon[377]'
p1365
sI88
I94
tp1366
a(F2.3718227573444683
S'Cell[2].dend[39] syn_ = new FastInhib(0.1)'
p1367
I2
(dp1368
g1309
F0.21428571428571427
sg1310
F40.0
sg1311
I184
sg1312
g7
(g8
(I0
tp1369
g10
tp1370
Rp1371
(I1
(I3
tp1372
g1319
I00
S'\xe9\x18\xa0m{\xacV@whD\x03\xa3\xb7U@K\x08\xf2\x8db$X\xc0'
p1373
tp1374
bsg1324
S'Cell[3].axon[35]'
p1375
sI184
I142
tp1376
a(F2.291794753696349
S'Cell[1].dend[37] syn_ = new FastInhib(0.1)'
p1377
I1
(dp1378
g1309
F0.3571428571428571
sg1310
F40.0
sg1311
I184
sg1312
g7
(g8
(I0
tp1379
g10
tp1380
Rp1381
(I1
(I3
tp1382
g1319
I00
S'D\x8dG.\xce\xc8?@\x0c\x04\xfe\x85Y\x9b\x13@hW\xdd)"\xe83\xc0'
p1383
tp1384
bsg1324
S'Cell[3].axon[61]'
p1385
sI184
I94
tp1386
a(F1.3921304852324923
S'Cell[0].apic[9] syn_ = new ExpSid(0.1)'
p1387
I0
(dp1388
S'seg'
p1389
F0.7
sS'hostfrom'
p1390
F41.0
sS'gid'
p1391
I185
sS'coords'
p1392
g7
(g8
(I0
tp1393
g10
tp1394
Rp1395
(I1
(I3
tp1396
g14
(S'f8'
p1397
I0
I1
tp1398
Rp1399
(I3
S'<'
p1400
NNNI-1
I-1
I0
tp1401
bI00
S'\xae\x0b)\xc6h\xed(\xc0\x15\xd2\xc9\x1dgSo\xc0\x00\x00\x00\xa0Ga+@'
p1402
tp1403
bsS'secnames'
p1404
S'Cell[3].axon[79]'
p1405
sI185
I46
tp1406
a(F2.107452510303853
S'Cell[1].dend[74] syn_ = new FastInhib(0.5)'
p1407
I1
(dp1408
g1389
F0.7
sg1390
F41.0
sg1391
I89
sg1392
g7
(g8
(I0
tp1409
g10
tp1410
Rp1411
(I1
(I3
tp1412
g1399
I00
S'\xdb\x90hL8dH\xc0\x82\x01$\xea\xfa\x97K@\x8ef\x92\xff.\x815@'
p1413
tp1414
bsg1404
S'Cell[1].axon[101]'
p1415
sI89
I94
tp1416
a(F2.2088803491432687
S'Cell[1].dend[21] syn_ = new FastInhib(0.833333333333)'
p1417
I1
(dp1418
g1389
F0.44117647058823534
sg1390
F41.0
sg1391
I89
sg1392
g7
(g8
(I0
tp1419
g10
tp1420
Rp1421
(I1
(I3
tp1422
g1399
I00
S'`X7\x95krS\xc0\xca\x9e\x86#\xde\x07d\xc0\x9byd\xc8\xaeo1\xc0'
p1423
tp1424
bsg1404
S'Cell[1].axon[110]'
p1425
sI89
I94
tp1426
a(F2.3875860439627403
S'Cell[1].dend[28] syn_ = new FastInhib(0.833333333333)'
p1427
I1
(dp1428
S'seg'
p1429
F0.5
sS'hostfrom'
p1430
F42.0
sS'gid'
p1431
I90
sS'coords'
p1432
g7
(g8
(I0
tp1433
g10
tp1434
Rp1435
(I1
(I3
tp1436
g14
(S'f8'
p1437
I0
I1
tp1438
Rp1439
(I3
S'<'
p1440
NNNI-1
I-1
I0
tp1441
bI00
S'\xe2~\xfa\xc2\xcd,G\xc0\xd5Jlel\xeb \xc0\x00\x00\x00\xc0\xccL*@'
p1442
tp1443
bsS'secnames'
p1444
S'Cell[1].axon[15]'
p1445
sI90
I94
tp1446
a(F2.0344166683207936
S'Cell[1].dend[62] syn_ = new FastInhib(0.833333333333)'
p1447
I1
(dp1448
g1429
F0.5
sg1430
F42.0
sg1431
I138
sg1432
g7
(g8
(I0
tp1449
g10
tp1450
Rp1451
(I1
(I3
tp1452
g1439
I00
S'\xa5\x9a\xfb+\xd1y\x10\xc0gb\xa8\x83+gp@\x9f\x17 \xc3\x9a66@'
p1453
tp1454
bsg1444
S'Cell[2].axon[265]'
p1455
sI138
I94
tp1456
a(F1.2462046932753685
S'Cell[0].apic[102] syn_ = new AmpaNmda(0.9)'
p1457
I0
(dp1458
g1429
F0.8333333333333333
sg1430
F42.0
sg1431
I186
sg1432
g7
(g8
(I0
tp1459
g10
tp1460
Rp1461
(I1
(I3
tp1462
g1439
I00
S'\x81=I$\x1c?J\xc0\xe4>\\\x1a8\xbcF\xc0\x00\x00\x00`ff\x1a@'
p1463
tp1464
bsg1444
S'Cell[3].axon[97]'
p1465
sI186
I46
tp1466
a(F1.891421350266013
S'Cell[1].dend[17] syn_ = new FastInhib(0.833333333333)'
p1467
I1
(dp1468
S'seg'
p1469
F0.5
sS'hostfrom'
p1470
F44.0
sS'gid'
p1471
I92
sS'coords'
p1472
g7
(g8
(I0
tp1473
g10
tp1474
Rp1475
(I1
(I3
tp1476
g14
(S'f8'
p1477
I0
I1
tp1478
Rp1479
(I3
S'<'
p1480
NNNI-1
I-1
I0
tp1481
bI00
S"\n\x96)\x1a)\xf1Q\xc0\xfb~b\xfe\xbb+[\xc0\xe3t\xa0\xf9\xf6l'\xc0"
p1482
tp1483
bsS'secnames'
p1484
S'Cell[1].axon[85]'
p1485
sI92
I94
tp1486
a(F1.9747194774868488
S'Cell[0].apic[8] syn_ = new AmpaNmda(0.5)'
p1487
I0
(dp1488
g1469
F0.5
sg1470
F44.0
sg1471
I44
sg1472
g7
(g8
(I0
tp1489
g10
tp1490
Rp1491
(I1
(I3
tp1492
g1479
I00
S'\x03\xd7\xd2r\x08x:\xc0\x18FH\x88\xa0\xf9m\xc0\xf6\xf0-\xb2\xa3\xa6:@'
p1493
tp1494
bsg1484
S'Cell[0].axon[29]'
p1495
sI44
I46
tp1496
a(F1.3262128798043058
S'Cell[2].dend[27] syn_ = new FastInhib(0.214285714286)'
p1497
I2
(dp1498
S'seg'
p1499
F0.16666666666666666
sS'hostfrom'
p1500
F45.0
sS'gid'
p1501
I141
sS'coords'
p1502
g7
(g8
(I0
tp1503
g10
tp1504
Rp1505
(I1
(I3
tp1506
g14
(S'f8'
p1507
I0
I1
tp1508
Rp1509
(I3
S'<'
p1510
NNNI-1
I-1
I0
tp1511
bI00
S'\x17\xe6\xafa\x89\xd1;@\xe3\x93\xdc\xa8(\x1eG\xc0\x10H\x1be\xcf\xa2C\xc0'
p1512
tp1513
bsS'secnames'
p1514
S'Cell[2].axon[42]'
p1515
sI141
I142
tp1516
a(F1.9172296389932657
S'Cell[2].dend[20] syn_ = new FastInhib(0.5)'
p1517
I2
(dp1518
g1499
F0.5
sg1500
F45.0
sg1501
I141
sg1502
g7
(g8
(I0
tp1519
g10
tp1520
Rp1521
(I1
(I3
tp1522
g1509
I00
S'\xca\x8d\x1fq\xeeq\x17\xc0\xa4\x10Os\xcf\xabP\xc0\x00\x00\x00\xa0G\xe1"\xc0'
p1523
tp1524
bsg1514
S'Cell[2].axon[188]'
p1525
sI141
I142
tp1526
a(F1.7597097008450187
S'Cell[1].dend[37] syn_ = new FastInhib(0.7)'
p1527
I1
(dp1528
g1499
F0.16666666666666666
sg1500
F45.0
sg1501
I141
sg1502
g7
(g8
(I0
tp1529
g10
tp1530
Rp1531
(I1
(I3
tp1532
g1509
I00
S'Q7gu\x99\xe7I@0\xefn\xfb\x0eMH@\x900p\x8d.r;\xc0'
p1533
tp1534
bsg1514
S'Cell[2].axon[302]'
p1535
sI141
I94
tp1536
a(F1.7356522308743108
S'Cell[2].dend[28] syn_ = new FastInhib(0.7)'
p1537
I2
(dp1538
g1499
F0.5
sg1500
F45.0
sg1501
I141
sg1502
g7
(g8
(I0
tp1539
g10
tp1540
Rp1541
(I1
(I3
tp1542
g1509
I00
S'\xaf{\xa0\x06V;U@\xcb\xf0F\xc4R\xe3F\xc0\xder\x94D\x8a\xc9(@'
p1543
tp1544
bsg1514
S'Cell[2].axon[499]'
p1545
sI141
I142
tp1546
a(F2.2633206705272113
S'Cell[0].apic[2] syn_ = new ExpSid(0.5)'
p1547
I0
(dp1548
g1499
F0.7857142857142856
sg1500
F45.0
sg1501
I45
sg1502
g7
(g8
(I0
tp1549
g10
tp1550
Rp1551
(I1
(I3
tp1552
g1509
I00
S'\n\xb9^Sy\x1b/\xc0\x8b?\xadj\xefRn\xc0\x00\x00\x00\x80\xc2\xb5<@'
p1553
tp1554
bsg1514
S'Cell[0].axon[1]'
p1555
sI45
I46
tp1556
a(F2.215032177652141
S'Cell[0].apic[37] syn_ = new AmpaNmda(0.7)'
p1557
I0
(dp1558
S'seg'
p1559
F0.30000000000000004
sS'hostfrom'
p1560
F46.0
sS'gid'
p1561
I94
sS'coords'
p1562
g7
(g8
(I0
tp1563
g10
tp1564
Rp1565
(I1
(I3
tp1566
g14
(S'f8'
p1567
I0
I1
tp1568
Rp1569
(I3
S'<'
p1570
NNNI-1
I-1
I0
tp1571
bI00
S'#\xc2&\x05BzI\xc0\xe4\xb1-C\xfd\x94W\xc0\xe7\x10\xc0\x0f\xb3\xeb\xfb\xbf'
p1572
tp1573
bsS'secnames'
p1574
S'Cell[1].axon[177]'
p1575
sI94
I46
tp1576
a(F1.7993765107975015
S'Cell[2].dend[36] syn_ = new FastInhib(0.5)'
p1577
I2
(dp1578
g1559
F0.8333333333333333
sg1560
F46.0
sg1561
I94
sg1562
g7
(g8
(I0
tp1579
g10
tp1580
Rp1581
(I1
(I3
tp1582
g1569
I00
S'K\xba\xf197MS@x\x9ci1\xb7\x0b[@>\xa9\xa4\x14O1Y\xc0'
p1583
tp1584
bsg1574
S'Cell[1].axon[277]'
p1585
sI94
I142
tp1586
a(F0.4907223889769248
S'Cell[0].dend[10] syn_ = new AmpaNmda(0.5)'
p1587
I0
(dp1588
g1559
F0.11538461538461539
sg1560
F46.0
sg1561
I142
sg1562
g7
(g8
(I0
tp1589
g10
tp1590
Rp1591
(I1
(I3
tp1592
g1569
I00
S'\xbe0\xe9<:\xe0K@\xbd\xbcJH\x15\xc4q\xc0 \xc6LY\xa6\xac0@'
p1593
tp1594
bsg1574
S'Cell[2].axon[9]'
p1595
sI142
I46
tp1596
a(F2.4628864248588775
S'Cell[2].dend[27] syn_ = new FastInhib(0.928571428571)'
p1597
I2
(dp1598
S'seg'
p1599
F0.8333333333333333
sS'hostfrom'
p1600
F47.0
sS'gid'
p1601
I143
sS'coords'
p1602
g7
(g8
(I0
tp1603
g10
tp1604
Rp1605
(I1
(I3
tp1606
g14
(S'f8'
p1607
I0
I1
tp1608
Rp1609
(I3
S'<'
p1610
NNNI-1
I-1
I0
tp1611
bI00
S'6~\xd88\xc9\x8c&@W\xf1\x9f\xd9p\x11U@ZMgs(76@'
p1612
tp1613
bsS'secnames'
p1614
S'Cell[2].axon[112]'
p1615
sI143
I142
tp1616
a.