(lp0
(F1.4430195516213427
S'Cell[0].dend[17] syn_ = new ExpSid(0.9)'
p1
I0
(dp2
S'seg'
p3
F0.8333333333333333
sS'hostfrom'
p4
F1.0
sS'gid'
p5
I145
sS'coords'
p6
cnumpy.core.multiarray
_reconstruct
p7
(cnumpy
ndarray
p8
(I0
tp9
S'b'
p10
tp11
Rp12
(I1
(I3
tp13
cnumpy
dtype
p14
(S'f8'
p15
I0
I1
tp16
Rp17
(I3
S'<'
p18
NNNI-1
I-1
I0
tp19
bI00
S"\xb4'\x1dZ\xb6\xfdR\xc0\x8c\\o\xe0\xf5\xb9H\xc0c\xd1\x15KhJQ\xc0"
p20
tp21
bsS'secnames'
p22
S'Cell[3].axon[154]'
p23
sI145
I25
tp24
a(F2.335250989306919
S'Cell[3].dend[14] syn_ = new FastInhib(0.5)'
p25
I3
(dp26
g3
F0.8333333333333333
sg4
F1.0
sg5
I97
sg6
g7
(g8
(I0
tp27
g10
tp28
Rp29
(I1
(I3
tp30
g17
I00
S'\x0c\xf6e\xd9\x1e\xbc(@\xc5S5\xf1\xc6\x14G\xc0\x1f\xa4\x11W\xfa\xad\x1d\xc0'
p31
tp32
bsg22
S'Cell[2].axon[27]'
p33
sI97
I169
tp34
a(F2.043022789044334
S'Cell[0].apic[13] syn_ = new AmpaNmda(0.9)'
p35
I0
(dp36
S'seg'
p37
F0.5
sS'hostfrom'
p38
F2.0
sS'gid'
p39
I98
sS'coords'
p40
g7
(g8
(I0
tp41
g10
tp42
Rp43
(I1
(I3
tp44
g14
(S'f8'
p45
I0
I1
tp46
Rp47
(I3
S'<'
p48
NNNI-1
I-1
I0
tp49
bI00
S'\xc2\xf1\x81\xdd}$(\xc0\x00\x00\x00\xc0\xf5\x18S@\x00\x00\x00\x80\xc2\xf5\xf4\xbf'
p50
tp51
bsS'secnames'
p52
S'Cell[2].axon[367]'
p53
sI98
I25
tp54
a(F2.3846856633152274
S'Cell[3].dend[1] syn_ = new FastInhib(0.166666666667)'
p55
I3
(dp56
g37
F0.16666666666666666
sg38
F2.0
sg39
I146
sg40
g7
(g8
(I0
tp57
g10
tp58
Rp59
(I1
(I3
tp60
g47
I00
S'?\xb7~k1\x0e^\xc0Y\xb0\x7f\x8b\xb2\xf39\xc0\xbd\xaf\x00\xba\xe7\xb0\x13@'
p61
tp62
bsg52
S'Cell[3].axon[320]'
p63
sI146
I169
tp64
a(F2.043022789044334
S'Cell[0].apic[13] syn_ = new ExpSid(0.9)'
p65
I0
(dp66
S'seg'
p67
F0.5
sS'hostfrom'
p68
F3.0
sS'gid'
p69
I99
sS'coords'
p70
g7
(g8
(I0
tp71
g10
tp72
Rp73
(I1
(I3
tp74
g14
(S'f8'
p75
I0
I1
tp76
Rp77
(I3
S'<'
p78
NNNI-1
I-1
I0
tp79
bI00
S'\xc2\xf1\x81\xdd}$(\xc0\x00\x00\x00\xc0\xf5\x18S@\x00\x00\x00\x80\xc2\xf5\xf4\xbf'
p80
tp81
bsS'secnames'
p82
S'Cell[2].axon[367]'
p83
sI99
I25
tp84
a(F1.8037182915146242
S'Cell[2].dend[42] syn_ = new FastInhib(0.166666666667)'
p85
I2
(dp86
g67
F0.7
sg68
F3.0
sg69
I51
sg70
g7
(g8
(I0
tp87
g10
tp88
Rp89
(I1
(I3
tp90
g77
I00
S'\xf7N\xe2q+?+@-\xff4\xb5}\x8a\x19@\x88\xa6Z\xc3;WP\xc0'
p91
tp92
bsg82
S'Cell[1].axon[38]'
p93
sI51
I121
tp94
a(F2.411354928605028
S'Cell[3].dend[4] syn_ = new FastInhib(0.5)'
p95
I3
(dp96
g67
F0.5
sg68
F3.0
sg69
I147
sg70
g7
(g8
(I0
tp97
g10
tp98
Rp99
(I1
(I3
tp100
g77
I00
S'\xec\xed\xadK\n\x04J\xc0\xe2\xbd\xb2\xed\x0bAN\xc05\xfe\xa0\xea\x1aV%\xc0'
p101
tp102
bsg82
S'Cell[3].axon[99]'
p103
sI147
I169
tp104
a(F1.0449065012498349
S'Cell[2].dend[48] syn_ = new FastInhib(0.166666666667)'
p105
I2
(dp106
g67
F0.7857142857142856
sg68
F3.0
sg69
I147
sg70
g7
(g8
(I0
tp107
g10
tp108
Rp109
(I1
(I3
tp110
g77
I00
S'!\xc4\xbe\xdd\xd4\xbe`\xc0LN+Vl\x19#@\x18>\xc1\xf9\xc9H%\xc0'
p111
tp112
bsg82
S'Cell[3].axon[141]'
p113
sI147
I121
tp114
a(F1.8206651471438693
S'Cell[0].dend[6] syn_ = new AmpaNmda(0.5)'
p115
I0
(dp116
S'seg'
p117
F0.16666666666666666
sS'hostfrom'
p118
F4.0
sS'gid'
p119
I148
sS'coords'
p120
g7
(g8
(I0
tp121
g10
tp122
Rp123
(I1
(I3
tp124
g14
(S'f8'
p125
I0
I1
tp126
Rp127
(I3
S'<'
p128
NNNI-1
I-1
I0
tp129
bI00
S'\xe4\x9c\x9a\xdc\x93rF@P\xafJ\x9d\x13VA\xc0\x18\xc4\xf6\xfb\x8a\xda\x1d@'
p130
tp131
bsS'secnames'
p132
S'Cell[3].axon[326]'
p133
sI148
I25
tp134
a(F2.0150939986454786
S'Cell[3].dend[65] syn_ = new FastInhib(0.5)'
p135
I3
(dp136
S'seg'
p137
F0.8333333333333333
sS'hostfrom'
p138
F5.0
sS'gid'
p139
I149
sS'coords'
p140
g7
(g8
(I0
tp141
g10
tp142
Rp143
(I1
(I3
tp144
g14
(S'f8'
p145
I0
I1
tp146
Rp147
(I3
S'<'
p148
NNNI-1
I-1
I0
tp149
bI00
S'\xbb\x03\xd0\xb9?\x11#\xc0A;\x9af\x8a\xf0C\xc0\xac-&\xa5\xe3k\xef\xbf'
p150
tp151
bsS'secnames'
p152
S'Cell[3].axon[7]'
p153
sI149
I169
tp154
a(F1.3656287184710176
S'Cell[0].dend[6] syn_ = new ExpSid(0.5)'
p155
I0
(dp156
g137
F0.16666666666666666
sg138
F5.0
sg139
I53
sg140
g7
(g8
(I0
tp157
g10
tp158
Rp159
(I1
(I3
tp160
g147
I00
S'\x9f/\x96\xec]nF@\xa9\xaf\x94\x8e\x9c\xcdB\xc0\x00\x00\x00`\x8fB @'
p161
tp162
bsg152
S'Cell[1].axon[0]'
p163
sI53
I25
tp164
a(F1.8387762957815006
S'Cell[2].dend[14] syn_ = new FastInhib(0.5)'
p165
I2
(dp166
S'seg'
p167
F0.1
sS'hostfrom'
p168
F6.0
sS'gid'
p169
I102
sS'coords'
p170
g7
(g8
(I0
tp171
g10
tp172
Rp173
(I1
(I3
tp174
g14
(S'f8'
p175
I0
I1
tp176
Rp177
(I3
S'<'
p178
NNNI-1
I-1
I0
tp179
bI00
S'\x1cb@\x83<\xf9D\xc0\x14\xfb\xe6Z\n\xe6E\xc0\x00\x00\x00\xc0\xccL-\xc0'
p180
tp181
bsS'secnames'
p182
S'Cell[2].axon[38]'
p183
sI102
I121
tp184
a(F1.4604545057966878
S'Cell[2].apic[1] syn_ = new FastInhib(0.5)'
p185
I2
(dp186
g167
F0.5
sg168
F6.0
sg169
I102
sg170
g7
(g8
(I0
tp187
g10
tp188
Rp189
(I1
(I3
tp190
g177
I00
S'\xbe\xda\xd5\xe5\xfb\x1eA\xc0\xd8\xbd\xdfv\xea\x1aS\xc0\x00\x00\x00\x00)\\-\xc0'
p191
tp192
bsg182
S'Cell[2].axon[38]'
p193
sI102
I121
tp194
a(F2.2195690732374658
S'Cell[0].dend[18] syn_ = new AmpaNmda(0.833333333333)'
p195
I0
(dp196
g167
F0.7
sg168
F6.0
sg169
I150
sg170
g7
(g8
(I0
tp197
g10
tp198
Rp199
(I1
(I3
tp200
g177
I00
S'\x9c\x00\x92\x06\xf5e4\xc0\xda;\xbe\xc0@\x88-\xc0\\b\xda\xccX\xceE\xc0'
p201
tp202
bsg182
S'Cell[3].axon[104]'
p203
sI150
I25
tp204
a(F2.4401893648905686
S'Cell[0].dend[10] syn_ = new AmpaNmda(0.5)'
p205
I0
(dp206
g167
F0.16666666666666666
sg168
F6.0
sg169
I150
sg170
g7
(g8
(I0
tp207
g10
tp208
Rp209
(I1
(I3
tp210
g177
I00
S'r\x8b\n\xee\xfcs>@\xb5L\xa4\xed\x1eb \xc0\x00\x00\x00\x80\x14\xee>\xc0'
p211
tp212
bsg182
S'Cell[3].axon[175]'
p213
sI150
I25
tp214
a(F1.644051320576549
S'Cell[0].dend[23] syn_ = new AmpaNmda(0.166666666667)'
p215
I0
(dp216
g167
F0.5
sg168
F6.0
sg169
I150
sg170
g7
(g8
(I0
tp217
g10
tp218
Rp219
(I1
(I3
tp220
g177
I00
S'\x0b\x0f\xfdU\xc0\xdb@@\x97\xb8\xc0\xe7\x9b\x15\xe2\xbf\x00\x00\x00\x80\x14\xee>\xc0'
p221
tp222
bsg182
S'Cell[3].axon[176]'
p223
sI150
I25
tp224
a(F2.431531795957319
S'Cell[3].dend[23] syn_ = new FastInhib(0.166666666667)'
p225
I3
(dp226
g167
F0.5
sg168
F6.0
sg169
I150
sg170
g7
(g8
(I0
tp227
g10
tp228
Rp229
(I1
(I3
tp230
g177
I00
S'?\xc2\x14odk5@\xad\xbb\xaa\x91\xc6\xe3N\xc0\x00\x00\x00\x80\x14\xee>\xc0'
p231
tp232
bsg182
S'Cell[3].axon[199]'
p233
sI150
I169
tp234
a(F2.0390713817818695
S'Cell[3].dend[10] syn_ = new FastInhib(0.166666666667)'
p235
I3
(dp236
S'seg'
p237
F0.5
sS'hostfrom'
p238
F7.0
sS'gid'
p239
I103
sS'coords'
p240
g7
(g8
(I0
tp241
g10
tp242
Rp243
(I1
(I3
tp244
g14
(S'f8'
p245
I0
I1
tp246
Rp247
(I3
S'<'
p248
NNNI-1
I-1
I0
tp249
bI00
S'\xfc8&\x0b+\x9fW\xc0\x12Z>!\xf5,F\xc0l\xfb2\xab?\xa5@\xc0'
p250
tp251
bsS'secnames'
p252
S'Cell[2].axon[81]'
p253
sI103
I169
tp254
a(F2.3189218804435
S'Cell[1].apic[11] syn_ = new ExpSid(0.833333333333)'
p255
I1
(dp256
g237
F0.5
sg238
F7.0
sg239
I103
sg240
g7
(g8
(I0
tp257
g10
tp258
Rp259
(I1
(I3
tp260
g247
I00
S'\xaaDP\xde\xbc\x89\xf7?jC\xbfP\xb7\xf7h@0\xa6\x85t\x0fh+\xc0'
p261
tp262
bsg252
S'Cell[2].axon[323]'
p263
sI103
I73
tp264
a(F1.2948423673442175
S'Cell[0].apic[4] syn_ = new ExpSid(0.5)'
p265
I0
(dp266
g237
F0.5
sg238
F7.0
sg239
I103
sg240
g7
(g8
(I0
tp267
g10
tp268
Rp269
(I1
(I3
tp270
g247
I00
S'<\x93\xd6\xf8\x82_J@\x9cW5\xc0a5b@\x00\x00\x00\xc0\xf5("\xc0'
p271
tp272
bsg252
S'Cell[2].axon[334]'
p273
sI103
I25
tp274
a(F1.9724901109738389
S'Cell[1].dend[5] syn_ = new ExpSid(0.5)'
p275
I1
(dp276
g237
F0.5
sg238
F7.0
sg239
I103
sg240
g7
(g8
(I0
tp277
g10
tp278
Rp279
(I1
(I3
tp280
g247
I00
S'\x1f\xd5/\x84\x7f\xd0Q@\x86\x82\x11\xd8\x9f\x9aN@\xe8\xf7\xb5}F\xa3,@'
p281
tp282
bsg252
S'Cell[2].axon[342]'
p283
sI103
I73
tp284
a(F1.7179514565373983
S'Cell[1].apic[11] syn_ = new ExpSid(0.833333333333)'
p285
I1
(dp286
g237
F0.30000000000000004
sg238
F7.0
sg239
I103
sg240
g7
(g8
(I0
tp287
g10
tp288
Rp289
(I1
(I3
tp290
g247
I00
S'\x18O\x95"\x87/\xf9?\xe63\xfa\xc5l\ti@\xb8\xd3\x99s\xc2V,\xc0'
p291
tp292
bsg252
S'Cell[2].axon[408]'
p293
sI103
I73
tp294
a(F2.237093052314001
S'Cell[3].dend[3] syn_ = new FastInhib(0.5)'
p295
I3
(dp296
g237
F0.8333333333333333
sg238
F7.0
sg239
I151
sg240
g7
(g8
(I0
tp297
g10
tp298
Rp299
(I1
(I3
tp300
g247
I00
S'\x13\xfe&\xfc\x0b\xb8C\xc0;\xd3fV\x07aB\xc0\xd7A\xe2\xb9Zz$\xc0'
p301
tp302
bsg252
S'Cell[3].axon[12]'
p303
sI151
I169
tp304
a(F2.057398545359791
S'Cell[0].dend[18] syn_ = new ExpSid(0.5)'
p305
I0
(dp306
g237
F0.16666666666666666
sg238
F7.0
sg239
I151
sg240
g7
(g8
(I0
tp307
g10
tp308
Rp309
(I1
(I3
tp310
g247
I00
S'5\xca\x80I\n\xaf\x02\xc0\xc0\x83\xd8\xd4\x17n*\xc0\x00\x00\x00\x00\xd7\xe3B\xc0'
p311
tp312
bsg252
S'Cell[3].axon[35]'
p313
sI151
I25
tp314
a(F1.7820814896460786
S'Cell[0].dend[3] syn_ = new ExpSid(0.833333333333)'
p315
I0
(dp316
g237
F0.5
sg238
F7.0
sg239
I151
sg240
g7
(g8
(I0
tp317
g10
tp318
Rp319
(I1
(I3
tp320
g247
I00
S'\x00\x00\x00`fF6\xc0\x00\x00\x00@3\xd3?@\x00\x00\x00@\nW+@'
p321
tp322
bsg252
S'Cell[3].axon[88]'
p323
sI151
I25
tp324
a(F1.7917043075452073
S'Cell[3].dend[28] syn_ = new FastInhib(0.5)'
p325
I3
(dp326
g237
F0.16666666666666666
sg238
F7.0
sg239
I151
sg240
g7
(g8
(I0
tp327
g10
tp328
Rp329
(I1
(I3
tp330
g247
I00
S'\x04v\xb2\x8f\xe6\x914\xc0\xd0\x14Q\x9c>P8\xc0\x933/\xfeb!1\xc0'
p331
tp332
bsg252
S'Cell[3].axon[127]'
p333
sI151
I169
tp334
a(F0.37839971433210506
S'Cell[2].dend[47] syn_ = new FastInhib(0.5)'
p335
I2
(dp336
S'seg'
p337
F0.10869565217391304
sS'hostfrom'
p338
F8.0
sS'gid'
p339
I8
sS'coords'
p340
g7
(g8
(I0
tp341
g10
tp342
Rp343
(I1
(I3
tp344
g14
(S'f8'
p345
I0
I1
tp346
Rp347
(I3
S'<'
p348
NNNI-1
I-1
I0
tp349
bI00
S'\x96x1\x05\xa8\xd2`\xc0\xe9\x86\x16\x8d\xff\xaa\x16@*{i_Z\x83"\xc0'
p350
tp351
bsS'secnames'
p352
S'Cell[0].axon[41]'
p353
sI8
I121
tp354
a(F1.0819340296612925
S'Cell[2].dend[31] syn_ = new FastInhib(0.166666666667)'
p355
I2
(dp356
g337
F0.5
sg338
F8.0
sg339
I152
sg340
g7
(g8
(I0
tp357
g10
tp358
Rp359
(I1
(I3
tp360
g347
I00
S'6\x1f/\xc4*\xa7$@\x7f\x94\xa4 \xab\xb4;\xc0\xb8\x91"I\x93\xed\xfd\xbf'
p361
tp362
bsg352
S'Cell[3].axon[519]'
p363
sI152
I121
tp364
a(F1.6975501677501033
S'Cell[0].dend[38] syn_ = new AmpaNmda(0.833333333333)'
p365
I0
(dp366
g337
F0.5
sg338
F8.0
sg339
I104
sg340
g7
(g8
(I0
tp367
g10
tp368
Rp369
(I1
(I3
tp370
g347
I00
S'\xf3\xdb]8]\xbf`@\xb1\x84\xd9w\xa7\xcaE\xc0\x00\x00\x00\xa0\x99\x99\x11\xc0'
p371
tp372
bsg352
S'Cell[2].axon[327]'
p373
sI104
I25
tp374
a(F1.3216673772048821
S'Cell[1].apic[5] syn_ = new AmpaNmda(0.5)'
p375
I1
(dp376
g337
F0.30000000000000004
sg338
F8.0
sg339
I104
sg340
g7
(g8
(I0
tp377
g10
tp378
Rp379
(I1
(I3
tp380
g347
I00
S'\xfe\x89\xa9\xb5v\x0c@@\xee\x98\x10\xc7\x87\x9b`@\x8e.\xef\xd0\n\x98\x1f@'
p381
tp382
bsg352
S'Cell[2].axon[434]'
p383
sI104
I73
tp384
a(F1.7528774082882672
S'Cell[2].dend[1] syn_ = new FastInhib(0.5)'
p385
I2
(dp386
g337
F0.7
sg338
F8.0
sg339
I104
sg340
g7
(g8
(I0
tp387
g10
tp388
Rp389
(I1
(I3
tp390
g347
I00
S'\xf2\x8d\xde\x9a\xfb\xd89\xc0\x08\xb4\xf2T\xb3\xc5S\xc0\x8e8aa\xb18U\xc0'
p391
tp392
bsg352
S'Cell[2].axon[445]'
p393
sI104
I121
tp394
a(F1.8262397754595299
S'Cell[2].dend[36] syn_ = new FastInhib(0.5)'
p395
I2
(dp396
S'seg'
p397
F0.16666666666666666
sS'hostfrom'
p398
F9.0
sS'gid'
p399
I105
sS'coords'
p400
g7
(g8
(I0
tp401
g10
tp402
Rp403
(I1
(I3
tp404
g14
(S'f8'
p405
I0
I1
tp406
Rp407
(I3
S'<'
p408
NNNI-1
I-1
I0
tp409
bI00
S'O-\xbe\xb4\xcb\xa1\x17@h\xcd\x94@\x15;\x0b\xc0\x00\x00\x00\x80=\x8a2\xc0'
p410
tp411
bsS'secnames'
p412
S'Cell[2].axon[41]'
p413
sI105
I121
tp414
a(F1.5779049179553446
S'Cell[3].dend[38] syn_ = new FastInhib(0.166666666667)'
p415
I3
(dp416
g397
F0.7
sg398
F9.0
sg399
I105
sg400
g7
(g8
(I0
tp417
g10
tp418
Rp419
(I1
(I3
tp420
g407
I00
S'\xb5\xea\x93\xb4\x10\xa8$\xc0[\xac\xa2\xfbt\x10;\xc0\x89\xbff\x0ckj?\xc0'
p421
tp422
bsg412
S'Cell[2].axon[80]'
p423
sI105
I169
tp424
a(F2.3012742926454517
S'Cell[0].apic[13] syn_ = new AmpaNmda(0.9)'
p425
I0
(dp426
S'seg'
p427
F0.8999999999999999
sS'hostfrom'
p428
F10.0
sS'gid'
p429
I10
sS'coords'
p430
g7
(g8
(I0
tp431
g10
tp432
Rp433
(I1
(I3
tp434
g14
(S'f8'
p435
I0
I1
tp436
Rp437
(I3
S'<'
p438
NNNI-1
I-1
I0
tp439
bI00
S'r.\x1f$\x85\xde\x1f\xc0A\xf1\x9eps\nS@(\x1d\x1c\xb1\xc3,\x01\xc0'
p440
tp441
bsS'secnames'
p442
S'Cell[0].axon[15]'
p443
sI10
I25
tp444
a(F2.167986984170117
S'Cell[3].dend[47] syn_ = new FastInhib(0.5)'
p445
I3
(dp446
g427
F0.5
sg428
F10.0
sg429
I106
sg430
g7
(g8
(I0
tp447
g10
tp448
Rp449
(I1
(I3
tp450
g437
I00
S'x\xdf\xdc\xf00\x88\x17\xc0\xa3f\xa3\x86T\xaeQ\xc0(\x98y\xea\xa3\xf2B\xc0'
p451
tp452
bsg442
S'Cell[2].axon[33]'
p453
sI106
I169
tp454
a(F2.1874770070788325
S'Cell[0].dend[12] syn_ = new AmpaNmda(0.5)'
p455
I0
(dp456
g427
F0.16666666666666666
sg428
F10.0
sg429
I106
sg430
g7
(g8
(I0
tp457
g10
tp458
Rp459
(I1
(I3
tp460
g437
I00
S"\xce\x89\x9b5\xb0\xa2<@\x16n'\xc1}\xda>\xc0|N\xe1\xa8\xa5\x8bC\xc0"
p461
tp462
bsg442
S'Cell[2].axon[80]'
p463
sI106
I25
tp464
a(F2.46956520671273
S'Cell[3].dend[23] syn_ = new FastInhib(0.833333333333)'
p465
I3
(dp466
g427
F0.5
sg428
F10.0
sg429
I106
sg430
g7
(g8
(I0
tp467
g10
tp468
Rp469
(I1
(I3
tp470
g437
I00
S'\r<\xc1\x01KK?@;]cH\xa5]P\xc0Y\xc8E\xea\x13kH\xc0'
p471
tp472
bsg442
S'Cell[2].axon[88]'
p473
sI106
I169
tp474
a(F0.8547706298763071
S'Cell[1].apic[1] syn_ = new AmpaNmda(0.5)'
p475
I1
(dp476
g427
F0.8333333333333333
sg428
F10.0
sg429
I106
sg430
g7
(g8
(I0
tp477
g10
tp478
Rp479
(I1
(I3
tp480
g437
I00
S'\xb9\x0f\x9f\xcf+<#@\xc5;\xeb\xee\tE]@\x00\x00\x00@3\xb33@'
p481
tp482
bsg442
S'Cell[2].axon[197]'
p483
sI106
I73
tp484
a(F1.0729459937917765
S'Cell[0].dend[11] syn_ = new AmpaNmda(0.5)'
p485
I0
(dp486
g427
F0.5
sg428
F10.0
sg429
I106
sg430
g7
(g8
(I0
tp487
g10
tp488
Rp489
(I1
(I3
tp490
g437
I00
S'\xd1q\xd8koO7@/\x859O\xfc$2\xc0\xec\x0b_\x94m\x14@\xc0'
p491
tp492
bsg442
S'Cell[2].axon[281]'
p493
sI106
I25
tp494
a(F2.471049245685963
S'Cell[3].dend[66] syn_ = new FastInhib(0.5)'
p495
I3
(dp496
S'seg'
p497
F0.16666666666666666
sS'hostfrom'
p498
F11.0
sS'gid'
p499
I59
sS'coords'
p500
g7
(g8
(I0
tp501
g10
tp502
Rp503
(I1
(I3
tp504
g14
(S'f8'
p505
I0
I1
tp506
Rp507
(I3
S'<'
p508
NNNI-1
I-1
I0
tp509
bI00
S'\xda\xbf\xc1zUA"@$r\x7f\x83\x0c\xbb2\xc0\xf6\x1c&fC\x94 @'
p510
tp511
bsS'secnames'
p512
S'Cell[1].axon[58]'
p513
sI59
I169
tp514
a(F1.3277175389016438
S'Cell[0].dend[1] syn_ = new ExpSid(0.5)'
p515
I0
(dp516
g497
F0.8333333333333333
sg498
F11.0
sg499
I155
sg500
g7
(g8
(I0
tp517
g10
tp518
Rp519
(I1
(I3
tp520
g507
I00
S':\xe9W\xa1\xc2M=@\xb8:\x05\xe0x?\x0b\xc0\x046\x08y9\x95"@'
p521
tp522
bsg512
S'Cell[3].axon[157]'
p523
sI155
I25
tp524
a(F1.0564750289045013
S'Cell[3].dend[26] syn_ = new FastInhib(0.5)'
p525
I3
(dp526
g497
F0.16666666666666666
sg498
F11.0
sg499
I155
sg500
g7
(g8
(I0
tp527
g10
tp528
Rp529
(I1
(I3
tp530
g507
I00
S'\xe9^\x16\x90C\xba%@f[\xe9\x9c\x9c\xa8J\xc0\x88\x00\xecb~\x83D\xc0'
p531
tp532
bsg512
S'Cell[3].axon[242]'
p533
sI155
I169
tp534
a(F1.9556977118244392
S'Cell[3].dend[66] syn_ = new FastInhib(0.5)'
p535
I3
(dp536
S'seg'
p537
F0.16666666666666666
sS'hostfrom'
p538
F14.0
sS'gid'
p539
I14
sS'coords'
p540
g7
(g8
(I0
tp541
g10
tp542
Rp543
(I1
(I3
tp544
g14
(S'f8'
p545
I0
I1
tp546
Rp547
(I3
S'<'
p548
NNNI-1
I-1
I0
tp549
bI00
S'E/:7\x17\xfb&@\x99vJ\x83?\x084\xc0\x07\xbf\xe8H/\xe9 @'
p550
tp551
bsS'secnames'
p552
S'Cell[0].axon[0]'
p553
sI14
I169
tp554
a(F1.8757499790782883
S'Cell[0].dend[0] syn_ = new ExpSid(0.5)'
p555
I0
(dp556
S'seg'
p557
F0.5
sS'hostfrom'
p558
F15.0
sS'gid'
p559
I111
sS'coords'
p560
g7
(g8
(I0
tp561
g10
tp562
Rp563
(I1
(I3
tp564
g14
(S'f8'
p565
I0
I1
tp566
Rp567
(I3
S'<'
p568
NNNI-1
I-1
I0
tp569
bI00
S'\x00\x00\x00\xd0\xcc\xccA@\x00\x00\x00\x80\xebQ\xe0?\xff\xff\xff\x7f\xc2\xf5\x0c\xc0'
p570
tp571
bsS'secnames'
p572
S'Cell[2].soma[0]'
p573
sI111
I25
tp574
a(F2.048777072093042
S'Cell[1].apic[0] syn_ = new ExpSid(0.5)'
p575
I1
(dp576
g557
F0.5
sg558
F15.0
sg559
I159
sg560
g7
(g8
(I0
tp577
g10
tp578
Rp579
(I1
(I3
tp580
g567
I00
S'v\x18\x02\x9f7\x99+@\xd1\nv\x91=G[@\xd1\xf8\xdd9W\xdf8@'
p581
tp582
bsg572
S'Cell[3].axon[52]'
p583
sI159
I73
tp584
a(F2.304565922080635
S'Cell[0].dend[8] syn_ = new AmpaNmda(0.5)'
p585
I0
(dp586
S'seg'
p587
F0.5
sS'hostfrom'
p588
F16.0
sS'gid'
p589
I112
sS'coords'
p590
g7
(g8
(I0
tp591
g10
tp592
Rp593
(I1
(I3
tp594
g14
(S'f8'
p595
I0
I1
tp596
Rp597
(I3
S'<'
p598
NNNI-1
I-1
I0
tp599
bI00
S'\xd3\x06\xd9\t\xf1JB@\xea\x1a\x94\x98\xfe\x0b\xdb?\xb2}\xa4\x88Y]%@'
p600
tp601
bsS'secnames'
p602
S'Cell[2].axon[5]'
p603
sI112
I25
tp604
a(F1.8184337105033601
S'Cell[0].apic[2] syn_ = new AmpaNmda(0.5)'
p605
I0
(dp606
g587
F0.7
sg588
F16.0
sg589
I112
sg590
g7
(g8
(I0
tp607
g10
tp608
Rp609
(I1
(I3
tp610
g597
I00
S'\xf9-\x8c.k"N@&\x0c\x94V\xef\xb0Q@\xbe\xf7\x13\x12\xaem(\xc0'
p611
tp612
bsg602
S'Cell[2].axon[84]'
p613
sI112
I25
tp614
a(F2.4627853217107907
S'Cell[2].dend[39] syn_ = new FastInhib(0.7)'
p615
I2
(dp616
g587
F0.5
sg588
F16.0
sg589
I112
sg590
g7
(g8
(I0
tp617
g10
tp618
Rp619
(I1
(I3
tp620
g597
I00
S'E\xbeY\x89\xe4\x89$\xc0\x9cO\xed\x1f\xf5\xd1X@\xb8j\xff\xeeA\x8dF\xc0'
p621
tp622
bsg602
S'Cell[2].axon[236]'
p623
sI112
I121
tp624
a(F2.1015507540488216
S'Cell[2].apic[13] syn_ = new FastInhib(0.166666666667)'
p625
I2
(dp626
S'seg'
p627
F0.5
sS'hostfrom'
p628
F17.0
sS'gid'
p629
I113
sS'coords'
p630
g7
(g8
(I0
tp631
g10
tp632
Rp633
(I1
(I3
tp634
g14
(S'f8'
p635
I0
I1
tp636
Rp637
(I3
S'<'
p638
NNNI-1
I-1
I0
tp639
bI00
S'\xec\x11\x94\x02\xfb\xc1P\xc0\r\x91\xb5\xb5\xf0\xfdY\xc0\x00\x00\x00\xc0\xcc\xcc\x1b\xc0'
p640
tp641
bsS'secnames'
p642
S'Cell[2].axon[280]'
p643
sI113
I121
tp644
a(F1.6114987143294033
S'Cell[0].apic[14] syn_ = new ExpSid(0.5)'
p645
I0
(dp646
g627
F0.16666666666666666
sg628
F17.0
sg629
I161
sg630
g7
(g8
(I0
tp647
g10
tp648
Rp649
(I1
(I3
tp650
g637
I00
S'N\xc9u\xf36\xf87@\xee\x05/\x00\x04\x17\\@\xc0\xfdf\xef\x94D0\xc0'
p651
tp652
bsg642
S'Cell[3].axon[224]'
p653
sI161
I25
tp654
a(F2.4677140010787406
S'Cell[2].dend[28] syn_ = new FastInhib(0.5)'
p655
I2
(dp656
S'seg'
p657
F0.5
sS'hostfrom'
p658
F18.0
sS'gid'
p659
I114
sS'coords'
p660
g7
(g8
(I0
tp661
g10
tp662
Rp663
(I1
(I3
tp664
g14
(S'f8'
p665
I0
I1
tp666
Rp667
(I3
S'<'
p668
NNNI-1
I-1
I0
tp669
bI00
S'.\x1c\xc0\xf3p\xaf2\xc0:\xd6\xf0\xf5\xf0\\D\xc0\x00\x00\x00\xa0p=\xfe\xbf'
p670
tp671
bsS'secnames'
p672
S'Cell[2].axon[77]'
p673
sI114
I121
tp674
a(F1.8128033044414291
S'Cell[3].dend[30] syn_ = new FastInhib(0.5)'
p675
I3
(dp676
g657
F0.16666666666666666
sg658
F18.0
sg659
I162
sg660
g7
(g8
(I0
tp677
g10
tp678
Rp679
(I1
(I3
tp680
g667
I00
S'\xc6\xea\x1e\xf5@\xb17\xc0\x0bh[\xc1\xe6\x95=\xc0D\xbd\x89\xf8\x1a\x17:\xc0'
p681
tp682
bsg672
S'Cell[3].axon[104]'
p683
sI162
I169
tp684
a(F1.137003838370876
S'Cell[1].apic[6] syn_ = new ExpSid(0.5)'
p685
I1
(dp686
S'seg'
p687
F0.5
sS'hostfrom'
p688
F19.0
sS'gid'
p689
I115
sS'coords'
p690
g7
(g8
(I0
tp691
g10
tp692
Rp693
(I1
(I3
tp694
g14
(S'f8'
p695
I0
I1
tp696
Rp697
(I3
S'<'
p698
NNNI-1
I-1
I0
tp699
bI00
S'@{\x08\xf4\xc1\xd24@\xc9M\x05\x04Mqa@\xda"I\x8aPN7@'
p700
tp701
bsS'secnames'
p702
S'Cell[2].axon[171]'
p703
sI115
I73
tp704
a(F2.424241025888209
S'Cell[2].dend[39] syn_ = new FastInhib(0.7)'
p705
I2
(dp706
g687
F0.5
sg688
F19.0
sg689
I115
sg690
g7
(g8
(I0
tp707
g10
tp708
Rp709
(I1
(I3
tp710
g697
I00
S"\xb6\xa50\x04\xfc'%\xc0z[\xd8\n\xcbVY@\x85\xed0x\x16\x90E\xc0"
p711
tp712
bsg702
S'Cell[2].axon[241]'
p713
sI115
I121
tp714
a(F2.1422004491019724
S'Cell[0].dend[5] syn_ = new AmpaNmda(0.5)'
p715
I0
(dp716
S'seg'
p717
F0.1
sS'hostfrom'
p718
F20.0
sS'gid'
p719
I68
sS'coords'
p720
g7
(g8
(I0
tp721
g10
tp722
Rp723
(I1
(I3
tp724
g14
(S'f8'
p725
I0
I1
tp726
Rp727
(I3
S'<'
p728
NNNI-1
I-1
I0
tp729
bI00
S'\x02\x96\x0c\xc6%JB@_VR\xc0.\x8c\x19\xc0\x13h\xdfd\xbf\xb1*@'
p730
tp731
bsS'secnames'
p732
S'Cell[1].axon[8]'
p733
sI68
I25
tp734
a(F1.669810034965971
S'Cell[3].dend[30] syn_ = new FastInhib(0.5)'
p735
I3
(dp736
g717
F0.30000000000000004
sg718
F20.0
sg719
I68
sg720
g7
(g8
(I0
tp737
g10
tp738
Rp739
(I1
(I3
tp740
g727
I00
S'?V\x89W\xd5E6\xc0\xc4\x0c\xf6L\xbe\xc1>\xc0\x00\x00\x00@\n\x97;\xc0'
p741
tp742
bsg732
S'Cell[1].axon[30]'
p743
sI68
I169
tp744
a(F2.444247215192628
S'Cell[0].dend[35] syn_ = new ExpSid(0.1)'
p745
I0
(dp746
S'seg'
p747
F0.8333333333333333
sS'hostfrom'
p748
F21.0
sS'gid'
p749
I165
sS'coords'
p750
g7
(g8
(I0
tp751
g10
tp752
Rp753
(I1
(I3
tp754
g14
(S'f8'
p755
I0
I1
tp756
Rp757
(I3
S'<'
p758
NNNI-1
I-1
I0
tp759
bI00
S'+\x9f\xa1\xdc\xa5UW@\x0eND\xb6\xad=)\xc0\xae\x9c\x82LI\x92?\xc0'
p760
tp761
bsS'secnames'
p762
S'Cell[3].axon[163]'
p763
sI165
I25
tp764
a(F2.330937816385289
S'Cell[2].dend[30] syn_ = new FastInhib(0.5)'
p765
I2
(dp766
g747
F0.21428571428571427
sg748
F21.0
sg749
I117
sg750
g7
(g8
(I0
tp767
g10
tp768
Rp769
(I1
(I3
tp770
g757
I00
S'\x18\x18;\xb1:\x8a\x03\xc0\xcb\xf0Unn:@\xc0\x0e\x89\x1d7\x1cU \xc0'
p771
tp772
bsg762
S'Cell[2].axon[360]'
p773
sI117
I121
tp774
a(F1.1193386561629886
S'Cell[0].dend[14] syn_ = new AmpaNmda(0.833333333333)'
p775
I0
(dp776
S'seg'
p777
F0.5
sS'hostfrom'
p778
F22.0
sS'gid'
p779
I118
sS'coords'
p780
g7
(g8
(I0
tp781
g10
tp782
Rp783
(I1
(I3
tp784
g14
(S'f8'
p785
I0
I1
tp786
Rp787
(I3
S'<'
p788
NNNI-1
I-1
I0
tp789
bI00
S'"?\xcbs\x83&G@b1\x0e\xfd9qY\xc0(\x91\x02=\xd3\xd8>\xc0'
p790
tp791
bsS'secnames'
p792
S'Cell[2].axon[218]'
p793
sI118
I25
tp794
a(F2.2979453952703497
S'Cell[1].apic[13] syn_ = new AmpaNmda(0.5)'
p795
I1
(dp796
g777
F0.8333333333333333
sg778
F22.0
sg779
I166
sg780
g7
(g8
(I0
tp797
g10
tp798
Rp799
(I1
(I3
tp800
g787
I00
S'\x9c\xfa\x9d\xe3\xe9T\n@t\x03\xf9\xb0E\x86j@\xffA\x83"G\xde0\xc0'
p801
tp802
bsg792
S'Cell[3].axon[40]'
p803
sI166
I73
tp804
a(F1.8806657496576775
S'Cell[1].apic[1] syn_ = new AmpaNmda(0.5)'
p805
I1
(dp806
g777
F0.5
sg778
F22.0
sg779
I166
sg780
g7
(g8
(I0
tp807
g10
tp808
Rp809
(I1
(I3
tp810
g787
I00
S"\xff65\xcd\xd5/ @\x15Wk\xdf\x1f']@\xf7\xb7\xfa\xc2\xc4\x9e5@"
p811
tp812
bsg792
S'Cell[3].axon[95]'
p813
sI166
I73
tp814
a(F1.9697959993042575
S'Cell[1].dend[2] syn_ = new ExpSid(0.5)'
p815
I1
(dp816
S'seg'
p817
F0.6428571428571428
sS'hostfrom'
p818
F23.0
sS'gid'
p819
I119
sS'coords'
p820
g7
(g8
(I0
tp821
g10
tp822
Rp823
(I1
(I3
tp824
g14
(S'f8'
p825
I0
I1
tp826
Rp827
(I3
S'<'
p828
NNNI-1
I-1
I0
tp829
bI00
S'\xb5\x1e\xefE<\x8a1\xc0 L\xb8\x0e\xffuY@\xf3\xe3-\x8b\x98\xd1C@'
p830
tp831
bsS'secnames'
p832
S'Cell[2].axon[118]'
p833
sI119
I73
tp834
a(F2.3439582727867783
S'Cell[3].dend[66] syn_ = new FastInhib(0.166666666667)'
p835
I3
(dp836
g817
F0.8333333333333333
sg818
F23.0
sg819
I71
sg820
g7
(g8
(I0
tp837
g10
tp838
Rp839
(I1
(I3
tp840
g827
I00
S'\xabrR-\xc1\xf7\x94?\xf9d\xd4v\xff1?\xc0I4G\xe3\xa0\t\x19@'
p841
tp842
bsg832
S'Cell[1].axon[0]'
p843
sI71
I169
tp844
a(F2.338054905982639
S'Cell[2].dend[28] syn_ = new FastInhib(0.5)'
p845
I2
(dp846
g817
F0.5
sg818
F23.0
sg819
I167
sg820
g7
(g8
(I0
tp847
g10
tp848
Rp849
(I1
(I3
tp850
g827
I00
S'\x00\x00\x00@\n\x174\xc0\x00\x00\x00@\n\x97C\xc0\x00\x00\x00\xa0p=\xfe\xbf'
p851
tp852
bsg832
S'Cell[3].soma[0]'
p853
sI167
I121
tp854
a(F1.7455215651400098
S'Cell[2].dend[33] syn_ = new FastInhib(0.5)'
p855
I2
(dp856
S'seg'
p857
F0.5
sS'hostfrom'
p858
F24.0
sS'gid'
p859
I120
sS'coords'
p860
g7
(g8
(I0
tp861
g10
tp862
Rp863
(I1
(I3
tp864
g14
(S'f8'
p865
I0
I1
tp866
Rp867
(I3
S'<'
p868
NNNI-1
I-1
I0
tp869
bI00
S'~\x1b\x16e+b$\xc0\xf0^\xbe\xd4\xef\x17>\xc0\x19\xea\x08^\x9c\x05\xe4?'
p870
tp871
bsS'secnames'
p872
S'Cell[2].axon[288]'
p873
sI120
I121
tp874
a(F1.5866450949876745
S'Cell[0].dend[2] syn_ = new ExpSid(0.833333333333)'
p875
I0
(dp876
S'seg'
p877
F0.5
sS'hostfrom'
p878
F25.0
sS'gid'
p879
I169
sS'coords'
p880
g7
(g8
(I0
tp881
g10
tp882
Rp883
(I1
(I3
tp884
g14
(S'f8'
p885
I0
I1
tp886
Rp887
(I3
S'<'
p888
NNNI-1
I-1
I0
tp889
bI00
S'\x00\x00\x00 R\xb84\xc0\x00\x00\x00`\x8f\x12C\xc0\x00\x00\x00P\xb8~3@'
p890
tp891
bsS'secnames'
p892
S'Cell[3].axon[228]'
p893
sI169
I25
tp894
a(F1.6317118873457295
S'Cell[2].dend[30] syn_ = new FastInhib(0.5)'
p895
I2
(dp896
S'seg'
p897
F0.5
sS'hostfrom'
p898
F26.0
sS'gid'
p899
I26
sS'coords'
p900
g7
(g8
(I0
tp901
g10
tp902
Rp903
(I1
(I3
tp904
g14
(S'f8'
p905
I0
I1
tp906
Rp907
(I3
S'<'
p908
NNNI-1
I-1
I0
tp909
bI00
S">E\x88\x17\xe3:\x06\xc0\xf6\xa4O\r\xe0\xf5=\xc0\x92'\xe2\xd24\xe6\x1d\xc0"
p910
tp911
bsS'secnames'
p912
S'Cell[0].axon[75]'
p913
sI26
I121
tp914
a(F1.7651485778424112
S'Cell[2].dend[44] syn_ = new FastInhib(0.5)'
p915
I2
(dp916
g897
F0.8333333333333333
sg898
F26.0
sg899
I74
sg900
g7
(g8
(I0
tp917
g10
tp918
Rp919
(I1
(I3
tp920
g907
I00
S"\xe5\x84\n\xa4h\xfb=\xc0I\xd1'\x19]\x83@\xc0\x88\x02\xc0\xeeN\x9d#@"
p921
tp922
bsg912
S'Cell[1].axon[0]'
p923
sI74
I121
tp924
a(F1.6381058637022707
S'Cell[0].apic[12] syn_ = new AmpaNmda(0.214285714286)'
p925
I0
(dp926
g897
F0.5
sg898
F26.0
sg899
I170
sg900
g7
(g8
(I0
tp927
g10
tp928
Rp929
(I1
(I3
tp930
g907
I00
S'\x91[$K.j:@\x02\xac\xb4\x1aqBm@8~\xa6s\x928<\xc0'
p931
tp932
bsg912
S'Cell[3].axon[120]'
p933
sI170
I25
tp934
a(F1.8313126374179647
S'Cell[0].dend[30] syn_ = new ExpSid(0.5)'
p935
I0
(dp936
S'seg'
p937
F0.3571428571428571
sS'hostfrom'
p938
F27.0
sS'gid'
p939
I75
sS'coords'
p940
g7
(g8
(I0
tp941
g10
tp942
Rp943
(I1
(I3
tp944
g14
(S'f8'
p945
I0
I1
tp946
Rp947
(I3
S'<'
p948
NNNI-1
I-1
I0
tp949
bI00
S'A\xe8\xa5\xf7&\x89Q@`gc\xd2\xdb\x1f\xc6?\xa4\xe5dj=z4\xc0'
p950
tp951
bsS'secnames'
p952
S'Cell[1].axon[10]'
p953
sI75
I25
tp954
a(F2.006613884153453
S'Cell[0].dend[7] syn_ = new ExpSid(0.5)'
p955
I0
(dp956
g937
F0.5
sg938
F27.0
sg939
I171
sg940
g7
(g8
(I0
tp957
g10
tp958
Rp959
(I1
(I3
tp960
g947
I00
S'\xd5\x12\xc7\xa6\xbc\xd8E@\xc6n\xf9\xc1d\xb5-@\x92=\xfc\x08\xb9\xf0&@'
p961
tp962
bsg952
S'Cell[3].axon[16]'
p963
sI171
I25
tp964
a(F2.0277265372725153
S'Cell[3].dend[55] syn_ = new FastInhib(0.166666666667)'
p965
I3
(dp966
S'seg'
p967
F0.6111111111111112
sS'hostfrom'
p968
F28.0
sS'gid'
p969
I124
sS'coords'
p970
g7
(g8
(I0
tp971
g10
tp972
Rp973
(I1
(I3
tp974
g14
(S'f8'
p975
I0
I1
tp976
Rp977
(I3
S'<'
p978
NNNI-1
I-1
I0
tp979
bI00
S'I\x82=>g\x1dK\xc0\xe5\xa1\x1a\xfd76W\xc0\x12[TtK\x9eY\xc0'
p980
tp981
bsS'secnames'
p982
S'Cell[2].axon[5]'
p983
sI124
I169
tp984
a(F2.3098445624712114
S'Cell[0].dend[27] syn_ = new ExpSid(0.166666666667)'
p985
I0
(dp986
S'seg'
p987
F0.5
sS'hostfrom'
p988
F29.0
sS'gid'
p989
I77
sS'coords'
p990
g7
(g8
(I0
tp991
g10
tp992
Rp993
(I1
(I3
tp994
g14
(S'f8'
p995
I0
I1
tp996
Rp997
(I3
S'<'
p998
NNNI-1
I-1
I0
tp999
bI00
S'T2\xf8U\xa3~T@\xa2\xd4\x06\x95\xb5\xb2&\xc0\x8c\x1e\xbe\x16aq0@'
p1000
tp1001
bsS'secnames'
p1002
S'Cell[1].axon[56]'
p1003
sI77
I25
tp1004
a(F2.4922199310018205
S'Cell[3].dend[47] syn_ = new FastInhib(0.5)'
p1005
I3
(dp1006
S'seg'
p1007
F0.8999999999999999
sS'hostfrom'
p1008
F30.0
sS'gid'
p1009
I126
sS'coords'
p1010
g7
(g8
(I0
tp1011
g10
tp1012
Rp1013
(I1
(I3
tp1014
g14
(S'f8'
p1015
I0
I1
tp1016
Rp1017
(I3
S'<'
p1018
NNNI-1
I-1
I0
tp1019
bI00
S':\xa2\x84&\x08\x94\x03\xc0N\xb4?\xa5\xc6\x97Q\xc0\x9a\xe1(\x9d\x01\xdbB\xc0'
p1020
tp1021
bsS'secnames'
p1022
S'Cell[2].axon[91]'
p1023
sI126
I169
tp1024
a(F1.5974881184878276
S'Cell[3].dend[23] syn_ = new FastInhib(0.166666666667)'
p1025
I3
(dp1026
g1007
F0.8333333333333333
sg1008
F30.0
sg1009
I126
sg1010
g7
(g8
(I0
tp1027
g10
tp1028
Rp1029
(I1
(I3
tp1030
g1017
I00
S'J\xbcM\xf0\x0e\xed3@\x92\xb2\x91\xa8\xe2\xa4N\xc0>\x1c\x11\x9b\xcc\x03@\xc0'
p1031
tp1032
bsg1022
S'Cell[2].axon[97]'
p1033
sI126
I169
tp1034
a(F2.3077896144541374
S'Cell[2].dend[22] syn_ = new FastInhib(0.1)'
p1035
I2
(dp1036
g1007
F0.16666666666666666
sg1008
F30.0
sg1009
I174
sg1010
g7
(g8
(I0
tp1037
g10
tp1038
Rp1039
(I1
(I3
tp1040
g1017
I00
S'\xd6\x08F#\xc2\xfbH\xc0\xd2\xfe\x83^>\xa6E\xc0\x00\x00\x00\xe0Q\xd8B\xc0'
p1041
tp1042
bsg1022
S'Cell[3].axon[146]'
p1043
sI174
I121
tp1044
a(F1.8536032325290646
S'Cell[2].apic[2] syn_ = new FastInhib(0.5)'
p1045
I2
(dp1046
g1007
F0.16666666666666666
sg1008
F30.0
sg1009
I174
sg1010
g7
(g8
(I0
tp1047
g10
tp1048
Rp1049
(I1
(I3
tp1050
g1017
I00
S'\x0e6\xd5\x04\x96\x98C\xc0x;\re\xdb\xb5S\xc0\xd5+\xf7\xa9\xa3\x005\xc0'
p1051
tp1052
bsg1022
S'Cell[3].axon[305]'
p1053
sI174
I121
tp1054
a(F2.2792247466019697
S'Cell[3].dend[11] syn_ = new FastInhib(0.5)'
p1055
I3
(dp1056
g1007
F0.5
sg1008
F30.0
sg1009
I174
sg1010
g7
(g8
(I0
tp1057
g10
tp1058
Rp1059
(I1
(I3
tp1060
g1017
I00
S'\xd0\xdc\xf4\x03V?W\xc0\xef\xb7\xb3\x8c\xaa\xceC\xc0\xd9\x87&{\xb5\xdd@\xc0'
p1061
tp1062
bsg1022
S'Cell[3].axon[323]'
p1063
sI174
I169
tp1064
a(F1.806900964668386
S'Cell[2].apic[1] syn_ = new FastInhib(0.5)'
p1065
I2
(dp1066
g1007
F0.5
sg1008
F30.0
sg1009
I174
sg1010
g7
(g8
(I0
tp1067
g10
tp1068
Rp1069
(I1
(I3
tp1070
g1017
I00
S'\x9f\xb6,n\xd3wA\xc0\xd8\xad\xf0>\x8e\x9dS\xc0\x15\x0b\x17\xca\x0f\x1b1\xc0'
p1071
tp1072
bsg1022
S'Cell[3].axon[360]'
p1073
sI174
I121
tp1074
a(F0.8146095139127063
S'Cell[0].dend[16] syn_ = new ExpSid(0.5)'
p1075
I0
(dp1076
S'seg'
p1077
F0.16666666666666666
sS'hostfrom'
p1078
F31.0
sS'gid'
p1079
I175
sS'coords'
p1080
g7
(g8
(I0
tp1081
g10
tp1082
Rp1083
(I1
(I3
tp1084
g14
(S'f8'
p1085
I0
I1
tp1086
Rp1087
(I3
S'<'
p1088
NNNI-1
I-1
I0
tp1089
bI00
S'\n\x04\xc6\x058\xee;\xc0B\x99\xb9\t\xdf-R\xc0\xe1\x96\xedN\x93\xc8J\xc0'
p1090
tp1091
bsS'secnames'
p1092
S'Cell[3].axon[107]'
p1093
sI175
I25
tp1094
a(F2.122178939027884
S'Cell[0].apic[11] syn_ = new ExpSid(0.5)'
p1095
I0
(dp1096
g1077
F0.5
sg1078
F31.0
sg1079
I175
sg1080
g7
(g8
(I0
tp1097
g10
tp1098
Rp1099
(I1
(I3
tp1100
g1087
I00
S'\xce\xab(\xd4\xc4AS@\xff\xc1\x98d\xfd\xe4o@\x86\xb2\xa2S\xb5\xa4I\xc0'
p1101
tp1102
bsg1092
S'Cell[3].axon[345]'
p1103
sI175
I25
tp1104
a(F2.140394394840274
S'Cell[1].apic[21] syn_ = new ExpSid(0.166666666667)'
p1105
I1
(dp1106
g1077
F0.5
sg1078
F31.0
sg1079
I175
sg1080
g7
(g8
(I0
tp1107
g10
tp1108
Rp1109
(I1
(I3
tp1110
g1087
I00
S'\xec\xa0\x1b\xfe\x86F:@\x0b\x9eh\x17\xf5lm@\xe5#\x9ctd\xf50@'
p1111
tp1112
bsg1092
S'Cell[3].axon[353]'
p1113
sI175
I73
tp1114
a(F1.0110477583529143
S'Cell[0].dend[6] syn_ = new AmpaNmda(0.166666666667)'
p1115
I0
(dp1116
S'seg'
p1117
F0.7
sS'hostfrom'
p1118
F32.0
sS'gid'
p1119
I176
sS'coords'
p1120
g7
(g8
(I0
tp1121
g10
tp1122
Rp1123
(I1
(I3
tp1124
g14
(S'f8'
p1125
I0
I1
tp1126
Rp1127
(I3
S'<'
p1128
NNNI-1
I-1
I0
tp1129
bI00
S'\xf1\xad!\xf9\xdd}C@\xda\xb7=;:*0\xc0\x087D\xa1\xc3\x9d.@'
p1130
tp1131
bsS'secnames'
p1132
S'Cell[3].axon[123]'
p1133
sI176
I25
tp1134
a(F1.407595221928768
S'Cell[0].apic[18] syn_ = new ExpSid(0.166666666667)'
p1135
I0
(dp1136
S'seg'
p1137
F0.5
sS'hostfrom'
p1138
F33.0
sS'gid'
p1139
I177
sS'coords'
p1140
g7
(g8
(I0
tp1141
g10
tp1142
Rp1143
(I1
(I3
tp1144
g14
(S'f8'
p1145
I0
I1
tp1146
Rp1147
(I3
S'<'
p1148
NNNI-1
I-1
I0
tp1149
bI00
S' \xa0*e\xe1\xa5L@\xcc\x9f[wslD@z\x05\xa9\xfa\xab\xd1\x11\xc0'
p1150
tp1151
bsS'secnames'
p1152
S'Cell[3].axon[20]'
p1153
sI177
I25
tp1154
a(F2.0425347706538015
S'Cell[1].apic[21] syn_ = new ExpSid(0.166666666667)'
p1155
I1
(dp1156
g1137
F0.5
sg1138
F33.0
sg1139
I177
sg1140
g7
(g8
(I0
tp1157
g10
tp1158
Rp1159
(I1
(I3
tp1160
g1147
I00
S'\x98\xa3\xe6\xd6\x07,:@\x1a\x000\xfb\xbd\x94m@\xd8LxDi\xfa/@'
p1161
tp1162
bsg1152
S'Cell[3].axon[114]'
p1163
sI177
I73
tp1164
a(F1.0957294530729491
S'Cell[3].dend[34] syn_ = new FastInhib(0.5)'
p1165
I3
(dp1166
g1137
F0.1
sg1138
F33.0
sg1139
I81
sg1140
g7
(g8
(I0
tp1167
g10
tp1168
Rp1169
(I1
(I3
tp1170
g1147
I00
S'Z\xb1M\xd9@\xf5<\xc0\x81\x81/\x9a\xb3\x83A\xc0\x10O\xa2\xef\xe2\xb8?\xc0'
p1171
tp1172
bsg1152
S'Cell[1].axon[58]'
p1173
sI81
I169
tp1174
a(F2.192570094498355
S'Cell[3].dend[51] syn_ = new FastInhib(0.166666666667)'
p1175
I3
(dp1176
S'seg'
p1177
F0.16666666666666666
sS'hostfrom'
p1178
F34.0
sS'gid'
p1179
I178
sS'coords'
p1180
g7
(g8
(I0
tp1181
g10
tp1182
Rp1183
(I1
(I3
tp1184
g14
(S'f8'
p1185
I0
I1
tp1186
Rp1187
(I3
S'<'
p1188
NNNI-1
I-1
I0
tp1189
bI00
S'gA#\xea\xbeF\x1a\xc0[t\xb1\x10\xa0.Q\xc0xl=h\x12\xa2J\xc0'
p1190
tp1191
bsS'secnames'
p1192
S'Cell[3].axon[13]'
p1193
sI178
I169
tp1194
a(F1.488046105958769
S'Cell[0].apic[11] syn_ = new AmpaNmda(0.642857142857)'
p1195
I0
(dp1196
g1177
F0.5
sg1178
F34.0
sg1179
I178
sg1180
g7
(g8
(I0
tp1197
g10
tp1198
Rp1199
(I1
(I3
tp1200
g1187
I00
S'[\xf3N\xdd\xed\x12V@p\xd9\xc9n\x9f\x93p@+\x05\x99\x9f\t\x86O\xc0'
p1201
tp1202
bsg1192
S'Cell[3].axon[375]'
p1203
sI178
I25
tp1204
a(F2.4047488906749956
S'Cell[3].dend[16] syn_ = new FastInhib(0.5)'
p1205
I3
(dp1206
S'seg'
p1207
F0.16666666666666666
sS'hostfrom'
p1208
F35.0
sS'gid'
p1209
I83
sS'coords'
p1210
g7
(g8
(I0
tp1211
g10
tp1212
Rp1213
(I1
(I3
tp1214
g14
(S'f8'
p1215
I0
I1
tp1216
Rp1217
(I3
S'<'
p1218
NNNI-1
I-1
I0
tp1219
bI00
S'\x8fYJ%T\x99J@\xc0\xa5\x902|eY\xc0\x00\x00\x00\x80\xeb\xd11@'
p1220
tp1221
bsS'secnames'
p1222
S'Cell[1].axon[67]'
p1223
sI83
I169
tp1224
a(F2.233669848426828
S'Cell[2].dend[6] syn_ = new FastInhib(0.3)'
p1225
I2
(dp1226
g1207
F0.07142857142857142
sg1208
F35.0
sg1209
I83
sg1210
g7
(g8
(I0
tp1227
g10
tp1228
Rp1229
(I1
(I3
tp1230
g1217
I00
S'I\xd8\xbe\xc15\xd0;@\x14ZKd_\xb3P\xc0>#x\x88\x16[U\xc0'
p1231
tp1232
bsg1222
S'Cell[1].axon[163]'
p1233
sI83
I121
tp1234
a(F0.8912669129893063
S'Cell[3].dend[37] syn_ = new FastInhib(0.5)'
p1235
I3
(dp1236
g1207
F0.5
sg1208
F35.0
sg1209
I83
sg1210
g7
(g8
(I0
tp1237
g10
tp1238
Rp1239
(I1
(I3
tp1240
g1217
I00
S'l\x0f+\xcf\x82\xe1:\xc00\xb1`\xf5U4V\xc0r\xb1rv\x1d\x11F\xc0'
p1241
tp1242
bsg1222
S'Cell[1].axon[242]'
p1243
sI83
I169
tp1244
a(F2.1214926322378367
S'Cell[0].dend[2] syn_ = new AmpaNmda(0.5)'
p1245
I0
(dp1246
S'seg'
p1247
F0.5
sS'hostfrom'
p1248
F36.0
sS'gid'
p1249
I132
sS'coords'
p1250
g7
(g8
(I0
tp1251
g10
tp1252
Rp1253
(I1
(I3
tp1254
g14
(S'f8'
p1255
I0
I1
tp1256
Rp1257
(I3
S'<'
p1258
NNNI-1
I-1
I0
tp1259
bI00
S'\xe5\xd1\xed\x1a[\x16#\xc0\xe2Vd\x98\xd3;8\xc0b\x84n0\xf6>4@'
p1260
tp1261
bsS'secnames'
p1262
S'Cell[2].axon[10]'
p1263
sI132
I25
tp1264
a(F1.1836730639782835
S'Cell[0].apic[13] syn_ = new AmpaNmda(0.9)'
p1265
I0
(dp1266
g1247
F0.8333333333333333
sg1248
F36.0
sg1249
I132
sg1250
g7
(g8
(I0
tp1267
g10
tp1268
Rp1269
(I1
(I3
tp1270
g1257
I00
S'\x0b\xb5\xe0\x16\x83\xca#\xc0s\xc2\x9c4\xda\xddR@\x00\xc4\x1c\xe6F\xb2\xfb\xbf'
p1271
tp1272
bsg1262
S'Cell[2].axon[25]'
p1273
sI132
I25
tp1274
a(F2.4747849048390154
S'Cell[0].apic[13] syn_ = new AmpaNmda(0.7)'
p1275
I0
(dp1276
g1247
F0.16666666666666666
sg1248
F36.0
sg1249
I132
sg1250
g7
(g8
(I0
tp1277
g10
tp1278
Rp1279
(I1
(I3
tp1280
g1257
I00
S'\xc2\x0c\x9b\x95\x14$ @9\x93\x04\xc35\x97V@\x0b^\xab\x05v\x1b\x11\xc0'
p1281
tp1282
bsg1262
S'Cell[2].axon[31]'
p1283
sI132
I25
tp1284
a(F2.1585597547212094
S'Cell[0].dend[24] syn_ = new AmpaNmda(0.5)'
p1285
I0
(dp1286
g1247
F0.5
sg1248
F36.0
sg1249
I180
sg1250
g7
(g8
(I0
tp1287
g10
tp1288
Rp1289
(I1
(I3
tp1290
g1257
I00
S'\xcc\x86\xad \xb2\x88M@T\xd5\xe0\xb1\xf2r$\xc0\xbbal\xa2\x01\xae\x06@'
p1291
tp1292
bsg1262
S'Cell[3].axon[129]'
p1293
sI180
I25
tp1294
a(F2.4630834988570687
S'Cell[3].dend[66] syn_ = new FastInhib(0.166666666667)'
p1295
I3
(dp1296
S'seg'
p1297
F0.5
sS'hostfrom'
p1298
F37.0
sS'gid'
p1299
I133
sS'coords'
p1300
g7
(g8
(I0
tp1301
g10
tp1302
Rp1303
(I1
(I3
tp1304
g14
(S'f8'
p1305
I0
I1
tp1306
Rp1307
(I3
S'<'
p1308
NNNI-1
I-1
I0
tp1309
bI00
S'z="%Bi\xf9\xbf$\xb9\\<\xf21@\xc0r\x0c3\xde\x15\xfe"@'
p1310
tp1311
bsS'secnames'
p1312
S'Cell[2].axon[2]'
p1313
sI133
I169
tp1314
a(F1.8189652728413555
S'Cell[0].apic[9] syn_ = new ExpSid(0.5)'
p1315
I0
(dp1316
g1297
F0.5
sg1298
F37.0
sg1299
I181
sg1300
g7
(g8
(I0
tp1317
g10
tp1318
Rp1319
(I1
(I3
tp1320
g1307
I00
S'\x87\xbe{\xb0@\xf9E@\xf0\xc9\x06\nPck@\xf8\xa4\x1aa\xc0\xea\xd7?'
p1321
tp1322
bsg1312
S'Cell[3].axon[28]'
p1323
sI181
I25
tp1324
a(F2.4987886720448627
S'Cell[0].apic[9] syn_ = new ExpSid(0.166666666667)'
p1325
I0
(dp1326
g1297
F0.07142857142857142
sg1298
F37.0
sg1299
I181
sg1300
g7
(g8
(I0
tp1327
g10
tp1328
Rp1329
(I1
(I3
tp1330
g1307
I00
S'2pn+g\xabJ@\xa4\x01D\xacb\xd7i@\x00\x00\x00`\xb8\x1e\xd5?'
p1331
tp1332
bsg1312
S'Cell[3].axon[146]'
p1333
sI181
I25
tp1334
a(F1.8031689466564875
S'Cell[1].apic[1] syn_ = new ExpSid(0.5)'
p1335
I1
(dp1336
g1297
F0.16666666666666666
sg1298
F37.0
sg1299
I85
sg1300
g7
(g8
(I0
tp1337
g10
tp1338
Rp1339
(I1
(I3
tp1340
g1307
I00
S'zl\xad\xd8O\x00\x1c@n\xf1\x07\x06\xb8N]@\x00\x00\x00\xe0\xa3\xf03@'
p1341
tp1342
bsg1312
S'Cell[1].axon[62]'
p1343
sI85
I73
tp1344
a(F1.7729713817343602
S'Cell[0].apic[14] syn_ = new AmpaNmda(0.5)'
p1345
I0
(dp1346
S'seg'
p1347
F0.16666666666666666
sS'hostfrom'
p1348
F38.0
sS'gid'
p1349
I182
sS'coords'
p1350
g7
(g8
(I0
tp1351
g10
tp1352
Rp1353
(I1
(I3
tp1354
g14
(S'f8'
p1355
I0
I1
tp1356
Rp1357
(I3
S'<'
p1358
NNNI-1
I-1
I0
tp1359
bI00
S'C\xea\xd15ba6@\xa4Wh\x93y\x91[@\x00\x00\x00\xa0\x99\x99,\xc0'
p1360
tp1361
bsS'secnames'
p1362
S'Cell[3].axon[203]'
p1363
sI182
I25
tp1364
a(F1.614863319072429
S'Cell[3].dend[23] syn_ = new FastInhib(0.833333333333)'
p1365
I3
(dp1366
g1347
F0.5
sg1348
F38.0
sg1349
I86
sg1350
g7
(g8
(I0
tp1367
g10
tp1368
Rp1369
(I1
(I3
tp1370
g1357
I00
S'\x08\x9d\x84\x0c`\x9b=@\xb9\x82\x8d\xbbH$P\xc02z\xd8\x19\x80\xf9H\xc0'
p1371
tp1372
bsg1362
S'Cell[1].axon[19]'
p1373
sI86
I169
tp1374
a(F2.475820941109032
S'Cell[3].dend[3] syn_ = new FastInhib(0.5)'
p1375
I3
(dp1376
g1347
F0.8333333333333333
sg1348
F38.0
sg1349
I86
sg1350
g7
(g8
(I0
tp1377
g10
tp1378
Rp1379
(I1
(I3
tp1380
g1357
I00
S'\xf3\xb1l\x8a\x08rB\xc0x$\xdd\x80j!A\xc0\xea\x9eJm\xb3\xe8$\xc0'
p1381
tp1382
bsg1362
S'Cell[1].axon[88]'
p1383
sI86
I169
tp1384
a(F2.2777195656673674
S'Cell[2].dend[31] syn_ = new FastInhib(0.166666666667)'
p1385
I2
(dp1386
g1347
F0.7
sg1348
F38.0
sg1349
I86
sg1350
g7
(g8
(I0
tp1387
g10
tp1388
Rp1389
(I1
(I3
tp1390
g1357
I00
S'\xb2&\\\x00#i#@^#\x07QZ8:\xc0\xa4\xb9]z\x8c\xf1\xe3\xbf'
p1391
tp1392
bsg1362
S'Cell[1].axon[106]'
p1393
sI86
I121
tp1394
a(F1.525218425903349
S'Cell[0].dend[35] syn_ = new AmpaNmda(0.3)'
p1395
I0
(dp1396
g1347
F0.16666666666666666
sg1348
F38.0
sg1349
I86
sg1350
g7
(g8
(I0
tp1397
g10
tp1398
Rp1399
(I1
(I3
tp1400
g1357
I00
S'=_\xbd\xab\x1a\x9b\\@\xf9\x96\xff\xcb\xa5\x9c0\xc0\xe2\x1dW\x1ap\x08A\xc0'
p1401
tp1402
bsg1362
S'Cell[1].axon[168]'
p1403
sI86
I25
tp1404
a(F2.278928090003734
S'Cell[3].dend[15] syn_ = new FastInhib(0.166666666667)'
p1405
I3
(dp1406
g1347
F0.5
sg1348
F38.0
sg1349
I38
sg1350
g7
(g8
(I0
tp1407
g10
tp1408
Rp1409
(I1
(I3
tp1410
g1357
I00
S'\x9e\xc0*f{[A@\xf6\xa5\\\x06\xd4\xcfO\xc0W\x04:M\xcd\xfc\x13\xc0'
p1411
tp1412
bsg1362
S'Cell[0].axon[35]'
p1413
sI38
I169
tp1414
a(F2.4705974408563742
S'Cell[0].dend[7] syn_ = new ExpSid(0.5)'
p1415
I0
(dp1416
S'seg'
p1417
F0.5
sS'hostfrom'
p1418
F39.0
sS'gid'
p1419
I87
sS'coords'
p1420
g7
(g8
(I0
tp1421
g10
tp1422
Rp1423
(I1
(I3
tp1424
g14
(S'f8'
p1425
I0
I1
tp1426
Rp1427
(I3
S'<'
p1428
NNNI-1
I-1
I0
tp1429
bI00
S'\x00\x00\x00p\x14\x9eD@\x00\x00\x00pf\xa6)@\x00\x00\x00\x10\xd7\xe3%@'
p1430
tp1431
bsS'secnames'
p1432
S'Cell[1].axon[79]'
p1433
sI87
I25
tp1434
a(F1.5497923460174714
S'Cell[0].dend[17] syn_ = new AmpaNmda(0.1)'
p1435
I0
(dp1436
S'seg'
p1437
F0.5
sS'hostfrom'
p1438
F40.0
sS'gid'
p1439
I88
sS'coords'
p1440
g7
(g8
(I0
tp1441
g10
tp1442
Rp1443
(I1
(I3
tp1444
g14
(S'f8'
p1445
I0
I1
tp1446
Rp1447
(I3
S'<'
p1448
NNNI-1
I-1
I0
tp1449
bI00
S'\xcf\xc5a.\xfby7\xc03F\xeaY\x96fK\xc0j\x00Z\xf1\x9auC\xc0'
p1450
tp1451
bsS'secnames'
p1452
S'Cell[1].axon[23]'
p1453
sI88
I25
tp1454
a(F1.7642958152957686
S'Cell[0].dend[3] syn_ = new AmpaNmda(0.5)'
p1455
I0
(dp1456
g1437
F0.30000000000000004
sg1438
F40.0
sg1439
I88
sg1440
g7
(g8
(I0
tp1457
g10
tp1458
Rp1459
(I1
(I3
tp1460
g1447
I00
S"J\x15M>S\xbe\x05\xc0\xd6}TW\xedL1@\xe6\x02\x1f\x14\x9d3'@"
p1461
tp1462
bsg1452
S'Cell[1].axon[285]'
p1463
sI88
I25
tp1464
a(F0.928249927893693
S'Cell[3].dend[38] syn_ = new FastInhib(0.166666666667)'
p1465
I3
(dp1466
S'seg'
p1467
F0.5
sS'hostfrom'
p1468
F41.0
sS'gid'
p1469
I185
sS'coords'
p1470
g7
(g8
(I0
tp1471
g10
tp1472
Rp1473
(I1
(I3
tp1474
g14
(S'f8'
p1475
I0
I1
tp1476
Rp1477
(I3
S'<'
p1478
NNNI-1
I-1
I0
tp1479
bI00
S'\xefy^\x1c\x99\xae#\xc0x\xb1\xe2\x9b\x7f\xfd9\xc0\x00\x00\x00\xa0G\xa1?\xc0'
p1480
tp1481
bsS'secnames'
p1482
S'Cell[3].axon[241]'
p1483
sI185
I169
tp1484
a(F2.3858589775342756
S'Cell[0].apic[0] syn_ = new ExpSid(0.5)'
p1485
I0
(dp1486
g1467
F0.8333333333333333
sg1468
F41.0
sg1469
I89
sg1470
g7
(g8
(I0
tp1487
g10
tp1488
Rp1489
(I1
(I3
tp1490
g1477
I00
S'K\xaa\xd9*U\xf5K@\x92\xa9\x11"\xc8\x9d;@\x9bIn\x15\x7f$0\xc0'
p1491
tp1492
bsg1482
S'Cell[1].axon[160]'
p1493
sI89
I25
tp1494
a(F1.5773892719244675
S'Cell[3].dend[61] syn_ = new FastInhib(0.5)'
p1495
I3
(dp1496
S'seg'
p1497
F0.07142857142857142
sS'hostfrom'
p1498
F42.0
sS'gid'
p1499
I90
sS'coords'
p1500
g7
(g8
(I0
tp1501
g10
tp1502
Rp1503
(I1
(I3
tp1504
g14
(S'f8'
p1505
I0
I1
tp1506
Rp1507
(I3
S'<'
p1508
NNNI-1
I-1
I0
tp1509
bI00
S'\xce\nm\x8f\t?.\xc0\x9b\xa1\xc7\x06\xf4WQ\xc0\xd7]6\xfas\xc77@'
p1510
tp1511
bsS'secnames'
p1512
S'Cell[1].axon[22]'
p1513
sI90
I169
tp1514
a(F2.2900798835125977
S'Cell[2].dend[30] syn_ = new FastInhib(0.5)'
p1515
I2
(dp1516
g1497
F0.7
sg1498
F42.0
sg1499
I90
sg1500
g7
(g8
(I0
tp1517
g10
tp1518
Rp1519
(I1
(I3
tp1520
g1507
I00
S"\x7f9\xcf\x1f\x86\x08\x11\xc0\xf0\xaf'}\x86\r>\xc0>\xb0\x07<\x9e\xa8\x1e\xc0"
p1521
tp1522
bsg1512
S'Cell[1].axon[126]'
p1523
sI90
I121
tp1524
a(F1.8035513581595464
S'Cell[1].dend[3] syn_ = new AmpaNmda(0.5)'
p1525
I1
(dp1526
g1497
F0.5
sg1498
F42.0
sg1499
I138
sg1500
g7
(g8
(I0
tp1527
g10
tp1528
Rp1529
(I1
(I3
tp1530
g1507
I00
S'\x00\x00\x00 \x85\xeb\x03\xc0\xc1\xfc\xccy\x8c[R@\x00\x00\x00 \xaeG<@'
p1531
tp1532
bsg1512
S'Cell[2].axon[87]'
p1533
sI138
I73
tp1534
a(F1.6932498049674285
S'Cell[0].apic[16] syn_ = new ExpSid(0.833333333333)'
p1535
I0
(dp1536
S'seg'
p1537
F0.5
sS'hostfrom'
p1538
F43.0
sS'gid'
p1539
I91
sS'coords'
p1540
g7
(g8
(I0
tp1541
g10
tp1542
Rp1543
(I1
(I3
tp1544
g14
(S'f8'
p1545
I0
I1
tp1546
Rp1547
(I3
S'<'
p1548
NNNI-1
I-1
I0
tp1549
bI00
S'!3`\xe1\xfd%^@\xa8\xa9\x070\xd7*[@\x00\x00\x00\xc0\xcc\xacF\xc0'
p1550
tp1551
bsS'secnames'
p1552
S'Cell[1].axon[104]'
p1553
sI91
I25
tp1554
a(F2.0209903337246278
S'Cell[2].dend[37] syn_ = new FastInhib(0.7)'
p1555
I2
(dp1556
g1537
F0.07142857142857142
sg1538
F43.0
sg1539
I91
sg1540
g7
(g8
(I0
tp1557
g10
tp1558
Rp1559
(I1
(I3
tp1560
g1547
I00
S'm\x95\xcf\x14\x0f[1\xc0x"S8\xcd\xe2T@\x00\x00\x00\x00)\xdcB\xc0'
p1561
tp1562
bsg1552
S'Cell[1].axon[520]'
p1563
sI91
I121
tp1564
a(F0.44656450993519353
S'Cell[0].dend[33] syn_ = new ExpSid(0.833333333333)'
p1565
I0
(dp1566
g1537
F0.5
sg1538
F43.0
sg1539
I139
sg1540
g7
(g8
(I0
tp1567
g10
tp1568
Rp1569
(I1
(I3
tp1570
g1547
I00
S'%5\xdf\xefPz]@\xf0\x07\xd8S+G:\xc0\x00\x00\x00\x00\x00\x00(\xc0'
p1571
tp1572
bsg1552
S'Cell[2].axon[150]'
p1573
sI139
I25
tp1574
a(F1.790866325269593
S'Cell[3].dend[53] syn_ = new FastInhib(0.166666666667)'
p1575
I3
(dp1576
g1537
F0.8333333333333333
sg1538
F43.0
sg1539
I139
sg1540
g7
(g8
(I0
tp1577
g10
tp1578
Rp1579
(I1
(I3
tp1580
g1547
I00
S'\xf1\xb9\xdaOv\xbf@\xc0\xbcv\x8eBlJS\xc0\x88\x8b\xda\xb0\xff|P\xc0'
p1581
tp1582
bsg1552
S'Cell[2].axon[314]'
p1583
sI139
I169
tp1584
a(F2.122453671965382
S'Cell[3].dend[26] syn_ = new FastInhib(0.5)'
p1585
I3
(dp1586
g1537
F0.5
sg1538
F43.0
sg1539
I139
sg1540
g7
(g8
(I0
tp1587
g10
tp1588
Rp1589
(I1
(I3
tp1590
g1547
I00
S'\xe6\x9c\xa5z\xabg&@\xa2\x15#\xbc\xaa\xd9K\xc0\x15\x9a\x05N\xefpD\xc0'
p1591
tp1592
bsg1552
S'Cell[2].axon[315]'
p1593
sI139
I169
tp1594
a(F1.9671223630603023
S'Cell[3].dend[65] syn_ = new FastInhib(0.5)'
p1595
I3
(dp1596
g1537
F0.16666666666666666
sg1538
F43.0
sg1539
I139
sg1540
g7
(g8
(I0
tp1597
g10
tp1598
Rp1599
(I1
(I3
tp1600
g1547
I00
S'C\xb0\xe3\x04\xd5\xad$\xc0A=\xd7dl\x96B\xc0\x00\x00\x00\xc0\xf5(\xcc\xbf'
p1601
tp1602
bsg1552
S'Cell[2].axon[410]'
p1603
sI139
I169
tp1604
a(F2.4616060142196003
S'Cell[3].dend[50] syn_ = new FastInhib(0.166666666667)'
p1605
I3
(dp1606
S'seg'
p1607
F0.1
sS'hostfrom'
p1608
F44.0
sS'gid'
p1609
I92
sS'coords'
p1610
g7
(g8
(I0
tp1611
g10
tp1612
Rp1613
(I1
(I3
tp1614
g14
(S'f8'
p1615
I0
I1
tp1616
Rp1617
(I3
S'<'
p1618
NNNI-1
I-1
I0
tp1619
bI00
S'w\xda\xcc\xdd\xc9\xa6\n@\xa0\x92-Qs\xb8R\xc0od\x1f\xb4p\x8bK\xc0'
p1620
tp1621
bsS'secnames'
p1622
S'Cell[1].axon[104]'
p1623
sI92
I169
tp1624
a(F2.4345059587498152
S'Cell[3].dend[60] syn_ = new FastInhib(0.5)'
p1625
I3
(dp1626
g1607
F0.5
sg1608
F44.0
sg1609
I92
sg1610
g7
(g8
(I0
tp1627
g10
tp1628
Rp1629
(I1
(I3
tp1630
g1617
I00
S'\xdfrG\xad\xad|4\xc0dJ\x0e\xa8q%R\xc0\xc1\x01\x81_-\xe34@'
p1631
tp1632
bsg1622
S'Cell[1].axon[119]'
p1633
sI92
I169
tp1634
a(F1.771166173901524
S'Cell[2].dend[36] syn_ = new FastInhib(0.5)'
p1635
I2
(dp1636
g1607
F0.30000000000000004
sg1608
F44.0
sg1609
I140
sg1610
g7
(g8
(I0
tp1637
g10
tp1638
Rp1639
(I1
(I3
tp1640
g1617
I00
S'o\xb5p\x19\x89\xe9 @d\xd1H\xe3\xfd\x8c\x0b\xc0zY\xcbx\xef=2\xc0'
p1641
tp1642
bsg1622
S'Cell[2].axon[4]'
p1643
sI140
I121
tp1644
a(F1.270504118112067
S'Cell[0].dend[3] syn_ = new AmpaNmda(0.166666666667)'
p1645
I0
(dp1646
g1607
F0.5
sg1608
F44.0
sg1609
I188
sg1610
g7
(g8
(I0
tp1647
g10
tp1648
Rp1649
(I1
(I3
tp1650
g1617
I00
S'`\xa1\xf2-8\xd8%@da\xa0\xdd\xbf\x8d\x07@\xdb\xca\xb9"\\\x06\x1b@'
p1651
tp1652
bsg1622
S'Cell[3].axon[57]'
p1653
sI188
I25
tp1654
a(F1.1238270169184326
S'Cell[2].dend[38] syn_ = new FastInhib(0.5)'
p1655
I2
(dp1656
S'seg'
p1657
F0.5
sS'hostfrom'
p1658
F45.0
sS'gid'
p1659
I141
sS'coords'
p1660
g7
(g8
(I0
tp1661
g10
tp1662
Rp1663
(I1
(I3
tp1664
g14
(S'f8'
p1665
I0
I1
tp1666
Rp1667
(I3
S'<'
p1668
NNNI-1
I-1
I0
tp1669
bI00
S'\xbc\x03\xdcUP\xde\x16@^7\xc1\x12\xc9P\n@\xa8\x07\xf1\xf8\xa6\xcf1\xc0'
p1670
tp1671
bsS'secnames'
p1672
S'Cell[2].axon[9]'
p1673
sI141
I121
tp1674
a(F1.5321178292492137
S'Cell[2].dend[51] syn_ = new FastInhib(0.5)'
p1675
I2
(dp1676
g1657
F0.5
sg1658
F45.0
sg1659
I189
sg1660
g7
(g8
(I0
tp1677
g10
tp1678
Rp1679
(I1
(I3
tp1680
g1667
I00
S'8&G\xcci\xd7U\xc0iq\\w\x8d:\x0e@\x8f\x99\r\xe6S\xf0\x1e\xc0'
p1681
tp1682
bsg1672
S'Cell[3].axon[15]'
p1683
sI189
I121
tp1684
a(F1.9874883191520056
S'Cell[0].apic[2] syn_ = new ExpSid(0.5)'
p1685
I0
(dp1686
g1657
F0.16666666666666666
sg1658
F45.0
sg1659
I93
sg1660
g7
(g8
(I0
tp1687
g10
tp1688
Rp1689
(I1
(I3
tp1690
g1667
I00
S'\x9a\x9aW\xc4&VN@\x92\t\r\xbb;\x0eQ@kLv\xb7\xb8g+\xc0'
p1691
tp1692
bsg1672
S'Cell[1].axon[30]'
p1693
sI93
I25
tp1694
a(F1.268698431469361
S'Cell[2].apic[0] syn_ = new FastInhib(0.5)'
p1695
I2
(dp1696
S'seg'
p1697
F0.08823529411764705
sS'hostfrom'
p1698
F46.0
sS'gid'
p1699
I94
sS'coords'
p1700
g7
(g8
(I0
tp1701
g10
tp1702
Rp1703
(I1
(I3
tp1704
g14
(S'f8'
p1705
I0
I1
tp1706
Rp1707
(I3
S'<'
p1708
NNNI-1
I-1
I0
tp1709
bI00
S'\x18(X\x0f\xf43=\xc0R`\xf5C\xfd\xb4R\xc0\x00\x00\x00\xa0Ga-\xc0'
p1710
tp1711
bsS'secnames'
p1712
S'Cell[1].axon[174]'
p1713
sI94
I121
tp1714
a(F1.423924880380613
S'Cell[0].dend[7] syn_ = new AmpaNmda(0.833333333333)'
p1715
I0
(dp1716
g1697
F0.5
sg1698
F46.0
sg1699
I94
sg1700
g7
(g8
(I0
tp1717
g10
tp1718
Rp1719
(I1
(I3
tp1720
g1707
I00
S'\x1a+\xbc\x08\x96uG@D\xd5Se\xda\x880@\xa7\xc0\x9c\xb7G\x0e0@'
p1721
tp1722
bsg1712
S'Cell[1].axon[200]'
p1723
sI94
I25
tp1724
a(F2.2782582966823464
S'Cell[0].apic[15] syn_ = new ExpSid(0.833333333333)'
p1725
I0
(dp1726
S'seg'
p1727
F0.5
sS'hostfrom'
p1728
F47.0
sS'gid'
p1729
I95
sS'coords'
p1730
g7
(g8
(I0
tp1731
g10
tp1732
Rp1733
(I1
(I3
tp1734
g14
(S'f8'
p1735
I0
I1
tp1736
Rp1737
(I3
S'<'
p1738
NNNI-1
I-1
I0
tp1739
bI00
S'\x00\x00\x00p\x14\x9eS@\x00\x00\x00\xf0Q\xb8N@\x00\x00\x00\xa0\x99\x89E\xc0'
p1740
tp1741
bsS'secnames'
p1742
S'Cell[1].axon[47]'
p1743
sI95
I25
tp1744
a(F2.2318600523944
S'Cell[0].dend[23] syn_ = new ExpSid(0.5)'
p1745
I0
(dp1746
g1727
F0.5
sg1728
F47.0
sg1729
I95
sg1730
g7
(g8
(I0
tp1747
g10
tp1748
Rp1749
(I1
(I3
tp1750
g1737
I00
S'\x8b\xe1S\xee\xaf@<@\xcc\x1f\xb23\n\xbc$@\xd0\xea\xdd\x8ce\x1aF\xc0'
p1751
tp1752
bsg1742
S'Cell[1].axon[220]'
p1753
sI95
I25
tp1754
a(F2.3289003438601013
S'Cell[2].dend[39] syn_ = new FastInhib(0.7)'
p1755
I2
(dp1756
g1727
F0.5
sg1728
F47.0
sg1729
I95
sg1730
g7
(g8
(I0
tp1757
g10
tp1758
Rp1759
(I1
(I3
tp1760
g1737
I00
S'\x1d<\x13\xa9_~*\xc0\xa9\x8c\xd62\x10oY@\x00\x00\x00\xc0\x1e%G\xc0'
p1761
tp1762
bsg1742
S'Cell[1].axon[295]'
p1763
sI95
I121
tp1764
a(F2.461829054488418
S'Cell[2].dend[37] syn_ = new FastInhib(0.9)'
p1765
I2
(dp1766
g1727
F0.8333333333333333
sg1728
F47.0
sg1729
I95
sg1730
g7
(g8
(I0
tp1767
g10
tp1768
Rp1769
(I1
(I3
tp1770
g1737
I00
S'X\x99Q\xd5\x86x=\xc0\x8a\xad\xe0x\x9b\x89Z@\x00\x00\x00`f&G\xc0'
p1771
tp1772
bsg1742
S'Cell[1].axon[295]'
p1773
sI95
I121
tp1774
a(F1.6175169102069975
S'Cell[0].apic[13] syn_ = new ExpSid(0.7)'
p1775
I0
(dp1776
g1727
F0.5
sg1728
F47.0
sg1729
I143
sg1730
g7
(g8
(I0
tp1777
g10
tp1778
Rp1779
(I1
(I3
tp1780
g1737
I00
S'\x86\xab\x01t=d\x16@\x9a\x1f\xb2x\x84\xfeU@\xcb\xd6\x90R\xb6H\x11\xc0'
p1781
tp1782
bsg1742
S'Cell[2].axon[206]'
p1783
sI143
I25
tp1784
a.