(lp0
(F1.2959489473929475
S'Cell[0].apic[4] syn_ = new ExpSid(0.5)'
p1
I0
(dp2
S'seg'
p3
F0.5
sS'hostfrom'
p4
F1.0
sS'gid'
p5
I145
sS'coords'
p6
cnumpy.core.multiarray
_reconstruct
p7
(cnumpy
ndarray
p8
(I0
tp9
S'b'
p10
tp11
Rp12
(I1
(I3
tp13
cnumpy
dtype
p14
(S'f8'
p15
I0
I1
tp16
Rp17
(I3
S'<'
p18
NNNI-1
I-1
I0
tp19
bI00
S'\x1c\xb9oE\xbe\x98C@\xb01\xaaj\x84\x08Q@x\x8c^\xe7\xce\xe8J\xc0'
p20
tp21
bsS'secnames'
p22
S'Cell[3].axon[209]'
p23
sI145
I1
tp24
a(F1.247639663792897
S'Cell[1].apic[10] syn_ = new ExpSid(0.166666666667)'
p25
I1
(dp26
g3
F0.2894736842105263
sg4
F1.0
sg5
I1
sg6
g7
(g8
(I0
tp27
g10
tp28
Rp29
(I1
(I3
tp30
g17
I00
S'\x1d4\xe9\xf8]XK\xc0\xf0t\xc6\xfe;\xfaR\xc0\x00\x00\x00\x00)\\\x12\xc0'
p31
tp32
bsg22
S'Cell[0].axon[7]'
p33
sI1
I49
tp34
a(F2.4819122642698654
S'Cell[3].dend[30] syn_ = new FastInhib(0.833333333333)'
p35
I3
(dp36
g3
F0.8333333333333333
sg4
F1.0
sg5
I97
sg6
g7
(g8
(I0
tp37
g10
tp38
Rp39
(I1
(I3
tp40
g17
I00
S'<\xb6^\xe2\xeb\x12T\xc0i$\xe3\tZ\xc9G@\xc22\xe9\xe7\xb8t!@'
p41
tp42
bsg22
S'Cell[2].axon[25]'
p43
sI97
I145
tp44
a(F1.3581591856645507
S'Cell[0].dend[7] syn_ = new ExpSid(0.5)'
p45
I0
(dp46
g3
F0.5
sg4
F1.0
sg5
I97
sg6
g7
(g8
(I0
tp47
g10
tp48
Rp49
(I1
(I3
tp50
g17
I00
S'\xa6Hk\xc8\xef\x8d@@\x085vx\x86`\xf4\xbfH\xaf"=\xf7e\x05@'
p51
tp52
bsg22
S'Cell[2].axon[105]'
p53
sI97
I1
tp54
a(F2.4133589367330406
S'Cell[3].dend[5] syn_ = new FastInhib(0.5)'
p55
I3
(dp56
g3
F0.5
sg4
F1.0
sg5
I97
sg6
g7
(g8
(I0
tp57
g10
tp58
Rp59
(I1
(I3
tp60
g17
I00
S'\x19\xd5\x19\x01\xbdb0\xc0\x8c(\xbe\x8a9\xef%\xc0<\x02}\x11\x8a\x1a\xef\xbf'
p61
tp62
bsg22
S'Cell[2].axon[162]'
p63
sI97
I145
tp64
a(F0.6570361004589005
S'Cell[3].dend[24] syn_ = new FastInhib(0.5)'
p65
I3
(dp66
S'seg'
p67
F0.5
sS'hostfrom'
p68
F2.0
sS'gid'
p69
I98
sS'coords'
p70
g7
(g8
(I0
tp71
g10
tp72
Rp73
(I1
(I3
tp74
g14
(S'f8'
p75
I0
I1
tp76
Rp77
(I3
S'<'
p78
NNNI-1
I-1
I0
tp79
bI00
S'\xbc\xeb\xc8\xa7a\xb4H\xc05\xd0}\xe4\xda\x8b\t@\x81\n~\xdboZ-@'
p80
tp81
bsS'secnames'
p82
S'Cell[2].axon[27]'
p83
sI98
I145
tp84
a(F2.2047202956972534
S'Cell[3].dend[41] syn_ = new FastInhib(0.1)'
p85
I3
(dp86
g67
F0.5
sg68
F2.0
sg69
I98
sg70
g7
(g8
(I0
tp87
g10
tp88
Rp89
(I1
(I3
tp90
g77
I00
S';\x0e\x0b\x86=\xa1P\xc0\x00\x00\x00\xe0QX@@v\x0ce&\xbf\xc12\xc0'
p91
tp92
bsg82
S'Cell[2].axon[477]'
p93
sI98
I145
tp94
a(F0.9356696727017298
S'Cell[3].dend[34] syn_ = new FastInhib(0.5)'
p95
I3
(dp96
g67
F0.8333333333333333
sg68
F2.0
sg69
I146
sg70
g7
(g8
(I0
tp97
g10
tp98
Rp99
(I1
(I3
tp100
g77
I00
S"\xae\x0c\x08\x91\xf3_U\xc0\xf0\x06\xdc'\xd3\xb7T@\xe7'`z\x84\xb5'@"
p101
tp102
bsg82
S'Cell[3].axon[246]'
p103
sI146
I145
tp104
a(F0.6570361004589005
S'Cell[3].dend[24] syn_ = new FastInhib(0.5)'
p105
I3
(dp106
S'seg'
p107
F0.5
sS'hostfrom'
p108
F3.0
sS'gid'
p109
I99
sS'coords'
p110
g7
(g8
(I0
tp111
g10
tp112
Rp113
(I1
(I3
tp114
g14
(S'f8'
p115
I0
I1
tp116
Rp117
(I3
S'<'
p118
NNNI-1
I-1
I0
tp119
bI00
S'\xbc\xeb\xc8\xa7a\xb4H\xc05\xd0}\xe4\xda\x8b\t@\x81\n~\xdboZ-@'
p120
tp121
bsS'secnames'
p122
S'Cell[2].axon[27]'
p123
sI99
I145
tp124
a(F2.2047202956972534
S'Cell[3].dend[41] syn_ = new FastInhib(0.1)'
p125
I3
(dp126
g107
F0.5
sg108
F3.0
sg109
I99
sg110
g7
(g8
(I0
tp127
g10
tp128
Rp129
(I1
(I3
tp130
g117
I00
S';\x0e\x0b\x86=\xa1P\xc0\x00\x00\x00\xe0QX@@v\x0ce&\xbf\xc12\xc0'
p131
tp132
bsg122
S'Cell[2].axon[477]'
p133
sI99
I145
tp134
a(F1.9166435057716213
S'Cell[0].dend[9] syn_ = new ExpSid(0.3)'
p135
I0
(dp136
g107
F0.05555555555555555
sg108
F3.0
sg109
I51
sg110
g7
(g8
(I0
tp137
g10
tp138
Rp139
(I1
(I3
tp140
g117
I00
S'\xa7\xa6\xf6\x91\xfc\x14\x14@\x85u\x9dB\x11\x8f3\xc0\x00\x00\x00\xe0Q\xb82\xc0'
p141
tp142
bsg122
S'Cell[1].axon[25]'
p143
sI51
I1
tp144
a(F1.940418043272647
S'Cell[3].dend[15] syn_ = new FastInhib(0.5)'
p145
I3
(dp146
g107
F0.5
sg108
F3.0
sg109
I147
sg110
g7
(g8
(I0
tp147
g10
tp148
Rp149
(I1
(I3
tp150
g117
I00
S'n\xae\x87\x08\xccB"\xc0\xa1o\\\xe7\xb4\xfe8@\xc2\xeb\x02\xc3\x98I\xf5\xbf'
p151
tp152
bsg122
S'Cell[3].axon[0]'
p153
sI147
I145
tp154
a(F2.473107989922819
S'Cell[2].dend[3] syn_ = new FastInhib(0.833333333333)'
p155
I2
(dp156
g107
F0.7
sg108
F3.0
sg109
I147
sg110
g7
(g8
(I0
tp157
g10
tp158
Rp159
(I1
(I3
tp160
g117
I00
S"\xcc\x8f\xe5]\xf2p4\xc0\xe5\xf9\x11\x1b\xe5\xa4'@P\xf7\x0cP\x13H%@"
p161
tp162
bsg122
S'Cell[3].axon[6]'
p163
sI147
I97
tp164
a(F1.770224349324776
S'Cell[1].apic[2] syn_ = new AmpaNmda(0.214285714286)'
p165
I1
(dp166
S'seg'
p167
F0.5
sS'hostfrom'
p168
F4.0
sS'gid'
p169
I148
sS'coords'
p170
g7
(g8
(I0
tp171
g10
tp172
Rp173
(I1
(I3
tp174
g14
(S'f8'
p175
I0
I1
tp176
Rp177
(I3
S'<'
p178
NNNI-1
I-1
I0
tp179
bI00
S'\x08\x9b\x90\xe0\x958O\xc0\x84\x19\xf6&\xa75)\xc0%\xc4\xdc+z\xb82\xc0'
p180
tp181
bsS'secnames'
p182
S'Cell[3].axon[89]'
p183
sI148
I49
tp184
a(F1.5103410153937284
S'Cell[1].apic[23] syn_ = new AmpaNmda(0.5)'
p185
I1
(dp186
g167
F0.5
sg168
F4.0
sg169
I148
sg170
g7
(g8
(I0
tp187
g10
tp188
Rp189
(I1
(I3
tp190
g177
I00
S'\x00\x00\x00 \x85\x8bJ\xc0\x00\x00\x00\xe0Q\x88[\xc0\x8c\xe2\x07t\xad\x03\xd2?'
p191
tp192
bsg182
S'Cell[3].axon[91]'
p193
sI148
I49
tp194
a(F1.2638100972439943
S'Cell[2].apic[2] syn_ = new FastInhib(0.5)'
p195
I2
(dp196
g167
F0.3571428571428571
sg168
F4.0
sg169
I148
sg170
g7
(g8
(I0
tp197
g10
tp198
Rp199
(I1
(I3
tp200
g177
I00
S'\xd2b\x16\x84\xf3xP@\xf8r\xae\xa4vj`\xc0p\xb0\xb7\xbd\xad"K\xc0'
p201
tp202
bsg182
S'Cell[3].axon[287]'
p203
sI148
I97
tp204
a(F1.6029916522243266
S'Cell[0].apic[12] syn_ = new AmpaNmda(0.166666666667)'
p205
I0
(dp206
g167
F0.5
sg168
F4.0
sg169
I148
sg170
g7
(g8
(I0
tp207
g10
tp208
Rp209
(I1
(I3
tp210
g177
I00
S'q6\xee\x9c\xf6\xb7P@\xa9\x158\\\x18qC@\x00\xb5\xe5\x00\x0c\xa01\xc0'
p211
tp212
bsg182
S'Cell[3].axon[334]'
p213
sI148
I1
tp214
a(F1.574175858644241
S'Cell[2].apic[5] syn_ = new FastInhib(0.0555555555556)'
p215
I2
(dp216
g167
F0.5
sg168
F4.0
sg169
I4
sg170
g7
(g8
(I0
tp217
g10
tp218
Rp219
(I1
(I3
tp220
g177
I00
S'H\x14\t,\x83vA@\xd3A\x98\xe5>\xf9K\xc0\xf74\xca\x8a\xcf\x95\x10@'
p221
tp222
bsg182
S'Cell[0].axon[23]'
p223
sI4
I97
tp224
a(F2.344741026041502
S'Cell[0].dend[9] syn_ = new ExpSid(0.1)'
p225
I0
(dp226
S'seg'
p227
F0.5
sS'hostfrom'
p228
F5.0
sS'gid'
p229
I149
sS'coords'
p230
g7
(g8
(I0
tp231
g10
tp232
Rp233
(I1
(I3
tp234
g14
(S'f8'
p235
I0
I1
tp236
Rp237
(I3
S'<'
p238
NNNI-1
I-1
I0
tp239
bI00
S'p\x9c\xc2NH\x9d6@\x82\x14\n\xc9\x98\x90&\xc0P\xc6\xd3\xd4\xd1\xbf\x16\xc0'
p240
tp241
bsS'secnames'
p242
S'Cell[3].axon[40]'
p243
sI149
I1
tp244
a(F1.826212661882853
S'Cell[2].dend[10] syn_ = new FastInhib(0.166666666667)'
p245
I2
(dp246
S'seg'
p247
F0.5
sS'hostfrom'
p248
F6.0
sS'gid'
p249
I150
sS'coords'
p250
g7
(g8
(I0
tp251
g10
tp252
Rp253
(I1
(I3
tp254
g14
(S'f8'
p255
I0
I1
tp256
Rp257
(I3
S'<'
p258
NNNI-1
I-1
I0
tp259
bI00
S'\x14\xa8\x95\x1d\xe5\x86T@\xc8\xe6P\xb3^\x05/\xc0\x00\x00\x00\x80\x14\xee>\xc0'
p260
tp261
bsS'secnames'
p262
S'Cell[3].axon[91]'
p263
sI150
I97
tp264
a(F2.3216172247795974
S'Cell[3].dend[7] syn_ = new FastInhib(0.833333333333)'
p265
I3
(dp266
S'seg'
p267
F0.30000000000000004
sS'hostfrom'
p268
F7.0
sS'gid'
p269
I103
sS'coords'
p270
g7
(g8
(I0
tp271
g10
tp272
Rp273
(I1
(I3
tp274
g14
(S'f8'
p275
I0
I1
tp276
Rp277
(I3
S'<'
p278
NNNI-1
I-1
I0
tp279
bI00
S'|\x19\xd2G\x031;@\x96\xc3\xf9p\xb2V\x1e@\xfa<\xad>U\xd6+\xc0'
p280
tp281
bsS'secnames'
p282
S'Cell[2].axon[39]'
p283
sI103
I145
tp284
a(F1.5855732541776617
S'Cell[0].apic[24] syn_ = new AmpaNmda(0.0454545454545)'
p285
I0
(dp286
S'seg'
p287
F0.16666666666666666
sS'hostfrom'
p288
F8.0
sS'gid'
p289
I152
sS'coords'
p290
g7
(g8
(I0
tp291
g10
tp292
Rp293
(I1
(I3
tp294
g14
(S'f8'
p295
I0
I1
tp296
Rp297
(I3
S'<'
p298
NNNI-1
I-1
I0
tp299
bI00
S'\x91\xfb\x1a=\xbc?P@\x03\xfbT\xbcIdX@\xbe\x14l\xb4B\xbd.\xc0'
p300
tp301
bsS'secnames'
p302
S'Cell[3].axon[406]'
p303
sI152
I1
tp304
a(F1.9214814940067133
S'Cell[2].dend[23] syn_ = new FastInhib(0.5)'
p305
I2
(dp306
g287
F0.8999999999999999
sg288
F8.0
sg289
I152
sg290
g7
(g8
(I0
tp307
g10
tp308
Rp309
(I1
(I3
tp310
g297
I00
S'\x02\xa8h|\xbe\x02@@\xc8\xf0\xd3\xf5b\xa8A\xc0\xfa\xeb\x99\xf9\x98\xa0&\xc0'
p311
tp312
bsg302
S'Cell[3].axon[523]'
p313
sI152
I97
tp314
a(F2.2178052244315754
S'Cell[3].dend[34] syn_ = new FastInhib(0.5)'
p315
I3
(dp316
g287
F0.5
sg288
F8.0
sg289
I152
sg290
g7
(g8
(I0
tp317
g10
tp318
Rp319
(I1
(I3
tp320
g297
I00
S'a\xc1(\xf0^\xceU\xc0\xeb\xa9[\xb5\x03]T@\x00\x00\x00 \x85\xeb$@'
p321
tp322
bsg302
S'Cell[3].axon[538]'
p323
sI152
I145
tp324
a(F2.3915888178056304
S'Cell[0].dend[13] syn_ = new AmpaNmda(0.833333333333)'
p325
I0
(dp326
g287
F0.5
sg288
F8.0
sg289
I104
sg290
g7
(g8
(I0
tp327
g10
tp328
Rp329
(I1
(I3
tp330
g297
I00
S'\x00\x00\x00@\xe1\xfa.\xc0\x00\x00\x00\xa0G\xe1,@\x00\x00\x00@\n\xd7\xd3?'
p331
tp332
bsg302
S'Cell[2].soma[0]'
p333
sI104
I1
tp334
a(F1.8753937658066075
S'Cell[2].dend[18] syn_ = new FastInhib(0.1)'
p335
I2
(dp336
g287
F0.5
sg288
F8.0
sg289
I104
sg290
g7
(g8
(I0
tp337
g10
tp338
Rp339
(I1
(I3
tp340
g297
I00
S'\xdf\xe38\xb6 \xdd=@\xa1\x0b\x0f\xc5e\xf89\xc0n\x07\xea\x9c\x94\xfd>\xc0'
p341
tp342
bsg302
S'Cell[2].axon[105]'
p343
sI104
I97
tp344
a(F2.109573587981585
S'Cell[0].dend[3] syn_ = new AmpaNmda(0.1)'
p345
I0
(dp346
g287
F0.5
sg288
F8.0
sg289
I104
sg290
g7
(g8
(I0
tp347
g10
tp348
Rp349
(I1
(I3
tp350
g297
I00
S'\xaa\xc7\x18\xd8&\xbaE@\xd4h\xee\xe9\xba\xf76\xc0\x82eU\x1f\xd1\xb97\xc0'
p351
tp352
bsg302
S'Cell[2].axon[164]'
p353
sI104
I1
tp354
a(F1.2261408402462672
S'Cell[3].dend[5] syn_ = new FastInhib(0.5)'
p355
I3
(dp356
g287
F0.16666666666666666
sg288
F8.0
sg289
I104
sg290
g7
(g8
(I0
tp357
g10
tp358
Rp359
(I1
(I3
tp360
g297
I00
S'$)\x04\xed\xd0\n1\xc0j;\xcf\xb9\xae7$\xc0\x0fW\xae\xea\xdc\x83\x02\xc0'
p361
tp362
bsg302
S'Cell[2].axon[338]'
p363
sI104
I145
tp364
a(F1.9394748492814151
S'Cell[3].dend[50] syn_ = new FastInhib(0.5)'
p365
I3
(dp366
S'seg'
p367
F0.16666666666666666
sS'hostfrom'
p368
F9.0
sS'gid'
p369
I153
sS'coords'
p370
g7
(g8
(I0
tp371
g10
tp372
Rp373
(I1
(I3
tp374
g14
(S'f8'
p375
I0
I1
tp376
Rp377
(I3
S'<'
p378
NNNI-1
I-1
I0
tp379
bI00
S'\x14t\xea\xe5\xe6+K\xc0\xbc\x89\xb8\x94`6F\xc0\x00\x00\x00\xa0p\xbd%@'
p380
tp381
bsS'secnames'
p382
S'Cell[3].axon[26]'
p383
sI153
I145
tp384
a(F1.1442579024029118
S'Cell[0].dend[2] syn_ = new ExpSid(0.1)'
p385
I0
(dp386
g367
F0.8333333333333333
sg368
F9.0
sg369
I9
sg370
g7
(g8
(I0
tp387
g10
tp388
Rp389
(I1
(I3
tp390
g377
I00
S'\xf4<\x04\xb1j\x0bD@:5;N\xf1r?\xc0\x00\x00\x00\xa0p=,\xc0'
p391
tp392
bsg382
S'Cell[0].axon[20]'
p393
sI9
I1
tp394
a(F1.1567945301764637
S'Cell[2].dend[19] syn_ = new FastInhib(0.5)'
p395
I2
g386
I9
I97
tp396
a(F1.4002046669337225
S'Cell[2].apic[3] syn_ = new FastInhib(0.0714285714286)'
p397
I2
(dp398
g367
F0.16666666666666666
sg368
F9.0
sg369
I105
sg370
g7
(g8
(I0
tp399
g10
tp400
Rp401
(I1
(I3
tp402
g377
I00
S'\xf1\xe8\x1a\xea\xeavB@\xee\xe72G\xc6CM\xc0CRp\xc7\x84\xc31\xc0'
p403
tp404
bsg382
S'Cell[2].axon[112]'
p405
sI105
I97
tp406
a(F1.8607840932508033
S'Cell[1].apic[28] syn_ = new AmpaNmda(0.833333333333)'
p407
I1
(dp408
S'seg'
p409
F0.5
sS'hostfrom'
p410
F10.0
sS'gid'
p411
I106
sS'coords'
p412
g7
(g8
(I0
tp413
g10
tp414
Rp415
(I1
(I3
tp416
g14
(S'f8'
p417
I0
I1
tp418
Rp419
(I3
S'<'
p420
NNNI-1
I-1
I0
tp421
bI00
S'0\x06\xca/\x9b\r1@dZ\xceV\xee\xdc`\xc0\xe5\xc2\xe3\xad\xe5O>\xc0'
p422
tp423
bsS'secnames'
p424
S'Cell[2].axon[99]'
p425
sI106
I49
tp426
a(F1.2449268363598345
S'Cell[3].dend[6] syn_ = new FastInhib(0.5)'
p427
I3
(dp428
g409
F0.16666666666666666
sg410
F10.0
sg411
I106
sg412
g7
(g8
(I0
tp429
g10
tp430
Rp431
(I1
(I3
tp432
g419
I00
S'\xa3\x90\x15\x00\x95\x91@@\xb0C\xcb\xc2\xab{8\xc0)\x1fR\x9d@\x1f@\xc0'
p433
tp434
bsg424
S'Cell[2].axon[282]'
p435
sI106
I145
tp436
a(F2.4945277409504034
S'Cell[0].apic[9] syn_ = new AmpaNmda(0.5)'
p437
I0
(dp438
g409
F0.5
sg410
F10.0
sg411
I106
sg412
g7
(g8
(I0
tp439
g10
tp440
Rp441
(I1
(I3
tp442
g419
I00
S'\x94x\r\x84\x0c\xf3#\xc0}\xd6\x9c\x9d\x07TG@\x82\x08t\x80\xdc"@\xc0'
p443
tp444
bsg424
S'Cell[2].axon[305]'
p445
sI106
I1
tp446
a(F2.333150615089065
S'Cell[0].dend[3] syn_ = new ExpSid(0.7)'
p447
I0
(dp448
S'seg'
p449
F0.49999999999999994
sS'hostfrom'
p450
F11.0
sS'gid'
p451
I155
sS'coords'
p452
g7
(g8
(I0
tp453
g10
tp454
Rp455
(I1
(I3
tp456
g14
(S'f8'
p457
I0
I1
tp458
Rp459
(I3
S'<'
p460
NNNI-1
I-1
I0
tp461
bI00
S'\xc6\x12w\xddq\xa25@Z\x03\x04\x00\x97\x8dP\xc0Y\xa8\xd4S\xb8\xfbP\xc0'
p462
tp463
bsS'secnames'
p464
S'Cell[3].axon[234]'
p465
sI155
I1
tp466
a(F2.1157489925362722
S'Cell[3].dend[9] syn_ = new FastInhib(0.5)'
p467
I3
(dp468
S'seg'
p469
F0.16666666666666666
sS'hostfrom'
p470
F13.0
sS'gid'
p471
I109
sS'coords'
p472
g7
(g8
(I0
tp473
g10
tp474
Rp475
(I1
(I3
tp476
g14
(S'f8'
p477
I0
I1
tp478
Rp479
(I3
S'<'
p480
NNNI-1
I-1
I0
tp481
bI00
S'xH91r\xeb1@\xf5\xd9=x\x9c\x8a\x17@\x953\x7f\xa1\r\x8e:\xc0'
p482
tp483
bsS'secnames'
p484
S'Cell[2].axon[242]'
p485
sI109
I145
tp486
a(F1.7835568112415026
S'Cell[0].apic[19] syn_ = new AmpaNmda(0.5)'
p487
I0
(dp488
S'seg'
p489
F0.5
sS'hostfrom'
p490
F14.0
sS'gid'
p491
I110
sS'coords'
p492
g7
(g8
(I0
tp493
g10
tp494
Rp495
(I1
(I3
tp496
g14
(S'f8'
p497
I0
I1
tp498
Rp499
(I3
S'<'
p500
NNNI-1
I-1
I0
tp501
bI00
S'\x95rX\x00\xd2\xa8L@\xad\xe9\xb8\x14\xea\xc3C@\xec\xe7\xa1wI\x13\x02\xc0'
p502
tp503
bsS'secnames'
p504
S'Cell[2].axon[137]'
p505
sI110
I1
tp506
a(F2.465974233052644
S'Cell[2].dend[15] syn_ = new FastInhib(0.3)'
p507
I2
(dp508
S'seg'
p509
F0.8333333333333333
sS'hostfrom'
p510
F15.0
sS'gid'
p511
I159
sS'coords'
p512
g7
(g8
(I0
tp513
g10
tp514
Rp515
(I1
(I3
tp516
g14
(S'f8'
p517
I0
I1
tp518
Rp519
(I3
S'<'
p520
NNNI-1
I-1
I0
tp521
bI00
S'\x8c\t\xafI]\xfdR@UxCbwhL\xc0\x94\x8c\xa4Kz\xb6A\xc0'
p522
tp523
bsS'secnames'
p524
S'Cell[3].axon[8]'
p525
sI159
I97
tp526
a(F2.298759358836355
S'Cell[3].dend[18] syn_ = new FastInhib(0.833333333333)'
p527
I3
(dp528
g509
F0.16666666666666666
sg510
F15.0
sg511
I159
sg512
g7
(g8
(I0
tp529
g10
tp530
Rp531
(I1
(I3
tp532
g519
I00
S'\x90\x81\x1e\x1eK\xcf\x11\xc0\x00\xf1\xb8\xda\xff\x80H@\xadz\x11\xeb\xd1\x964@'
p533
tp534
bsg524
S'Cell[3].axon[288]'
p535
sI159
I145
tp536
a(F1.696629193329083
S'Cell[2].apic[12] syn_ = new FastInhib(0.5)'
p537
I2
(dp538
S'seg'
p539
F0.16666666666666666
sS'hostfrom'
p540
F16.0
sS'gid'
p541
I160
sS'coords'
p542
g7
(g8
(I0
tp543
g10
tp544
Rp545
(I1
(I3
tp546
g14
(S'f8'
p547
I0
I1
tp548
Rp549
(I3
S'<'
p550
NNNI-1
I-1
I0
tp551
bI00
S'6\xee\xc7dM*J@wP\xbd\xb1\x89\x84K\xc0yG\x90\x00u\xce\x1d@'
p552
tp553
bsS'secnames'
p554
S'Cell[3].axon[133]'
p555
sI160
I97
tp556
a(F2.205434023011807
S'Cell[3].dend[7] syn_ = new FastInhib(0.833333333333)'
p557
I3
(dp558
g539
F0.5
sg540
F16.0
sg541
I160
sg542
g7
(g8
(I0
tp559
g10
tp560
Rp561
(I1
(I3
tp562
g549
I00
S"b:\xf74\x8eG<@\xb3 \\\xa3\x9b\xa9\x1c@P\x8e\x1d\xb2\xff|'\xc0"
p563
tp564
bsg554
S'Cell[3].axon[138]'
p565
sI160
I145
tp566
a(F0.8964500242159802
S'Cell[3].dend[40] syn_ = new FastInhib(0.166666666667)'
p567
I3
(dp568
g539
F0.5
sg540
F16.0
sg541
I112
sg542
g7
(g8
(I0
tp569
g10
tp570
Rp571
(I1
(I3
tp572
g549
I00
S"\xf8\x04\xb4%\xd9HN\xc0\xc1\x90I\xcb+\xafA@\x00\x00\x00\xe0z\x14'\xc0"
p573
tp574
bsg554
S'Cell[2].axon[177]'
p575
sI112
I145
tp576
a(F2.2622296635556536
S'Cell[3].dend[26] syn_ = new FastInhib(0.166666666667)'
p577
I3
(dp578
S'seg'
p579
F0.5
sS'hostfrom'
p580
F17.0
sS'gid'
p581
I17
sS'coords'
p582
g7
(g8
(I0
tp583
g10
tp584
Rp585
(I1
(I3
tp586
g14
(S'f8'
p587
I0
I1
tp588
Rp589
(I3
S'<'
p590
NNNI-1
I-1
I0
tp591
bI00
S'<\x08\xa6\x14)qQ\xc0@\xaff\xdf\xaa\xe1\xc4?"\x95\xcf^\x8eQ(@'
p592
tp593
bsS'secnames'
p594
S'Cell[0].axon[2]'
p595
sI17
I145
tp596
a(F1.88977851753014
S'Cell[0].dend[2] syn_ = new ExpSid(0.5)'
p597
I0
(dp598
g579
F0.5
sg580
F17.0
sg581
I113
sg582
g7
(g8
(I0
tp599
g10
tp600
Rp601
(I1
(I3
tp602
g589
I00
S'|\x81\x07\xd4t\xe5-@@FO\xfa\xac\xb2P\xc0\x14\xcd\xf9\xb9_\x9c%\xc0'
p603
tp604
bsg594
S'Cell[2].axon[10]'
p605
sI113
I1
tp606
a(F1.221649137153248
S'Cell[1].apic[31] syn_ = new ExpSid(0.5)'
p607
I1
(dp608
g579
F0.5
sg580
F17.0
sg581
I113
sg582
g7
(g8
(I0
tp609
g10
tp610
Rp611
(I1
(I3
tp612
g589
I00
S'&\xdf\xc9\xd0\xa5\xbaC\xc0\x1e\xa9\x02q\xcf\xad`\xc0\x00\x00\x00`\xb8\x1e-@'
p613
tp614
bsg594
S'Cell[2].axon[597]'
p615
sI113
I49
tp616
a(F1.731395645440808
S'Cell[0].dend[3] syn_ = new ExpSid(0.1)'
p617
I0
(dp618
g579
F0.8333333333333333
sg580
F17.0
sg581
I113
sg582
g7
(g8
(I0
tp619
g10
tp620
Rp621
(I1
(I3
tp622
g589
I00
S'33\xeaQ=\xf2D@\xa8\xa9\x9f~\n\xc93\xc00x[A\x16\x9d8\xc0'
p623
tp624
bsg594
S'Cell[2].axon[609]'
p625
sI113
I1
tp626
a(F2.3229627559070947
S'Cell[3].dend[49] syn_ = new FastInhib(0.5)'
p627
I3
(dp628
g579
F0.07142857142857142
sg580
F17.0
sg581
I161
sg582
g7
(g8
(I0
tp629
g10
tp630
Rp631
(I1
(I3
tp632
g589
I00
S'k\xeb\xb9l\xe3\x95G\xc0>rK\xf3\xef\xb7-\xc0\xc0x\x84E\xf9\x8e,@'
p633
tp634
bsg594
S'Cell[3].axon[84]'
p635
sI161
I145
tp636
a(F1.553513411643279
S'Cell[3].dend[3] syn_ = new FastInhib(0.5)'
p637
I3
(dp638
g579
F0.5
sg580
F17.0
sg581
I65
sg582
g7
(g8
(I0
tp639
g10
tp640
Rp641
(I1
(I3
tp642
g589
I00
S'\x9f\xb3\x8f\xe7\xc4\x91%@}\xee\x04\x08\xa8UE\xc0\x9d\xcc\x97\xeb\x81\xc1?\xc0'
p643
tp644
bsg594
S'Cell[1].axon[26]'
p645
sI65
I145
tp646
a(F1.213603656834229
S'Cell[3].dend[4] syn_ = new FastInhib(0.833333333333)'
p647
I3
(dp648
S'seg'
p649
F0.5
sS'hostfrom'
p650
F18.0
sS'gid'
p651
I66
sS'coords'
p652
g7
(g8
(I0
tp653
g10
tp654
Rp655
(I1
(I3
tp656
g14
(S'f8'
p657
I0
I1
tp658
Rp659
(I3
S'<'
p660
NNNI-1
I-1
I0
tp661
bI00
S'\xa4\x84E^\\ C@\xc3\xf5u\xd4[\xd6A\xc0\xee\x83\x90\x05\xef\x0c.\xc0'
p662
tp663
bsS'secnames'
p664
S'Cell[1].axon[6]'
p665
sI66
I145
tp666
a(F1.2875839903954192
S'Cell[0].dend[15] syn_ = new ExpSid(0.5)'
p667
I0
(dp668
S'seg'
p669
F0.5
sS'hostfrom'
p670
F19.0
sS'gid'
p671
I115
sS'coords'
p672
g7
(g8
(I0
tp673
g10
tp674
Rp675
(I1
(I3
tp676
g14
(S'f8'
p677
I0
I1
tp678
Rp679
(I3
S'<'
p680
NNNI-1
I-1
I0
tp681
bI00
S'\x00\x00\x00\xf8\xff\xffB\xc0\x00\x00\x00 \\\x0fA@\x00\x00\x00\xc0\xcc\xcc\n\xc0'
p682
tp683
bsS'secnames'
p684
S'Cell[2].soma[0]'
p685
sI115
I1
tp686
a(F1.928533600196915
S'Cell[0].dend[19] syn_ = new ExpSid(0.5)'
p687
I0
(dp688
g669
F0.6428571428571428
sg670
F19.0
sg671
I115
sg672
g7
(g8
(I0
tp689
g10
tp690
Rp691
(I1
(I3
tp692
g679
I00
S'\x06\xde3\t\xa3\xeaT@0:*D\xfbS\xb9\xbf\xe4\x07\x93\x95\x8de @'
p693
tp694
bsg684
S'Cell[2].axon[250]'
p695
sI115
I1
tp696
a(F1.9434873787751799
S'Cell[2].dend[1] syn_ = new FastInhib(0.833333333333)'
p697
I2
(dp698
g669
F0.5
sg670
F19.0
sg671
I163
sg672
g7
(g8
(I0
tp699
g10
tp700
Rp701
(I1
(I3
tp702
g679
I00
S'\x00\x00\x00\xc0Q\xb8\x14\xc0\x00\x00\x00\xa0p=,\xc0\x00\x00\x00\x00\xd7\xa3\x0e@'
p703
tp704
bsg684
S'Cell[3].soma[0]'
p705
sI163
I97
tp706
a(F2.431213755071339
S'Cell[2].dend[25] syn_ = new FastInhib(0.5)'
p707
I2
(dp708
S'seg'
p709
F0.5
sS'hostfrom'
p710
F21.0
sS'gid'
p711
I165
sS'coords'
p712
g7
(g8
(I0
tp713
g10
tp714
Rp715
(I1
(I3
tp716
g14
(S'f8'
p717
I0
I1
tp718
Rp719
(I3
S'<'
p720
NNNI-1
I-1
I0
tp721
bI00
S'\x94\xe1\x95\\\x97\xf73@\x92\n\x08I\x9f\x0cD\xc0\xa9\x15\xbcN\xec\xf5/\xc0'
p722
tp723
bsS'secnames'
p724
S'Cell[3].axon[281]'
p725
sI165
I97
tp726
a(F1.8131405419077946
S'Cell[2].dend[19] syn_ = new FastInhib(0.5)'
p727
I2
(dp728
g709
F0.1
sg710
F21.0
sg711
I165
sg712
g7
(g8
(I0
tp729
g10
tp730
Rp731
(I1
(I3
tp732
g719
I00
S'(\xf0\x08\xae#\xb0B@l\x9fv\xcf$\xca?\xc0\x12*#\x9b\xf0Q.\xc0'
p733
tp734
bsg724
S'Cell[3].axon[295]'
p735
sI165
I97
tp736
a(F2.453466649156273
S'Cell[0].apic[9] syn_ = new ExpSid(0.357142857143)'
p737
I0
(dp738
g709
F0.5
sg710
F21.0
sg711
I117
sg712
g7
(g8
(I0
tp739
g10
tp740
Rp741
(I1
(I3
tp742
g719
I00
S'\xac9\x1f2\xb8\xb1\x0b@\xc0\n<X\xe4HE@\x00\x00\x00\x80\xc2u9\xc0'
p743
tp744
bsg724
S'Cell[2].axon[11]'
p745
sI117
I1
tp746
a(F1.6904272059501024
S'Cell[0].apic[1] syn_ = new ExpSid(0.833333333333)'
p747
I0
(dp748
g709
F0.5
sg710
F21.0
sg711
I117
sg712
g7
(g8
(I0
tp749
g10
tp750
Rp751
(I1
(I3
tp752
g719
I00
S'\n\xd0\x1f\x81\xff&G@GPF\xc5PBB@\x0eR;\xae\xf4\xed9\xc0'
p753
tp754
bsg724
S'Cell[2].axon[30]'
p755
sI117
I1
tp756
a(F2.1050898316858007
S'Cell[1].apic[10] syn_ = new ExpSid(0.833333333333)'
p757
I1
(dp758
g709
F0.5
sg710
F21.0
sg711
I69
sg712
g7
(g8
(I0
tp759
g10
tp760
Rp761
(I1
(I3
tp762
g719
I00
S'\xa2\xdb\xb1\xddLj,\xc0\xf7^\xae0\x04CQ\xc0\x00\x00\x00\x80\xebQ+@'
p763
tp764
bsg724
S'Cell[1].axon[7]'
p765
sI69
I49
tp766
a(F2.378800832825058
S'Cell[2].dend[15] syn_ = new FastInhib(0.7)'
p767
I2
(dp768
S'seg'
p769
F0.5
sS'hostfrom'
p770
F22.0
sS'gid'
p771
I118
sS'coords'
p772
g7
(g8
(I0
tp773
g10
tp774
Rp775
(I1
(I3
tp776
g14
(S'f8'
p777
I0
I1
tp778
Rp779
(I3
S'<'
p780
NNNI-1
I-1
I0
tp781
bI00
S'\x1bd\xa2z@\xbfX@;2\xff\x8ciGV\xc0\x189` ,dE\xc0'
p782
tp783
bsS'secnames'
p784
S'Cell[2].axon[1]'
p785
sI118
I97
tp786
a(F2.355888252540904
S'Cell[0].dend[15] syn_ = new AmpaNmda(0.166666666667)'
p787
I0
(dp788
g769
F0.5
sg770
F22.0
sg771
I166
sg772
g7
(g8
(I0
tp789
g10
tp790
Rp791
(I1
(I3
tp792
g779
I00
S'w\xea4>\xaf\xc43\xc0*\x02\xf8eT\x117@\xa0\x96\xa5\xd8\xc4{\xd6\xbf'
p793
tp794
bsg784
S'Cell[3].axon[141]'
p795
sI166
I1
tp796
a(F1.8648296314113804
S'Cell[2].dend[3] syn_ = new FastInhib(0.5)'
p797
I2
(dp798
g769
F0.16666666666666666
sg770
F22.0
sg771
I166
sg772
g7
(g8
(I0
tp799
g10
tp800
Rp801
(I1
(I3
tp802
g779
I00
S'\x88\xbauU\x95%\x19\xc0\xa5,\xe4\xcc"\x1a @\x1e\xf1LyM@\x14@'
p803
tp804
bsg784
S'Cell[3].axon[199]'
p805
sI166
I97
tp806
a(F2.402861561457479
S'Cell[2].dend[3] syn_ = new FastInhib(0.833333333333)'
p807
I2
(dp808
S'seg'
p809
F0.3888888888888889
sS'hostfrom'
p810
F23.0
sS'gid'
p811
I167
sS'coords'
p812
g7
(g8
(I0
tp813
g10
tp814
Rp815
(I1
(I3
tp816
g14
(S'f8'
p817
I0
I1
tp818
Rp819
(I3
S'<'
p820
NNNI-1
I-1
I0
tp821
bI00
S'\xde\xe4~@@57\xc02\xa6\x8f\xf1\xfbC$@\x85\xc0\xaa\t\xe7\x9e"@'
p822
tp823
bsS'secnames'
p824
S'Cell[3].axon[1]'
p825
sI167
I97
tp826
a(F1.8052626215259895
S'Cell[2].dend[4] syn_ = new FastInhib(0.166666666667)'
p827
I2
(dp828
S'seg'
p829
F0.1
sS'hostfrom'
p830
F24.0
sS'gid'
p831
I120
sS'coords'
p832
g7
(g8
(I0
tp833
g10
tp834
Rp835
(I1
(I3
tp836
g14
(S'f8'
p837
I0
I1
tp838
Rp839
(I3
S'<'
p840
NNNI-1
I-1
I0
tp841
bI00
S'\x08:\xe9I\xfb^&@\xef}\xe8\xc3>\x93\xe7?\x9a\x1b\x90\x8c\xed\xba:\xc0'
p842
tp843
bsS'secnames'
p844
S'Cell[2].axon[46]'
p845
sI120
I97
tp846
a(F1.8558106822202036
S'Cell[3].dend[1] syn_ = new FastInhib(0.5)'
p847
I3
(dp848
S'seg'
p849
F0.5
sS'hostfrom'
p850
F25.0
sS'gid'
p851
I169
sS'coords'
p852
g7
(g8
(I0
tp853
g10
tp854
Rp855
(I1
(I3
tp856
g14
(S'f8'
p857
I0
I1
tp858
Rp859
(I3
S'<'
p860
NNNI-1
I-1
I0
tp861
bI00
S'\x00\x00\x000\\\xaf@\xc0\x00\x00\x00\xa0G\xe1*\xc0\x00\x00\x00\xc0\xf5(\x02@'
p862
tp863
bsS'secnames'
p864
S'Cell[3].soma[0]'
p865
sI169
I145
tp866
a(F2.436361289861645
S'Cell[3].dend[15] syn_ = new FastInhib(0.166666666667)'
p867
I3
(dp868
g849
F0.5
sg850
F25.0
sg851
I169
sg852
g7
(g8
(I0
tp869
g10
tp870
Rp871
(I1
(I3
tp872
g859
I00
S'\xd7\\\x15p\xf3\x1f6\xc0,w\xd9\x89\xad\xce+@\x00\x00\x00\xa0\x99\x992@'
p873
tp874
bsg864
S'Cell[3].axon[238]'
p875
sI169
I145
tp876
a(F2.342992679507787
S'Cell[0].apic[9] syn_ = new AmpaNmda(0.357142857143)'
p877
I0
(dp878
S'seg'
p879
F0.8333333333333333
sS'hostfrom'
p880
F26.0
sS'gid'
p881
I170
sS'coords'
p882
g7
(g8
(I0
tp883
g10
tp884
Rp885
(I1
(I3
tp886
g14
(S'f8'
p887
I0
I1
tp888
Rp889
(I3
S'<'
p890
NNNI-1
I-1
I0
tp891
bI00
S'\xee+n\x8b\xdb\x96\x03@\x88h9\xf0\x1b\x14E@p\x9e\xb2BwC6\xc0'
p892
tp893
bsS'secnames'
p894
S'Cell[3].axon[468]'
p895
sI170
I1
tp896
a(F1.5580387645243103
S'Cell[2].apic[6] syn_ = new FastInhib(0.5)'
p897
I2
(dp898
g879
F0.7222222222222223
sg880
F26.0
sg881
I170
sg882
g7
(g8
(I0
tp899
g10
tp900
Rp901
(I1
(I3
tp902
g889
I00
S'\x84Z\xc1\xc8\xc2!B\xc0"\xf1\xbe0\xab\xc9n\xc0\xb6\xd3\xb1*J\xbb2@'
p903
tp904
bsg894
S'Cell[3].axon[482]'
p905
sI170
I97
tp906
a(F1.7368955686788665
S'Cell[2].apic[9] syn_ = new FastInhib(0.166666666667)'
p907
I2
(dp908
g879
F0.8333333333333335
sg880
F26.0
sg881
I170
sg882
g7
(g8
(I0
tp909
g10
tp910
Rp911
(I1
(I3
tp912
g889
I00
S'\x8b\x9e\x9e!\xe9\x10E\xc0\xe8\r\x07]\x91\xc3p\xc0\xcb\xc3p<\xfbN8@'
p913
tp914
bsg894
S'Cell[3].axon[482]'
p915
sI170
I97
tp916
a(F2.1710389182724312
S'Cell[0].apic[19] syn_ = new ExpSid(0.833333333333)'
p917
I0
(dp918
S'seg'
p919
F0.2777777777777778
sS'hostfrom'
p920
F27.0
sS'gid'
p921
I75
sS'coords'
p922
g7
(g8
(I0
tp923
g10
tp924
Rp925
(I1
(I3
tp926
g14
(S'f8'
p927
I0
I1
tp928
Rp929
(I3
S'<'
p930
NNNI-1
I-1
I0
tp931
bI00
S'"\xab\x1b\xb8\xb58H@8F\x08\xfd\x9bV?@mK(\x08\xb32\xe5?'
p932
tp933
bsS'secnames'
p934
S'Cell[1].axon[2]'
p935
sI75
I1
tp936
a(F1.9873135186137134
S'Cell[2].apic[5] syn_ = new FastInhib(0.5)'
p937
I2
(dp938
g919
F0.30000000000000004
sg920
F27.0
sg921
I75
sg922
g7
(g8
(I0
tp939
g10
tp940
Rp941
(I1
(I3
tp942
g929
I00
S'\xc0\x02\xf3\x89CV\x04@\xfa,\x1d8;Sb\xc0\x1f\xda\x83D\xa7\x9e\x15@'
p943
tp944
bsg934
S'Cell[1].axon[23]'
p945
sI75
I97
tp946
a(F1.9561062110254122
S'Cell[3].dend[8] syn_ = new FastInhib(0.5)'
p947
I3
(dp948
g919
F0.5
sg920
F27.0
sg921
I171
sg922
g7
(g8
(I0
tp949
g10
tp950
Rp951
(I1
(I3
tp952
g929
I00
S"m#\xa1\x1e\xfb'\x01\xc0\x1f{5$*\xe4\x02\xc0\r\xe9\xd0\xbd#O\x00\xc0"
p953
tp954
bsg934
S'Cell[3].axon[21]'
p955
sI171
I145
tp956
a(F1.6224189491140384
S'Cell[2].apic[5] syn_ = new FastInhib(0.611111111111)'
p957
I2
(dp958
g919
F0.5909090909090909
sg920
F27.0
sg921
I171
sg922
g7
(g8
(I0
tp959
g10
tp960
Rp961
(I1
(I3
tp962
g929
I00
S"\x9c\x04\xaf|\xdbU\x07\xc0I\xd6\xa5\xbdR\xd6d\xc0\x00's\x91\x7f\xb6\x10@"
p963
tp964
bsg934
S'Cell[3].axon[22]'
p965
sI171
I97
tp966
a(F1.8136074770718373
S'Cell[2].apic[14] syn_ = new FastInhib(0.214285714286)'
p967
I2
(dp968
S'seg'
p969
F0.5
sS'hostfrom'
p970
F28.0
sS'gid'
p971
I76
sS'coords'
p972
g7
(g8
(I0
tp973
g10
tp974
Rp975
(I1
(I3
tp976
g14
(S'f8'
p977
I0
I1
tp978
Rp979
(I3
S'<'
p980
NNNI-1
I-1
I0
tp981
bI00
S'\x1f\xd9\xf1fh\x00P@\xca\xa3\x8a\xbb7\x00V\xc0\x00\x00\x00\x80\xebQ\x02\xc0'
p982
tp983
bsS'secnames'
p984
S'Cell[1].axon[42]'
p985
sI76
I97
tp986
a(F2.077109572101429
S'Cell[3].dend[0] syn_ = new FastInhib(0.833333333333)'
p987
I3
(dp988
g969
F0.5
sg970
F28.0
sg971
I172
sg972
g7
(g8
(I0
tp989
g10
tp990
Rp991
(I1
(I3
tp992
g979
I00
S'\x8d\xad\xb2?\xff\xa1@\xc0I\x9d:\x13")D\xc0\xc1X\x0e~|\x1aA@'
p993
tp994
bsg984
S'Cell[3].axon[54]'
p995
sI172
I145
tp996
a(F2.3331449786022436
S'Cell[3].dend[10] syn_ = new FastInhib(0.166666666667)'
p997
I3
(dp998
g969
F0.16666666666666666
sg970
F28.0
sg971
I172
sg972
g7
(g8
(I0
tp999
g10
tp1000
Rp1001
(I1
(I3
tp1002
g979
I00
S'\x9e\xf1\x9e#\xf4\xea4@\x92\xfb\x0b\xc84\x03\x16@\xe1\xfa\x8eX\xe12?\xc0'
p1003
tp1004
bsg984
S'Cell[3].axon[94]'
p1005
sI172
I145
tp1006
a(F2.0543416566801445
S'Cell[3].dend[32] syn_ = new FastInhib(0.5)'
p1007
I3
(dp1008
S'seg'
p1009
F0.21428571428571427
sS'hostfrom'
p1010
F29.0
sS'gid'
p1011
I29
sS'coords'
p1012
g7
(g8
(I0
tp1013
g10
tp1014
Rp1015
(I1
(I3
tp1016
g14
(S'f8'
p1017
I0
I1
tp1018
Rp1019
(I3
S'<'
p1020
NNNI-1
I-1
I0
tp1021
bI00
S"/'\xeb\xba\xb5\x17V\xc0(\xa9\x99k\x08\xb9S@n&\x84\xaf\x82\xb0-@"
p1022
tp1023
bsS'secnames'
p1024
S'Cell[0].axon[15]'
p1025
sI29
I145
tp1026
a(F2.329898386221444
S'Cell[2].dend[26] syn_ = new FastInhib(0.0555555555556)'
p1027
I2
(dp1028
g1009
F0.5
sg1010
F29.0
sg1011
I77
sg1012
g7
(g8
(I0
tp1029
g10
tp1030
Rp1031
(I1
(I3
tp1032
g1019
I00
S'?p\x97\t\x86\xf0)@\xbb\xfeB\xccn\x0fJ\xc04\x07.\xbfj\xe35\xc0'
p1033
tp1034
bsg1024
S'Cell[1].axon[17]'
p1035
sI77
I97
tp1036
a(F2.0624992828914017
S'Cell[1].apic[26] syn_ = new AmpaNmda(0.166666666667)'
p1037
I1
(dp1038
S'seg'
p1039
F0.8333333333333333
sS'hostfrom'
p1040
F32.0
sS'gid'
p1041
I176
sS'coords'
p1042
g7
(g8
(I0
tp1043
g10
tp1044
Rp1045
(I1
(I3
tp1046
g14
(S'f8'
p1047
I0
I1
tp1048
Rp1049
(I3
S'<'
p1050
NNNI-1
I-1
I0
tp1051
bI00
S'm\x86\xa7\xe8\xee\x906@\x08\xb23\xb9px^\xc0\x00\x00\x00@33)\xc0'
p1052
tp1053
bsS'secnames'
p1054
S'Cell[3].axon[7]'
p1055
sI176
I49
tp1056
a(F1.9656325626398339
S'Cell[3].dend[36] syn_ = new FastInhib(0.7)'
p1057
I3
(dp1058
S'seg'
p1059
F0.8999999999999999
sS'hostfrom'
p1060
F33.0
sS'gid'
p1061
I129
sS'coords'
p1062
g7
(g8
(I0
tp1063
g10
tp1064
Rp1065
(I1
(I3
tp1066
g14
(S'f8'
p1067
I0
I1
tp1068
Rp1069
(I3
S'<'
p1070
NNNI-1
I-1
I0
tp1071
bI00
S'f\x9ci\xc3wI]\xc0 \x9e\xaa\x90\xd7tX@\xa6\xc8\xc67\x95C\x1f\xc0'
p1072
tp1073
bsS'secnames'
p1074
S'Cell[2].axon[19]'
p1075
sI129
I145
tp1076
a(F1.6035285395337493
S'Cell[3].dend[18] syn_ = new FastInhib(0.833333333333)'
p1077
I3
(dp1078
g1059
F0.7
sg1060
F33.0
sg1061
I129
sg1062
g7
(g8
(I0
tp1079
g10
tp1080
Rp1081
(I1
(I3
tp1082
g1069
I00
S"E\xc9)H\x01>\x16\xc0'\xda\x1c\xa0\x8f!I@\x00\x00\x00\xc0\xccL1@"
p1083
tp1084
bsg1074
S'Cell[2].axon[70]'
p1085
sI129
I145
tp1086
a(F2.401601581419759
S'Cell[0].dend[28] syn_ = new ExpSid(0.5)'
p1087
I0
(dp1088
g1059
F0.5
sg1060
F33.0
sg1061
I177
sg1062
g7
(g8
(I0
tp1089
g10
tp1090
Rp1091
(I1
(I3
tp1092
g1069
I00
S'V\xd3\xae\x07\\a]@\x87\xa9~\x96\xccrD@\x00\x00\x00`\xb8\x1e\xfd?'
p1093
tp1094
bsg1074
S'Cell[3].axon[15]'
p1095
sI177
I1
tp1096
a(F2.38952378970552
S'Cell[0].apic[19] syn_ = new ExpSid(0.5)'
p1097
I0
(dp1098
g1059
F0.5
sg1060
F33.0
sg1061
I177
sg1062
g7
(g8
(I0
tp1099
g10
tp1100
Rp1101
(I1
(I3
tp1102
g1069
I00
S' \xa0*e\xe1\xa5L@\xcc\x9f[wslD@z\x05\xa9\xfa\xab\xd1\x11\xc0'
p1103
tp1104
bsg1074
S'Cell[3].axon[20]'
p1105
sI177
I1
tp1106
a(F2.2943838143507262
S'Cell[1].apic[28] syn_ = new ExpSid(0.166666666667)'
p1107
I1
(dp1108
g1059
F0.5
sg1060
F33.0
sg1061
I81
sg1062
g7
(g8
(I0
tp1109
g10
tp1110
Rp1111
(I1
(I3
tp1112
g1069
I00
S'\xba\x16J\x0bFk#\xc0\xfclo\xcb\x82c^\xc0b;\xe9E\x84\x8f!\xc0'
p1113
tp1114
bsg1074
S'Cell[1].axon[7]'
p1115
sI81
I49
tp1116
a(F2.3299551613981393
S'Cell[1].apic[2] syn_ = new ExpSid(0.5)'
p1117
I1
(dp1118
g1059
F0.8999999999999999
sg1060
F33.0
sg1061
I81
sg1062
g7
(g8
(I0
tp1119
g10
tp1120
Rp1121
(I1
(I3
tp1122
g1069
I00
S'\xeb$b\x87w\xefL\xc0\x9b\xd8\xe6a\x17\xaaF@L8\x8e\xfd\xdf\xce=\xc0'
p1123
tp1124
bsg1074
S'Cell[1].axon[58]'
p1125
sI81
I49
tp1126
a(F2.059354728867871
S'Cell[2].dend[27] syn_ = new FastInhib(0.0714285714286)'
p1127
I2
(dp1128
g1059
F0.16666666666666669
sg1060
F33.0
sg1061
I81
sg1062
g7
(g8
(I0
tp1129
g10
tp1130
Rp1131
(I1
(I3
tp1132
g1069
I00
S'\x9a;\xa5\x1c}L6@\xd6\x1ce\xc2E$K\xc0\x00\x00\x00\x00\xd7c3\xc0'
p1133
tp1134
bsg1074
S'Cell[1].axon[74]'
p1135
sI81
I97
tp1136
a(F2.447029354181424
S'Cell[2].dend[15] syn_ = new FastInhib(0.5)'
p1137
I2
(dp1138
S'seg'
p1139
F0.5
sS'hostfrom'
p1140
F35.0
sS'gid'
p1141
I83
sS'coords'
p1142
g7
(g8
(I0
tp1143
g10
tp1144
Rp1145
(I1
(I3
tp1146
g14
(S'f8'
p1147
I0
I1
tp1148
Rp1149
(I3
S'<'
p1150
NNNI-1
I-1
I0
tp1151
bI00
S'\xa3\x02d\x95\x06\xefV@|\xaeM\xc1\x96\xfaP\xc0\xcf\xceM\x1a\x10\x80B\xc0'
p1152
tp1153
bsS'secnames'
p1154
S'Cell[1].axon[166]'
p1155
sI83
I97
tp1156
a(F1.640163987783578
S'Cell[0].apic[3] syn_ = new ExpSid(0.833333333333)'
p1157
I0
(dp1158
g1139
F0.5
sg1140
F35.0
sg1141
I179
sg1142
g7
(g8
(I0
tp1159
g10
tp1160
Rp1161
(I1
(I3
tp1162
g1149
I00
S'vES\xa5\xbd\xb9C@\x91\xd7O\x83\xcddO@\xf45\xc1S5\xe3F\xc0'
p1163
tp1164
bsg1154
S'Cell[3].axon[149]'
p1165
sI179
I1
tp1166
a(F2.1670534100569667
S'Cell[3].dend[40] syn_ = new FastInhib(0.833333333333)'
p1167
I3
(dp1168
S'seg'
p1169
F0.8333333333333333
sS'hostfrom'
p1170
F36.0
sS'gid'
p1171
I84
sS'coords'
p1172
g7
(g8
(I0
tp1173
g10
tp1174
Rp1175
(I1
(I3
tp1176
g14
(S'f8'
p1177
I0
I1
tp1178
Rp1179
(I3
S'<'
p1180
NNNI-1
I-1
I0
tp1181
bI00
S'\xfc)\xa7\xbf\xcb\x87J\xc0Y\x80F\x00{tK@\x00\x00\x00 \x85\xab3\xc0'
p1182
tp1183
bsS'secnames'
p1184
S'Cell[1].axon[272]'
p1185
sI84
I145
tp1186
a(F2.436538295205377
S'Cell[3].dend[36] syn_ = new FastInhib(0.7)'
p1187
I3
(dp1188
g1169
F0.16666666666666666
sg1170
F36.0
sg1171
I84
sg1172
g7
(g8
(I0
tp1189
g10
tp1190
Rp1191
(I1
(I3
tp1192
g1179
I00
S'\xf9\xaf\xcf\x99N"^\xc0\xa2\xc81%F\x99X@n\xf0\x01q-\x9d \xc0'
p1193
tp1194
bsg1184
S'Cell[1].axon[303]'
p1195
sI84
I145
tp1196
a(F2.16061820517221
S'Cell[0].dend[25] syn_ = new AmpaNmda(0.166666666667)'
p1197
I0
(dp1198
g1169
F0.5
sg1170
F36.0
sg1171
I132
sg1172
g7
(g8
(I0
tp1199
g10
tp1200
Rp1201
(I1
(I3
tp1202
g1179
I00
S'\xe4D\x19\xfb\xbb0\\@\xae"\xd2~sSC@\x00\x00\x00\x00\x00\x00\x04\xc0'
p1203
tp1204
bsg1184
S'Cell[2].axon[98]'
p1205
sI132
I1
tp1206
a(F0.5801144812020643
S'Cell[2].dend[24] syn_ = new FastInhib(0.166666666667)'
p1207
I2
(dp1208
g1169
F0.16666666666666666
sg1170
F36.0
sg1171
I132
sg1172
g7
(g8
(I0
tp1209
g10
tp1210
Rp1211
(I1
(I3
tp1212
g1179
I00
S"\xe0x\xdb\xd9\xc9\x11:@\xc1\xbb\xff\xd2\xaf\x9d<\xc0\x1b\xca\xf3'\xe2\xfd\xf2\xbf"
p1213
tp1214
bsg1184
S'Cell[2].axon[203]'
p1215
sI132
I97
tp1216
a(F2.02543340887842
S'Cell[0].apic[22] syn_ = new AmpaNmda(0.5)'
p1217
I0
(dp1218
g1169
F0.7857142857142856
sg1170
F36.0
sg1171
I180
sg1172
g7
(g8
(I0
tp1219
g10
tp1220
Rp1221
(I1
(I3
tp1222
g1179
I00
S'#\xc6\x8d\x8bu\x9bQ@#?sq~\x08Q@\x01\x00\x00\xe0z\x14\x1b\xc0'
p1223
tp1224
bsg1184
S'Cell[3].axon[123]'
p1225
sI180
I1
tp1226
a(F1.7737828381585596
S'Cell[2].dend[27] syn_ = new FastInhib(0.0714285714286)'
p1227
I2
(dp1228
g1169
F0.16666666666666666
sg1170
F36.0
sg1171
I180
sg1172
g7
(g8
(I0
tp1229
g10
tp1230
Rp1231
(I1
(I3
tp1232
g1179
I00
S'l\x03\x04\xee+\xbc3@\xb0\xdd\x1d\xa0}\xf1I\xc0\x18\xd1\xad\xb3&v2\xc0'
p1233
tp1234
bsg1184
S'Cell[3].axon[273]'
p1235
sI180
I97
tp1236
a(F2.409009245748958
S'Cell[3].dend[8] syn_ = new FastInhib(0.5)'
p1237
I3
(dp1238
S'seg'
p1239
F0.5
sS'hostfrom'
p1240
F37.0
sS'gid'
p1241
I133
sS'coords'
p1242
g7
(g8
(I0
tp1243
g10
tp1244
Rp1245
(I1
(I3
tp1246
g14
(S'f8'
p1247
I0
I1
tp1248
Rp1249
(I3
S'<'
p1250
NNNI-1
I-1
I0
tp1251
bI00
S'\x02\xcd\xb3\x0b\xd7\xbb\xfe\xbf\x18\xf2%j\xee\xdd\xcd?\x00\x00\x00@\n\xd7\xff\xbf'
p1252
tp1253
bsS'secnames'
p1254
S'Cell[2].axon[0]'
p1255
sI133
I145
tp1256
a(F2.323077125660139
S'Cell[2].dend[24] syn_ = new FastInhib(0.5)'
p1257
I2
(dp1258
g1239
F0.07142857142857142
sg1240
F37.0
sg1241
I133
sg1242
g7
(g8
(I0
tp1259
g10
tp1260
Rp1261
(I1
(I3
tp1262
g1249
I00
S'0\xe4\xa3\xa0\x11\xfe+@\x1dnJ"\xaf\x8a$\xc0\xc9C\xd7)8\xe0\x04\xc0'
p1263
tp1264
bsg1254
S'Cell[2].axon[16]'
p1265
sI133
I97
tp1266
a(F2.078015104127031
S'Cell[3].dend[4] syn_ = new FastInhib(0.5)'
p1267
I3
(dp1268
g1239
F0.21428571428571427
sg1240
F37.0
sg1241
I133
sg1242
g7
(g8
(I0
tp1269
g10
tp1270
Rp1271
(I1
(I3
tp1272
g1249
I00
S'\x04u2A\xf2\xb8*@\rJx\xfc9\x00=\xc0\xcbb{\xb2\xe9\x07\x1b\xc0'
p1273
tp1274
bsg1254
S'Cell[2].axon[16]'
p1275
sI133
I145
tp1276
a(F1.4130641292814736
S'Cell[3].dend[3] syn_ = new FastInhib(0.5)'
p1277
I3
(dp1278
g1239
F0.5
sg1240
F37.0
sg1241
I181
sg1242
g7
(g8
(I0
tp1279
g10
tp1280
Rp1281
(I1
(I3
tp1282
g1249
I00
S'&{\x17\x01(\x13$@\xf2v\x86|AmE\xc0\xf4\x92\xad\x8d\x96\xc1?\xc0'
p1283
tp1284
bsg1254
S'Cell[3].axon[271]'
p1285
sI181
I145
tp1286
a(F1.4130641292814736
S'Cell[3].dend[3] syn_ = new FastInhib(0.5)'
p1287
I3
(dp1288
g1239
F0.5
sg1240
F37.0
sg1241
I181
sg1242
g7
(g8
(I0
tp1289
g10
tp1290
Rp1291
(I1
(I3
tp1292
g1249
I00
S'&{\x17\x01(\x13$@\xf2v\x86|AmE\xc0\xf4\x92\xad\x8d\x96\xc1?\xc0'
p1293
tp1294
bsg1254
S'Cell[3].axon[287]'
p1295
sI181
I145
tp1296
a(F2.3463711411002848
S'Cell[0].apic[21] syn_ = new AmpaNmda(0.5)'
p1297
I0
(dp1298
S'seg'
p1299
F0.5
sS'hostfrom'
p1300
F38.0
sS'gid'
p1301
I182
sS'coords'
p1302
g7
(g8
(I0
tp1303
g10
tp1304
Rp1305
(I1
(I3
tp1306
g14
(S'f8'
p1307
I0
I1
tp1308
Rp1309
(I3
S'<'
p1310
NNNI-1
I-1
I0
tp1311
bI00
S'\x15\xe6\x83\xbb\xc44Q@tLG\x89%\x0cN@\xecW\xf3\xa4C\x0f\x16\xc0'
p1312
tp1313
bsS'secnames'
p1314
S'Cell[3].axon[278]'
p1315
sI182
I1
tp1316
a(F1.8729187162268315
S'Cell[1].apic[28] syn_ = new AmpaNmda(0.5)'
p1317
I1
(dp1318
g1299
F0.16666666666666666
sg1300
F38.0
sg1301
I182
sg1302
g7
(g8
(I0
tp1319
g10
tp1320
Rp1321
(I1
(I3
tp1322
g1309
I00
S'\x92\x8f!\x9b\xb3\x19\x19@\xb2\x9e[\xe7_\x01`\xc0\xa4[8)\xe5\xd35\xc0'
p1323
tp1324
bsg1314
S'Cell[3].axon[363]'
p1325
sI182
I49
tp1326
a(F1.9132837663399154
S'Cell[2].dend[1] syn_ = new FastInhib(0.166666666667)'
p1327
I2
(dp1328
g1299
F0.1
sg1300
F38.0
sg1301
I86
sg1302
g7
(g8
(I0
tp1329
g10
tp1330
Rp1331
(I1
(I3
tp1332
g1309
I00
S'\xbc\xad~[*i5@&hW\xd4\x82\x87\x17\xc0\xe2`<@P\xed*\xc0'
p1333
tp1334
bsg1314
S'Cell[1].axon[0]'
p1335
sI86
I97
tp1336
a(F0.5152000453527953
S'Cell[2].dend[3] syn_ = new FastInhib(0.5)'
p1337
I2
(dp1338
S'seg'
p1339
F0.5
sS'hostfrom'
p1340
F39.0
sS'gid'
p1341
I183
sS'coords'
p1342
g7
(g8
(I0
tp1343
g10
tp1344
Rp1345
(I1
(I3
tp1346
g14
(S'f8'
p1347
I0
I1
tp1348
Rp1349
(I3
S'<'
p1350
NNNI-1
I-1
I0
tp1351
bI00
S'\x00\x00\x00\x00\x00\x00\x12\xc0\x00\x00\x00`\x8fB"@\x00\x00\x00 \x85\xeb\x10@'
p1352
tp1353
bsS'secnames'
p1354
S'Cell[3].soma[0]'
p1355
sI183
I97
tp1356
a(F2.1035202418185217
S'Cell[0].apic[16] syn_ = new AmpaNmda(0.5)'
p1357
I0
(dp1358
S'seg'
p1359
F0.1
sS'hostfrom'
p1360
F40.0
sS'gid'
p1361
I88
sS'coords'
p1362
g7
(g8
(I0
tp1363
g10
tp1364
Rp1365
(I1
(I3
tp1366
g14
(S'f8'
p1367
I0
I1
tp1368
Rp1369
(I3
S'<'
p1370
NNNI-1
I-1
I0
tp1371
bI00
S'\xd6\xce\xd2Q%gP@\xac\xef\xaa\xfb\n\\C@\xbc\xf0\xa2x7n%\xc0'
p1372
tp1373
bsS'secnames'
p1374
S'Cell[1].axon[180]'
p1375
sI88
I1
tp1376
a(F0.8921292022923429
S'Cell[0].apic[17] syn_ = new AmpaNmda(0.9)'
p1377
I0
(dp1378
g1359
F0.5
sg1360
F40.0
sg1361
I88
sg1362
g7
(g8
(I0
tp1379
g10
tp1380
Rp1381
(I1
(I3
tp1382
g1369
I00
S'\x85\x8d1\x8f\xceOD\xc0\xaa\x8f\xc0\xbd\xdfNV@4\xba\x876\x92\xf3I\xc0'
p1383
tp1384
bsg1374
S'Cell[1].axon[218]'
p1385
sI88
I1
tp1386
a(F1.490944330428297
S'Cell[2].dend[1] syn_ = new FastInhib(0.833333333333)'
p1387
I2
(dp1388
g1359
F0.16666666666666666
sg1360
F40.0
sg1361
I88
sg1362
g7
(g8
(I0
tp1389
g10
tp1390
Rp1391
(I1
(I3
tp1392
g1369
I00
S"\xd2\xe4\\\xb0q\xdb\x1a\xc0\xff\xff\xff?\nW'\xc05D\xb2\xdb!\xad\x07@"
p1393
tp1394
bsg1374
S'Cell[1].axon[302]'
p1395
sI88
I97
tp1396
a(F1.4258088363168744
S'Cell[0].apic[14] syn_ = new AmpaNmda(0.833333333333)'
p1397
I0
(dp1398
g1359
F0.5
sg1360
F40.0
sg1361
I184
sg1362
g7
(g8
(I0
tp1399
g10
tp1400
Rp1401
(I1
(I3
tp1402
g1369
I00
S'\x81\xc3\x8e\xd6\x1b\xd9X@\xca|,\xe2\x8f\xcb:@\xdcw.(\xb2\xd5 @'
p1403
tp1404
bsg1374
S'Cell[3].axon[97]'
p1405
sI184
I1
tp1406
a(F2.208242342013215
S'Cell[2].dend[1] syn_ = new FastInhib(0.833333333333)'
p1407
I2
(dp1408
S'seg'
p1409
F0.8333333333333335
sS'hostfrom'
p1410
F41.0
sS'gid'
p1411
I137
sS'coords'
p1412
g7
(g8
(I0
tp1413
g10
tp1414
Rp1415
(I1
(I3
tp1416
g14
(S'f8'
p1417
I0
I1
tp1418
Rp1419
(I3
S'<'
p1420
NNNI-1
I-1
I0
tp1421
bI00
S'\x87\x06\xc4\x9c\xc6S\x13\xc0\x90\x8a\xd7\xc8\xd5M$\xc0=]\xd1\xc9\x18\xe4\x07@'
p1422
tp1423
bsS'secnames'
p1424
S'Cell[2].axon[4]'
p1425
sI137
I97
tp1426
a(F0.9585891485857255
S'Cell[0].dend[25] syn_ = new ExpSid(0.833333333333)'
p1427
I0
(dp1428
g1409
F0.30000000000000004
sg1410
F41.0
sg1411
I185
sg1412
g7
(g8
(I0
tp1429
g10
tp1430
Rp1431
(I1
(I3
tp1432
g1419
I00
S'\x94\x0f\x17h\xb1\xc7_@.\x86\x97x%\xc3P@@\tPE\x05>/\xc0'
p1433
tp1434
bsg1424
S'Cell[3].axon[231]'
p1435
sI185
I1
tp1436
a(F2.2333445791781905
S'Cell[0].dend[9] syn_ = new ExpSid(0.7)'
p1437
I0
(dp1438
g1409
F0.5
sg1410
F41.0
sg1411
I185
sg1412
g7
(g8
(I0
tp1439
g10
tp1440
Rp1441
(I1
(I3
tp1442
g1419
I00
S'\x07\x8f^?\xc6X7\xc0\xd9\x00\x16\xf2,KE\xc0\xdd\xac\xb1p\xeceG\xc0'
p1443
tp1444
bsg1424
S'Cell[3].axon[242]'
p1445
sI185
I1
tp1446
a(F2.0420765554413927
S'Cell[2].dend[18] syn_ = new FastInhib(0.1)'
p1447
I2
(dp1448
g1409
F0.5
sg1410
F41.0
sg1411
I185
sg1412
g7
(g8
(I0
tp1449
g10
tp1450
Rp1451
(I1
(I3
tp1452
g1419
I00
S'q\x95\xf8\xcbR\xc7<@\x89\xf4\xd4\xeb\xc5o7\xc0cI`\x8a\xf1\x0f=\xc0'
p1453
tp1454
bsg1424
S'Cell[3].axon[254]'
p1455
sI185
I97
tp1456
a(F1.0400362070967584
S'Cell[3].dend[18] syn_ = new FastInhib(0.5)'
p1457
I3
(dp1458
g1409
F0.16666666666666666
sg1410
F41.0
sg1411
I185
sg1412
g7
(g8
(I0
tp1459
g10
tp1460
Rp1461
(I1
(I3
tp1462
g1419
I00
S'\n\x9e&\xc5#\xd7)\xc0\x01\x0cK}7\xa6C@"\xdct!O\xe23@'
p1463
tp1464
bsg1424
S'Cell[3].axon[285]'
p1465
sI185
I145
tp1466
a(F1.4417992625066942
S'Cell[0].apic[9] syn_ = new ExpSid(0.214285714286)'
p1467
I0
(dp1468
g1409
F0.5
sg1410
F41.0
sg1411
I89
sg1412
g7
(g8
(I0
tp1469
g10
tp1470
Rp1471
(I1
(I3
tp1472
g1419
I00
S'\xb8 \xa0\xa2\xf4\x029@\xfe\x08\x81\xa7h@C@d;\xb8\x82\\\x04+\xc0'
p1473
tp1474
bsg1424
S'Cell[1].axon[182]'
p1475
sI89
I1
tp1476
a(F1.7666848376173012
S'Cell[2].apic[1] syn_ = new FastInhib(0.5)'
p1477
I2
(dp1478
S'seg'
p1479
F0.8333333333333333
sS'hostfrom'
p1480
F42.0
sS'gid'
p1481
I42
sS'coords'
p1482
g7
(g8
(I0
tp1483
g10
tp1484
Rp1485
(I1
(I3
tp1486
g14
(S'f8'
p1487
I0
I1
tp1488
Rp1489
(I3
S'<'
p1490
NNNI-1
I-1
I0
tp1491
bI00
S'\xf2\xa8\xc9\x06\xee\xa0E@\xac5\xd9A\xec\x96G\xc0\x00\x00\x00\xe0z\x14(\xc0'
p1492
tp1493
bsS'secnames'
p1494
S'Cell[0].axon[8]'
p1495
sI42
I97
tp1496
a(F1.8801918503843031
S'Cell[0].dend[20] syn_ = new AmpaNmda(0.5)'
p1497
I0
(dp1498
g1479
F0.8999999999999999
sg1480
F42.0
sg1481
I42
sg1482
g7
(g8
(I0
tp1499
g10
tp1500
Rp1501
(I1
(I3
tp1502
g1489
I00
S'\xbd\xcb\xb7#NzS@$&.\x7f\xde\x06\x19@9|\xec^\xad\x8e\x0f@'
p1503
tp1504
bsg1494
S'Cell[0].axon[15]'
p1505
sI42
I1
tp1506
a(F1.7373867140488972
S'Cell[3].dend[21] syn_ = new FastInhib(0.5)'
p1507
I3
(dp1508
g1479
F0.49999999999999994
sg1480
F42.0
sg1481
I138
sg1482
g7
(g8
(I0
tp1509
g10
tp1510
Rp1511
(I1
(I3
tp1512
g1489
I00
S'\r[\xb1\t,cK\xc0\xa8\xec\xe4cc\xb4P@\xa3\x91u\xcc\xf2\xb9A@'
p1513
tp1514
bsg1494
S'Cell[2].axon[167]'
p1515
sI138
I145
tp1516
a(F2.3529204024997976
S'Cell[3].dend[15] syn_ = new FastInhib(0.833333333333)'
p1517
I3
(dp1518
S'seg'
p1519
F0.5
sS'hostfrom'
p1520
F43.0
sS'gid'
p1521
I91
sS'coords'
p1522
g7
(g8
(I0
tp1523
g10
tp1524
Rp1525
(I1
(I3
tp1526
g14
(S'f8'
p1527
I0
I1
tp1528
Rp1529
(I3
S'<'
p1530
NNNI-1
I-1
I0
tp1531
bI00
S'\x82yh\x82]*\x12@\xc3/z\xe7\x821D@j\xbc\x96\xc7\x91c!\xc0'
p1532
tp1533
bsS'secnames'
p1534
S'Cell[1].axon[429]'
p1535
sI91
I145
tp1536
a(F1.7747189706271425
S'Cell[0].apic[13] syn_ = new ExpSid(0.5)'
p1537
I0
(dp1538
g1519
F0.1
sg1520
F43.0
sg1521
I187
sg1522
g7
(g8
(I0
tp1539
g10
tp1540
Rp1541
(I1
(I3
tp1542
g1529
I00
S'\x10;\xab\xe4\x84\xc4T@C\xe8\x91j\xcf\x81C@\xff\xff\xff\x1f\xaeG\r\xc0'
p1543
tp1544
bsg1534
S'Cell[3].axon[115]'
p1545
sI187
I1
tp1546
a(F1.1842555429359274
S'Cell[0].dend[11] syn_ = new AmpaNmda(0.5)'
p1547
I0
(dp1548
S'seg'
p1549
F0.8333333333333333
sS'hostfrom'
p1550
F44.0
sS'gid'
p1551
I92
sS'coords'
p1552
g7
(g8
(I0
tp1553
g10
tp1554
Rp1555
(I1
(I3
tp1556
g14
(S'f8'
p1557
I0
I1
tp1558
Rp1559
(I3
S'<'
p1560
NNNI-1
I-1
I0
tp1561
bI00
S"'\xe7\x16q\xdfY?@\xc9\xe7A\x84V\xe5\t\xc0\x00 .e\xa3#\n\xc0"
p1562
tp1563
bsS'secnames'
p1564
S'Cell[1].axon[236]'
p1565
sI92
I1
tp1566
a(F2.161495201734566
S'Cell[1].apic[27] syn_ = new AmpaNmda(0.833333333333)'
p1567
I1
(dp1568
g1549
F0.8333333333333333
sg1550
F44.0
sg1551
I140
sg1552
g7
(g8
(I0
tp1569
g10
tp1570
Rp1571
(I1
(I3
tp1572
g1559
I00
S'N\xc4\xa0\xb5b\xbeM@(\xfeJ\xa4\xfd~\\\xc06f\x9e\xfe\xb7L)@'
p1573
tp1574
bsg1564
S'Cell[2].axon[8]'
p1575
sI140
I49
tp1576
a(F2.254367476006692
S'Cell[2].dend[0] syn_ = new FastInhib(0.5)'
p1577
I2
(dp1578
g1549
F0.5
sg1550
F44.0
sg1551
I188
sg1552
g7
(g8
(I0
tp1579
g10
tp1580
Rp1581
(I1
(I3
tp1582
g1559
I00
S'_O\xb4\xdb{\xa3B@\x19N\xc8\xf3\x18\xde\xdc\xbfn\xc4q\xdc\xda\xab2\xc0'
p1583
tp1584
bsg1564
S'Cell[3].axon[134]'
p1585
sI188
I97
tp1586
a(F1.6804941731561538
S'Cell[0].dend[3] syn_ = new ExpSid(0.3)'
p1587
I0
(dp1588
S'seg'
p1589
F0.5
sS'hostfrom'
p1590
F45.0
sS'gid'
p1591
I141
sS'coords'
p1592
g7
(g8
(I0
tp1593
g10
tp1594
Rp1595
(I1
(I3
tp1596
g14
(S'f8'
p1597
I0
I1
tp1598
Rp1599
(I3
S'<'
p1600
NNNI-1
I-1
I0
tp1601
bI00
S'\xdau\xd75C\x14<@\x13\xf3\x995\xbf4B\xc0\x00\x00\x00`\x8f\x82C\xc0'
p1602
tp1603
bsS'secnames'
p1604
S'Cell[2].axon[38]'
p1605
sI141
I1
tp1606
a(F2.4906604631735396
S'Cell[3].dend[7] syn_ = new FastInhib(0.833333333333)'
p1607
I3
(dp1608
g1589
F0.5
sg1590
F45.0
sg1591
I141
sg1592
g7
(g8
(I0
tp1609
g10
tp1610
Rp1611
(I1
(I3
tp1612
g1599
I00
S':!+#2U;@X\xa4\xbe8\x18o\t@\x91L7@\x9d\xa6+\xc0'
p1613
tp1614
bsg1604
S'Cell[2].axon[46]'
p1615
sI141
I145
tp1616
a(F2.4891653093940076
S'Cell[3].dend[6] syn_ = new FastInhib(0.5)'
p1617
I3
(dp1618
g1589
F0.5
sg1590
F45.0
sg1591
I141
sg1592
g7
(g8
(I0
tp1619
g10
tp1620
Rp1621
(I1
(I3
tp1622
g1599
I00
S'\xa64\xe2\xe8\xa6\x05@@\xc0\x1aV\xff2\xc35\xc0Hjw<4\x8b?\xc0'
p1623
tp1624
bsg1604
S'Cell[2].axon[48]'
p1625
sI141
I145
tp1626
a(F1.6577223291159318
S'Cell[3].dend[29] syn_ = new FastInhib(0.5)'
p1627
I3
(dp1628
g1589
F0.8333333333333333
sg1590
F45.0
sg1591
I141
sg1592
g7
(g8
(I0
tp1629
g10
tp1630
Rp1631
(I1
(I3
tp1632
g1599
I00
S'\xe1K\xcf\xadK\x17M\xc0\xef`\x8a\xf1\xbdR0@\x0e\x00\xd4\xb3\n\x8e(@'
p1633
tp1634
bsg1604
S'Cell[2].axon[522]'
p1635
sI141
I145
tp1636
a(F2.2911491078555413
S'Cell[0].apic[15] syn_ = new ExpSid(0.833333333333)'
p1637
I0
(dp1638
g1589
F0.5
sg1590
F45.0
sg1591
I93
sg1592
g7
(g8
(I0
tp1639
g10
tp1640
Rp1641
(I1
(I3
tp1642
g1599
I00
S'89\x06Q\xe4F\\@\xfb\x19+\xdf5\xd9E@j\x08\xc0\xec\xac\x06!@'
p1643
tp1644
bsg1604
S'Cell[1].axon[274]'
p1645
sI93
I1
tp1646
a(F2.3635369263211583
S'Cell[2].apic[14] syn_ = new FastInhib(0.5)'
p1647
I2
(dp1648
S'seg'
p1649
F0.16666666666666666
sS'hostfrom'
p1650
F46.0
sS'gid'
p1651
I94
sS'coords'
p1652
g7
(g8
(I0
tp1653
g10
tp1654
Rp1655
(I1
(I3
tp1656
g14
(S'f8'
p1657
I0
I1
tp1658
Rp1659
(I3
S'<'
p1660
NNNI-1
I-1
I0
tp1661
bI00
S'\xabjq\xb4\xf0\xdfS@}\x17N\xfb\xbd\xab_\xc0<\xcb\x94\xae\x0bv\x15\xc0'
p1662
tp1663
bsS'secnames'
p1664
S'Cell[1].axon[86]'
p1665
sI94
I97
tp1666
a(F1.9222456075769552
S'Cell[3].dend[29] syn_ = new FastInhib(0.5)'
p1667
I3
(dp1668
g1649
F0.5
sg1650
F46.0
sg1651
I94
sg1652
g7
(g8
(I0
tp1669
g10
tp1670
Rp1671
(I1
(I3
tp1672
g1659
I00
S"\x0e\xadm\x069BN\xc0'\x8bV&\x16\xc3.@^\x08e\xe30\x84&@"
p1673
tp1674
bsg1664
S'Cell[1].axon[221]'
p1675
sI94
I145
tp1676
a(F2.3175468256632166
S'Cell[3].dend[36] syn_ = new FastInhib(0.3)'
p1677
I3
(dp1678
g1649
F0.19230769230769232
sg1650
F46.0
sg1651
I46
sg1652
g7
(g8
(I0
tp1679
g10
tp1680
Rp1681
(I1
(I3
tp1682
g1659
I00
S'\xe1\xb3\xf5=\xc5%Z\xc08\xbc4\x13\xd1\xbeP@\x05\xd8\x90\xc9$S\xff\xbf'
p1683
tp1684
bsg1664
S'Cell[0].axon[9]'
p1685
sI46
I145
tp1686
a(F2.4735612182458233
S'Cell[2].dend[0] syn_ = new FastInhib(0.5)'
p1687
I2
(dp1688
S'seg'
p1689
F0.5
sS'hostfrom'
p1690
F47.0
sS'gid'
p1691
I95
sS'coords'
p1692
g7
(g8
(I0
tp1693
g10
tp1694
Rp1695
(I1
(I3
tp1696
g14
(S'f8'
p1697
I0
I1
tp1698
Rp1699
(I3
S'<'
p1700
NNNI-1
I-1
I0
tp1701
bI00
S'\x00\x00\x00\x08\xd7cC@\xff\xff\xff\xbf\x1e\x85\xfb\xbf\x00\x00\x00\x80=\n2\xc0'
p1702
tp1703
bsS'secnames'
p1704
S'Cell[1].soma[0]'
p1705
sI95
I97
tp1706
a(F2.3738297340766215
S'Cell[3].dend[3] syn_ = new FastInhib(0.9)'
p1707
I3
(dp1708
g1689
F0.5
sg1690
F47.0
sg1691
I95
sg1692
g7
(g8
(I0
tp1709
g10
tp1710
Rp1711
(I1
(I3
tp1712
g1699
I00
S'\x00\x00\x00\x80\x14\x9e@@\x00\x00\x000\\\x97Q\xc0\x00\x00\x00\x10\xd7\xa3M\xc0'
p1713
tp1714
bsg1704
S'Cell[1].axon[128]'
p1715
sI95
I145
tp1716
a(F1.5020500686901248
S'Cell[3].dend[36] syn_ = new FastInhib(0.3)'
p1717
I3
(dp1718
g1689
F0.5
sg1690
F47.0
sg1691
I143
sg1692
g7
(g8
(I0
tp1719
g10
tp1720
Rp1721
(I1
(I3
tp1722
g1699
I00
S'\x87C\xf2\xb9\xf5SY\xc0\xe8z\xb8M\xca\xf8P@\x84\x88<0\xfb\xbb\x0b\xc0'
p1723
tp1724
bsg1704
S'Cell[2].axon[32]'
p1725
sI143
I145
tp1726
a.