(lp0
(F2.105652889558104
S'Cell[2].dend[18] syn_ = new FastInhib(0.5)'
p1
I2
(dp2
S'seg'
p3
F0.5
sS'hostfrom'
p4
F1.0
sS'gid'
p5
I145
sS'coords'
p6
cnumpy.core.multiarray
_reconstruct
p7
(cnumpy
ndarray
p8
(I0
tp9
S'b'
p10
tp11
Rp12
(I1
(I3
tp13
cnumpy
dtype
p14
(S'f8'
p15
I0
I1
tp16
Rp17
(I3
S'<'
p18
NNNI-1
I-1
I0
tp19
bI00
S'\x08\xa2i\x1e9\x9aQ\xc0\r\xfbe\x8f\x10\xf8\xf4?\xaf/!\xa2\xf6\x92\xfe\xbf'
p20
tp21
bsS'secnames'
p22
S'Cell[3].axon[18]'
p23
sI145
I101
tp24
a(F1.421239761409268
S'Cell[3].dend[5] syn_ = new FastInhib(0.166666666667)'
p25
I3
(dp26
g3
F0.16666666666666666
sg4
F1.0
sg5
I145
sg6
g7
(g8
(I0
tp27
g10
tp28
Rp29
(I1
(I3
tp30
g17
I00
S'\x8d\xd6C9\xf5\xa2G\xc0\xa7\x99J|\xe3\xa1P\xc0\x82\xa7\xca\xfc\xdf\xd4\x1c@'
p31
tp32
bsg22
S'Cell[3].axon[158]'
p33
sI145
I149
tp34
a(F2.353790004418319
S'Cell[2].dend[5] syn_ = new FastInhib(0.5)'
p35
I2
(dp36
g3
F0.5
sg4
F1.0
sg5
I1
sg6
g7
(g8
(I0
tp37
g10
tp38
Rp39
(I1
(I3
tp40
g17
I00
S'\x00\x00\x00\xc0\xcc\x9cP@\x00\x00\x00pfNP\xc0\x00\x00\x00\xa0\x99\x19#@'
p41
tp42
bsg22
S'Cell[0].axon[43]'
p43
sI1
I101
tp44
a(F1.3440755862656912
S'Cell[0].apic[172] syn_ = new ExpSid(0.5)'
p45
I0
(dp46
g3
F0.8333333333333333
sg4
F1.0
sg5
I97
sg6
g7
(g8
(I0
tp47
g10
tp48
Rp49
(I1
(I3
tp50
g17
I00
S'\xa6h"\x89\x9d.S\xc0\xf3ZS\xf8\xd3\xe0d\xc0o_I\x9e\xfd\x1eG\xc0'
p51
tp52
bsg22
S'Cell[2].axon[41]'
p53
sI97
I5
tp54
a(F1.8991758296922077
S'Cell[0].apic[162] syn_ = new ExpSid(0.357142857143)'
p55
I0
(dp56
g3
F0.5
sg4
F1.0
sg5
I49
sg6
g7
(g8
(I0
tp57
g10
tp58
Rp59
(I1
(I3
tp60
g17
I00
S']\x9d\xce||q\\\xc0\xad\xf7\xe0\xb2*\xac`\xc0\x00\x00\x00`f\xe6*\xc0'
p61
tp62
bsg22
S'Cell[1].axon[4]'
p63
sI49
I5
tp64
a(F2.2881047835267214
S'Cell[0].apic[117] syn_ = new AmpaNmda(0.5)'
p65
I0
(dp66
S'seg'
p67
F0.16666666666666666
sS'hostfrom'
p68
F2.0
sS'gid'
p69
I146
sS'coords'
p70
g7
(g8
(I0
tp71
g10
tp72
Rp73
(I1
(I3
tp74
g14
(S'f8'
p75
I0
I1
tp76
Rp77
(I3
S'<'
p78
NNNI-1
I-1
I0
tp79
bI00
S'\xe6\xef\xa0\xb9\x9e%8\xc0\xb1\xed\x8f\x83{\x89p\xc0\xa4B\xe7\x9f\xc3}<@'
p80
tp81
bsS'secnames'
p82
S'Cell[3].axon[61]'
p83
sI146
I5
tp84
a(F1.5755530509526396
S'Cell[3].dend[42] syn_ = new FastInhib(0.5)'
p85
I3
(dp86
S'seg'
p87
F0.16666666666666666
sS'hostfrom'
p88
F3.0
sS'gid'
p89
I147
sS'coords'
p90
g7
(g8
(I0
tp91
g10
tp92
Rp93
(I1
(I3
tp94
g14
(S'f8'
p95
I0
I1
tp96
Rp97
(I3
S'<'
p98
NNNI-1
I-1
I0
tp99
bI00
S'<8\xcc\xcc\x03\xe6\x1d\xc0\x12\x87\xceo|\xb5\x1d@\xb4y\xd2\xff\xd6:\xfd\xbf'
p100
tp101
bsS'secnames'
p102
S'Cell[3].axon[0]'
p103
sI147
I149
tp104
a(F1.6602802998135822
S'Cell[3].dend[19] syn_ = new FastInhib(0.5)'
p105
I3
(dp106
S'seg'
p107
F0.7
sS'hostfrom'
p108
F4.0
sS'gid'
p109
I148
sS'coords'
p110
g7
(g8
(I0
tp111
g10
tp112
Rp113
(I1
(I3
tp114
g14
(S'f8'
p115
I0
I1
tp116
Rp117
(I3
S'<'
p118
NNNI-1
I-1
I0
tp119
bI00
S'5N:I`\x1b9@L\x83\x1d\xf4\x82\xe7D\xc0\x00\x00\x00\x00\xd7cD\xc0'
p120
tp121
bsS'secnames'
p122
S'Cell[3].axon[26]'
p123
sI148
I149
tp124
a(F2.486641815601885
S'Cell[0].apic[138] syn_ = new AmpaNmda(0.166666666667)'
p125
I0
(dp126
g107
F0.07142857142857142
sg108
F4.0
sg109
I148
sg110
g7
(g8
(I0
tp127
g10
tp128
Rp129
(I1
(I3
tp130
g117
I00
S'\xdfK>y\x08\xae$\xc0\x8f\xd4 \xde\xfa\xc0p\xc0\x18j\xa0q\x1f\xf1H\xc0'
p131
tp132
bsg122
S'Cell[3].axon[160]'
p133
sI148
I5
tp134
a(F2.309005314122296
S'Cell[3].dend[0] syn_ = new FastInhib(0.5)'
p135
I3
(dp136
g107
F0.16666666666666666
sg108
F4.0
sg109
I100
sg110
g7
(g8
(I0
tp137
g10
tp138
Rp139
(I1
(I3
tp140
g117
I00
S'~\r\xe6E\x13\xc0!\xc0\x13\xe86\xdfW`3\xc0hy\xb1\xd4\xbd=\x00\xc0'
p141
tp142
bsg122
S'Cell[2].axon[117]'
p143
sI100
I149
tp144
a(F1.3095955157865802
S'Cell[0].apic[11] syn_ = new ExpSid(0.166666666667)'
p145
I0
(dp146
S'seg'
p147
F0.5
sS'hostfrom'
p148
F5.0
sS'gid'
p149
I149
sS'coords'
p150
g7
(g8
(I0
tp151
g10
tp152
Rp153
(I1
(I3
tp154
g14
(S'f8'
p155
I0
I1
tp156
Rp157
(I3
S'<'
p158
NNNI-1
I-1
I0
tp159
bI00
S'\xaa$z\x9a{\xe3\x0e@\xcd4\xde8\xd8\x06T\xc0\x1bD\xff\xd4\\8<\xc0'
p160
tp161
bsS'secnames'
p162
S'Cell[3].axon[41]'
p163
sI149
I5
tp164
a(F1.0139427175167004
S'Cell[3].dend[37] syn_ = new FastInhib(0.5)'
p165
I3
(dp166
g147
F0.5
sg148
F5.0
sg149
I5
sg150
g7
(g8
(I0
tp167
g10
tp168
Rp169
(I1
(I3
tp170
g157
I00
S'\xc8\xb1\xbe\xa4Vc4@\xc2\xd6\x8c\x94AUR@\xf5\xa97\xd8F?7\xc0'
p171
tp172
bsg162
S'Cell[0].axon[69]'
p173
sI5
I149
tp174
a(F2.4380961426183907
S'Cell[0].apic[117] syn_ = new AmpaNmda(0.166666666667)'
p175
I0
(dp176
S'seg'
p177
F0.1
sS'hostfrom'
p178
F6.0
sS'gid'
p179
I102
sS'coords'
p180
g7
(g8
(I0
tp181
g10
tp182
Rp183
(I1
(I3
tp184
g14
(S'f8'
p185
I0
I1
tp186
Rp187
(I3
S'<'
p188
NNNI-1
I-1
I0
tp189
bI00
S'i\x8a\xf9\x05\xbe\x9b=\xc0lBR(\xea\xf5p\xc0l\x069\xfa\xcc\\+@'
p190
tp191
bsS'secnames'
p192
S'Cell[2].axon[137]'
p193
sI102
I5
tp194
a(F1.3076039308217116
S'Cell[3].dend[66] syn_ = new FastInhib(0.5)'
p195
I3
(dp196
S'seg'
p197
F0.30000000000000004
sS'hostfrom'
p198
F7.0
sS'gid'
p199
I103
sS'coords'
p200
g7
(g8
(I0
tp201
g10
tp202
Rp203
(I1
(I3
tp204
g14
(S'f8'
p205
I0
I1
tp206
Rp207
(I3
S'<'
p208
NNNI-1
I-1
I0
tp209
bI00
S'\xd5\x1d\xea\xd1t\xef\x0b@\xedZ\xfb\x82#\xf3@@`\xcb[]\xf0\xcc\x0f@'
p210
tp211
bsS'secnames'
p212
S'Cell[2].axon[264]'
p213
sI103
I149
tp214
a(F1.8330576077184395
S'Cell[1].apic[3] syn_ = new ExpSid(0.5)'
p215
I1
(dp216
g197
F0.5
sg198
F7.0
sg199
I103
sg200
g7
(g8
(I0
tp217
g10
tp218
Rp219
(I1
(I3
tp220
g207
I00
S'=\xea\xce\xd0#\xe2@@cL\xaa\x81\xd9\xeeW@\xd9d,\xa6\x05N/@'
p221
tp222
bsg212
S'Cell[2].axon[300]'
p223
sI103
I53
tp224
a(F1.1613560790528605
S'Cell[3].dend[68] syn_ = new FastInhib(0.5)'
p225
I3
(dp226
g197
F0.7
sg198
F7.0
sg199
I151
sg200
g7
(g8
(I0
tp227
g10
tp228
Rp229
(I1
(I3
tp230
g207
I00
S'\xc8L{\x96\x87\\7\xc0\xf5ZD\xff0\xc6Q@78x\x87\xd1\xff\xf3?'
p231
tp232
bsg212
S'Cell[3].axon[38]'
p233
sI151
I149
tp234
a(F2.2092960435565083
S'Cell[1].dend[20] syn_ = new ExpSid(0.5)'
p235
I1
(dp236
g197
F0.5
sg198
F7.0
sg199
I151
sg200
g7
(g8
(I0
tp237
g10
tp238
Rp239
(I1
(I3
tp240
g207
I00
S'\x00\x00\x00\xb0GAD@\x00\x00\x000\n\xafP\xc0\x00\x00\x00\x88\xc2\xf50\xc0'
p241
tp242
bsg212
S'Cell[3].axon[110]'
p243
sI151
I53
tp244
a(F1.935832407126827
S'Cell[3].dend[59] syn_ = new FastInhib(0.0714285714286)'
p245
I3
(dp246
g197
F0.5
sg198
F7.0
sg199
I151
sg200
g7
(g8
(I0
tp247
g10
tp248
Rp249
(I1
(I3
tp250
g207
I00
S'\x86\x8e\xb5\xfc\x80\x98-\xc0\xd7\xddN\xfeYjI@\x95\xd5\x96\x80\xaa\xbd0\xc0'
p251
tp252
bsg212
S'Cell[3].axon[137]'
p253
sI151
I149
tp254
a(F2.056650382079689
S'Cell[3].dend[67] syn_ = new FastInhib(0.833333333333)'
p255
I3
(dp256
g197
F0.21428571428571427
sg198
F7.0
sg199
I151
sg200
g7
(g8
(I0
tp257
g10
tp258
Rp259
(I1
(I3
tp260
g207
I00
S'\x06H\x90\xa3\xd5\x903\xc0C\xc0\xb31\x14?O@\xec]\x1ei1\x18\x04\xc0'
p261
tp262
bsg212
S'Cell[3].axon[224]'
p263
sI151
I149
tp264
a(F1.841795716931139
S'Cell[2].dend[43] syn_ = new FastInhib(0.5)'
p265
I2
(dp266
S'seg'
p267
F0.16666666666666666
sS'hostfrom'
p268
F8.0
sS'gid'
p269
I56
sS'coords'
p270
g7
(g8
(I0
tp271
g10
tp272
Rp273
(I1
(I3
tp274
g14
(S'f8'
p275
I0
I1
tp276
Rp277
(I3
S'<'
p278
NNNI-1
I-1
I0
tp279
bI00
S"J\x83Jm\xe9BP\xc0\xa0\x8d8\xd2\x19\xf5N\xc0C\x9d\x8bv\x95\xf1'@"
p280
tp281
bsS'secnames'
p282
S'Cell[1].axon[2]'
p283
sI56
I101
tp284
a(F1.895483444704651
S'Cell[2].dend[50] syn_ = new FastInhib(0.5)'
p285
I2
g266
I56
I101
tp286
a(F2.172698434804047
S'Cell[2].dend[45] syn_ = new FastInhib(0.5)'
p287
I2
(dp288
g267
F0.16666666666666666
sg268
F8.0
sg269
I56
sg270
g7
(g8
(I0
tp289
g10
tp290
Rp291
(I1
(I3
tp292
g277
I00
S'`\xae\x8e\xf6\xb7\xc3O\xc0gA\xb9\x83\x14\x02N\xc0\x08C\xe8\x96h1.@'
p293
tp294
bsg282
S'Cell[1].axon[3]'
p295
sI56
I101
tp296
a(F1.8437665846631586
S'Cell[1].apic[0] syn_ = new AmpaNmda(0.5)'
p297
I1
(dp298
g267
F0.16666666666666666
sg268
F8.0
sg269
I152
sg270
g7
(g8
(I0
tp299
g10
tp300
Rp301
(I1
(I3
tp302
g277
I00
S'\x06h\x9b\xda\xe1\x14D@k\xe1\x86\x1d\x84\xa7@@NY\x8aQ\xf1\xad\x03\xc0'
p303
tp304
bsg282
S'Cell[3].axon[0]'
p305
sI152
I53
tp306
a(F2.302018641889837
S'Cell[1].apic[4] syn_ = new AmpaNmda(0.388888888889)'
p307
I1
(dp308
g267
F0.5
sg268
F8.0
sg269
I152
sg270
g7
(g8
(I0
tp309
g10
tp310
Rp311
(I1
(I3
tp312
g277
I00
S'X\xdd\xb9\xe3\x14\xcbD@\\\xf6\xa3^\xfeMe@q\x84\t2@^C\xc0'
p313
tp314
bsg282
S'Cell[3].axon[261]'
p315
sI152
I53
tp316
a(F2.1073671884489977
S'Cell[3].dend[45] syn_ = new FastInhib(0.5)'
p317
I3
(dp318
g267
F0.5
sg268
F8.0
sg269
I152
sg270
g7
(g8
(I0
tp319
g10
tp320
Rp321
(I1
(I3
tp322
g277
I00
S'\xa3\x98\x14_\xc4b3\xc0\x89\xcf\x0ec\x17<Q@\xe9G[%\x95\n!\xc0'
p323
tp324
bsg282
S'Cell[3].axon[323]'
p325
sI152
I149
tp326
a(F1.8105858069276086
S'Cell[3].dend[0] syn_ = new FastInhib(0.5)'
p327
I3
(dp328
g267
F0.16666666666666666
sg268
F8.0
sg269
I152
sg270
g7
(g8
(I0
tp329
g10
tp330
Rp331
(I1
(I3
tp332
g277
I00
S'8\xdc\xeb{\xba2&\xc0\xaa\x8d\t\x07\xba\xf43\xc0[\xf9F\xa2|\x7f\x14\xc0'
p333
tp334
bsg282
S'Cell[3].axon[520]'
p335
sI152
I149
tp336
a(F1.687274296440604
S'Cell[3].dend[39] syn_ = new FastInhib(0.5)'
p337
I3
(dp338
g267
F0.16666666666666666
sg268
F8.0
sg269
I104
sg270
g7
(g8
(I0
tp339
g10
tp340
Rp341
(I1
(I3
tp342
g277
I00
S'\xad\x901\xd2\x9d\x964@lR\x04\xa6\xbe\xb5S@\xcbO\xca\xfc\x99\x95)\xc0'
p343
tp344
bsg282
S'Cell[2].axon[130]'
p345
sI104
I149
tp346
a(F2.4582446618590543
S'Cell[3].dend[43] syn_ = new FastInhib(0.833333333333)'
p347
I3
(dp348
S'seg'
p349
F0.5
sS'hostfrom'
p350
F10.0
sS'gid'
p351
I106
sS'coords'
p352
g7
(g8
(I0
tp353
g10
tp354
Rp355
(I1
(I3
tp356
g14
(S'f8'
p357
I0
I1
tp358
Rp359
(I3
S'<'
p360
NNNI-1
I-1
I0
tp361
bI00
S'\x8f\x9a\x1b\xa6\x1c\xcf+\xc0\xe1j^\xe3Q3E@\x00\x00\x00\xe0\xa3p*\xc0'
p362
tp363
bsS'secnames'
p364
S'Cell[2].axon[13]'
p365
sI106
I149
tp366
a(F1.6552877789769889
S'Cell[3].dend[38] syn_ = new FastInhib(0.5)'
p367
I3
(dp368
g349
F0.5
sg350
F10.0
sg351
I106
sg352
g7
(g8
(I0
tp369
g10
tp370
Rp371
(I1
(I3
tp372
g359
I00
S'\x178\x0b\xf5>\xb97@}|.z\x7f\xcbR@\x00\x00\x00`\x8f\xc20\xc0'
p373
tp374
bsg364
S'Cell[2].axon[60]'
p375
sI106
I149
tp376
a(F1.7524473079488867
S'Cell[0].dend[3] syn_ = new AmpaNmda(0.3)'
p377
I0
(dp378
g349
F0.16666666666666666
sg350
F10.0
sg351
I106
sg352
g7
(g8
(I0
tp379
g10
tp380
Rp381
(I1
(I3
tp382
g359
I00
S"\xce\x89\x9b5\xb0\xa2<@\x16n'\xc1}\xda>\xc0|N\xe1\xa8\xa5\x8bC\xc0"
p383
tp384
bsg364
S'Cell[2].axon[80]'
p385
sI106
I5
tp386
a(F1.712041502203596
S'Cell[1].apic[0] syn_ = new AmpaNmda(0.5)'
p387
I1
(dp388
g349
F0.11538461538461539
sg350
F10.0
sg351
I58
sg352
g7
(g8
(I0
tp389
g10
tp390
Rp391
(I1
(I3
tp392
g359
I00
S'\xf9Ty\xc2\x01LC@^\xd3Q\xa0y\xb9>@v`8\x1e\x91F\x10\xc0'
p393
tp394
bsg364
S'Cell[1].axon[36]'
p395
sI58
I53
tp396
a(F2.338446846635009
S'Cell[3].dend[9] syn_ = new FastInhib(0.833333333333)'
p397
I3
(dp398
S'seg'
p399
F0.5
sS'hostfrom'
p400
F11.0
sS'gid'
p401
I155
sS'coords'
p402
g7
(g8
(I0
tp403
g10
tp404
Rp405
(I1
(I3
tp406
g14
(S'f8'
p407
I0
I1
tp408
Rp409
(I3
S'<'
p410
NNNI-1
I-1
I0
tp411
bI00
S'#\xe8\x9ci\x96\xbd5\xc0\\\xcb\xea\xdf\x1c\x85Y\xc0\xf2;X \xa5z \xc0'
p412
tp413
bsS'secnames'
p414
S'Cell[3].axon[223]'
p415
sI155
I149
tp416
a(F1.3978467431807122
S'Cell[3].dend[77] syn_ = new FastInhib(0.9)'
p417
I3
(dp418
g399
F0.5
sg400
F11.0
sg401
I155
sg402
g7
(g8
(I0
tp419
g10
tp420
Rp421
(I1
(I3
tp422
g409
I00
S'\xe5\xb6W\x81\xc4\x00E@\x94\xcf\xf2v\xdd#\\@\x00\x00\x00`\xb8\x1e\x1d@'
p423
tp424
bsg414
S'Cell[3].axon[286]'
p425
sI155
I149
tp426
a(F2.3102184890461266
S'Cell[0].apic[138] syn_ = new AmpaNmda(0.833333333333)'
p427
I0
(dp428
S'seg'
p429
F0.5
sS'hostfrom'
p430
F12.0
sS'gid'
p431
I156
sS'coords'
p432
g7
(g8
(I0
tp433
g10
tp434
Rp435
(I1
(I3
tp436
g14
(S'f8'
p437
I0
I1
tp438
Rp439
(I3
S'<'
p440
NNNI-1
I-1
I0
tp441
bI00
S'G8|\x00!\xee\xf1\xbf\xce\xe65s\x94jq\xc0\x00\x00\x00`\x8f\xb2R\xc0'
p442
tp443
bsS'secnames'
p444
S'Cell[3].axon[517]'
p445
sI156
I5
tp446
a(F1.0452279874455483
S'Cell[1].dend[21] syn_ = new AmpaNmda(0.7)'
p447
I1
(dp448
g429
F0.21428571428571427
sg430
F12.0
sg431
I156
sg432
g7
(g8
(I0
tp449
g10
tp450
Rp451
(I1
(I3
tp452
g439
I00
S'\xac\xde\xe1if\xe4P@L\x83\xfe\xa3\x19\x15a\xc0\x00W\xfdu\xfb\x0cE\xc0'
p453
tp454
bsg444
S'Cell[3].axon[548]'
p455
sI156
I53
tp456
a(F1.4842193126563494
S'Cell[3].dend[85] syn_ = new FastInhib(0.5)'
p457
I3
(dp458
g429
F0.16666666666666666
sg430
F12.0
sg431
I108
sg432
g7
(g8
(I0
tp459
g10
tp460
Rp461
(I1
(I3
tp462
g439
I00
S'\xf0"\x1fj\x8f\x0e;@\xfe\x04-g\x8abK@U\x80\xd1\xbb\xd0j(\xc0'
p463
tp464
bsg444
S'Cell[2].axon[5]'
p465
sI108
I149
tp466
a(F2.4645771298667367
S'Cell[0].apic[145] syn_ = new AmpaNmda(0.166666666667)'
p467
I0
(dp468
g429
F0.30000000000000004
sg430
F12.0
sg431
I108
sg432
g7
(g8
(I0
tp469
g10
tp470
Rp471
(I1
(I3
tp472
g439
I00
S'\x84\xcf\xe14(\x1fO\xc0\xda\xb6<\x08\x0f\xa3d\xc0\x0c\x82\xa8\xa4\xf6\xd3C\xc0'
p473
tp474
bsg444
S'Cell[2].axon[365]'
p475
sI108
I5
tp476
a(F1.0848387979511933
S'Cell[1].dend[10] syn_ = new ExpSid(0.5)'
p477
I1
(dp478
S'seg'
p479
F0.8333333333333333
sS'hostfrom'
p480
F13.0
sS'gid'
p481
I109
sS'coords'
p482
g7
(g8
(I0
tp483
g10
tp484
Rp485
(I1
(I3
tp486
g14
(S'f8'
p487
I0
I1
tp488
Rp489
(I3
S'<'
p490
NNNI-1
I-1
I0
tp491
bI00
S'\x80\xb7\x08E\x8al@@\xc7\x1a\xb8?(H7\xc0\xfa\x7f/\xccA\xa8\xf0\xbf'
p492
tp493
bsS'secnames'
p494
S'Cell[2].axon[101]'
p495
sI109
I53
tp496
a(F2.4026090911781615
S'Cell[2].dend[7] syn_ = new FastInhib(0.166666666667)'
p497
I2
(dp498
g479
F0.5
sg480
F13.0
sg481
I109
sg482
g7
(g8
(I0
tp499
g10
tp500
Rp501
(I1
(I3
tp502
g489
I00
S'\x00\x00\x00@3\xc3R\xc0\x00\x00\x000\\\x8f\x06\xc0\x00\x00\x0003\xf3 @'
p503
tp504
bsg494
S'Cell[2].axon[281]'
p505
sI109
I101
tp506
a(F1.8704517510887049
S'Cell[1].dend[17] syn_ = new ExpSid(0.5)'
p507
I1
(dp508
g479
F0.5
sg480
F13.0
sg481
I61
sg482
g7
(g8
(I0
tp509
g10
tp510
Rp511
(I1
(I3
tp512
g489
I00
S'\xce\xea\xfa+/\xe6-\xc0\xa6\xe6ej\xd3\xd7R\xc0\x1b\x88\x15q)0C\xc0'
p513
tp514
bsg494
S'Cell[1].axon[34]'
p515
sI61
I53
tp516
a(F1.7232115882654755
S'Cell[1].dend[15] syn_ = new ExpSid(0.5)'
p517
I1
(dp518
g479
F0.8999999999999999
sg480
F13.0
sg481
I61
sg482
g7
(g8
(I0
tp519
g10
tp520
Rp521
(I1
(I3
tp522
g489
I00
S'\x17\x02\xd5\xf1\xf7J\x1e@\xc5\x9e\x96;\x83\x94M\xc0\xf6\xa8\x99:\xbf=@\xc0'
p523
tp524
bsg494
S'Cell[1].axon[34]'
p525
sI61
I53
tp526
a(F1.2036165790433724
S'Cell[3].dend[4] syn_ = new FastInhib(0.5)'
p527
I3
(dp528
g479
F0.5
sg480
F13.0
sg481
I61
sg482
g7
(g8
(I0
tp529
g10
tp530
Rp531
(I1
(I3
tp532
g489
I00
S"#\x9b\xfc\x92\x02\x85A\xc01\xa5\xa4Yh\xefP\xc0\xc9\xac!\xa7\x99!'@"
p533
tp534
bsg494
S'Cell[1].axon[64]'
p535
sI61
I149
tp536
a(F1.757179947656155
S'Cell[1].dend[20] syn_ = new AmpaNmda(0.833333333333)'
p537
I1
(dp538
S'seg'
p539
F0.16666666666666666
sS'hostfrom'
p540
F14.0
sS'gid'
p541
I110
sS'coords'
p542
g7
(g8
(I0
tp543
g10
tp544
Rp545
(I1
(I3
tp546
g14
(S'f8'
p547
I0
I1
tp548
Rp549
(I3
S'<'
p550
NNNI-1
I-1
I0
tp551
bI00
S'\xe7\xfcci\xaf\tH@\xec\xedm\x06\x88\x81U\xc0K\r+\xfa\r\x07=\xc0'
p552
tp553
bsS'secnames'
p554
S'Cell[2].axon[40]'
p555
sI110
I53
tp556
a(F2.439942505294836
S'Cell[3].dend[83] syn_ = new FastInhib(0.166666666667)'
p557
I3
(dp558
S'seg'
p559
F0.5
sS'hostfrom'
p560
F15.0
sS'gid'
p561
I111
sS'coords'
p562
g7
(g8
(I0
tp563
g10
tp564
Rp565
(I1
(I3
tp566
g14
(S'f8'
p567
I0
I1
tp568
Rp569
(I3
S'<'
p570
NNNI-1
I-1
I0
tp571
bI00
S'\x00\x00\x00 \x85\xcbD@\x00\x00\x00\xc0\x1e\x15G@\x00\x00\x00\x10\xd7\x13K\xc0'
p572
tp573
bsS'secnames'
p574
S'Cell[2].axon[181]'
p575
sI111
I149
tp576
a(F1.9549527405946014
S'Cell[3].dend[74] syn_ = new FastInhib(0.7)'
p577
I3
(dp578
S'seg'
p579
F0.1
sS'hostfrom'
p580
F16.0
sS'gid'
p581
I160
sS'coords'
p582
g7
(g8
(I0
tp583
g10
tp584
Rp585
(I1
(I3
tp586
g14
(S'f8'
p587
I0
I1
tp588
Rp589
(I3
S'<'
p590
NNNI-1
I-1
I0
tp591
bI00
S'm\\E\xdf\xb0u7@T\xe3<T\x81\xfb`@0\x82Q\xf1Y\xce\xf8?'
p592
tp593
bsS'secnames'
p594
S'Cell[3].axon[47]'
p595
sI160
I149
tp596
a(F1.685672021358669
S'Cell[1].dend[16] syn_ = new ExpSid(0.833333333333)'
p597
I1
(dp598
S'seg'
p599
F0.16666666666666666
sS'hostfrom'
p600
F17.0
sS'gid'
p601
I113
sS'coords'
p602
g7
(g8
(I0
tp603
g10
tp604
Rp605
(I1
(I3
tp606
g14
(S'f8'
p607
I0
I1
tp608
Rp609
(I3
S'<'
p610
NNNI-1
I-1
I0
tp611
bI00
S'<m\xde\x84\xc4v;\xc0O\xb60\x90\xa19P\xc0\xc6\x91\x87:fcL\xc0'
p612
tp613
bsS'secnames'
p614
S'Cell[2].axon[70]'
p615
sI113
I53
tp616
a(F2.294811339992784
S'Cell[0].apic[12] syn_ = new ExpSid(0.166666666667)'
p617
I0
(dp618
g599
F0.5
sg600
F17.0
sg601
I113
sg602
g7
(g8
(I0
tp619
g10
tp620
Rp621
(I1
(I3
tp622
g609
I00
S'|\xa2\xed\xe8x"F@\xf4\xd2\xd1H\xa6\x9bV\xc0,\xbe\xbe\x1e\xe5\xb1\x15\xc0'
p623
tp624
bsg614
S'Cell[2].axon[123]'
p625
sI113
I5
tp626
a(F2.4432179548009203
S'Cell[0].apic[176] syn_ = new ExpSid(0.0714285714286)'
p627
I0
(dp628
g599
F0.5
sg600
F17.0
sg601
I113
sg602
g7
(g8
(I0
tp629
g10
tp630
Rp631
(I1
(I3
tp632
g609
I00
S'\xd8\xb5S;\xf4\xc9N\xc0"\xe6\x8du\x89#b\xc0\x00\x00\x00\xe0z\x94$\xc0'
p633
tp634
bsg614
S'Cell[2].axon[177]'
p635
sI113
I5
tp636
a(F2.2567624020100356
S'Cell[0].apic[173] syn_ = new ExpSid(0.166666666667)'
p637
I0
(dp638
g599
F0.5
sg600
F17.0
sg601
I113
sg602
g7
(g8
(I0
tp639
g10
tp640
Rp641
(I1
(I3
tp642
g609
I00
S'PC\xe8q\x87\xc0P\xc0\x04-,\xab\xa1\x9ab\xc0\xb4\x91\xa6\x13"\xf2)\xc0'
p643
tp644
bsg614
S'Cell[2].axon[658]'
p645
sI113
I5
tp646
a(F2.2666855712633422
S'Cell[0].apic[173] syn_ = new ExpSid(0.5)'
p647
I0
(dp648
g599
F0.5
sg600
F17.0
sg601
I113
sg602
g7
(g8
(I0
tp649
g10
tp650
Rp651
(I1
(I3
tp652
g609
I00
S'\xb6\xac3N!\xb2T\xc0\xbe\xeec\xcam\xb6b\xc0,\xad\x82\xba\xb5I"\xc0'
p653
tp654
bsg614
S'Cell[2].axon[664]'
p655
sI113
I5
tp656
a(F1.8713587907701996
S'Cell[3].dend[25] syn_ = new FastInhib(0.5)'
p657
I3
(dp658
g599
F0.5
sg600
F17.0
sg601
I113
sg602
g7
(g8
(I0
tp659
g10
tp660
Rp661
(I1
(I3
tp662
g609
I00
S"O\xad\xd9\xae\xb3JU@\x16\xff\x8dETXV\xc0:'\xab\x0c\xc6\x0fB\xc0"
p663
tp664
bsg614
S'Cell[2].axon[739]'
p665
sI113
I149
tp666
a(F2.1301450149751067
S'Cell[3].dend[36] syn_ = new FastInhib(0.5)'
p667
I3
(dp668
g599
F0.16666666666666666
sg600
F17.0
sg601
I161
sg602
g7
(g8
(I0
tp669
g10
tp670
Rp671
(I1
(I3
tp672
g609
I00
S'\xbd\x08`m\x91\xf5\xfa?!\x0cW,\x10PK@\x8aT\n\x1e\xd9g-\xc0'
p673
tp674
bsg614
S'Cell[3].axon[4]'
p675
sI161
I149
tp676
a(F1.827898770644654
S'Cell[1].apic[0] syn_ = new ExpSid(0.833333333333)'
p677
I1
(dp678
g599
F0.16666666666666666
sg600
F17.0
sg601
I161
sg602
g7
(g8
(I0
tp679
g10
tp680
Rp681
(I1
(I3
tp682
g609
I00
S'\xcbSsM\xbd:C@\xee:\x81\xf76\x8fK@=\x12<;xo\x1a\xc0'
p683
tp684
bsg614
S'Cell[3].axon[6]'
p685
sI161
I53
tp686
a(F1.9863142976926351
S'Cell[1].apic[0] syn_ = new ExpSid(0.5)'
p687
I1
(dp688
g599
F0.5
sg600
F17.0
sg601
I161
sg602
g7
(g8
(I0
tp689
g10
tp690
Rp691
(I1
(I3
tp692
g609
I00
S'\x00\x00\x00\x10\xd7\x03C@\x00\x00\x00 \xae\x07?@\x00\x00\x00<\nW\x12\xc0'
p693
tp694
bsg614
S'Cell[3].axon[128]'
p695
sI161
I53
tp696
a(F2.4562309238844398
S'Cell[3].dend[6] syn_ = new FastInhib(0.1)'
p697
I3
(dp698
S'seg'
p699
F0.30000000000000004
sS'hostfrom'
p700
F18.0
sS'gid'
p701
I114
sS'coords'
p702
g7
(g8
(I0
tp703
g10
tp704
Rp705
(I1
(I3
tp706
g14
(S'f8'
p707
I0
I1
tp708
Rp709
(I3
S'<'
p710
NNNI-1
I-1
I0
tp711
bI00
S'\xc4a\x94\xd1mlF\xc0\xe0\xec\xa5#\x9f\x19T\xc0\xf8=@J.\x03(@'
p712
tp713
bsS'secnames'
p714
S'Cell[2].axon[123]'
p715
sI114
I149
tp716
a(F2.2600616459059215
S'Cell[3].dend[12] syn_ = new FastInhib(0.5)'
p717
I3
(dp718
g699
F0.7
sg700
F18.0
sg701
I114
sg702
g7
(g8
(I0
tp719
g10
tp720
Rp721
(I1
(I3
tp722
g709
I00
S"\x00\x7f\xca\x7f>xB\xc0\x9f\xf6\n-7\xb9a\xc0+\xaf\xe9\xe9eE'\xc0"
p723
tp724
bsg714
S'Cell[2].axon[131]'
p725
sI114
I149
tp726
a(F2.4550061600273234
S'Cell[0].apic[22] syn_ = new AmpaNmda(0.0714285714286)'
p727
I0
(dp728
g699
F0.16666666666666666
sg700
F18.0
sg701
I114
sg702
g7
(g8
(I0
tp729
g10
tp730
Rp731
(I1
(I3
tp732
g709
I00
S'\xfa5\x8e\xcaQ\rO\xc0c\xa8\x1bmOA\x80\xc0\x82sx\x0f\x1cv\x17@'
p733
tp734
bsg714
S'Cell[2].axon[244]'
p735
sI114
I5
tp736
a(F2.363788305037087
S'Cell[2].dend[2] syn_ = new FastInhib(0.3)'
p737
I2
(dp738
S'seg'
p739
F0.1
sS'hostfrom'
p740
F20.0
sS'gid'
p741
I68
sS'coords'
p742
g7
(g8
(I0
tp743
g10
tp744
Rp745
(I1
(I3
tp746
g14
(S'f8'
p747
I0
I1
tp748
Rp749
(I3
S'<'
p750
NNNI-1
I-1
I0
tp751
bI00
S'\x02\x96\x0c\xc6%JB@_VR\xc0.\x8c\x19\xc0\x13h\xdfd\xbf\xb1*@'
p752
tp753
bsS'secnames'
p754
S'Cell[1].axon[8]'
p755
sI68
I101
tp756
a(F1.927209018021282
S'Cell[2].dend[26] syn_ = new FastInhib(0.928571428571)'
p757
I2
(dp758
g739
F0.5
sg740
F20.0
sg741
I164
sg742
g7
(g8
(I0
tp759
g10
tp760
Rp761
(I1
(I3
tp762
g749
I00
S'^\xd6f\x19\x99J\x1d@\xbdVt\x9f\x1e6m\xc0\x00\x00\x00 \\\xcfG@'
p763
tp764
bsg754
S'Cell[3].axon[3]'
p765
sI164
I101
tp766
a(F2.164238392468482
S'Cell[1].apic[4] syn_ = new ExpSid(0.166666666667)'
p767
I1
(dp768
S'seg'
p769
F0.16666666666666666
sS'hostfrom'
p770
F21.0
sS'gid'
p771
I117
sS'coords'
p772
g7
(g8
(I0
tp773
g10
tp774
Rp775
(I1
(I3
tp776
g14
(S'f8'
p777
I0
I1
tp778
Rp779
(I3
S'<'
p780
NNNI-1
I-1
I0
tp781
bI00
S'\xb48\xa3d\xb4\x06D@\xaf|:\xfan\xc1\\@\x00\x00\x00\x80\xc2u9\xc0'
p782
tp783
bsS'secnames'
p784
S'Cell[2].axon[502]'
p785
sI117
I53
tp786
a(F1.0425008212744238
S'Cell[0].apic[17] syn_ = new ExpSid(0.611111111111)'
p787
I0
(dp788
g769
F0.8999999999999999
sg770
F21.0
sg771
I69
sg772
g7
(g8
(I0
tp789
g10
tp790
Rp791
(I1
(I3
tp792
g779
I00
S'\xc5"\x96\xdc^\x06G@8N\x1e\xf0w\xe6e\xc06\xea\xa7\tJwP@'
p793
tp794
bsg784
S'Cell[1].axon[37]'
p795
sI69
I5
tp796
a(F1.516536770344856
S'Cell[3].dend[67] syn_ = new FastInhib(0.5)'
p797
I3
(dp798
S'seg'
p799
F0.5
sS'hostfrom'
p800
F22.0
sS'gid'
p801
I70
sS'coords'
p802
g7
(g8
(I0
tp803
g10
tp804
Rp805
(I1
(I3
tp806
g14
(S'f8'
p807
I0
I1
tp808
Rp809
(I3
S'<'
p810
NNNI-1
I-1
I0
tp811
bI00
S'\x00\x00\x00\xa0Ga-\xc0\x00\x00\x00\xc0\xf5HK@\x00\x00\x00\xc0\xf5(\xe4\xbf'
p812
tp813
bsS'secnames'
p814
S'Cell[1].soma[0]'
p815
sI70
I149
tp816
a(F2.153857370470166
S'Cell[3].dend[8] syn_ = new FastInhib(0.166666666667)'
p817
I3
(dp818
g799
F0.8333333333333333
sg800
F22.0
sg801
I70
sg802
g7
(g8
(I0
tp819
g10
tp820
Rp821
(I1
(I3
tp822
g809
I00
S'8\xc1/m\xbe\xe87\xc0\x964**\xb0bM\xc0\x00\x00\x00@33\xeb\xbf'
p823
tp824
bsg814
S'Cell[1].axon[8]'
p825
sI70
I149
tp826
a(F1.81279900929855
S'Cell[3].dend[87] syn_ = new FastInhib(0.214285714286)'
p827
I3
(dp828
g799
F0.8333333333333333
sg800
F22.0
sg801
I166
sg802
g7
(g8
(I0
tp829
g10
tp830
Rp831
(I1
(I3
tp832
g809
I00
S'1\xc6\x81{\r\x13-\xc0\x06cg\xff\x1b\x18@@\xd5\xf2\xf6y\xf8\xef\x02@'
p833
tp834
bsg814
S'Cell[3].axon[0]'
p835
sI166
I149
tp836
a(F2.4608768373359053
S'Cell[0].dend[4] syn_ = new ExpSid(0.833333333333)'
p837
I0
(dp838
S'seg'
p839
F0.5
sS'hostfrom'
p840
F23.0
sS'gid'
p841
I71
sS'coords'
p842
g7
(g8
(I0
tp843
g10
tp844
Rp845
(I1
(I3
tp846
g14
(S'f8'
p847
I0
I1
tp848
Rp849
(I3
S'<'
p850
NNNI-1
I-1
I0
tp851
bI00
S'\xc9\xff\xa8\x0b\xa8\xd9!@\xc7,b\xaf\x1c^J\xc0\xcc?\xab\x04n;A\xc0'
p852
tp853
bsS'secnames'
p854
S'Cell[1].axon[16]'
p855
sI71
I5
tp856
a(F2.4379233820934827
S'Cell[3].dend[75] syn_ = new FastInhib(0.5)'
p857
I3
(dp858
g839
F0.8636363636363638
sg840
F23.0
sg841
I23
sg842
g7
(g8
(I0
tp859
g10
tp860
Rp861
(I1
(I3
tp862
g849
I00
S'\xecN9=le!@Q\xb8\xbb\x0bC\xbfB@\x81h\xd5\xa0\xc2v\xf0?'
p863
tp864
bsg854
S'Cell[0].axon[8]'
p865
sI23
I149
tp866
a(F2.0977170142086545
S'Cell[3].dend[18] syn_ = new FastInhib(0.7)'
p867
I3
(dp868
S'seg'
p869
F0.7
sS'hostfrom'
p870
F24.0
sS'gid'
p871
I72
sS'coords'
p872
g7
(g8
(I0
tp873
g10
tp874
Rp875
(I1
(I3
tp876
g14
(S'f8'
p877
I0
I1
tp878
Rp879
(I3
S'<'
p880
NNNI-1
I-1
I0
tp881
bI00
S'9\xb9\x89\x18\xd5*U@&\xe5\x99\xa3i0G\xc0\x92\x16B\\\x84A#\xc0'
p882
tp883
bsS'secnames'
p884
S'Cell[1].axon[10]'
p885
sI72
I149
tp886
a(F1.8400893699989966
S'Cell[0].apic[107] syn_ = new AmpaNmda(0.5)'
p887
I0
(dp888
g869
F0.8999999999999999
sg870
F24.0
sg871
I168
sg872
g7
(g8
(I0
tp889
g10
tp890
Rp891
(I1
(I3
tp892
g879
I00
S"\x93'\xa7u\xe5\xeaU\xc0\xae%*\xa5y\xff\x88\xc0\x00\x00\x00\xc0\xcc\xdcQ\xc0"
p893
tp894
bsg884
S'Cell[3].axon[260]'
p895
sI168
I5
tp896
a(F2.4597862015803007
S'Cell[3].dend[60] syn_ = new FastInhib(0.833333333333)'
p897
I3
(dp898
g869
F0.5
sg870
F24.0
sg871
I168
sg872
g7
(g8
(I0
tp899
g10
tp900
Rp901
(I1
(I3
tp902
g879
I00
S'\xbay2(\x0cqU\xc0D\xab\x9b"\xdd\xe2c@\x00\x00\x00\xc0\xcc\xdcQ\xc0'
p903
tp904
bsg884
S'Cell[3].axon[456]'
p905
sI168
I149
tp906
a(F1.743181771976669
S'Cell[1].dend[14] syn_ = new AmpaNmda(0.7)'
p907
I1
(dp908
g869
F0.5
sg870
F24.0
sg871
I168
sg872
g7
(g8
(I0
tp909
g10
tp910
Rp911
(I1
(I3
tp912
g879
I00
S'\x83)EdG\xffA\xc0X\xd2\xf8q\xb3\xc0@\xc0\x00\x00\x00\xc0\xcc\xdcQ\xc0'
p913
tp914
bsg884
S'Cell[3].axon[521]'
p915
sI168
I53
tp916
a(F1.692962091500567
S'Cell[0].apic[12] syn_ = new AmpaNmda(0.166666666667)'
p917
I0
(dp918
g869
F0.8999999999999999
sg870
F24.0
sg871
I120
sg872
g7
(g8
(I0
tp919
g10
tp920
Rp921
(I1
(I3
tp922
g879
I00
S'2KO^\x8a\xc9D@\xb9\x97\xa9\xa1\xa1\x0bV\xc0\x00\x00\x00\x00\x00\x00\x11\xc0'
p923
tp924
bsg884
S'Cell[2].axon[37]'
p925
sI120
I5
tp926
a(F2.381058823120402
S'Cell[0].apic[10] syn_ = new AmpaNmda(0.3)'
p927
I0
(dp928
g869
F0.30000000000000004
sg870
F24.0
sg871
I120
sg872
g7
(g8
(I0
tp929
g10
tp930
Rp931
(I1
(I3
tp932
g879
I00
S'?\xc1\x12\x9a\x88i$@\x1a\xb6S\xfa\xe3pR\xc0\xd9\x07\xfeI\xd7\xfd@\xc0'
p933
tp934
bsg884
S'Cell[2].axon[84]'
p935
sI120
I5
tp936
a(F2.1865908989059
S'Cell[0].apic[11] syn_ = new AmpaNmda(0.5)'
p937
I0
(dp938
g869
F0.16666666666666666
sg870
F24.0
sg871
I120
sg872
g7
(g8
(I0
tp939
g10
tp940
Rp941
(I1
(I3
tp942
g879
I00
S'\xd4\xf0\xdf?\xf6V3@\xd2>U`\x8d\xb3S\xc0\x00\x00\x00\xc0\xcc\x8c4\xc0'
p943
tp944
bsg884
S'Cell[2].axon[103]'
p945
sI120
I5
tp946
a(F1.704643274819315
S'Cell[0].apic[16] syn_ = new ExpSid(0.5)'
p947
I0
(dp948
S'seg'
p949
F0.21428571428571427
sS'hostfrom'
p950
F25.0
sS'gid'
p951
I121
sS'coords'
p952
g7
(g8
(I0
tp953
g10
tp954
Rp955
(I1
(I3
tp956
g14
(S'f8'
p957
I0
I1
tp958
Rp959
(I3
S'<'
p960
NNNI-1
I-1
I0
tp961
bI00
S'\xd1\xd9o\xea>\xeaA\xc0j\xe7V\xd6\xb7\x93d\xc0\x00\x00\x00\x00\x00\x00\x16\xc0'
p962
tp963
bsS'secnames'
p964
S'Cell[2].axon[218]'
p965
sI121
I5
tp966
a(F1.2858621920993971
S'Cell[0].apic[3] syn_ = new ExpSid(0.5)'
p967
I0
(dp968
g949
F0.5
sg950
F25.0
sg951
I169
sg952
g7
(g8
(I0
tp969
g10
tp970
Rp971
(I1
(I3
tp972
g959
I00
S'4|\x08\xb7\xacQX\xc0r\xff\xc9\xa8\xe6NR\xc0\xf9zw2e\xa9I\xc0'
p973
tp974
bsg964
S'Cell[3].axon[149]'
p975
sI169
I5
tp976
a(F2.370056777427527
S'Cell[2].dend[2] syn_ = new FastInhib(0.1)'
p977
I2
(dp978
S'seg'
p979
F0.1
sS'hostfrom'
p980
F26.0
sS'gid'
p981
I26
sS'coords'
p982
g7
(g8
(I0
tp983
g10
tp984
Rp985
(I1
(I3
tp986
g14
(S'f8'
p987
I0
I1
tp988
Rp989
(I3
S'<'
p990
NNNI-1
I-1
I0
tp991
bI00
S"\x83Q'\xae\x8c\n:@\xfc\xa1\xc1\x88\x86\xd1+\xc0\x00\x00\x00\x00\xd7c<@"
p992
tp993
bsS'secnames'
p994
S'Cell[0].axon[3]'
p995
sI26
I101
tp996
a(F1.8538854193097183
S'Cell[2].dend[34] syn_ = new FastInhib(0.166666666667)'
p997
I2
(dp998
g979
F0.5
sg980
F26.0
sg981
I74
sg982
g7
(g8
(I0
tp999
g10
tp1000
Rp1001
(I1
(I3
tp1002
g989
I00
S'h\x8d}\xb1-\xfcY\xc0\x0c9\xcf\xdbGBU\xc0\xb7G\xe1\x9d\xf9\xb7A@'
p1003
tp1004
bsg994
S'Cell[1].axon[13]'
p1005
sI74
I101
tp1006
a(F1.4188422002983279
S'Cell[0].apic[128] syn_ = new ExpSid(0.5)'
p1007
I0
(dp1008
S'seg'
p1009
F0.5
sS'hostfrom'
p1010
F27.0
sS'gid'
p1011
I123
sS'coords'
p1012
g7
(g8
(I0
tp1013
g10
tp1014
Rp1015
(I1
(I3
tp1016
g14
(S'f8'
p1017
I0
I1
tp1018
Rp1019
(I3
S'<'
p1020
NNNI-1
I-1
I0
tp1021
bI00
S"\xc5{V;\x99\x95'@H\xdc\x8b\xbcQ\xbcr\xc0\x00\x00\x00\xc0\x1e\xe5J\xc0"
p1022
tp1023
bsS'secnames'
p1024
S'Cell[2].axon[13]'
p1025
sI123
I5
tp1026
a(F1.7031038457182661
S'Cell[1].dend[19] syn_ = new ExpSid(0.5)'
p1027
I1
(dp1028
g1009
F0.1
sg1010
F27.0
sg1011
I123
sg1012
g7
(g8
(I0
tp1029
g10
tp1030
Rp1031
(I1
(I3
tp1032
g1019
I00
S"\x96f\xe5\x10\x07\x9e'\xc0\x00\x00\x00`f\xd6X\xc0\x00\x00\x00\x00\xd7\xe3?\xc0"
p1033
tp1034
bsg1024
S'Cell[2].axon[42]'
p1035
sI123
I53
tp1036
a(F2.3488128913908612
S'Cell[1].dend[22] syn_ = new AmpaNmda(0.166666666667)'
p1037
I1
(dp1038
S'seg'
p1039
F0.5
sS'hostfrom'
p1040
F28.0
sS'gid'
p1041
I76
sS'coords'
p1042
g7
(g8
(I0
tp1043
g10
tp1044
Rp1045
(I1
(I3
tp1046
g14
(S'f8'
p1047
I0
I1
tp1048
Rp1049
(I3
S'<'
p1050
NNNI-1
I-1
I0
tp1051
bI00
S'N\xaf;\xff\xf5kP@\xdc\xdb\xa4\xa1\xe7\x9cX\xc0\x10\x03&\x01\xcb\xdf1\xc0'
p1052
tp1053
bsS'secnames'
p1054
S'Cell[1].axon[7]'
p1055
sI76
I53
tp1056
a(F2.293315577705653
S'Cell[2].dend[6] syn_ = new FastInhib(0.5)'
p1057
I2
(dp1058
g1039
F0.5
sg1040
F28.0
sg1041
I172
sg1042
g7
(g8
(I0
tp1059
g10
tp1060
Rp1061
(I1
(I3
tp1062
g1049
I00
S'\xb5\xe8s\xa7\xa4hP\xc0\xb0DK;\xacx$\xc0\xf7Umv\xd0n#@'
p1063
tp1064
bsg1054
S'Cell[3].axon[39]'
p1065
sI172
I101
tp1066
a(F2.068520852627318
S'Cell[3].dend[44] syn_ = new FastInhib(0.5)'
p1067
I3
(dp1068
S'seg'
p1069
F0.5
sS'hostfrom'
p1070
F29.0
sS'gid'
p1071
I173
sS'coords'
p1072
g7
(g8
(I0
tp1073
g10
tp1074
Rp1075
(I1
(I3
tp1076
g14
(S'f8'
p1077
I0
I1
tp1078
Rp1079
(I3
S'<'
p1080
NNNI-1
I-1
I0
tp1081
bI00
S"\xbc8\x03%\x96\x95.\xc0)\x8a\xc8\x00\x8cvK@o\x97\xc3\xc9\xdc\xfe'\xc0"
p1082
tp1083
bsS'secnames'
p1084
S'Cell[3].axon[37]'
p1085
sI173
I149
tp1086
a(F1.7014392514216867
S'Cell[1].dend[21] syn_ = new ExpSid(0.1)'
p1087
I1
(dp1088
g1069
F0.8999999999999999
sg1070
F29.0
sg1071
I125
sg1072
g7
(g8
(I0
tp1089
g10
tp1090
Rp1091
(I1
(I3
tp1092
g1079
I00
S'\xf8Vc\xcah=K@$\x86zN\xd9\xa0X\xc0\xea\x0b\x0c\xaa\x88\xd95\xc0'
p1093
tp1094
bsg1084
S'Cell[2].axon[170]'
p1095
sI125
I53
tp1096
a(F1.180276934786441
S'Cell[2].dend[9] syn_ = new FastInhib(0.166666666667)'
p1097
I2
(dp1098
g1069
F0.3571428571428571
sg1070
F29.0
sg1071
I125
sg1072
g7
(g8
(I0
tp1099
g10
tp1100
Rp1101
(I1
(I3
tp1102
g1079
I00
S';\xc3\xb4\xb6\xb4\xa8`\xc02u-Ys}5\xc0\x00\x00\x00\xe0Qx@@'
p1103
tp1104
bsg1084
S'Cell[2].axon[190]'
p1105
sI125
I101
tp1106
a(F2.05267213602829
S'Cell[3].dend[9] syn_ = new FastInhib(0.833333333333)'
p1107
I3
(dp1108
g1069
F0.8333333333333333
sg1070
F29.0
sg1071
I29
sg1072
g7
(g8
(I0
tp1109
g10
tp1110
Rp1111
(I1
(I3
tp1112
g1079
I00
S'\x96\x99{\x8a\x0c\x068\xc0%\x13}\xea^\xf6X\xc0\x00\x00\x00\xa0Ga%\xc0'
p1113
tp1114
bsg1084
S'Cell[0].axon[0]'
p1115
sI29
I149
tp1116
a(F2.1912210171030932
S'Cell[3].dend[9] syn_ = new FastInhib(0.5)'
p1117
I3
(dp1118
S'seg'
p1119
F0.8333333333333333
sS'hostfrom'
p1120
F31.0
sS'gid'
p1121
I175
sS'coords'
p1122
g7
(g8
(I0
tp1123
g10
tp1124
Rp1125
(I1
(I3
tp1126
g14
(S'f8'
p1127
I0
I1
tp1128
Rp1129
(I3
S'<'
p1130
NNNI-1
I-1
I0
tp1131
bI00
S')\xbeJ%\x90:)\xc0\xb2\xb4>\x97\xa8\xc0S\xc0X\x11\xfe\xd9\x8c- \xc0'
p1132
tp1133
bsS'secnames'
p1134
S'Cell[3].axon[117]'
p1135
sI175
I149
tp1136
a(F1.6284607085587752
S'Cell[3].dend[8] syn_ = new FastInhib(0.5)'
p1137
I3
(dp1138
S'seg'
p1139
F0.16666666666666666
sS'hostfrom'
p1140
F34.0
sS'gid'
p1141
I82
sS'coords'
p1142
g7
(g8
(I0
tp1143
g10
tp1144
Rp1145
(I1
(I3
tp1146
g14
(S'f8'
p1147
I0
I1
tp1148
Rp1149
(I3
S'<'
p1150
NNNI-1
I-1
I0
tp1151
bI00
S'\xe3\x0f\xb8`\r\xac:\xc0\xf1\xd5I\xde%$T\xc0\xf3\x85|\xf4Q\xe1\x1f\xc0'
p1152
tp1153
bsS'secnames'
p1154
S'Cell[1].axon[269]'
p1155
sI82
I149
tp1156
a(F2.25211224110403
S'Cell[0].apic[105] syn_ = new AmpaNmda(0.0555555555556)'
p1157
I0
(dp1158
g1139
F0.8333333333333333
sg1140
F34.0
sg1141
I82
sg1142
g7
(g8
(I0
tp1159
g10
tp1160
Rp1161
(I1
(I3
tp1162
g1149
I00
S'-t\x81\xc6\x1cJE\xc0\xa7Dj\xeb\n\xe7}\xc0\x00\x00\x00@33\x19\xc0'
p1163
tp1164
bsg1154
S'Cell[1].axon[291]'
p1165
sI82
I5
tp1166
a(F2.266365205175831
S'Cell[3].dend[47] syn_ = new FastInhib(0.833333333333)'
p1167
I3
(dp1168
g1139
F0.5
sg1140
F34.0
sg1141
I178
sg1142
g7
(g8
(I0
tp1169
g10
tp1170
Rp1171
(I1
(I3
tp1172
g1149
I00
S'\xba\x9fp"\xe6yE\xc0\xf6\x98)\xb0\xa2\xb6]@\x00\x00\x00\x80\xeb1C\xc0'
p1173
tp1174
bsg1154
S'Cell[3].axon[239]'
p1175
sI178
I149
tp1176
a(F1.0228124766625428
S'Cell[3].dend[27] syn_ = new FastInhib(0.9)'
p1177
I3
(dp1178
S'seg'
p1179
F0.7
sS'hostfrom'
p1180
F35.0
sS'gid'
p1181
I83
sS'coords'
p1182
g7
(g8
(I0
tp1183
g10
tp1184
Rp1185
(I1
(I3
tp1186
g14
(S'f8'
p1187
I0
I1
tp1188
Rp1189
(I3
S'<'
p1190
NNNI-1
I-1
I0
tp1191
bI00
S'\xd1\x91|\xc8\xcd\xc5V@\xbc\x9d\xab\x12\xb8\xdbB\xc0\x04b\x9fe\x06\x8cX\xc0'
p1192
tp1193
bsS'secnames'
p1194
S'Cell[1].axon[238]'
p1195
sI83
I149
tp1196
a(F1.8166951249210115
S'Cell[3].dend[46] syn_ = new FastInhib(0.5)'
p1197
I3
(dp1198
S'seg'
p1199
F0.1
sS'hostfrom'
p1200
F36.0
sS'gid'
p1201
I84
sS'coords'
p1202
g7
(g8
(I0
tp1203
g10
tp1204
Rp1205
(I1
(I3
tp1206
g14
(S'f8'
p1207
I0
I1
tp1208
Rp1209
(I3
S'<'
p1210
NNNI-1
I-1
I0
tp1211
bI00
S'\xb0c\x8a\x9dhm4\xc0x3"%\x07\x1cU@\xfcz=\xbd\x11N0\xc0'
p1212
tp1213
bsS'secnames'
p1214
S'Cell[1].axon[82]'
p1215
sI84
I149
tp1216
a(F2.4193483656350074
S'Cell[3].dend[75] syn_ = new FastInhib(0.5)'
p1217
I3
(dp1218
g1199
F0.8333333333333333
sg1200
F36.0
sg1201
I132
sg1202
g7
(g8
(I0
tp1219
g10
tp1220
Rp1221
(I1
(I3
tp1222
g1209
I00
S'\x98\xb5\xf1\x9e-\xd0#@\x0e\x1b;J\xf6\xeb@@%\x98\xfb\xe2A\x95\xe9\xbf'
p1223
tp1224
bsg1214
S'Cell[2].axon[69]'
p1225
sI132
I149
tp1226
a(F2.0560429172869763
S'Cell[3].dend[0] syn_ = new FastInhib(0.5)'
p1227
I3
(dp1228
g1199
F0.5
sg1200
F36.0
sg1201
I180
sg1202
g7
(g8
(I0
tp1229
g10
tp1230
Rp1231
(I1
(I3
tp1232
g1209
I00
S'\x00\x00\x000\\\x0f$\xc0\x00\x00\x00\xb0GA3\xc0\x00\x00\x00\xb4G\xe1\x18\xc0'
p1233
tp1234
bsg1214
S'Cell[3].axon[66]'
p1235
sI180
I149
tp1236
a(F2.452526780146666
S'Cell[1].dend[12] syn_ = new ExpSid(0.5)'
p1237
I1
(dp1238
S'seg'
p1239
F0.16666666666666666
sS'hostfrom'
p1240
F37.0
sS'gid'
p1241
I133
sS'coords'
p1242
g7
(g8
(I0
tp1243
g10
tp1244
Rp1245
(I1
(I3
tp1246
g14
(S'f8'
p1247
I0
I1
tp1248
Rp1249
(I3
S'<'
p1250
NNNI-1
I-1
I0
tp1251
bI00
S'\x95\xb5k!\xf1U@@|!\x07F\xaf\x99@\xc0\r\xa9\xb3\xf8q\xb4\x18\xc0'
p1252
tp1253
bsS'secnames'
p1254
S'Cell[2].axon[92]'
p1255
sI133
I53
tp1256
a(F1.3115356225688228
S'Cell[3].dend[86] syn_ = new FastInhib(0.166666666667)'
p1257
I3
(dp1258
g1239
F0.5
sg1240
F37.0
sg1241
I181
sg1242
g7
(g8
(I0
tp1259
g10
tp1260
Rp1261
(I1
(I3
tp1262
g1249
I00
S'\xcf\x837M\x81\x91;@}\xde?\x82\xc8\xa1M@\x00\x00\x00`\xb8\x1e\xd5?'
p1263
tp1264
bsg1254
S'Cell[3].axon[166]'
p1265
sI181
I149
tp1266
a(F1.99222004292743
S'Cell[3].dend[80] syn_ = new FastInhib(0.5)'
p1267
I3
(dp1268
g1239
F0.22727272727272727
sg1240
F37.0
sg1241
I85
sg1242
g7
(g8
(I0
tp1269
g10
tp1270
Rp1271
(I1
(I3
tp1272
g1249
I00
S'2\x13\x83\x95\x95\x90J@\x80\xc1\xfac\x91\xe0J@\x1a|\xeb\xd2\xd0\x84G\xc0'
p1273
tp1274
bsg1254
S'Cell[1].axon[254]'
p1275
sI85
I149
tp1276
a(F1.0853787202246759
S'Cell[0].apic[11] syn_ = new AmpaNmda(0.5)'
p1277
I0
(dp1278
S'seg'
p1279
F0.16666666666666666
sS'hostfrom'
p1280
F38.0
sS'gid'
p1281
I182
sS'coords'
p1282
g7
(g8
(I0
tp1283
g10
tp1284
Rp1285
(I1
(I3
tp1286
g14
(S'f8'
p1287
I0
I1
tp1288
Rp1289
(I3
S'<'
p1290
NNNI-1
I-1
I0
tp1291
bI00
S'\xc2\xaa\x10T\x88]3@F#\x1be&\xfbS\xc0\x85M\xdf\xcd\xa2`4\xc0'
p1292
tp1293
bsS'secnames'
p1294
S'Cell[3].axon[391]'
p1295
sI182
I5
tp1296
a(F1.3630900203337675
S'Cell[3].dend[26] syn_ = new FastInhib(0.5)'
p1297
I3
(dp1298
g1279
F0.5
sg1280
F38.0
sg1281
I86
sg1282
g7
(g8
(I0
tp1299
g10
tp1300
Rp1301
(I1
(I3
tp1302
g1289
I00
S'd\xb3Z\xbcw\tR@\xc0\xca>\xc2\xe0\xabP\xc0w6\xd5\xaf\xa2\xc2H\xc0'
p1303
tp1304
bsg1294
S'Cell[1].axon[3]'
p1305
sI86
I149
tp1306
a(F2.2714908331782517
S'Cell[0].apic[139] syn_ = new ExpSid(0.5)'
p1307
I0
(dp1308
S'seg'
p1309
F0.5
sS'hostfrom'
p1310
F39.0
sS'gid'
p1311
I87
sS'coords'
p1312
g7
(g8
(I0
tp1313
g10
tp1314
Rp1315
(I1
(I3
tp1316
g14
(S'f8'
p1317
I0
I1
tp1318
Rp1319
(I3
S'<'
p1320
NNNI-1
I-1
I0
tp1321
bI00
S'\x00\x00\x00\x10\xd73F\xc0\x00\x00\x00pf\xa2b\xc0\x00\x00\x00 \\\x0f5\xc0'
p1322
tp1323
bsS'secnames'
p1324
S'Cell[1].axon[29]'
p1325
sI87
I5
tp1326
a(F1.157674180965332
S'Cell[3].dend[74] syn_ = new FastInhib(0.1)'
p1327
I3
(dp1328
g1309
F0.5
sg1310
F39.0
sg1311
I183
sg1312
g7
(g8
(I0
tp1329
g10
tp1330
Rp1331
(I1
(I3
tp1332
g1319
I00
S't\x15\xc5>.\x82)@ \xbdi\x98\xe7AW@t\x94s\xbco\xe33@'
p1333
tp1334
bsg1324
S'Cell[3].axon[27]'
p1335
sI183
I149
tp1336
a(F2.0539275695674464
S'Cell[3].dend[40] syn_ = new FastInhib(0.5)'
p1337
I3
(dp1338
S'seg'
p1339
F0.5
sS'hostfrom'
p1340
F40.0
sS'gid'
p1341
I88
sS'coords'
p1342
g7
(g8
(I0
tp1343
g10
tp1344
Rp1345
(I1
(I3
tp1346
g14
(S'f8'
p1347
I0
I1
tp1348
Rp1349
(I3
S'<'
p1350
NNNI-1
I-1
I0
tp1351
bI00
S'\xbb\x90>\x06\xb7s9@\x13\xff7\xb6PlT@\xd1\xe8\xa9\x13z\xed0\xc0'
p1352
tp1353
bsS'secnames'
p1354
S'Cell[1].axon[143]'
p1355
sI88
I149
tp1356
a(F2.24779579437675
S'Cell[3].dend[8] syn_ = new FastInhib(0.166666666667)'
p1357
I3
(dp1358
g1339
F0.07142857142857142
sg1340
F40.0
sg1341
I88
sg1342
g7
(g8
(I0
tp1359
g10
tp1360
Rp1361
(I1
(I3
tp1362
g1349
I00
S'\x9d/\xea\xd2c\x0c5\xc0\x9e\x0cf\xd8xGN\xc0\x00\x00\x00\x80\xebQ\xf4?'
p1363
tp1364
bsg1354
S'Cell[1].axon[158]'
p1365
sI88
I149
tp1366
a(F1.8608185584112529
S'Cell[0].dend[3] syn_ = new AmpaNmda(0.5)'
p1367
I0
(dp1368
g1339
F0.5
sg1340
F40.0
sg1341
I88
sg1342
g7
(g8
(I0
tp1369
g10
tp1370
Rp1371
(I1
(I3
tp1372
g1349
I00
S'2\x8aej\xd5\xe4G@F\xef\x04&9"6\xc0@\xf5\xcf#\x84\x12A\xc0'
p1373
tp1374
bsg1354
S'Cell[1].axon[165]'
p1375
sI88
I5
tp1376
a(F2.4437232846737156
S'Cell[0].apic[12] syn_ = new AmpaNmda(0.5)'
p1377
I0
(dp1378
g1339
F0.8333333333333333
sg1340
F40.0
sg1341
I88
sg1342
g7
(g8
(I0
tp1379
g10
tp1380
Rp1381
(I1
(I3
tp1382
g1349
I00
S'\xbeB\xd1\x89\x1d,E@\xc0\x17\xdd\xfa\x83QY\xc0qo\x98$i{&@'
p1383
tp1384
bsg1354
S'Cell[1].axon[337]'
p1385
sI88
I5
tp1386
a(F1.6903868196270797
S'Cell[3].dend[8] syn_ = new FastInhib(0.5)'
p1387
I3
(dp1388
g1339
F0.8999999999999999
sg1340
F40.0
sg1341
I88
sg1342
g7
(g8
(I0
tp1389
g10
tp1390
Rp1391
(I1
(I3
tp1392
g1349
I00
S'\xfe\x90\xf5E\x92\xdf7\xc0($7\nW\x06T\xc0\xe2F\xa4\xef\xd2\x10\x1e\xc0'
p1393
tp1394
bsg1354
S'Cell[1].axon[347]'
p1395
sI88
I149
tp1396
a(F1.5206786560171213
S'Cell[3].dend[32] syn_ = new FastInhib(0.166666666667)'
p1397
I3
(dp1398
g1339
F0.1
sg1340
F40.0
sg1341
I136
sg1342
g7
(g8
(I0
tp1399
g10
tp1400
Rp1401
(I1
(I3
tp1402
g1349
I00
S'\xc7\x819\x1aM\x1f(\xc0V\x9b\xa6\x83\x1f\xf6J@\xf6\r\x82;\xb4\x8aM\xc0'
p1403
tp1404
bsg1354
S'Cell[2].axon[3]'
p1405
sI136
I149
tp1406
a(F2.474965527655504
S'Cell[3].dend[87] syn_ = new FastInhib(0.785714285714)'
p1407
I3
(dp1408
S'seg'
p1409
F0.5
sS'hostfrom'
p1410
F41.0
sS'gid'
p1411
I185
sS'coords'
p1412
g7
(g8
(I0
tp1413
g10
tp1414
Rp1415
(I1
(I3
tp1416
g14
(S'f8'
p1417
I0
I1
tp1418
Rp1419
(I3
S'<'
p1420
NNNI-1
I-1
I0
tp1421
bI00
S'T\xed\x03\xa9\xbb\x992\xc0\xe0~h\x951\x93X@\x9a\xac\xd2w\xa3\x085@'
p1422
tp1423
bsS'secnames'
p1424
S'Cell[3].axon[187]'
p1425
sI185
I149
tp1426
a(F1.6977353413054674
S'Cell[2].dend[21] syn_ = new FastInhib(0.5)'
p1427
I2
(dp1428
g1409
F0.5
sg1410
F41.0
sg1411
I89
sg1412
g7
(g8
(I0
tp1429
g10
tp1430
Rp1431
(I1
(I3
tp1432
g1419
I00
S'\x00\x00\x00\xe0z\x84T\xc0\x00\x00\x00\xc0\xf5\xa8%@\x00\x00\x00\x00\xebQ\xc8\xbf'
p1433
tp1434
bsg1424
S'Cell[1].axon[109]'
p1435
sI89
I101
tp1436
a(F0.9860927003770152
S'Cell[0].apic[13] syn_ = new AmpaNmda(0.166666666667)'
p1437
I0
(dp1438
S'seg'
p1439
F0.5
sS'hostfrom'
p1440
F42.0
sS'gid'
p1441
I42
sS'coords'
p1442
g7
(g8
(I0
tp1443
g10
tp1444
Rp1445
(I1
(I3
tp1446
g14
(S'f8'
p1447
I0
I1
tp1448
Rp1449
(I3
S'<'
p1450
NNNI-1
I-1
I0
tp1451
bI00
S'\x02\xe1\xaa\xab\xe1RF@#\xe89\xbf\xba\x89U\xc0\xc5b\x1a\xc2\xe1\xe8\x0c\xc0'
p1452
tp1453
bsS'secnames'
p1454
S'Cell[0].axon[9]'
p1455
sI42
I5
tp1456
a(F2.1165729305587124
S'Cell[0].apic[31] syn_ = new AmpaNmda(0.1)'
p1457
I0
(dp1458
g1439
F0.05555555555555555
sg1440
F42.0
sg1441
I90
sg1442
g7
(g8
(I0
tp1459
g10
tp1460
Rp1461
(I1
(I3
tp1462
g1449
I00
S'|\xf5y\xd9\x1c2J\xc0n\xc6\xf1\xf9Oh\x80\xc0.\x16\xf4z_\xbc)@'
p1463
tp1464
bsg1454
S'Cell[1].axon[69]'
p1465
sI90
I5
tp1466
a(F1.2806416208434008
S'Cell[3].dend[74] syn_ = new FastInhib(0.1)'
p1467
I3
(dp1468
g1439
F0.30000000000000004
sg1440
F42.0
sg1441
I138
sg1442
g7
(g8
(I0
tp1469
g10
tp1470
Rp1471
(I1
(I3
tp1472
g1449
I00
S'\xa3\x16\xfa\xe12I(@\xfd\xcf\x03SSEW@\x00\x00\x00\x00\xd7#4@'
p1473
tp1474
bsg1454
S'Cell[2].axon[93]'
p1475
sI138
I149
tp1476
a(F1.9989552239212482
S'Cell[2].dend[6] syn_ = new FastInhib(0.5)'
p1477
I2
(dp1478
g1439
F0.5
sg1440
F42.0
sg1441
I138
sg1442
g7
(g8
(I0
tp1479
g10
tp1480
Rp1481
(I1
(I3
tp1482
g1449
I00
S'7\x08h\xb7\xddSP\xc0.\xf4\x8e\x8f8\xf9!\xc0\x00\x00\x00\xa0\x99\x19$@'
p1483
tp1484
bsg1454
S'Cell[2].axon[169]'
p1485
sI138
I101
tp1486
a(F0.6780459077780572
S'Cell[3].dend[2] syn_ = new FastInhib(0.5)'
p1487
I3
(dp1488
g1439
F0.8333333333333333
sg1440
F42.0
sg1441
I186
sg1442
g7
(g8
(I0
tp1489
g10
tp1490
Rp1491
(I1
(I3
tp1492
g1449
I00
S'\x19\x90D\xeb\xa7/"\xc0}O\x05\xa7\xf0\x10F\xc0\x00\x00\x00@\xe1z\xf8?'
p1493
tp1494
bsg1454
S'Cell[3].axon[68]'
p1495
sI186
I149
tp1496
a(F2.3738561668342135
S'Cell[0].apic[142] syn_ = new AmpaNmda(0.5)'
p1497
I0
(dp1498
g1439
F0.9285714285714284
sg1440
F42.0
sg1441
I186
sg1442
g7
(g8
(I0
tp1499
g10
tp1500
Rp1501
(I1
(I3
tp1502
g1449
I00
S'\xc4\xec\xe1ChcP\xc0\x9b\xb9\\\xb3\xd4\x18d\xc0i\xc5K\x8f\xc3T2\xc0'
p1503
tp1504
bsg1454
S'Cell[3].axon[87]'
p1505
sI186
I5
tp1506
a(F2.242142198698949
S'Cell[2].dend[47] syn_ = new FastInhib(0.5)'
p1507
I2
(dp1508
g1439
F0.5
sg1440
F42.0
sg1441
I186
sg1442
g7
(g8
(I0
tp1509
g10
tp1510
Rp1511
(I1
(I3
tp1512
g1449
I00
S'!6\xc5}O4M\xc0\x8f7\xceb\xc6\xc7O\xc0\xc6\xc1\xf1\t~L\x1a@'
p1513
tp1514
bsg1454
S'Cell[3].axon[99]'
p1515
sI186
I101
tp1516
a(F1.7216014759409235
S'Cell[3].dend[57] syn_ = new FastInhib(0.5)'
p1517
I3
(dp1518
S'seg'
p1519
F0.8333333333333333
sS'hostfrom'
p1520
F43.0
sS'gid'
p1521
I91
sS'coords'
p1522
g7
(g8
(I0
tp1523
g10
tp1524
Rp1525
(I1
(I3
tp1526
g14
(S'f8'
p1527
I0
I1
tp1528
Rp1529
(I3
S'<'
p1530
NNNI-1
I-1
I0
tp1531
bI00
S'\x04r\x0c\x97\xf4_/\xc0s[\x81T\xce\xe0Q@wy\xc9\xf3\xc1\xd6#\xc0'
p1532
tp1533
bsS'secnames'
p1534
S'Cell[1].axon[430]'
p1535
sI91
I149
tp1536
a(F1.7385988408308801
S'Cell[2].dend[29] syn_ = new FastInhib(0.5)'
p1537
I2
(dp1538
g1519
F0.8333333333333333
sg1520
F43.0
sg1521
I43
sg1522
g7
(g8
(I0
tp1539
g10
tp1540
Rp1541
(I1
(I3
tp1542
g1529
I00
S'\xd0\xc9\xdf\xa8B\x16S\xc0\xfd%#\xaa\xed\xb5O\xc05\xea\x0f\x84f\xc98@'
p1543
tp1544
bsg1534
S'Cell[0].axon[1]'
p1545
sI43
I101
tp1546
a(F1.868405844934155
S'Cell[3].dend[19] syn_ = new FastInhib(0.5)'
p1547
I3
(dp1548
S'seg'
p1549
F0.5
sS'hostfrom'
p1550
F44.0
sS'gid'
p1551
I92
sS'coords'
p1552
g7
(g8
(I0
tp1553
g10
tp1554
Rp1555
(I1
(I3
tp1556
g14
(S'f8'
p1557
I0
I1
tp1558
Rp1559
(I3
S'<'
p1560
NNNI-1
I-1
I0
tp1561
bI00
S'\xf2\x03"Q.\xa97@\x83\xf2\x93\xffG\xc7C\xc0\xb0#\xa7E\xcf\x9eD\xc0'
p1562
tp1563
bsS'secnames'
p1564
S'Cell[1].axon[207]'
p1565
sI92
I149
tp1566
a(F1.919280034711757
S'Cell[0].apic[9] syn_ = new AmpaNmda(0.5)'
p1567
I0
(dp1568
g1549
F0.5
sg1550
F44.0
sg1551
I92
sg1552
g7
(g8
(I0
tp1569
g10
tp1570
Rp1571
(I1
(I3
tp1572
g1559
I00
S',\x9d\x01\xa8\x8f\xc3!\xc0\x07\xa2\xbd\x9bg\x9bS\xc0k\xe9\xf3fi\x8bF\xc0'
p1573
tp1574
bsg1564
S'Cell[1].axon[226]'
p1575
sI92
I5
tp1576
a(F2.1487495780397676
S'Cell[3].dend[8] syn_ = new FastInhib(0.166666666667)'
p1577
I3
(dp1578
g1549
F0.5
sg1550
F44.0
sg1551
I44
sg1552
g7
(g8
(I0
tp1579
g10
tp1580
Rp1581
(I1
(I3
tp1582
g1559
I00
S'Z\xce\xfd\xb2\xd6F4\xc0\x1a{\x1c\x86\x91pN\xc0\xdb\x9c{\xdb3\xe3\xf1\xbf'
p1583
tp1584
bsg1564
S'Cell[0].axon[1]'
p1585
sI44
I149
tp1586
a(F1.638058807077711
S'Cell[3].dend[28] syn_ = new FastInhib(0.5)'
p1587
I3
(dp1588
S'seg'
p1589
F0.16666666666666666
sS'hostfrom'
p1590
F45.0
sS'gid'
p1591
I141
sS'coords'
p1592
g7
(g8
(I0
tp1593
g10
tp1594
Rp1595
(I1
(I3
tp1596
g14
(S'f8'
p1597
I0
I1
tp1598
Rp1599
(I3
S'<'
p1600
NNNI-1
I-1
I0
tp1601
bI00
S')WaF\xcd>\xf1?\xf8\x173\x89&w\x13\xc0\xff\xff\xff\xdfQ\xf8?\xc0'
p1602
tp1603
bsS'secnames'
p1604
S'Cell[2].axon[135]'
p1605
sI141
I149
tp1606
a(F1.5052573292662612
S'Cell[2].dend[5] syn_ = new FastInhib(0.833333333333)'
p1607
I2
(dp1608
g1589
F0.5
sg1590
F45.0
sg1591
I141
sg1592
g7
(g8
(I0
tp1609
g10
tp1610
Rp1611
(I1
(I3
tp1612
g1599
I00
S'5\\.}++R@J\xc3\x00\\\n\xadQ\xc0\xcb\xa3\xd1"n>4@'
p1613
tp1614
bsg1604
S'Cell[2].axon[486]'
p1615
sI141
I101
tp1616
a(F1.9665445930867584
S'Cell[0].apic[171] syn_ = new ExpSid(0.5)'
p1617
I0
(dp1618
g1589
F0.5
sg1590
F45.0
sg1591
I93
sg1592
g7
(g8
(I0
tp1619
g10
tp1620
Rp1621
(I1
(I3
tp1622
g1599
I00
S'\x00\x00\x00\xd0\xa3\xb0J\xc0\x00\x00\x00@\ngb\xc0\x00\x00\x00@\n\x17/\xc0'
p1623
tp1624
bsg1604
S'Cell[1].axon[169]'
p1625
sI93
I5
tp1626
a(F2.100427115812192
S'Cell[3].dend[43] syn_ = new FastInhib(0.5)'
p1627
I3
(dp1628
g1589
F0.1
sg1590
F45.0
sg1591
I93
sg1592
g7
(g8
(I0
tp1629
g10
tp1630
Rp1631
(I1
(I3
tp1632
g1599
I00
S'E\xfd\x04\xe0\xc3n,\xc0pn\x897$\xc4<@\xe0Y)\x99\xa4\xa8\x18\xc0'
p1633
tp1634
bsg1604
S'Cell[1].axon[194]'
p1635
sI93
I149
tp1636
a(F1.8942819251706442
S'Cell[3].dend[37] syn_ = new FastInhib(0.5)'
p1637
I3
(dp1638
g1589
F0.16666666666666666
sg1590
F45.0
sg1591
I93
sg1592
g7
(g8
(I0
tp1639
g10
tp1640
Rp1641
(I1
(I3
tp1642
g1599
I00
S'l\xa2\xf6\xcb\xfa\xfb3@\xbc\xdc\x96\xeeR\xcfR@7Z1\xab[\x1b7\xc0'
p1643
tp1644
bsg1604
S'Cell[1].axon[215]'
p1645
sI93
I149
tp1646
a(F2.270482890387368
S'Cell[1].dend[19] syn_ = new AmpaNmda(0.166666666667)'
p1647
I1
(dp1648
S'seg'
p1649
F0.16666666666666666
sS'hostfrom'
p1650
F46.0
sS'gid'
p1651
I94
sS'coords'
p1652
g7
(g8
(I0
tp1653
g10
tp1654
Rp1655
(I1
(I3
tp1656
g14
(S'f8'
p1657
I0
I1
tp1658
Rp1659
(I3
S'<'
p1660
NNNI-1
I-1
I0
tp1661
bI00
S'\x86\x82P*\x14\x06,\xc0\xdc\xb3\x9f\xbc\xbaPU\xc0qO\x8a\x11\xb2\x9bB\xc0'
p1662
tp1663
bsS'secnames'
p1664
S'Cell[1].axon[126]'
p1665
sI94
I53
tp1666
a(F2.2248597748862156
S'Cell[1].dend[16] syn_ = new AmpaNmda(0.166666666667)'
p1667
I1
(dp1668
g1649
F0.5
sg1650
F46.0
sg1651
I94
sg1652
g7
(g8
(I0
tp1669
g10
tp1670
Rp1671
(I1
(I3
tp1672
g1659
I00
S'\xf59\x9d\x11\x85\xfb-\xc0\xdd\x1b\xc4\xa5>kR\xc0\xdd\xee\xdb\xb7\xc5\xf0B\xc0'
p1673
tp1674
bsg1664
S'Cell[1].axon[127]'
p1675
sI94
I53
tp1676
a(F2.3779869113085415
S'Cell[0].apic[1] syn_ = new AmpaNmda(0.5)'
p1677
I0
(dp1678
g1649
F0.08823529411764705
sg1650
F46.0
sg1651
I94
sg1652
g7
(g8
(I0
tp1679
g10
tp1680
Rp1681
(I1
(I3
tp1682
g1659
I00
S'\x18(X\x0f\xf43=\xc0R`\xf5C\xfd\xb4R\xc0\x00\x00\x00\xa0Ga-\xc0'
p1683
tp1684
bsg1664
S'Cell[1].axon[174]'
p1685
sI94
I5
tp1686
a(F2.4219343401066786
S'Cell[3].dend[80] syn_ = new FastInhib(0.5)'
p1687
I3
(dp1688
S'seg'
p1689
F0.5
sS'hostfrom'
p1690
F47.0
sS'gid'
p1691
I95
sS'coords'
p1692
g7
(g8
(I0
tp1693
g10
tp1694
Rp1695
(I1
(I3
tp1696
g14
(S'f8'
p1697
I0
I1
tp1698
Rp1699
(I3
S'<'
p1700
NNNI-1
I-1
I0
tp1701
bI00
S'\xae\xc9^\xb7C7K@\xca)\xc3r\xf6:I@:\x97dk\xd7\xc8F\xc0'
p1702
tp1703
bsS'secnames'
p1704
S'Cell[1].axon[209]'
p1705
sI95
I149
tp1706
a(F2.395169845940213
S'Cell[3].dend[18] syn_ = new FastInhib(0.1)'
p1707
I3
(dp1708
g1689
F0.5
sg1690
F47.0
sg1691
I95
sg1692
g7
(g8
(I0
tp1709
g10
tp1710
Rp1711
(I1
(I3
tp1712
g1699
I00
S'\x02\x81\xe4\xec\x04\xa9A@\x0f\xae\xbf\x82\x18\xa5E\xc0\x81\xee|\xd4\xda*F\xc0'
p1713
tp1714
bsg1704
S'Cell[1].axon[320]'
p1715
sI95
I149
tp1716
a(F2.4497591483184027
S'Cell[2].dend[22] syn_ = new FastInhib(0.833333333333)'
p1717
I2
(dp1718
g1689
F0.16666666666666666
sg1690
F47.0
sg1691
I143
sg1692
g7
(g8
(I0
tp1719
g10
tp1720
Rp1721
(I1
(I3
tp1722
g1699
I00
S'\xf0\x15\x97\xff=\xe3P\xc0E\xd1D\x9c\xe7\xc2M@O\xffW\xec#\x03\x10@'
p1723
tp1724
bsg1704
S'Cell[2].axon[54]'
p1725
sI143
I101
tp1726
a(F1.5088355789317738
S'Cell[1].apic[0] syn_ = new ExpSid(0.833333333333)'
p1727
I1
(dp1728
g1689
F0.16666666666666666
sg1690
F47.0
sg1691
I143
sg1692
g7
(g8
(I0
tp1729
g10
tp1730
Rp1731
(I1
(I3
tp1732
g1699
I00
S'\xa8\xf4=\x13\xd24D@;\xce\xf1>Z\xf6K@\x00\x00\x00@33\x1b\xc0'
p1733
tp1734
bsg1704
S'Cell[2].axon[88]'
p1735
sI143
I53
tp1736
a(F2.2837919716368122
S'Cell[3].dend[39] syn_ = new FastInhib(0.5)'
p1737
I3
(dp1738
g1689
F0.21428571428571427
sg1690
F47.0
sg1691
I143
sg1692
g7
(g8
(I0
tp1739
g10
tp1740
Rp1741
(I1
(I3
tp1742
g1699
I00
S'\xfe\x1d2)t\r6@\t\xe9 \x8ew\x81T@\xbf}s@\x80\x81(\xc0'
p1743
tp1744
bsg1704
S'Cell[2].axon[204]'
p1745
sI143
I149
tp1746
a(F2.3019500098751178
S'Cell[3].dend[5] syn_ = new FastInhib(0.166666666667)'
p1747
I3
(dp1748
g1689
F0.16666666666666666
sg1690
F47.0
sg1691
I47
sg1692
g7
(g8
(I0
tp1749
g10
tp1750
Rp1751
(I1
(I3
tp1752
g1699
I00
S'~EZ\x11W\x9eF\xc0\x00\x1bFA\x13\x0fQ\xc0)6\x04\x1e\xc1x#@'
p1753
tp1754
bsg1704
S'Cell[0].axon[28]'
p1755
sI47
I149
tp1756
a.