(lp0
(F2.2928413382399024
S'Cell[2].dend[1] syn_ = new FastInhib(0.5)'
p1
I2
(dp2
S'seg'
p3
F0.5
sS'hostfrom'
p4
F1.0
sS'gid'
p5
I97
sS'coords'
p6
cnumpy.core.multiarray
_reconstruct
p7
(cnumpy
ndarray
p8
(I0
tp9
S'b'
p10
tp11
Rp12
(I1
(I3
tp13
cnumpy
dtype
p14
(S'f8'
p15
I0
I1
tp16
Rp17
(I3
S'<'
p18
NNNI-1
I-1
I0
tp19
bI00
S'@?\xfe\x92\xd3\xe8+\xc0\x10}\x7fV\x91\x9b<@\ti\xe7\xa7\xa1\xb4D\xc0'
p20
tp21
bsS'secnames'
p22
S'Cell[2].axon[13]'
p23
sI97
I136
tp24
a(F2.02264933034437
S'Cell[3].dend[48] syn_ = new FastInhib(0.5)'
p25
I3
(dp26
g3
F0.5
sg4
F1.0
sg5
I97
sg6
g7
(g8
(I0
tp27
g10
tp28
Rp29
(I1
(I3
tp30
g17
I00
S'\xcc?J\x01\xd8\xa1E\xc0(`a"f\xd9F@\x16\xe2\xf92\x8e|\x12@'
p31
tp32
bsg22
S'Cell[2].axon[181]'
p33
sI97
I184
tp34
a(F2.417349913164856
S'Cell[0].apic[29] syn_ = new ExpSid(0.3)'
p35
I0
(dp36
g3
F0.5
sg4
F1.0
sg5
I97
sg6
g7
(g8
(I0
tp37
g10
tp38
Rp39
(I1
(I3
tp40
g17
I00
S'<\xcb\xe4\xe7\x81\x08Q@\x9ef\x10!\x8b\xfbL@\xf4`}\xf5\xcc\x07!@'
p41
tp42
bsg22
S'Cell[2].axon[248]'
p43
sI97
I40
tp44
a(F1.943105536385361
S'Cell[2].dend[12] syn_ = new FastInhib(0.5)'
p45
I2
(dp46
S'seg'
p47
F0.8333333333333333
sS'hostfrom'
p48
F2.0
sS'gid'
p49
I98
sS'coords'
p50
g7
(g8
(I0
tp51
g10
tp52
Rp53
(I1
(I3
tp54
g14
(S'f8'
p55
I0
I1
tp56
Rp57
(I3
S'<'
p58
NNNI-1
I-1
I0
tp59
bI00
S'OT\xcf\xfc\xf6\xda6@\t\xb4RA\x82\x0e(\xc0\x00\x00\x00`fFI\xc0'
p60
tp61
bsS'secnames'
p62
S'Cell[2].axon[274]'
p63
sI98
I136
tp64
a(F2.3863851575102104
S'Cell[3].dend[21] syn_ = new FastInhib(0.1)'
p65
I3
(dp66
g47
F0.16666666666666666
sg48
F2.0
sg49
I98
sg50
g7
(g8
(I0
tp67
g10
tp68
Rp69
(I1
(I3
tp70
g57
I00
S'\xd8\x17a\x10\xea&7\xc0W\xec\xaeC\x02\x00T@2\xe0\xb6\xdf\xc8i \xc0'
p71
tp72
bsg62
S'Cell[2].axon[385]'
p73
sI98
I184
tp74
a(F1.943105536385361
S'Cell[2].dend[12] syn_ = new FastInhib(0.5)'
p75
I2
(dp76
S'seg'
p77
F0.8333333333333333
sS'hostfrom'
p78
F3.0
sS'gid'
p79
I99
sS'coords'
p80
g7
(g8
(I0
tp81
g10
tp82
Rp83
(I1
(I3
tp84
g14
(S'f8'
p85
I0
I1
tp86
Rp87
(I3
S'<'
p88
NNNI-1
I-1
I0
tp89
bI00
S'OT\xcf\xfc\xf6\xda6@\t\xb4RA\x82\x0e(\xc0\x00\x00\x00`fFI\xc0'
p90
tp91
bsS'secnames'
p92
S'Cell[2].axon[274]'
p93
sI99
I136
tp94
a(F2.3863851575102104
S'Cell[3].dend[21] syn_ = new FastInhib(0.1)'
p95
I3
(dp96
g77
F0.16666666666666666
sg78
F3.0
sg79
I99
sg80
g7
(g8
(I0
tp97
g10
tp98
Rp99
(I1
(I3
tp100
g87
I00
S'\xd8\x17a\x10\xea&7\xc0W\xec\xaeC\x02\x00T@2\xe0\xb6\xdf\xc8i \xc0'
p101
tp102
bsg92
S'Cell[2].axon[385]'
p103
sI99
I184
tp104
a(F2.0304500019896214
S'Cell[0].dend[8] syn_ = new AmpaNmda(0.3)'
p105
I0
(dp106
S'seg'
p107
F0.5
sS'hostfrom'
p108
F4.0
sS'gid'
p109
I100
sS'coords'
p110
g7
(g8
(I0
tp111
g10
tp112
Rp113
(I1
(I3
tp114
g14
(S'f8'
p115
I0
I1
tp116
Rp117
(I3
S'<'
p118
NNNI-1
I-1
I0
tp119
bI00
S'\xc6\x98\'\xecR+"\xc0\xd4\x82\xf0n\x89\xf0G\xc0>\xa2\xb3\x8c0F"\xc0'
p120
tp121
bsS'secnames'
p122
S'Cell[2].axon[71]'
p123
sI100
I40
tp124
a(F1.7260491652181442
S'Cell[1].dend[28] syn_ = new FastInhib(0.1)'
p125
I1
(dp126
g107
F0.8333333333333333
sg108
F4.0
sg109
I100
sg110
g7
(g8
(I0
tp127
g10
tp128
Rp129
(I1
(I3
tp130
g117
I00
S'6\x87z\\j\xab-\xc0&\xc0\x89\xbcz\xf6(\xc0@\xfd\xb2\xb0I\x14,\xc0'
p131
tp132
bsg122
S'Cell[2].axon[116]'
p133
sI100
I88
tp134
a(F1.466430439107821
S'Cell[1].dend[33] syn_ = new FastInhib(0.5)'
p135
I1
(dp136
S'seg'
p137
F0.8999999999999999
sS'hostfrom'
p138
F5.0
sS'gid'
p139
I149
sS'coords'
p140
g7
(g8
(I0
tp141
g10
tp142
Rp143
(I1
(I3
tp144
g14
(S'f8'
p145
I0
I1
tp146
Rp147
(I3
S'<'
p148
NNNI-1
I-1
I0
tp149
bI00
S'd\x04\x15K\xaa\xeb\x19\xc0<\x1d\x9e\x1a\xfe\x15!@\x00\x00\x00\xc0\x1e\x85\xf7?'
p150
tp151
bsS'secnames'
p152
S'Cell[3].axon[11]'
p153
sI149
I88
tp154
a(F1.129731139654851
S'Cell[1].dend[10] syn_ = new FastInhib(0.5)'
p155
I1
(dp156
g137
F0.5
sg138
F5.0
sg139
I149
sg140
g7
(g8
(I0
tp157
g10
tp158
Rp159
(I1
(I3
tp160
g147
I00
S'\xce\xa9r\xed\x81:,@\xff!\x0f\xad\xceG\x05@\xc6\xe8\x9dD\xdd\xfa\x0e\xc0'
p161
tp162
bsg152
S'Cell[3].axon[39]'
p163
sI149
I88
tp164
a(F2.480731466379762
S'Cell[1].dend[16] syn_ = new FastInhib(0.0714285714286)'
p165
I1
(dp166
g137
F0.5
sg138
F5.0
sg139
I149
sg140
g7
(g8
(I0
tp167
g10
tp168
Rp169
(I1
(I3
tp170
g147
I00
S'p\x9c\xc2NH\x9d6@\x82\x14\n\xc9\x98\x90&\xc0P\xc6\xd3\xd4\xd1\xbf\x16\xc0'
p171
tp172
bsg152
S'Cell[3].axon[40]'
p173
sI149
I88
tp174
a(F1.836508433688827
S'Cell[3].dend[19] syn_ = new FastInhib(0.5)'
p175
I3
(dp176
g137
F0.5
sg138
F5.0
sg139
I5
sg140
g7
(g8
(I0
tp177
g10
tp178
Rp179
(I1
(I3
tp180
g147
I00
S'\x98\xf8\xf79\xdd\xd1<\xc0\x90\xd5\xbf\x19\xb7\xc9T@\x8b\x92\xd0\x0f\xbc:@\xc0'
p181
tp182
bsg152
S'Cell[0].axon[10]'
p183
sI5
I184
tp184
a(F1.5070050233813634
S'Cell[3].dend[50] syn_ = new FastInhib(0.9)'
p185
I3
(dp186
S'seg'
p187
F0.30000000000000004
sS'hostfrom'
p188
F6.0
sS'gid'
p189
I102
sS'coords'
p190
g7
(g8
(I0
tp191
g10
tp192
Rp193
(I1
(I3
tp194
g14
(S'f8'
p195
I0
I1
tp196
Rp197
(I3
S'<'
p198
NNNI-1
I-1
I0
tp199
bI00
S'\x14\x85\xcb\x84\x1d07\xc0l.ai\xd8fS\xc02t\xca\xb6fA2\xc0'
p200
tp201
bsS'secnames'
p202
S'Cell[2].axon[48]'
p203
sI102
I184
tp204
a(F2.044569100462614
S'Cell[0].dend[17] syn_ = new AmpaNmda(0.5)'
p205
I0
(dp206
g187
F0.05555555555555555
sg188
F6.0
sg189
I54
sg190
g7
(g8
(I0
tp207
g10
tp208
Rp209
(I1
(I3
tp210
g197
I00
S'\xb053q\xeceQ@\x98.\x80\r@\xff(\xc0;\xd49\xea\x9dQ\xe2\xbf'
p211
tp212
bsg202
S'Cell[1].axon[0]'
p213
sI54
I40
tp214
a(F2.436397161597555
S'Cell[0].apic[31] syn_ = new ExpSid(0.5)'
p215
I0
(dp216
S'seg'
p217
F0.5
sS'hostfrom'
p218
F7.0
sS'gid'
p219
I103
sS'coords'
p220
g7
(g8
(I0
tp221
g10
tp222
Rp223
(I1
(I3
tp224
g14
(S'f8'
p225
I0
I1
tp226
Rp227
(I3
S'<'
p228
NNNI-1
I-1
I0
tp229
bI00
S'\x80\r\x9d0n\xc7B@\xb6?\xf3\x89!\xbb8@\x00\x00\x00\xc0\xcc\xcc%\xc0'
p230
tp231
bsS'secnames'
p232
S'Cell[2].axon[11]'
p233
sI103
I40
tp234
a(F1.9128029378701066
S'Cell[0].dend[9] syn_ = new ExpSid(0.1)'
p235
I0
(dp236
g217
F0.5
sg218
F7.0
sg219
I103
sg220
g7
(g8
(I0
tp237
g10
tp238
Rp239
(I1
(I3
tp240
g227
I00
S'\xa4\xe4\xe5\xfdE\xac\x05@\x9c\xac\xb2X \xa0D\xc0\x00\x00\x00 \x85\xeb\xe9\xbf'
p241
tp242
bsg232
S'Cell[2].axon[261]'
p243
sI103
I40
tp244
a(F2.28401157783371
S'Cell[1].dend[0] syn_ = new FastInhib(0.0714285714286)'
p245
I1
(dp246
g217
F0.5
sg218
F7.0
sg219
I103
sg220
g7
(g8
(I0
tp247
g10
tp248
Rp249
(I1
(I3
tp250
g227
I00
S'\xe3\x18\x7fp\xa6\x901@\xd70XH\xbf\x1a;@\x00\x00\x00@33\x05\xc0'
p251
tp252
bsg232
S'Cell[2].axon[403]'
p253
sI103
I88
tp254
a(F2.048671071366612
S'Cell[1].dend[12] syn_ = new FastInhib(0.166666666667)'
p255
I1
(dp256
g217
F0.05555555555555555
sg218
F7.0
sg219
I151
sg220
g7
(g8
(I0
tp257
g10
tp258
Rp259
(I1
(I3
tp260
g227
I00
S'\x97\xc8c\xaa\x0203@lC+\x13\x0b\\\x1f\xc0\xd0^=\xce\xfb\xac\x17@'
p261
tp262
bsg232
S'Cell[3].axon[1]'
p263
sI151
I88
tp264
a(F1.8823205381210297
S'Cell[2].dend[3] syn_ = new FastInhib(0.357142857143)'
p265
I2
(dp266
g217
F0.5
sg218
F7.0
sg219
I151
sg220
g7
(g8
(I0
tp267
g10
tp268
Rp269
(I1
(I3
tp270
g227
I00
S'\xaa7b\xc6\x02\x90\x1a\xc0jp=Nxe:\xc0\xcb\x9bR\xd6x"@\xc0'
p271
tp272
bsg232
S'Cell[3].axon[11]'
p273
sI151
I136
tp274
a(F2.1174622829252865
S'Cell[1].dend[43] syn_ = new FastInhib(0.0714285714286)'
p275
I1
(dp276
g217
F0.5
sg218
F7.0
sg219
I151
sg220
g7
(g8
(I0
tp277
g10
tp278
Rp279
(I1
(I3
tp280
g227
I00
S"\xd6\x9a\xf9\xb1H\xf7\x00@L5\xda'\xfe\x94\xf5\xbfz\x8d\x93\xe4\xe5$C\xc0"
p281
tp282
bsg232
S'Cell[3].axon[35]'
p283
sI151
I88
tp284
a(F1.2351240629503442
S'Cell[3].dend[39] syn_ = new FastInhib(0.5)'
p285
I3
(dp286
g217
F0.8333333333333333
sg218
F7.0
sg219
I151
sg220
g7
(g8
(I0
tp287
g10
tp288
Rp289
(I1
(I3
tp290
g227
I00
S'\x05P\xcc\xbcD(\xe6?=\x90\x7f\xb12,:@:z\x05{\x15v*@'
p291
tp292
bsg232
S'Cell[3].axon[86]'
p293
sI151
I184
tp294
a(F1.5387616633677754
S'Cell[3].dend[46] syn_ = new FastInhib(0.5)'
p295
I3
(dp296
g217
F0.49999999999999994
sg218
F7.0
sg219
I151
sg220
g7
(g8
(I0
tp297
g10
tp298
Rp299
(I1
(I3
tp300
g227
I00
S'\x9c\xc6\xc9\x88N\xb5F\xc0\x81J\x0ch\xcahG@f3\x9a,\xa7\xb0$\xc0'
p301
tp302
bsg232
S'Cell[3].axon[224]'
p303
sI151
I184
tp304
a(F1.8048702361878957
S'Cell[3].dend[31] syn_ = new FastInhib(0.833333333333)'
p305
I3
(dp306
S'seg'
p307
F0.5
sS'hostfrom'
p308
F8.0
sS'gid'
p309
I152
sS'coords'
p310
g7
(g8
(I0
tp311
g10
tp312
Rp313
(I1
(I3
tp314
g14
(S'f8'
p315
I0
I1
tp316
Rp317
(I3
S'<'
p318
NNNI-1
I-1
I0
tp319
bI00
S'\xc1\xb5U\x19p\xb6A@\x99\xe5hZ\x91\x91N@\x00\x00\x00\xc0\x1e\x05 @'
p320
tp321
bsS'secnames'
p322
S'Cell[3].axon[128]'
p323
sI152
I184
tp324
a(F0.7772700850492326
S'Cell[2].dend[21] syn_ = new FastInhib(0.833333333333)'
p325
I2
(dp326
g307
F0.8333333333333333
sg308
F8.0
sg309
I152
sg310
g7
(g8
(I0
tp327
g10
tp328
Rp329
(I1
(I3
tp330
g317
I00
S'\xc4\x9c\xb9\x80\xb7\xddH\xc0\x82\x9e\x8b\xa0\x83\xa6\x08@\x01\xe7\xd4\x03\x03UN\xc0'
p331
tp332
bsg322
S'Cell[3].axon[498]'
p333
sI152
I136
tp334
a(F0.6365516453788511
S'Cell[3].dend[5] syn_ = new FastInhib(0.3)'
p335
I3
(dp336
g307
F0.5
sg308
F8.0
sg309
I152
sg310
g7
(g8
(I0
tp337
g10
tp338
Rp339
(I1
(I3
tp340
g317
I00
S'\x84h\xe9\x013\xdeO\xc0\x04\x19\x12\x12\x1c\x9bW@\xfb\x06<\xc1\xcf\xc3\xe6?'
p341
tp342
bsg322
S'Cell[3].axon[554]'
p343
sI152
I184
tp344
a(F2.2423981240240174
S'Cell[2].dend[13] syn_ = new FastInhib(0.5)'
p345
I2
(dp346
g307
F0.16666666666666666
sg308
F8.0
sg309
I104
sg310
g7
(g8
(I0
tp347
g10
tp348
Rp349
(I1
(I3
tp350
g317
I00
S'\x9fCB<\xac\xb0D@,\x82\xcf\xdb\x1bJE\xc0\xc2  \xd3\x17.;\xc0'
p351
tp352
bsg322
S'Cell[2].axon[110]'
p353
sI104
I136
tp354
a(F2.4347298131582664
S'Cell[3].dend[21] syn_ = new FastInhib(0.3)'
p355
I3
(dp356
g307
F0.30000000000000004
sg308
F8.0
sg309
I104
sg310
g7
(g8
(I0
tp357
g10
tp358
Rp359
(I1
(I3
tp360
g317
I00
S'\x0cvZm\r\x87*\xc0\xe0)\xcb\xa6o!T@\xfd\xb9\x02\xdf\xf3Z:\xc0'
p361
tp362
bsg322
S'Cell[2].axon[170]'
p363
sI104
I184
tp364
a(F2.1782651283412
S'Cell[2].dend[52] syn_ = new FastInhib(0.5)'
p365
I2
(dp366
g307
F0.5
sg308
F8.0
sg309
I104
sg310
g7
(g8
(I0
tp367
g10
tp368
Rp369
(I1
(I3
tp370
g317
I00
S'\x11H\x17\xb5\xf8P:\xc0\xb8[(\xff\x1a+X@\x00\x00\x00\x80\x14\xceH\xc0'
p371
tp372
bsg322
S'Cell[2].axon[172]'
p373
sI104
I136
tp374
a(F2.2634762807827835
S'Cell[0].dend[22] syn_ = new AmpaNmda(0.5)'
p375
I0
(dp376
g307
F0.16666666666666666
sg308
F8.0
sg309
I104
sg310
g7
(g8
(I0
tp377
g10
tp378
Rp379
(I1
(I3
tp380
g317
I00
S'\xa2S\x87J.\x05W@F\xd7\t\xa29\xbd9\xc0"\xe7\xe3j$I\x03\xc0'
p381
tp382
bsg322
S'Cell[2].axon[253]'
p383
sI104
I40
tp384
a(F0.8645412755613993
S'Cell[0].dend[24] syn_ = new AmpaNmda(0.5)'
p385
I0
(dp386
g307
F0.5
sg308
F8.0
sg309
I104
sg310
g7
(g8
(I0
tp387
g10
tp388
Rp389
(I1
(I3
tp390
g317
I00
S'\x81\xddZ\xf4\xb8\xa5W@\x89L\x083\xf3E>\xc0\xdd\x12;df8\x0e\xc0'
p391
tp392
bsg322
S'Cell[2].axon[256]'
p393
sI104
I40
tp394
a(F1.2380638834169333
S'Cell[0].apic[29] syn_ = new AmpaNmda(0.3)'
p395
I0
(dp396
g307
F0.16666666666666666
sg308
F8.0
sg309
I104
sg310
g7
(g8
(I0
tp397
g10
tp398
Rp399
(I1
(I3
tp400
g317
I00
S'\xe5\xd8\xdc:W\xccP@4n\xa6\xb9\xfd.M@\x19\x85-\xfa\x1c\x15\x16@'
p401
tp402
bsg322
S'Cell[2].axon[273]'
p403
sI104
I40
tp404
a(F2.3973982042792263
S'Cell[1].dend[6] syn_ = new FastInhib(0.7)'
p405
I1
(dp406
g307
F0.5
sg308
F8.0
sg309
I104
sg310
g7
(g8
(I0
tp407
g10
tp408
Rp409
(I1
(I3
tp410
g317
I00
S'4\xf7\x8b\xb9{^W@\x82PR\xebOBD@\xe8\xc5\xd2\xb9\x89\x9a*\xc0'
p411
tp412
bsg322
S'Cell[2].axon[285]'
p413
sI104
I88
tp414
a(F1.8962400182064134
S'Cell[3].dend[15] syn_ = new FastInhib(0.5)'
p415
I3
(dp416
g307
F0.5
sg308
F8.0
sg309
I104
sg310
g7
(g8
(I0
tp417
g10
tp418
Rp419
(I1
(I3
tp420
g317
I00
S'\x00\x00\x00H\n\xd7\x11\xc0\x00\x00\x00\x10\xd7\xa3V@\x00\x00\x00\x80\x14n+@'
p421
tp422
bsg322
S'Cell[2].axon[430]'
p423
sI104
I184
tp424
a(F1.7986695743265917
S'Cell[0].apic[24] syn_ = new ExpSid(0.166666666667)'
p425
I0
(dp426
S'seg'
p427
F0.5
sS'hostfrom'
p428
F9.0
sS'gid'
p429
I153
sS'coords'
p430
g7
(g8
(I0
tp431
g10
tp432
Rp433
(I1
(I3
tp434
g14
(S'f8'
p435
I0
I1
tp436
Rp437
(I3
S'<'
p438
NNNI-1
I-1
I0
tp439
bI00
S'2\xbb\xd2\xe3}\xe8H@\xf0\x83\xa4Q\x0f\x81U@\x00\x00\x00\x00)\\\x19@'
p440
tp441
bsS'secnames'
p442
S'Cell[3].axon[2]'
p443
sI153
I40
tp444
a(F1.6282342085010337
S'Cell[2].dend[49] syn_ = new FastInhib(0.5)'
p445
I2
(dp446
S'seg'
p447
F0.5
sS'hostfrom'
p448
F10.0
sS'gid'
p449
I10
sS'coords'
p450
g7
(g8
(I0
tp451
g10
tp452
Rp453
(I1
(I3
tp454
g14
(S'f8'
p455
I0
I1
tp456
Rp457
(I3
S'<'
p458
NNNI-1
I-1
I0
tp459
bI00
S'o\\\xfb\xdd\xc5j7\xc0\x06\xdc\x9c\xfb\x9f\xb4P@\xc6\xda\x8a\x80\xe0\xa4?\xc0'
p460
tp461
bsS'secnames'
p462
S'Cell[0].axon[17]'
p463
sI10
I136
tp464
a(F1.2794065769745935
S'Cell[2].dend[30] syn_ = new FastInhib(0.3)'
p465
I2
(dp466
g447
F0.30000000000000004
sg448
F10.0
sg449
I10
sg450
g7
(g8
(I0
tp467
g10
tp468
Rp469
(I1
(I3
tp470
g457
I00
S'o\x0b0\x1a\xd2\xf0F\xc0d\xbc\x84S\x08_,\xc0\x00\x00\x00\x80\xc2\xb5Q\xc0'
p471
tp472
bsg462
S'Cell[0].axon[21]'
p473
sI10
I136
tp474
a(F1.6643984090144421
S'Cell[0].dend[24] syn_ = new AmpaNmda(0.5)'
p475
I0
(dp476
g447
F0.1
sg448
F10.0
sg449
I106
sg450
g7
(g8
(I0
tp477
g10
tp478
Rp479
(I1
(I3
tp480
g457
I00
S'\x90\x11\xa5*\xc8\xebW@\xa3p\xb0P\x8e\xdf>\xc0fw\xa6J*D\x06\xc0'
p481
tp482
bsg462
S'Cell[2].axon[105]'
p483
sI106
I40
tp484
a(F2.38248853095294
S'Cell[3].dend[15] syn_ = new FastInhib(0.166666666667)'
p485
I3
(dp486
g447
F0.5
sg448
F10.0
sg449
I106
sg450
g7
(g8
(I0
tp487
g10
tp488
Rp489
(I1
(I3
tp490
g457
I00
S'\xe8\xd5\xec\xf2\xefR.\xc0\xad\x80\x87\xeb\xfe\x1eV@b\x1b\x01B\xdb32@'
p491
tp492
bsg462
S'Cell[2].axon[229]'
p493
sI106
I184
tp494
a(F0.25443704981581367
S'Cell[2].dend[12] syn_ = new FastInhib(0.9)'
p495
I2
(dp496
g447
F0.5
sg448
F10.0
sg449
I106
sg450
g7
(g8
(I0
tp497
g10
tp498
Rp499
(I1
(I3
tp500
g457
I00
S'\xcfk\xd62h@C@78o,\xfc\x0f@\xc0\x00\x00\x00\xe0Qx?\xc0'
p501
tp502
bsg462
S'Cell[2].axon[282]'
p503
sI106
I136
tp504
a(F0.8112899253731437
S'Cell[0].apic[24] syn_ = new AmpaNmda(0.166666666667)'
p505
I0
(dp506
g447
F0.5
sg448
F10.0
sg449
I106
sg450
g7
(g8
(I0
tp507
g10
tp508
Rp509
(I1
(I3
tp510
g457
I00
S'\xa6L\xcfU>1H@\r\xe7\xd7\xbeL\xb9U@5\xc7\xe4\xee\xc3\xfb\x16@'
p511
tp512
bsg462
S'Cell[2].axon[308]'
p513
sI106
I40
tp514
a(F2.3935554012227973
S'Cell[2].dend[44] syn_ = new FastInhib(0.5)'
p515
I2
(dp516
g447
F0.5
sg448
F10.0
sg449
I106
sg450
g7
(g8
(I0
tp517
g10
tp518
Rp519
(I1
(I3
tp520
g457
I00
S'\xaf\xd8B\xdd\xefq\x1b\xc0-g\xda\xb3\xf4\xbdW@\xcc\x84x|\xc1\x9d:\xc0'
p521
tp522
bsg462
S'Cell[2].axon[309]'
p523
sI106
I136
tp524
a(F2.1662770693661257
S'Cell[2].dend[1] syn_ = new FastInhib(0.5)'
p525
I2
(dp526
g447
F0.5
sg448
F10.0
sg449
I106
sg450
g7
(g8
(I0
tp527
g10
tp528
Rp529
(I1
(I3
tp530
g457
I00
S'\x84\xfb\xae\xc7\xed\xf8/\xc0\x01\xe8\xa4\xe0e\xc0>@\x8aG\xfaim\x0cF\xc0'
p531
tp532
bsg462
S'Cell[2].axon[348]'
p533
sI106
I136
tp534
a(F0.7879884726838638
S'Cell[0].dend[1] syn_ = new ExpSid(0.5)'
p535
I0
(dp536
S'seg'
p537
F0.5
sS'hostfrom'
p538
F11.0
sS'gid'
p539
I155
sS'coords'
p540
g7
(g8
(I0
tp541
g10
tp542
Rp543
(I1
(I3
tp544
g14
(S'f8'
p545
I0
I1
tp546
Rp547
(I3
S'<'
p548
NNNI-1
I-1
I0
tp549
bI00
S'\x00\x00\x00`\x8f\x024\xc0\x00\x00\x000\\?D\xc0\x00\x00\x00@\n\xf74@'
p550
tp551
bsS'secnames'
p552
S'Cell[3].axon[18]'
p553
sI155
I40
tp554
a(F1.8700064987119658
S'Cell[3].dend[50] syn_ = new FastInhib(0.5)'
p555
I3
(dp556
g537
F0.5
sg538
F11.0
sg539
I155
sg540
g7
(g8
(I0
tp557
g10
tp558
Rp559
(I1
(I3
tp560
g547
I00
S'\xc5\xeb\xdcX\xf7c@\xc02\x03&\xb4K_:\xc0\x00\x00\x00\xa0\x99\x19,\xc0'
p561
tp562
bsg552
S'Cell[3].axon[33]'
p563
sI155
I184
tp564
a(F2.088598040094294
S'Cell[1].dend[0] syn_ = new FastInhib(0.5)'
p565
I1
(dp566
g537
F0.8333333333333333
sg538
F11.0
sg539
I155
sg540
g7
(g8
(I0
tp567
g10
tp568
Rp569
(I1
(I3
tp570
g547
I00
S'\x8eh5\x03YE>@\x00\x00\x00\x00\x000Z@B\xc4\xc2\x98\x9c\xc8\xfe?'
p571
tp572
bsg552
S'Cell[3].axon[285]'
p573
sI155
I88
tp574
a(F2.245040168454882
S'Cell[2].dend[12] syn_ = new FastInhib(0.7)'
p575
I2
(dp576
S'seg'
p577
F0.038461538461538464
sS'hostfrom'
p578
F12.0
sS'gid'
p579
I156
sS'coords'
p580
g7
(g8
(I0
tp581
g10
tp582
Rp583
(I1
(I3
tp584
g14
(S'f8'
p585
I0
I1
tp586
Rp587
(I3
S'<'
p588
NNNI-1
I-1
I0
tp589
bI00
S'\x00\x00\x00 \xae\xc79@71\x8bbh\xe33\xc0t\xc7\xa5\x1fA D\xc0'
p590
tp591
bsS'secnames'
p592
S'Cell[3].axon[546]'
p593
sI156
I136
tp594
a(F2.122534875578047
S'Cell[3].dend[21] syn_ = new FastInhib(0.1)'
p595
I3
(dp596
g577
F0.16666666666666666
sg578
F12.0
sg579
I108
sg580
g7
(g8
(I0
tp597
g10
tp598
Rp599
(I1
(I3
tp600
g587
I00
S'>\xf7\xca\xbb}b5\xc0&\x00Ht\xdajT@\x00\x00\x00\x80=\n\x12\xc0'
p601
tp602
bsg592
S'Cell[2].axon[49]'
p603
sI108
I184
tp604
a(F1.7957090809713558
S'Cell[0].apic[21] syn_ = new ExpSid(0.5)'
p605
I0
(dp606
S'seg'
p607
F0.16666666666666666
sS'hostfrom'
p608
F13.0
sS'gid'
p609
I109
sS'coords'
p610
g7
(g8
(I0
tp611
g10
tp612
Rp613
(I1
(I3
tp614
g14
(S'f8'
p615
I0
I1
tp616
Rp617
(I3
S'<'
p618
NNNI-1
I-1
I0
tp619
bI00
S'+f\x01\x81\xaa{O@\x11\x07\x9e-\xc1\x96j@\xba\xc1\x19\xee\x94\xc2:@'
p620
tp621
bsS'secnames'
p622
S'Cell[2].axon[28]'
p623
sI109
I40
tp624
a(F2.36746171835171
S'Cell[0].dend[16] syn_ = new ExpSid(0.3)'
p625
I0
(dp626
g607
F0.5
sg608
F13.0
sg609
I109
sg610
g7
(g8
(I0
tp627
g10
tp628
Rp629
(I1
(I3
tp630
g617
I00
S'\xfa\xc2\xe9\x95Z\x02]@\x1a=\x1e\xb8^e5@\xca\xfe\xa8\x0e\x17\x845\xc0'
p631
tp632
bsg622
S'Cell[2].axon[113]'
p633
sI109
I40
tp634
a(F0.9160728374797876
S'Cell[2].dend[31] syn_ = new FastInhib(0.214285714286)'
p635
I2
(dp636
S'seg'
p637
F0.5
sS'hostfrom'
p638
F14.0
sS'gid'
p639
I110
sS'coords'
p640
g7
(g8
(I0
tp641
g10
tp642
Rp643
(I1
(I3
tp644
g14
(S'f8'
p645
I0
I1
tp646
Rp647
(I3
S'<'
p648
NNNI-1
I-1
I0
tp649
bI00
S'\xf6\xa3\xf95ae@\xc0\xb2\x9b\xf6\xd8\x1f\x885\xc0B\xa2g\xb8\x10\xbeP\xc0'
p650
tp651
bsS'secnames'
p652
S'Cell[2].axon[57]'
p653
sI110
I136
tp654
a(F1.7835928020576544
S'Cell[0].apic[27] syn_ = new ExpSid(0.1)'
p655
I0
(dp656
S'seg'
p657
F0.5
sS'hostfrom'
p658
F15.0
sS'gid'
p659
I111
sS'coords'
p660
g7
(g8
(I0
tp661
g10
tp662
Rp663
(I1
(I3
tp664
g14
(S'f8'
p665
I0
I1
tp666
Rp667
(I3
S'<'
p668
NNNI-1
I-1
I0
tp669
bI00
S'\x00\x00\x00P\xe1Z<@\x00\x00\x00`f.R@\x00\x00\x00 \x85\x0bC\xc0'
p670
tp671
bsS'secnames'
p672
S'Cell[2].axon[232]'
p673
sI111
I40
tp674
a(F1.3557235148152267
S'Cell[2].dend[12] syn_ = new FastInhib(0.7)'
p675
I2
(dp676
g657
F0.5
sg658
F15.0
sg659
I111
sg660
g7
(g8
(I0
tp677
g10
tp678
Rp679
(I1
(I3
tp680
g667
I00
S"\xb8(\x82\xf9+W;@n\xef'\x96W\x1d5\xc0\x00\x00\x00\xe0Q\xb8C\xc0"
p681
tp682
bsg672
S'Cell[2].axon[291]'
p683
sI111
I136
tp684
a(F2.304187623502343
S'Cell[2].dend[13] syn_ = new FastInhib(0.5)'
p685
I2
(dp686
g657
F0.5
sg658
F15.0
sg659
I111
sg660
g7
(g8
(I0
tp687
g10
tp688
Rp689
(I1
(I3
tp690
g667
I00
S'S\xdavo\xe1\xeeD@\x9d\xb2\xa0\x00A6C\xc0\xdfJQb\xce\xa0:\xc0'
p691
tp692
bsg672
S'Cell[2].axon[380]'
p693
sI111
I136
tp694
a(F2.021518816419802
S'Cell[3].dend[7] syn_ = new FastInhib(0.166666666667)'
p695
I3
(dp696
g657
F0.5
sg658
F15.0
sg659
I159
sg660
g7
(g8
(I0
tp697
g10
tp698
Rp699
(I1
(I3
tp700
g667
I00
S'\xf1\xed\x1c\xa7\xb8\x92F\xc0\x0c\xa0In~\xc7T@\x88\xc7\\\x83\xb6\xb1&@'
p701
tp702
bsg672
S'Cell[3].axon[276]'
p703
sI159
I184
tp704
a(F1.979252571241828
S'Cell[0].apic[25] syn_ = new AmpaNmda(0.5)'
p705
I0
(dp706
S'seg'
p707
F0.5
sS'hostfrom'
p708
F16.0
sS'gid'
p709
I112
sS'coords'
p710
g7
(g8
(I0
tp711
g10
tp712
Rp713
(I1
(I3
tp714
g14
(S'f8'
p715
I0
I1
tp716
Rp717
(I3
S'<'
p718
NNNI-1
I-1
I0
tp719
bI00
S'\\\xaa\xf2\xba\x1d\xc43@\xc8ox ]sK@3\xbe5\xe5`\x0e2@'
p720
tp721
bsS'secnames'
p722
S'Cell[2].axon[3]'
p723
sI112
I40
tp724
a(F1.4773103298169028
S'Cell[3].dend[31] syn_ = new FastInhib(0.833333333333)'
p725
I3
(dp726
S'seg'
p727
F0.5
sS'hostfrom'
p728
F17.0
sS'gid'
p729
I161
sS'coords'
p730
g7
(g8
(I0
tp731
g10
tp732
Rp733
(I1
(I3
tp734
g14
(S'f8'
p735
I0
I1
tp736
Rp737
(I3
S'<'
p738
NNNI-1
I-1
I0
tp739
bI00
S'\x00\x00\x00\x90\xeb\xa1@@\x00\x00\x00\xe0Q\x98O@\x00\x00\x00\xc0\xf5h"@'
p740
tp741
bsS'secnames'
p742
S'Cell[3].axon[8]'
p743
sI161
I184
tp744
a(F2.0906610774247274
S'Cell[0].apic[6] syn_ = new ExpSid(0.5)'
p745
I0
(dp746
g727
F0.16666666666666666
sg728
F17.0
sg729
I161
sg730
g7
(g8
(I0
tp747
g10
tp748
Rp749
(I1
(I3
tp750
g737
I00
S'\xc6\xb4E]~QD@q\x88\xb8\x98\xcb\xb0P@\x8f\x15wo\xb8P\xec\xbf'
p751
tp752
bsg742
S'Cell[3].axon[40]'
p753
sI161
I40
tp754
a(F2.261742315506445
S'Cell[3].dend[8] syn_ = new FastInhib(0.5)'
p755
I3
(dp756
g727
F0.5
sg728
F17.0
sg729
I161
sg730
g7
(g8
(I0
tp757
g10
tp758
Rp759
(I1
(I3
tp760
g737
I00
S'\xcf\xb7\xdd\xf2\xd5\xacA\xc0\xcc\xad\x11095T@\x00\x00\x00`ff*@'
p761
tp762
bsg742
S'Cell[3].axon[62]'
p763
sI161
I184
tp764
a(F1.7828690509488
S'Cell[0].dend[1] syn_ = new ExpSid(0.833333333333)'
p765
I0
(dp766
g727
F0.5
sg728
F17.0
sg729
I161
sg730
g7
(g8
(I0
tp767
g10
tp768
Rp769
(I1
(I3
tp770
g737
I00
S'\x08\x10\xee\xb2\xf7,G\xc0\xfc\xd4\xf13\x06\xf3K\xc0:\xee\xef\xd7\xf6|1@'
p771
tp772
bsg742
S'Cell[3].axon[85]'
p773
sI161
I40
tp774
a(F1.4223684279270314
S'Cell[0].dend[1] syn_ = new AmpaNmda(0.166666666667)'
p775
I0
(dp776
S'seg'
p777
F0.5
sS'hostfrom'
p778
F18.0
sS'gid'
p779
I114
sS'coords'
p780
g7
(g8
(I0
tp781
g10
tp782
Rp783
(I1
(I3
tp784
g14
(S'f8'
p785
I0
I1
tp786
Rp787
(I3
S'<'
p788
NNNI-1
I-1
I0
tp789
bI00
S'\xd3k\xe7\x03%x\x14@\xbd\ti\\k,6\xc0ue\x1dt#D4@'
p790
tp791
bsS'secnames'
p792
S'Cell[2].axon[81]'
p793
sI114
I40
tp794
a(F1.331722621650964
S'Cell[2].dend[15] syn_ = new FastInhib(0.166666666667)'
p795
I2
(dp796
g777
F0.8999999999999999
sg778
F18.0
sg779
I114
sg780
g7
(g8
(I0
tp797
g10
tp798
Rp799
(I1
(I3
tp800
g787
I00
S'H\x84\xc0G^\xebF@u\xbe\xb7\xdf\x08\xbfL\xc0%\xe6\x03\xfc\xf3\xb5\x1a\xc0'
p801
tp802
bsg792
S'Cell[2].axon[174]'
p803
sI114
I136
tp804
a(F2.0670477537586023
S'Cell[1].dend[23] syn_ = new FastInhib(0.0714285714286)'
p805
I1
(dp806
g777
F0.21428571428571427
sg778
F18.0
sg779
I66
sg780
g7
(g8
(I0
tp807
g10
tp808
Rp809
(I1
(I3
tp810
g787
I00
S'\xbb\x18\x90\x86KA\x1b\xc0\xc2\xb7\x87W\x13\x92=\xc0\xc4I\x01f\x9c!)\xc0'
p811
tp812
bsg792
S'Cell[1].axon[10]'
p813
sI66
I88
tp814
a(F1.9755241257220904
S'Cell[3].dend[5] syn_ = new FastInhib(0.7)'
p815
I3
(dp816
S'seg'
p817
F0.16666666666666666
sS'hostfrom'
p818
F19.0
sS'gid'
p819
I115
sS'coords'
p820
g7
(g8
(I0
tp821
g10
tp822
Rp823
(I1
(I3
tp824
g14
(S'f8'
p825
I0
I1
tp826
Rp827
(I3
S'<'
p828
NNNI-1
I-1
I0
tp829
bI00
S'tp\xdam@\xe4X\xc0^\xaf\xce\xea\xd7@[@f5\xfe]Y\x9b+\xc0'
p830
tp831
bsS'secnames'
p832
S'Cell[2].axon[68]'
p833
sI115
I184
tp834
a(F2.326718346283865
S'Cell[3].dend[3] syn_ = new FastInhib(0.166666666667)'
p835
I3
(dp836
S'seg'
p837
F0.5
sS'hostfrom'
p838
F21.0
sS'gid'
p839
I117
sS'coords'
p840
g7
(g8
(I0
tp841
g10
tp842
Rp843
(I1
(I3
tp844
g14
(S'f8'
p845
I0
I1
tp846
Rp847
(I3
S'<'
p848
NNNI-1
I-1
I0
tp849
bI00
S'\xac\xd3\x15 \x1c\xb1P\xc0fm\xe4\\L^S@\x00\x00\x00\x80\xc2u9\xc0'
p850
tp851
bsS'secnames'
p852
S'Cell[2].axon[169]'
p853
sI117
I184
tp854
a(F1.616276944179942
S'Cell[0].apic[29] syn_ = new ExpSid(0.7)'
p855
I0
(dp856
g837
F0.5
sg838
F21.0
sg839
I117
sg840
g7
(g8
(I0
tp857
g10
tp858
Rp859
(I1
(I3
tp860
g847
I00
S'zy\xe9B\tkX@\xbc\xa4\xb1\x17\x1a\xedO@\x00\x00\x00\x80\xc2u9\xc0'
p861
tp862
bsg852
S'Cell[2].axon[396]'
p863
sI117
I40
tp864
a(F1.9561850761164086
S'Cell[1].dend[6] syn_ = new FastInhib(0.5)'
p865
I1
(dp866
g837
F0.5
sg838
F21.0
sg839
I117
sg840
g7
(g8
(I0
tp867
g10
tp868
Rp869
(I1
(I3
tp870
g847
I00
S'\x00\x00\x00\x90\xeb\xf1Q@\x00\x00\x00\xe0\xa3\xf0=@\x00\x00\x00\x80\xc2u9\xc0'
p871
tp872
bsg852
S'Cell[2].axon[409]'
p873
sI117
I88
tp874
a(F2.4386261084631204
S'Cell[1].dend[9] syn_ = new FastInhib(0.7)'
p875
I1
(dp876
S'seg'
p877
F0.8333333333333333
sS'hostfrom'
p878
F22.0
sS'gid'
p879
I118
sS'coords'
p880
g7
(g8
(I0
tp881
g10
tp882
Rp883
(I1
(I3
tp884
g14
(S'f8'
p885
I0
I1
tp886
Rp887
(I3
S'<'
p888
NNNI-1
I-1
I0
tp889
bI00
S'"\xb8+Yf\x00T@\xe1/\x1d\xf9C\xa3R\xc0\x00\xe6.\x13?\xce)@'
p890
tp891
bsS'secnames'
p892
S'Cell[2].axon[106]'
p893
sI118
I88
tp894
a(F1.3224568083282293
S'Cell[1].dend[23] syn_ = new FastInhib(0.214285714286)'
p895
I1
(dp896
S'seg'
p897
F0.16666666666666666
sS'hostfrom'
p898
F23.0
sS'gid'
p899
I71
sS'coords'
p900
g7
(g8
(I0
tp901
g10
tp902
Rp903
(I1
(I3
tp904
g14
(S'f8'
p905
I0
I1
tp906
Rp907
(I3
S'<'
p908
NNNI-1
I-1
I0
tp909
bI00
S']\x15\xc9\x9a\xe8\xf2\xd7?\xb2\xa8\xd2*h\xe3L\xc0t\xc5\xa3^\xf34(\xc0'
p910
tp911
bsS'secnames'
p912
S'Cell[1].axon[16]'
p913
sI71
I88
tp914
a(F2.3282901015177164
S'Cell[3].dend[5] syn_ = new FastInhib(0.7)'
p915
I3
(dp916
S'seg'
p917
F0.5
sS'hostfrom'
p918
F24.0
sS'gid'
p919
I72
sS'coords'
p920
g7
(g8
(I0
tp921
g10
tp922
Rp923
(I1
(I3
tp924
g14
(S'f8'
p925
I0
I1
tp926
Rp927
(I3
S'<'
p928
NNNI-1
I-1
I0
tp929
bI00
S" \xd9y\xb8\xeb=Y\xc0\t\xfah\xb6\xedc[@D\xf4\xe9ec\xc7'\xc0"
p930
tp931
bsS'secnames'
p932
S'Cell[1].axon[68]'
p933
sI72
I184
tp934
a(F2.44925002903251
S'Cell[0].dend[6] syn_ = new AmpaNmda(0.166666666667)'
p935
I0
(dp936
g917
F0.21428571428571427
sg918
F24.0
sg919
I72
sg920
g7
(g8
(I0
tp937
g10
tp938
Rp939
(I1
(I3
tp940
g927
I00
S'D\xe4TH\xf0s9@R&@\xb3\xd6\xb2?\xc0\x88\xf8}H,f,@'
p941
tp942
bsg932
S'Cell[1].axon[72]'
p943
sI72
I40
tp944
a(F1.8857037963886683
S'Cell[2].dend[30] syn_ = new FastInhib(0.3)'
p945
I2
(dp946
g917
F0.5
sg918
F24.0
sg919
I168
sg920
g7
(g8
(I0
tp947
g10
tp948
Rp949
(I1
(I3
tp950
g927
I00
S'\x00\x00\x00\x80\x14nG\xc0\x00\x00\x00p\x8fB.\xc0\x00\x00\x00\xc0\xcc\xdcQ\xc0'
p951
tp952
bsg932
S'Cell[3].axon[107]'
p953
sI168
I136
tp954
a(F1.9273063284738212
S'Cell[1].dend[29] syn_ = new FastInhib(0.642857142857)'
p955
I1
(dp956
g917
F0.16666666666666666
sg918
F24.0
sg919
I168
sg920
g7
(g8
(I0
tp957
g10
tp958
Rp959
(I1
(I3
tp960
g927
I00
S'\x05fy\x03\x91gU\xc0rN\xe6\xdb?l)\xc0\x00\x00\x00\xc0\xcc\xdcQ\xc0'
p961
tp962
bsg932
S'Cell[3].axon[123]'
p963
sI168
I88
tp964
a(F1.5896716128774628
S'Cell[2].dend[45] syn_ = new FastInhib(0.5)'
p965
I2
(dp966
g917
F0.5
sg918
F24.0
sg919
I168
sg920
g7
(g8
(I0
tp967
g10
tp968
Rp969
(I1
(I3
tp970
g927
I00
S'\xc5j\x9c@Ly\xf8?s+H\xd8\xc0\xd3f@\x00\x00\x00\xc0\xcc\xdcQ\xc0'
p971
tp972
bsg932
S'Cell[3].axon[304]'
p973
sI168
I136
tp974
a(F1.0300223961795838
S'Cell[1].dend[29] syn_ = new FastInhib(0.642857142857)'
p975
I1
(dp976
g917
F0.07142857142857142
sg918
F24.0
sg919
I168
sg920
g7
(g8
(I0
tp977
g10
tp978
Rp979
(I1
(I3
tp980
g927
I00
S'\x00\x12<\t\xc4KU\xc0\x8c\xa5\xcbS\xf7\xd0%\xc0\x00\x00\x00\xc0\xcc\xdcQ\xc0'
p981
tp982
bsg932
S'Cell[3].axon[551]'
p983
sI168
I88
tp984
a(F1.8590936649182923
S'Cell[1].dend[9] syn_ = new FastInhib(0.3)'
p985
I1
(dp986
g917
F0.5
sg918
F24.0
sg919
I120
sg920
g7
(g8
(I0
tp987
g10
tp988
Rp989
(I1
(I3
tp990
g927
I00
S'\x0f\xd7\xad\xf0W\xbdI@\xc7\x9a\x9b\xef\x9b\xd4?\xc0\x00\x00\x00\x80\x14\xae\xfb\xbf'
p991
tp992
bsg932
S'Cell[2].axon[62]'
p993
sI120
I88
tp994
a(F1.41587472709259
S'Cell[1].dend[40] syn_ = new FastInhib(0.166666666667)'
p995
I1
(dp996
g917
F0.8999999999999999
sg918
F24.0
sg919
I120
sg920
g7
(g8
(I0
tp997
g10
tp998
Rp999
(I1
(I3
tp1000
g927
I00
S'\xb2\x1ev\t\xa7Q\n\xc0\x8cC\xc0^\xba\xab<@Y\x8d$\xf8-\xa1>\xc0'
p1001
tp1002
bsg932
S'Cell[2].axon[271]'
p1003
sI120
I88
tp1004
a(F1.8642648527930947
S'Cell[0].apic[19] syn_ = new AmpaNmda(0.5)'
p1005
I0
(dp1006
S'seg'
p1007
F0.8333333333333333
sS'hostfrom'
p1008
F26.0
sS'gid'
p1009
I170
sS'coords'
p1010
g7
(g8
(I0
tp1011
g10
tp1012
Rp1013
(I1
(I3
tp1014
g14
(S'f8'
p1015
I0
I1
tp1016
Rp1017
(I3
S'<'
p1018
NNNI-1
I-1
I0
tp1019
bI00
S'\xc2f\xc1\xd0\xf0\x0e0@\xc9I\xe0\xdb\x9c4q@\x00\x00\x00`ff\x1e\xc0'
p1020
tp1021
bsS'secnames'
p1022
S'Cell[3].axon[144]'
p1023
sI170
I40
tp1024
a(F2.442489699792922
S'Cell[2].dend[61] syn_ = new FastInhib(0.833333333333)'
p1025
I2
(dp1026
g1007
F0.5
sg1008
F26.0
sg1009
I170
sg1010
g7
(g8
(I0
tp1027
g10
tp1028
Rp1029
(I1
(I3
tp1030
g1017
I00
S'/\x98\xb3n\xc0vM\xc0*\x15\xda\x9e\xf84\\@lN\xab\xc4Wu\x0f\xc0'
p1031
tp1032
bsg1022
S'Cell[3].axon[291]'
p1033
sI170
I136
tp1034
a(F1.4338718553909882
S'Cell[0].apic[25] syn_ = new ExpSid(0.166666666667)'
p1035
I0
(dp1036
S'seg'
p1037
F0.16666666666666666
sS'hostfrom'
p1038
F27.0
sS'gid'
p1039
I75
sS'coords'
p1040
g7
(g8
(I0
tp1041
g10
tp1042
Rp1043
(I1
(I3
tp1044
g14
(S'f8'
p1045
I0
I1
tp1046
Rp1047
(I3
S'<'
p1048
NNNI-1
I-1
I0
tp1049
bI00
S'\x0c=\x91?\xf5\x9c@@-v@\xf6\x85\xc2L@\x00\x00\x00\xa0p=\x0e@'
p1050
tp1051
bsS'secnames'
p1052
S'Cell[1].axon[0]'
p1053
sI75
I40
tp1054
a(F2.3992066609294675
S'Cell[1].dend[8] syn_ = new FastInhib(0.0714285714286)'
p1055
I1
(dp1056
S'seg'
p1057
F0.5
sS'hostfrom'
p1058
F28.0
sS'gid'
p1059
I172
sS'coords'
p1060
g7
(g8
(I0
tp1061
g10
tp1062
Rp1063
(I1
(I3
tp1064
g14
(S'f8'
p1065
I0
I1
tp1066
Rp1067
(I3
S'<'
p1068
NNNI-1
I-1
I0
tp1069
bI00
S'\xde\xf4Z\xbe-\xf6?@\x82]\xe1G\x9di\xe1?\xc4n\t\xc9\x90\xce<\xc0'
p1070
tp1071
bsS'secnames'
p1072
S'Cell[3].axon[94]'
p1073
sI172
I88
tp1074
a(F2.3282690542474236
S'Cell[1].dend[23] syn_ = new FastInhib(0.5)'
p1075
I1
(dp1076
S'seg'
p1077
F0.5
sS'hostfrom'
p1078
F30.0
sS'gid'
p1079
I126
sS'coords'
p1080
g7
(g8
(I0
tp1081
g10
tp1082
Rp1083
(I1
(I3
tp1084
g14
(S'f8'
p1085
I0
I1
tp1086
Rp1087
(I3
S'<'
p1088
NNNI-1
I-1
I0
tp1089
bI00
S'\x9c2\xe0\x8eB) @\xb0\xf6z\xcaS\xbc[\xc0\x00\x00\x00\xe0z\x14\xe6\xbf'
p1090
tp1091
bsS'secnames'
p1092
S'Cell[2].axon[10]'
p1093
sI126
I88
tp1094
a(F2.2658804377854946
S'Cell[2].dend[20] syn_ = new FastInhib(0.5)'
p1095
I2
(dp1096
g1077
F0.1
sg1078
F30.0
sg1079
I126
sg1080
g7
(g8
(I0
tp1097
g10
tp1098
Rp1099
(I1
(I3
tp1100
g1087
I00
S'W?\x89\xc4\xb0\x8d3\xc0%\x10\xa8v\xcf\xf2=@\x00\x00\x00\x80=\xca3\xc0'
p1101
tp1102
bsg1092
S'Cell[2].axon[51]'
p1103
sI126
I136
tp1104
a(F1.8710249692814789
S'Cell[3].dend[4] syn_ = new FastInhib(0.5)'
p1105
I3
(dp1106
g1077
F0.5
sg1078
F30.0
sg1079
I174
sg1080
g7
(g8
(I0
tp1107
g10
tp1108
Rp1109
(I1
(I3
tp1110
g1087
I00
S"\x00\x00\x00p=JF\xc0\x00\x00\x00\x00\x00`D@\x00\x00\x00\xe0\xa3\xb0'\xc0"
p1111
tp1112
bsg1092
S'Cell[3].axon[88]'
p1113
sI174
I184
tp1114
a(F1.3246037424244876
S'Cell[3].dend[1] syn_ = new FastInhib(0.5)'
p1115
I3
(dp1116
g1077
F0.5
sg1078
F30.0
sg1079
I174
sg1080
g7
(g8
(I0
tp1117
g10
tp1118
Rp1119
(I1
(I3
tp1120
g1087
I00
S'~\x12,\xa5\x08\xeeL\xc0\xdbq\xa64\xad\xcbQ@\x00\x00\x00`\x8f\xc2\x1f\xc0'
p1121
tp1122
bsg1092
S'Cell[3].axon[122]'
p1123
sI174
I184
tp1124
a(F2.3200270093692934
S'Cell[0].apic[0] syn_ = new ExpSid(0.5)'
p1125
I0
(dp1126
S'seg'
p1127
F0.5
sS'hostfrom'
p1128
F31.0
sS'gid'
p1129
I127
sS'coords'
p1130
g7
(g8
(I0
tp1131
g10
tp1132
Rp1133
(I1
(I3
tp1134
g14
(S'f8'
p1135
I0
I1
tp1136
Rp1137
(I3
S'<'
p1138
NNNI-1
I-1
I0
tp1139
bI00
S'\x00\x00\x00\x90\xc2\xf5F@\x01\x00\x00\x80=\n\x16@\x00\x00\x00@33\x16\xc0'
p1140
tp1141
bsS'secnames'
p1142
S'Cell[2].soma[0]'
p1143
sI127
I40
tp1144
a(F1.8671932217699443
S'Cell[0].apic[0] syn_ = new ExpSid(0.5)'
p1145
I0
(dp1146
g1127
F0.5
sg1128
F31.0
sg1129
I127
sg1130
g7
(g8
(I0
tp1147
g10
tp1148
Rp1149
(I1
(I3
tp1150
g1137
I00
S'zu\xe2\x85\xee\x01F@\xcf>\x8b\xb8|\x11"@\x00\x00\x00\xc0G\xe1\x15\xc0'
p1151
tp1152
bsg1142
S'Cell[2].axon[0]'
p1153
sI127
I40
tp1154
a(F1.3780576772341213
S'Cell[3].dend[3] syn_ = new FastInhib(0.166666666667)'
p1155
I3
(dp1156
g1127
F0.9285714285714284
sg1128
F31.0
sg1129
I175
sg1130
g7
(g8
(I0
tp1157
g10
tp1158
Rp1159
(I1
(I3
tp1160
g1137
I00
S'F\xae\x06\x1a\xd7PQ\xc0\x08*H%\x0b\x02S@\x0e,\xc4i0y9\xc0'
p1161
tp1162
bsg1142
S'Cell[3].axon[1]'
p1163
sI175
I184
tp1164
a(F2.285577597137569
S'Cell[1].dend[29] syn_ = new FastInhib(0.5)'
p1165
I1
(dp1166
g1127
F0.3571428571428571
sg1128
F31.0
sg1129
I175
sg1130
g7
(g8
(I0
tp1167
g10
tp1168
Rp1169
(I1
(I3
tp1170
g1137
I00
S'\n\xd1/\x8c\xb9\x89P\xc0\xb0$Qa9\x1b,\xc0\x00\x00\x00`\xb8\xfeJ\xc0'
p1171
tp1172
bsg1142
S'Cell[3].axon[109]'
p1173
sI175
I88
tp1174
a(F1.1958990218343881
S'Cell[1].dend[19] syn_ = new FastInhib(0.5)'
p1175
I1
(dp1176
g1127
F0.5
sg1128
F31.0
sg1129
I175
sg1130
g7
(g8
(I0
tp1177
g10
tp1178
Rp1179
(I1
(I3
tp1180
g1137
I00
S'\xf8\xd9@g\xfd~5\xc0\xff=\xe9\xd03\x023\xc0\xac\x840\xda\xb4\xf1E\xc0'
p1181
tp1182
bsg1142
S'Cell[3].axon[227]'
p1183
sI175
I88
tp1184
a(F1.1114698504398526
S'Cell[0].apic[32] syn_ = new ExpSid(0.166666666667)'
p1185
I0
(dp1186
S'seg'
p1187
F0.5
sS'hostfrom'
p1188
F33.0
sS'gid'
p1189
I129
sS'coords'
p1190
g7
(g8
(I0
tp1191
g10
tp1192
Rp1193
(I1
(I3
tp1194
g14
(S'f8'
p1195
I0
I1
tp1196
Rp1197
(I3
S'<'
p1198
NNNI-1
I-1
I0
tp1199
bI00
S'\x06k\x0f`/\x9b;@7M5\x99\xd1\x1cA@\xd4i\xf0\x88\x97]6\xc0'
p1200
tp1201
bsS'secnames'
p1202
S'Cell[2].axon[0]'
p1203
sI129
I40
tp1204
a(F2.3249086031365676
S'Cell[2].dend[44] syn_ = new FastInhib(0.166666666667)'
p1205
I2
(dp1206
g1187
F0.16666666666666666
sg1188
F33.0
sg1189
I129
sg1190
g7
(g8
(I0
tp1207
g10
tp1208
Rp1209
(I1
(I3
tp1210
g1197
I00
S'>\x15\xba\xfb\xbe)+\xc0\xd7\xc8\x82\t\xa9\x97Q@"u\xa8\xbd\xba\xe8#\xc0'
p1211
tp1212
bsg1202
S'Cell[2].axon[30]'
p1213
sI129
I136
tp1214
a(F1.9525927129687835
S'Cell[0].apic[25] syn_ = new ExpSid(0.166666666667)'
p1215
I0
(dp1216
g1187
F0.5
sg1188
F33.0
sg1189
I177
sg1190
g7
(g8
(I0
tp1217
g10
tp1218
Rp1219
(I1
(I3
tp1220
g1197
I00
S'\xfd\x84\xe3\xad\xf4nA@\x18\xc4\xdb3\xa5NM@V\x81\x02\xc3\xebB\r@'
p1221
tp1222
bsg1202
S'Cell[3].axon[18]'
p1223
sI177
I40
tp1224
a(F2.0799601737031232
S'Cell[3].dend[22] syn_ = new FastInhib(0.5)'
p1225
I3
(dp1226
g1187
F0.5
sg1188
F33.0
sg1189
I177
sg1190
g7
(g8
(I0
tp1227
g10
tp1228
Rp1229
(I1
(I3
tp1230
g1197
I00
S'\xb2\xf2\xd3\xda\x8d\xee6\xc0\xac\xf5\xe0\xed\xf6\x0bU@\\\xcd\xa0-ED\xf8\xbf'
p1231
tp1232
bsg1202
S'Cell[3].axon[196]'
p1233
sI177
I184
tp1234
a(F2.2644684235361003
S'Cell[2].dend[57] syn_ = new FastInhib(0.833333333333)'
p1235
I2
(dp1236
S'seg'
p1237
F0.1
sS'hostfrom'
p1238
F34.0
sS'gid'
p1239
I82
sS'coords'
p1240
g7
(g8
(I0
tp1241
g10
tp1242
Rp1243
(I1
(I3
tp1244
g14
(S'f8'
p1245
I0
I1
tp1246
Rp1247
(I3
S'<'
p1248
NNNI-1
I-1
I0
tp1249
bI00
S'@i\xb7\x97`!\x1e@j\x13\xcf\xe1\xc9\xa7\\@:\x1b\xce)\xbd<`\xc0'
p1250
tp1251
bsS'secnames'
p1252
S'Cell[1].axon[63]'
p1253
sI82
I136
tp1254
a(F1.3437230384819956
S'Cell[0].dend[9] syn_ = new ExpSid(0.7)'
p1255
I0
(dp1256
S'seg'
p1257
F0.5
sS'hostfrom'
p1258
F35.0
sS'gid'
p1259
I83
sS'coords'
p1260
g7
(g8
(I0
tp1261
g10
tp1262
Rp1263
(I1
(I3
tp1264
g14
(S'f8'
p1265
I0
I1
tp1266
Rp1267
(I3
S'<'
p1268
NNNI-1
I-1
I0
tp1269
bI00
S'!\xb96\xcd91F\xc0\x81\xb7R\xe0:,Y\xc0V\xa6\x9c\xc6u(1@'
p1270
tp1271
bsS'secnames'
p1272
S'Cell[1].axon[43]'
p1273
sI83
I40
tp1274
a(F1.623851255368177
S'Cell[1].dend[30] syn_ = new FastInhib(0.1)'
p1275
I1
(dp1276
S'seg'
p1277
F0.5
sS'hostfrom'
p1278
F36.0
sS'gid'
p1279
I84
sS'coords'
p1280
g7
(g8
(I0
tp1281
g10
tp1282
Rp1283
(I1
(I3
tp1284
g14
(S'f8'
p1285
I0
I1
tp1286
Rp1287
(I3
S'<'
p1288
NNNI-1
I-1
I0
tp1289
bI00
S'\xcd\xfb1\xb8\x05_+@\xcc\xee\x80\xe7\x7f\xa7-@\xab\xb9\x85n\xaf\xd46\xc0'
p1290
tp1291
bsS'secnames'
p1292
S'Cell[1].axon[282]'
p1293
sI84
I88
tp1294
a(F2.001690505458808
S'Cell[3].dend[40] syn_ = new FastInhib(0.166666666667)'
p1295
I3
(dp1296
g1277
F0.07142857142857142
sg1278
F36.0
sg1279
I132
sg1280
g7
(g8
(I0
tp1297
g10
tp1298
Rp1299
(I1
(I3
tp1300
g1287
I00
S'\x80PY\n\x94=\x17\xc0\x13Z\xab\x9d\xbd^A@\xebeTI\xa3\x133@'
p1301
tp1302
bsg1292
S'Cell[2].axon[3]'
p1303
sI132
I184
tp1304
a(F1.5881566911489837
S'Cell[3].dend[21] syn_ = new FastInhib(0.1)'
p1305
I3
(dp1306
g1277
F0.5
sg1278
F36.0
sg1279
I132
sg1280
g7
(g8
(I0
tp1307
g10
tp1308
Rp1309
(I1
(I3
tp1310
g1287
I00
S'D\xa1\x94\xe4\xe8a7\xc0dT\x06\xce\xb8\x9dT@Z\x03H(]\xc0\x1a\xc0'
p1311
tp1312
bsg1292
S'Cell[2].axon[20]'
p1313
sI132
I184
tp1314
a(F1.3717519719519695
S'Cell[0].dend[7] syn_ = new AmpaNmda(0.5)'
p1315
I0
(dp1316
g1277
F0.3888888888888889
sg1278
F36.0
sg1279
I132
sg1280
g7
(g8
(I0
tp1317
g10
tp1318
Rp1319
(I1
(I3
tp1320
g1287
I00
S'l\x0b\x04\rm\xbd4@\xa0\xde\xf8\xe9\xb3\xd69\xc0\x00\x00\x00\x00\x00\x00\x08@'
p1321
tp1322
bsg1292
S'Cell[2].axon[35]'
p1323
sI132
I40
tp1324
a(F2.2758930212377937
S'Cell[0].dend[13] syn_ = new AmpaNmda(0.5)'
p1325
I0
(dp1326
g1277
F0.5
sg1278
F36.0
sg1279
I180
sg1280
g7
(g8
(I0
tp1327
g10
tp1328
Rp1329
(I1
(I3
tp1330
g1287
I00
S'\xcc\x86\xad \xb2\x88M@T\xd5\xe0\xb1\xf2r$\xc0\xbbal\xa2\x01\xae\x06@'
p1331
tp1332
bsg1292
S'Cell[3].axon[129]'
p1333
sI180
I40
tp1334
a(F1.7795150514079705
S'Cell[1].dend[15] syn_ = new FastInhib(0.5)'
p1335
I1
(dp1336
g1277
F0.16666666666666666
sg1278
F36.0
sg1279
I180
sg1280
g7
(g8
(I0
tp1337
g10
tp1338
Rp1339
(I1
(I3
tp1340
g1287
I00
S'h4\x9er\x9dQ9@\xe9\x06H\x14t \xd4?\x00\x00\x00`\x8f\xc2-@'
p1341
tp1342
bsg1292
S'Cell[3].axon[214]'
p1343
sI180
I88
tp1344
a(F2.329021726189247
S'Cell[0].dend[9] syn_ = new ExpSid(0.1)'
p1345
I0
(dp1346
S'seg'
p1347
F0.5
sS'hostfrom'
p1348
F37.0
sS'gid'
p1349
I133
sS'coords'
p1350
g7
(g8
(I0
tp1351
g10
tp1352
Rp1353
(I1
(I3
tp1354
g14
(S'f8'
p1355
I0
I1
tp1356
Rp1357
(I3
S'<'
p1358
NNNI-1
I-1
I0
tp1359
bI00
S'\xb2\x9d\x81\xc0\xbb\xd6\xda?\xc4\xe6\xf65\x144E\xc0\x00\x00\x00\xa0G\xe1\x06\xc0'
p1360
tp1361
bsS'secnames'
p1362
S'Cell[2].axon[33]'
p1363
sI133
I40
tp1364
a(F2.4069872005156823
S'Cell[3].dend[49] syn_ = new FastInhib(0.166666666667)'
p1365
I3
(dp1366
g1347
F0.16666666666666666
sg1348
F37.0
sg1349
I133
sg1350
g7
(g8
(I0
tp1367
g10
tp1368
Rp1369
(I1
(I3
tp1370
g1357
I00
S'^t\xe7\xde{\xc6H\xc0\xfa\xb4\xbbi\xa1<<@x\x90~g\xc6\x1f\x10@'
p1371
tp1372
bsg1362
S'Cell[2].axon[81]'
p1373
sI133
I184
tp1374
a(F2.4134248874684374
S'Cell[1].dend[0] syn_ = new FastInhib(0.214285714286)'
p1375
I1
(dp1376
g1347
F0.5
sg1348
F37.0
sg1349
I181
sg1350
g7
(g8
(I0
tp1377
g10
tp1378
Rp1379
(I1
(I3
tp1380
g1357
I00
S'!\xb3S\x10\xb675@\xfb\xba^\x93\xffcJ@\x00\x00\x00`\xb8\x1e\xd5?'
p1381
tp1382
bsg1362
S'Cell[3].axon[155]'
p1383
sI181
I88
tp1384
a(F2.1381192887536815
S'Cell[1].dend[11] syn_ = new FastInhib(0.5)'
p1385
I1
(dp1386
g1347
F0.5
sg1348
F37.0
sg1349
I181
sg1350
g7
(g8
(I0
tp1387
g10
tp1388
Rp1389
(I1
(I3
tp1390
g1357
I00
S'C\xe6V\x80\xbf\x1f,@p\x83\x0f\xca\x1e\x08\x0f\xc0@5\t\xe6n*\x08\xc0'
p1391
tp1392
bsg1362
S'Cell[3].axon[157]'
p1393
sI181
I88
tp1394
a(F1.598701332002938
S'Cell[3].dend[33] syn_ = new FastInhib(0.5)'
p1395
I3
(dp1396
S'seg'
p1397
F0.16666666666666666
sS'hostfrom'
p1398
F38.0
sS'gid'
p1399
I182
sS'coords'
p1400
g7
(g8
(I0
tp1401
g10
tp1402
Rp1403
(I1
(I3
tp1404
g14
(S'f8'
p1405
I0
I1
tp1406
Rp1407
(I3
S'<'
p1408
NNNI-1
I-1
I0
tp1409
bI00
S'.EJ\xec+\xb0@\xc0\xd4?\xcb{\xe0\x1aL@\xf0\xed\xa6\x0e\xaa\x9c+@'
p1410
tp1411
bsS'secnames'
p1412
S'Cell[3].axon[155]'
p1413
sI182
I184
tp1414
a(F1.4367726775568308
S'Cell[0].apic[27] syn_ = new ExpSid(0.1)'
p1415
I0
(dp1416
S'seg'
p1417
F0.07142857142857142
sS'hostfrom'
p1418
F39.0
sS'gid'
p1419
I135
sS'coords'
p1420
g7
(g8
(I0
tp1421
g10
tp1422
Rp1423
(I1
(I3
tp1424
g14
(S'f8'
p1425
I0
I1
tp1426
Rp1427
(I3
S'<'
p1428
NNNI-1
I-1
I0
tp1429
bI00
S'\xd8\xc0\x87\x92E\xe1;@FL \xd9F\xd2R@VKK@\xb3sC\xc0'
p1430
tp1431
bsS'secnames'
p1432
S'Cell[2].axon[155]'
p1433
sI135
I40
tp1434
a(F2.2433468204285494
S'Cell[3].dend[33] syn_ = new FastInhib(0.5)'
p1435
I3
(dp1436
g1417
F0.16666666666666666
sg1418
F39.0
sg1419
I183
sg1420
g7
(g8
(I0
tp1437
g10
tp1438
Rp1439
(I1
(I3
tp1440
g1427
I00
S'0z\xd8\xa4H\x87@\xc0\xcc,0B\x04\xefK@\xa6\xdc<\xe6kz1@'
p1441
tp1442
bsg1432
S'Cell[3].axon[141]'
p1443
sI183
I184
tp1444
a(F2.498988893515944
S'Cell[0].apic[25] syn_ = new ExpSid(0.5)'
p1445
I0
(dp1446
g1417
F0.7
sg1418
F39.0
sg1419
I183
sg1420
g7
(g8
(I0
tp1447
g10
tp1448
Rp1449
(I1
(I3
tp1450
g1427
I00
S"X\x8c\x1f\xbb\x94S5@P\x8e\xefN'/J@\xe8\xe7F\xaf\xc0L3@"
p1451
tp1452
bsg1432
S'Cell[3].axon[189]'
p1453
sI183
I40
tp1454
a(F2.3053219195615577
S'Cell[1].dend[23] syn_ = new FastInhib(0.5)'
p1455
I1
(dp1456
g1417
F0.5
sg1418
F39.0
sg1419
I39
sg1420
g7
(g8
(I0
tp1457
g10
tp1458
Rp1459
(I1
(I3
tp1460
g1427
I00
S'n2\xd6Y&i\x1e@\x86\xdfDU\x8c"\\\xc0\x00\x00\x00`ff\x0e\xc0'
p1461
tp1462
bsg1432
S'Cell[0].axon[4]'
p1463
sI39
I88
tp1464
a(F1.6890228869056372
S'Cell[0].dend[8] syn_ = new AmpaNmda(0.7)'
p1465
I0
(dp1466
S'seg'
p1467
F0.5
sS'hostfrom'
p1468
F40.0
sS'gid'
p1469
I88
sS'coords'
p1470
g7
(g8
(I0
tp1471
g10
tp1472
Rp1473
(I1
(I3
tp1474
g14
(S'f8'
p1475
I0
I1
tp1476
Rp1477
(I3
S'<'
p1478
NNNI-1
I-1
I0
tp1479
bI00
S'N3\x87\x82\x9d\x1aD\xc0\xb0p\xb5\xaeD0R\xc0\x00\x00\x00\x80\xeb\xd1$\xc0'
p1480
tp1481
bsS'secnames'
p1482
S'Cell[1].axon[80]'
p1483
sI88
I40
tp1484
a(F2.05397479091893
S'Cell[2].dend[50] syn_ = new FastInhib(0.5)'
p1485
I2
(dp1486
g1467
F0.8333333333333333
sg1468
F40.0
sg1469
I88
sg1470
g7
(g8
(I0
tp1487
g10
tp1488
Rp1489
(I1
(I3
tp1490
g1477
I00
S'\xe7D\xbc>\xf7\xe08\xc0\xf9\x1c;)\xb2\xd6Q@\xaa\x1cEZ\x106>\xc0'
p1491
tp1492
bsg1482
S'Cell[1].axon[145]'
p1493
sI88
I136
tp1494
a(F2.4635347339076556
S'Cell[3].dend[22] syn_ = new FastInhib(0.5)'
p1495
I3
(dp1496
g1467
F0.16666666666666666
sg1468
F40.0
sg1469
I88
sg1470
g7
(g8
(I0
tp1497
g10
tp1498
Rp1499
(I1
(I3
tp1500
g1477
I00
S'\x00-\x90Z\x16\xb4:\xc0\xf0\x9a\xf4\xd7\xd9aU@\xadL(\xe8A^\xf8\xbf'
p1501
tp1502
bsg1482
S'Cell[1].axon[328]'
p1503
sI88
I184
tp1504
a(F2.103906968082202
S'Cell[0].dend[8] syn_ = new AmpaNmda(0.9)'
p1505
I0
(dp1506
g1467
F0.5
sg1468
F40.0
sg1469
I136
sg1470
g7
(g8
(I0
tp1507
g10
tp1508
Rp1509
(I1
(I3
tp1510
g1477
I00
S'\xb7o@6\x84\xbaH\xc0\x1ce\x12\xa6{@T\xc0w\xf0\x11\x1eC\x07\xf7?'
p1511
tp1512
bsg1482
S'Cell[2].axon[111]'
p1513
sI136
I40
tp1514
a(F2.3423101268214093
S'Cell[1].dend[35] syn_ = new FastInhib(0.5)'
p1515
I1
(dp1516
g1467
F0.5
sg1468
F40.0
sg1469
I184
sg1470
g7
(g8
(I0
tp1517
g10
tp1518
Rp1519
(I1
(I3
tp1520
g1477
I00
S'\xb4\xd0\xda\xa6c\xef5\xc0\xae\xec\x16\x0c\xfc{\x0f@\x80\xe6P\xf4\x1eW7@'
p1521
tp1522
bsg1482
S'Cell[3].axon[21]'
p1523
sI184
I88
tp1524
a(F2.451281403052872
S'Cell[1].dend[26] syn_ = new FastInhib(0.1)'
p1525
I1
(dp1526
S'seg'
p1527
F0.03333333333333333
sS'hostfrom'
p1528
F41.0
sS'gid'
p1529
I185
sS'coords'
p1530
g7
(g8
(I0
tp1531
g10
tp1532
Rp1533
(I1
(I3
tp1534
g14
(S'f8'
p1535
I0
I1
tp1536
Rp1537
(I3
S'<'
p1538
NNNI-1
I-1
I0
tp1539
bI00
S"d\xf4\xa4\xd4<\xca0\xc0\xa4\xf1\x1f\xb7\xe9\xe59\xc0\x87i\xff\xc4Sx'\xc0"
p1540
tp1541
bsS'secnames'
p1542
S'Cell[3].axon[79]'
p1543
sI185
I88
tp1544
a(F0.8358685228377863
S'Cell[1].dend[36] syn_ = new FastInhib(0.0714285714286)'
p1545
I1
(dp1546
g1527
F0.7
sg1528
F41.0
sg1529
I185
sg1530
g7
(g8
(I0
tp1547
g10
tp1548
Rp1549
(I1
(I3
tp1550
g1537
I00
S'k?.t\x04\xec.\xc0\xe0\xc6!\xbd`n\xe4?\x00\x00\x00@\xe1z%\xc0'
p1551
tp1552
bsg1542
S'Cell[3].axon[216]'
p1553
sI185
I88
tp1554
a(F2.473807738144936
S'Cell[2].dend[43] syn_ = new FastInhib(0.5)'
p1555
I2
(dp1556
g1527
F0.5
sg1528
F41.0
sg1529
I185
sg1530
g7
(g8
(I0
tp1557
g10
tp1558
Rp1559
(I1
(I3
tp1560
g1537
I00
S'\x00\x00\x00\x00\x00 0\xc0\x00\x00\x00\xa0\x99\xf9U@\x00\x00\x00\xd0\xcc\xcc\x10\xc0'
p1561
tp1562
bsg1542
S'Cell[3].axon[267]'
p1563
sI185
I136
tp1564
a(F1.69651232149406
S'Cell[2].dend[42] syn_ = new FastInhib(0.5)'
p1565
I2
(dp1566
g1527
F0.8333333333333333
sg1528
F41.0
sg1529
I89
sg1530
g7
(g8
(I0
tp1567
g10
tp1568
Rp1569
(I1
(I3
tp1570
g1537
I00
S'\x9e\xb8\x9d\xff\xb4\xad<\xc0\x00\x00\x00\xa0\x99iP@cs\xf2;\x9c&)\xc0'
p1571
tp1572
bsg1542
S'Cell[1].axon[87]'
p1573
sI89
I136
tp1574
a(F1.9251433016829957
S'Cell[1].dend[6] syn_ = new FastInhib(0.3)'
p1575
I1
(dp1576
g1527
F0.5
sg1528
F41.0
sg1529
I89
sg1530
g7
(g8
(I0
tp1577
g10
tp1578
Rp1579
(I1
(I3
tp1580
g1537
I00
S'\xeeT\x82{\xf9\x1dJ@v\x9f2}\xaa\xb46@\xbc.\xa05w\x976\xc0'
p1581
tp1582
bsg1542
S'Cell[1].axon[160]'
p1583
sI89
I88
tp1584
a(F2.3474531015134583
S'Cell[1].dend[23] syn_ = new FastInhib(0.5)'
p1585
I1
(dp1586
g1527
F0.5
sg1528
F41.0
sg1529
I89
sg1530
g7
(g8
(I0
tp1587
g10
tp1588
Rp1589
(I1
(I3
tp1590
g1537
I00
S' \x9f`\xe5\xdb\x15\x17@sGDl\x8c\t\\\xc0\xac\x88\x90\xf5[\x8a\xfe\xbf'
p1591
tp1592
bsg1542
S'Cell[1].axon[176]'
p1593
sI89
I88
tp1594
a(F1.2380347376155003
S'Cell[1].dend[12] syn_ = new FastInhib(0.5)'
p1595
I1
(dp1596
S'seg'
p1597
F0.5
sS'hostfrom'
p1598
F42.0
sS'gid'
p1599
I90
sS'coords'
p1600
g7
(g8
(I0
tp1601
g10
tp1602
Rp1603
(I1
(I3
tp1604
g14
(S'f8'
p1605
I0
I1
tp1606
Rp1607
(I3
S'<'
p1608
NNNI-1
I-1
I0
tp1609
bI00
S'\xf2\x8a\xb0H\x1a\x7f7@\xf9\xb9\xb8\xc5\x96\x819\xc0\x00\x00\x00@332@'
p1610
tp1611
bsS'secnames'
p1612
S'Cell[1].axon[235]'
p1613
sI90
I88
tp1614
a(F1.4472524629022772
S'Cell[3].dend[15] syn_ = new FastInhib(0.5)'
p1615
I3
(dp1616
g1597
F0.5
sg1598
F42.0
sg1599
I138
sg1600
g7
(g8
(I0
tp1617
g10
tp1618
Rp1619
(I1
(I3
tp1620
g1607
I00
S'\x00\x00\x00\xa0G\xe1\x12\xc0\xccj\xe6\x13"\xfcU@j\x8bo\r\xc8\xb6)@'
p1621
tp1622
bsg1612
S'Cell[2].axon[156]'
p1623
sI138
I184
tp1624
a(F0.9369111866681124
S'Cell[3].dend[44] syn_ = new FastInhib(0.5)'
p1625
I3
(dp1626
g1597
F0.16666666666666666
sg1598
F42.0
sg1599
I186
sg1600
g7
(g8
(I0
tp1627
g10
tp1628
Rp1629
(I1
(I3
tp1630
g1607
I00
S's`\xdd`)UF\xc0\x1b?E~\xb7\xccM@\x00\x00\x00 \\\x0f%@'
p1631
tp1632
bsg1612
S'Cell[3].axon[60]'
p1633
sI186
I184
tp1634
a(F1.5147483169550269
S'Cell[1].dend[23] syn_ = new FastInhib(0.357142857143)'
p1635
I1
(dp1636
g1597
F0.30000000000000004
sg1598
F42.0
sg1599
I186
sg1600
g7
(g8
(I0
tp1637
g10
tp1638
Rp1639
(I1
(I3
tp1640
g1607
I00
S'\xae7+\xd1\xa3N\xfc?\xbd>\xd8\xa4\x07\xb8U\xc0\xcf2\x99\xc2*\x9c#\xc0'
p1641
tp1642
bsg1612
S'Cell[3].axon[93]'
p1643
sI186
I88
tp1644
a(F2.45910078099495
S'Cell[2].dend[53] syn_ = new FastInhib(0.0714285714286)'
p1645
I2
(dp1646
S'seg'
p1647
F0.5
sS'hostfrom'
p1648
F43.0
sS'gid'
p1649
I91
sS'coords'
p1650
g7
(g8
(I0
tp1651
g10
tp1652
Rp1653
(I1
(I3
tp1654
g14
(S'f8'
p1655
I0
I1
tp1656
Rp1657
(I3
S'<'
p1658
NNNI-1
I-1
I0
tp1659
bI00
S',\x8fd\x8f[G;\xc0\xb4\x89\xb8\x05J\r`@\xcb{\xff\x1ek\xa4P\xc0'
p1660
tp1661
bsS'secnames'
p1662
S'Cell[1].axon[50]'
p1663
sI91
I136
tp1664
a(F1.448858314976569
S'Cell[0].apic[23] syn_ = new ExpSid(0.928571428571)'
p1665
I0
(dp1666
g1647
F0.6818181818181819
sg1648
F43.0
sg1649
I139
sg1650
g7
(g8
(I0
tp1667
g10
tp1668
Rp1669
(I1
(I3
tp1670
g1657
I00
S'j\x9c\xb7l2\xe08\xc0U\xc5L\xdf\xd4Cs@V4\x85\xe4\xa0iE\xc0'
p1671
tp1672
bsg1662
S'Cell[2].axon[273]'
p1673
sI139
I40
tp1674
a(F1.7994717654473775
S'Cell[1].dend[43] syn_ = new FastInhib(0.785714285714)'
p1675
I1
(dp1676
g1647
F0.7
sg1648
F43.0
sg1649
I139
sg1650
g7
(g8
(I0
tp1677
g10
tp1678
Rp1679
(I1
(I3
tp1680
g1657
I00
S'\x94\xe3*q\xb3(V\xc0Z_\xc4?\xb6A6@x\xdfUw\xeb\xf4S\xc0'
p1681
tp1682
bsg1662
S'Cell[2].axon[291]'
p1683
sI139
I88
tp1684
a(F1.7441520562756514
S'Cell[0].apic[30] syn_ = new ExpSid(0.5)'
p1685
I0
(dp1686
g1647
F0.5
sg1648
F43.0
sg1649
I139
sg1650
g7
(g8
(I0
tp1687
g10
tp1688
Rp1689
(I1
(I3
tp1690
g1657
I00
S'P\xe8l\x02Y\xe3Q@\xcc\xf3\x16k\xa8\xcbC@\xca\x91\xd6\xadl\x19:\xc0'
p1691
tp1692
bsg1662
S'Cell[2].axon[358]'
p1693
sI139
I40
tp1694
a(F2.153359257705083
S'Cell[2].dend[45] syn_ = new FastInhib(0.1)'
p1695
I2
(dp1696
g1647
F0.8333333333333333
sg1648
F43.0
sg1649
I139
sg1650
g7
(g8
(I0
tp1697
g10
tp1698
Rp1699
(I1
(I3
tp1700
g1657
I00
S'\xca\xf9\xc2O\xcb\x18\xf6\xbf\x198= \xea\xbea@\xb4\xa4q\x04\xc8\x87M\xc0'
p1701
tp1702
bsg1662
S'Cell[2].axon[424]'
p1703
sI139
I136
tp1704
a(F1.987919497424303
S'Cell[2].dend[52] syn_ = new FastInhib(0.166666666667)'
p1705
I2
(dp1706
S'seg'
p1707
F0.5
sS'hostfrom'
p1708
F44.0
sS'gid'
p1709
I140
sS'coords'
p1710
g7
(g8
(I0
tp1711
g10
tp1712
Rp1713
(I1
(I3
tp1714
g14
(S'f8'
p1715
I0
I1
tp1716
Rp1717
(I3
S'<'
p1718
NNNI-1
I-1
I0
tp1719
bI00
S'\x7f\xdc\xc6\x8f\xddo:\xc0\xe4(\xdb\xa0\x04\xd6U@\x9a*\x17%\xe94E\xc0'
p1720
tp1721
bsS'secnames'
p1722
S'Cell[2].axon[33]'
p1723
sI140
I136
tp1724
a(F2.4295986320182763
S'Cell[1].dend[12] syn_ = new FastInhib(0.166666666667)'
p1725
I1
(dp1726
g1707
F0.30000000000000004
sg1708
F44.0
sg1709
I188
sg1710
g7
(g8
(I0
tp1727
g10
tp1728
Rp1729
(I1
(I3
tp1730
g1717
I00
S'6(\xe5\xd4\xe7\x963@D\x9bsP\xf9\x10(\xc0eP\xf7\xa8\x84F\x17@'
p1731
tp1732
bsg1722
S'Cell[3].axon[60]'
p1733
sI188
I88
tp1734
a(F2.211231863113243
S'Cell[0].dend[11] syn_ = new AmpaNmda(0.3)'
p1735
I0
(dp1736
g1707
F0.30000000000000004
sg1708
F44.0
sg1709
I188
sg1710
g7
(g8
(I0
tp1737
g10
tp1738
Rp1739
(I1
(I3
tp1740
g1717
I00
S'V\xa9\xeek\x8b\xd6+@\xce\xe6\x1db\xd5-\x18\xc0H\xd3\x9b\x14\xf7.\x1b@'
p1741
tp1742
bsg1722
S'Cell[3].axon[66]'
p1743
sI188
I40
tp1744
a(F2.3651326339687233
S'Cell[0].apic[33] syn_ = new ExpSid(0.166666666667)'
p1745
I0
(dp1746
S'seg'
p1747
F0.5
sS'hostfrom'
p1748
F45.0
sS'gid'
p1749
I141
sS'coords'
p1750
g7
(g8
(I0
tp1751
g10
tp1752
Rp1753
(I1
(I3
tp1754
g14
(S'f8'
p1755
I0
I1
tp1756
Rp1757
(I3
S'<'
p1758
NNNI-1
I-1
I0
tp1759
bI00
S'\x9a`\xb5\x06+\xa47@m\xe8\x9b\xb7\xe0\xd8>@%#U\xef\x86b2\xc0'
p1760
tp1761
bsS'secnames'
p1762
S'Cell[2].axon[0]'
p1763
sI141
I40
tp1764
a(F2.4492122514405517
S'Cell[1].dend[16] syn_ = new FastInhib(0.0714285714286)'
p1765
I1
(dp1766
g1747
F0.13636363636363635
sg1748
F45.0
sg1749
I189
sg1750
g7
(g8
(I0
tp1767
g10
tp1768
Rp1769
(I1
(I3
tp1770
g1757
I00
S'\x03\x0e\xeb\xfa,\x196@\xf6E\x85>\x97|&\xc0\x1fZ\xf9v\xb5C\x13\xc0'
p1771
tp1772
bsg1762
S'Cell[3].axon[88]'
p1773
sI189
I88
tp1774
a(F0.9431351431993136
S'Cell[0].apic[4] syn_ = new ExpSid(0.5)'
p1775
I0
(dp1776
g1747
F0.8333333333333333
sg1748
F45.0
sg1749
I93
sg1750
g7
(g8
(I0
tp1777
g10
tp1778
Rp1779
(I1
(I3
tp1780
g1757
I00
S'\x1a\x92HT\xa8ME@$\x18\x8f)!\x1bH@Y\xe2\xe0\xdd\xf0\xc7\n\xc0'
p1781
tp1782
bsg1762
S'Cell[1].axon[161]'
p1783
sI93
I40
tp1784
a(F0.3077359830836015
S'Cell[1].dend[23] syn_ = new FastInhib(0.928571428571)'
p1785
I1
(dp1786
S'seg'
p1787
F0.5
sS'hostfrom'
p1788
F46.0
sS'gid'
p1789
I94
sS'coords'
p1790
g7
(g8
(I0
tp1791
g10
tp1792
Rp1793
(I1
(I3
tp1794
g14
(S'f8'
p1795
I0
I1
tp1796
Rp1797
(I3
S'<'
p1798
NNNI-1
I-1
I0
tp1799
bI00
S'\xda,\x1f\xf2k\x00$@8\xa3_\x9a\xe46h\xc0\xca^\xf9W\xb8e1@'
p1800
tp1801
bsS'secnames'
p1802
S'Cell[1].axon[131]'
p1803
sI94
I88
tp1804
a(F2.2719810666346127
S'Cell[2].dend[20] syn_ = new FastInhib(0.5)'
p1805
I2
(dp1806
g1787
F0.5
sg1788
F46.0
sg1789
I94
sg1790
g7
(g8
(I0
tp1807
g10
tp1808
Rp1809
(I1
(I3
tp1810
g1797
I00
S'Qy\x995\xea|1\xc0\xb4.\x97\x9e\x05w=@B\xaa\xd4\x8c\x92`5\xc0'
p1811
tp1812
bsg1802
S'Cell[1].axon[310]'
p1813
sI94
I136
tp1814
a(F2.457955566419766
S'Cell[3].dend[50] syn_ = new FastInhib(0.1)'
p1815
I3
(dp1816
g1787
F0.5
sg1788
F46.0
sg1789
I94
sg1790
g7
(g8
(I0
tp1817
g10
tp1818
Rp1819
(I1
(I3
tp1820
g1797
I00
S'ISm\x93\xf0\xaeD\xc0F9)7\xce\x93=@\xa1\nrf.} \xc0'
p1821
tp1822
bsg1802
S'Cell[1].axon[347]'
p1823
sI94
I184
tp1824
a(F2.1642735540733113
S'Cell[0].dend[5] syn_ = new ExpSid(0.5)'
p1825
I0
(dp1826
S'seg'
p1827
F0.5
sS'hostfrom'
p1828
F47.0
sS'gid'
p1829
I95
sS'coords'
p1830
g7
(g8
(I0
tp1831
g10
tp1832
Rp1833
(I1
(I3
tp1834
g14
(S'f8'
p1835
I0
I1
tp1836
Rp1837
(I3
S'<'
p1838
NNNI-1
I-1
I0
tp1839
bI00
S'\x00\x00\x00\xa0p\rD@\x00\x00\x00\xe8Q81\xc0\x00\x00\x00\x10\xaeG\xf1?'
p1840
tp1841
bsS'secnames'
p1842
S'Cell[1].axon[142]'
p1843
sI95
I40
tp1844
a(F1.0912173375480152
S'Cell[3].dend[4] syn_ = new FastInhib(0.5)'
p1845
I3
(dp1846
g1827
F0.5
sg1828
F47.0
sg1829
I143
sg1830
g7
(g8
(I0
tp1847
g10
tp1848
Rp1849
(I1
(I3
tp1850
g1837
I00
S'\xe6x\xa7C\x86\tF\xc0\x12\x99%\x10.\x93D@\xd56\xb59i\x1b$\xc0'
p1851
tp1852
bsg1842
S'Cell[2].axon[121]'
p1853
sI143
I184
tp1854
a(F2.2417134479145897
S'Cell[1].dend[16] syn_ = new FastInhib(0.357142857143)'
p1855
I1
(dp1856
g1827
F0.3571428571428571
sg1828
F47.0
sg1829
I47
sg1830
g7
(g8
(I0
tp1857
g10
tp1858
Rp1859
(I1
(I3
tp1860
g1837
I00
S'\xb00\xedi\x06NB@\xdb\xd2\x82\x03\x19\x07H\xc0\x957\xe8R.\x9f+@'
p1861
tp1862
bsg1842
S'Cell[0].axon[14]'
p1863
sI47
I88
tp1864
a(F1.5308375107969725
S'Cell[0].dend[3] syn_ = new ExpSid(0.5)'
p1865
I0
(dp1866
g1827
F0.21428571428571427
sg1828
F47.0
sg1829
I47
sg1830
g7
(g8
(I0
tp1867
g10
tp1868
Rp1869
(I1
(I3
tp1870
g1837
I00
S'\x96\xb3Y\x1e\x0b5P\xc0\x02I\xad\x91\x15\xc0O\xc0@BF1\xbe\xfe\x1e@'
p1871
tp1872
bsg1842
S'Cell[0].axon[39]'
p1873
sI47
I40
tp1874
a.