(lp0
(F1.9221367825435984
S'Cell[2].dend[28] syn_ = new FastInhib(0.5)'
p1
I2
(dp2
S'seg'
p3
F0.8333333333333333
sS'hostfrom'
p4
F1.0
sS'gid'
p5
I145
sS'coords'
p6
cnumpy.core.multiarray
_reconstruct
p7
(cnumpy
ndarray
p8
(I0
tp9
S'b'
p10
tp11
Rp12
(I1
(I3
tp13
cnumpy
dtype
p14
(S'f8'
p15
I0
I1
tp16
Rp17
(I3
S'<'
p18
NNNI-1
I-1
I0
tp19
bI00
S'\xe5\x1aK\xfe\x9e?\x19\xc0\xaa3!\xff\x97\x149\xc0YZ\xe9S\xdc\xcc\x06@'
p20
tp21
bsS'secnames'
p22
S'Cell[3].axon[159]'
p23
sI145
I140
tp24
a(F1.1135543403410653
S'Cell[0].apic[0] syn_ = new ExpSid(0.5)'
p25
I0
(dp26
g3
F0.5
sg4
F1.0
sg5
I145
sg6
g7
(g8
(I0
tp27
g10
tp28
Rp29
(I1
(I3
tp30
g17
I00
S'\xf0\x19T(\xad0!@\x9f\x7f$X\xa6j:\xc0\xf08\x87\xfc\xc3\x05\x02@'
p31
tp32
bsg22
S'Cell[3].axon[161]'
p33
sI145
I44
tp34
a(F1.534990890441522
S'Cell[0].dend[18] syn_ = new ExpSid(0.833333333333)'
p35
I0
(dp36
g3
F0.5
sg4
F1.0
sg5
I1
sg6
g7
(g8
(I0
tp37
g10
tp38
Rp39
(I1
(I3
tp40
g17
I00
S'\xcf\xf3\x93\x9fe(Q@\xa5\xff\xf7C\x9c\xdeY\xc0\x00\x00\x00\x00\x00\x00\x1c@'
p41
tp42
bsg22
S'Cell[0].axon[47]'
p43
sI1
I44
tp44
a(F1.7968655072409654
S'Cell[0].apic[9] syn_ = new ExpSid(0.5)'
p45
I0
(dp46
g3
F0.5
sg4
F1.0
sg5
I97
sg6
g7
(g8
(I0
tp47
g10
tp48
Rp49
(I1
(I3
tp50
g17
I00
S'\xbd>\xe5o\xed\x8d\x1d@\x93>ej\xd4a\x00\xc0T\\;`\x9b}\xf7?'
p51
tp52
bsg22
S'Cell[2].axon[160]'
p53
sI97
I44
tp54
a(F2.1411493484191064
S'Cell[3].dend[43] syn_ = new FastInhib(0.5)'
p55
I3
(dp56
S'seg'
p57
F0.5
sS'hostfrom'
p58
F2.0
sS'gid'
p59
I98
sS'coords'
p60
g7
(g8
(I0
tp61
g10
tp62
Rp63
(I1
(I3
tp64
g14
(S'f8'
p65
I0
I1
tp66
Rp67
(I3
S'<'
p68
NNNI-1
I-1
I0
tp69
bI00
S'dD\xa4\xaa\xf5fB@\xc7\xc8,\x8aCM3@,;>ZN\r!@'
p70
tp71
bsS'secnames'
p72
S'Cell[2].axon[9]'
p73
sI98
I188
tp74
a(F2.4346526038910374
S'Cell[0].apic[32] syn_ = new AmpaNmda(0.1)'
p75
I0
(dp76
g57
F0.5
sg58
F2.0
sg59
I98
sg60
g7
(g8
(I0
tp77
g10
tp78
Rp79
(I1
(I3
tp80
g67
I00
S'\xbc\x8b\xbb\xe8L\xec,@\xb0\xf1_A\xdd\xe2X@\x00\x00\x00\x00\x00@7\xc0'
p81
tp82
bsg72
S'Cell[2].axon[212]'
p83
sI98
I44
tp84
a(F2.4360108673139167
S'Cell[1].dend[24] syn_ = new FastInhib(0.192307692308)'
p85
I1
(dp86
g57
F0.5
sg58
F2.0
sg59
I98
sg60
g7
(g8
(I0
tp87
g10
tp88
Rp89
(I1
(I3
tp90
g67
I00
S'\xe0C\x0c\xa7\xe0@G@\xda\xdd\x9a\xa5\x05nP@\x8c\xcaG\xd9\x1cBK\xc0'
p91
tp92
bsg72
S'Cell[2].axon[223]'
p93
sI98
I92
tp94
a(F2.2084669942447737
S'Cell[2].dend[19] syn_ = new FastInhib(0.7)'
p95
I2
(dp96
g57
F0.8999999999999999
sg58
F2.0
sg59
I98
sg60
g7
(g8
(I0
tp97
g10
tp98
Rp99
(I1
(I3
tp100
g67
I00
S'\xa7\xaer_(\x10S@j\xb7\xb7\x8e\xa4\xfdU@\x06\xa7d\xabN\xe9F\xc0'
p101
tp102
bsg72
S'Cell[2].axon[223]'
p103
sI98
I140
tp104
a(F1.9155679903651128
S'Cell[1].dend[44] syn_ = new FastInhib(0.318181818182)'
p105
I1
(dp106
g57
F0.16666666666666666
sg58
F2.0
sg59
I98
sg60
g7
(g8
(I0
tp107
g10
tp108
Rp109
(I1
(I3
tp110
g67
I00
S'\x14\xce\xa7\xbc$\x13\x18\xc0\x92z\xe9\x08+\x83c@\xb2s\x1b(V\x19@\xc0'
p111
tp112
bsg72
S'Cell[2].axon[289]'
p113
sI98
I92
tp114
a(F1.2961443706068931
S'Cell[3].dend[25] syn_ = new FastInhib(0.5)'
p115
I3
(dp116
g57
F0.5
sg58
F2.0
sg59
I146
sg60
g7
(g8
(I0
tp117
g10
tp118
Rp119
(I1
(I3
tp120
g67
I00
S'\x00\x00\x00\x00\x00@>\xc0\x00\x00\x00\x80\xeb\xd1.@\x00\x00\x00\x80\xeb1E\xc0'
p121
tp122
bsg72
S'Cell[3].axon[137]'
p123
sI146
I188
tp124
a(F2.039632393443061
S'Cell[0].dend[28] syn_ = new AmpaNmda(0.5)'
p125
I0
(dp126
g57
F0.5
sg58
F2.0
sg59
I146
sg60
g7
(g8
(I0
tp127
g10
tp128
Rp129
(I1
(I3
tp130
g67
I00
S'\x15m\xb1\xe1\x87"@@\xde\x01\xd2N\x03W?\xc0\x00\x00\x00\xc0\x1e\xe5B@'
p131
tp132
bsg72
S'Cell[3].axon[229]'
p133
sI146
I44
tp134
a(F2.1411493484191064
S'Cell[3].dend[43] syn_ = new FastInhib(0.5)'
p135
I3
(dp136
S'seg'
p137
F0.5
sS'hostfrom'
p138
F3.0
sS'gid'
p139
I99
sS'coords'
p140
g7
(g8
(I0
tp141
g10
tp142
Rp143
(I1
(I3
tp144
g14
(S'f8'
p145
I0
I1
tp146
Rp147
(I3
S'<'
p148
NNNI-1
I-1
I0
tp149
bI00
S'dD\xa4\xaa\xf5fB@\xc7\xc8,\x8aCM3@,;>ZN\r!@'
p150
tp151
bsS'secnames'
p152
S'Cell[2].axon[9]'
p153
sI99
I188
tp154
a(F2.4346526038910374
S'Cell[0].apic[32] syn_ = new ExpSid(0.1)'
p155
I0
(dp156
g137
F0.5
sg138
F3.0
sg139
I99
sg140
g7
(g8
(I0
tp157
g10
tp158
Rp159
(I1
(I3
tp160
g147
I00
S'\xbc\x8b\xbb\xe8L\xec,@\xb0\xf1_A\xdd\xe2X@\x00\x00\x00\x00\x00@7\xc0'
p161
tp162
bsg152
S'Cell[2].axon[212]'
p163
sI99
I44
tp164
a(F2.4360108673139167
S'Cell[1].dend[24] syn_ = new FastInhib(0.192307692308)'
p165
I1
(dp166
g137
F0.5
sg138
F3.0
sg139
I99
sg140
g7
(g8
(I0
tp167
g10
tp168
Rp169
(I1
(I3
tp170
g147
I00
S'\xe0C\x0c\xa7\xe0@G@\xda\xdd\x9a\xa5\x05nP@\x8c\xcaG\xd9\x1cBK\xc0'
p171
tp172
bsg152
S'Cell[2].axon[223]'
p173
sI99
I92
tp174
a(F2.2084669942447737
S'Cell[2].dend[19] syn_ = new FastInhib(0.7)'
p175
I2
(dp176
g137
F0.8999999999999999
sg138
F3.0
sg139
I99
sg140
g7
(g8
(I0
tp177
g10
tp178
Rp179
(I1
(I3
tp180
g147
I00
S'\xa7\xaer_(\x10S@j\xb7\xb7\x8e\xa4\xfdU@\x06\xa7d\xabN\xe9F\xc0'
p181
tp182
bsg152
S'Cell[2].axon[223]'
p183
sI99
I140
tp184
a(F1.9155679903651128
S'Cell[1].dend[44] syn_ = new FastInhib(0.318181818182)'
p185
I1
(dp186
g137
F0.16666666666666666
sg138
F3.0
sg139
I99
sg140
g7
(g8
(I0
tp187
g10
tp188
Rp189
(I1
(I3
tp190
g147
I00
S'\x14\xce\xa7\xbc$\x13\x18\xc0\x92z\xe9\x08+\x83c@\xb2s\x1b(V\x19@\xc0'
p191
tp192
bsg152
S'Cell[2].axon[289]'
p193
sI99
I92
tp194
a(F1.1004136574213026
S'Cell[0].apic[5] syn_ = new ExpSid(0.833333333333)'
p195
I0
(dp196
g137
F0.9285714285714284
sg138
F3.0
sg139
I147
sg140
g7
(g8
(I0
tp197
g10
tp198
Rp199
(I1
(I3
tp200
g147
I00
S'\x9a\x17"\x94\x10\xb5Q@\xa8\x12\xd2\x05\xb2-\xd4?K\x8c\xe0\xcc\xca\x15K\xc0'
p201
tp202
bsg152
S'Cell[3].axon[135]'
p203
sI147
I44
tp204
a(F1.3431772640596364
S'Cell[2].dend[24] syn_ = new FastInhib(0.5)'
p205
I2
(dp206
S'seg'
p207
F0.5
sS'hostfrom'
p208
F5.0
sS'gid'
p209
I149
sS'coords'
p210
g7
(g8
(I0
tp211
g10
tp212
Rp213
(I1
(I3
tp214
g14
(S'f8'
p215
I0
I1
tp216
Rp217
(I3
S'<'
p218
NNNI-1
I-1
I0
tp219
bI00
S'\xed\x07\xd5\xd8\xa2\xe0\x15\xc0@1\x8ek~\x9e3\xc0\x92\xc3\x89\xd9\xb4P\xee\xbf'
p220
tp221
bsS'secnames'
p222
S'Cell[3].axon[11]'
p223
sI149
I140
tp224
a(F2.4620698939821124
S'Cell[2].dend[29] syn_ = new FastInhib(0.166666666667)'
p225
I2
(dp226
g207
F0.5
sg208
F5.0
sg209
I149
sg210
g7
(g8
(I0
tp227
g10
tp228
Rp229
(I1
(I3
tp230
g217
I00
S'\xd5\x94F\xf9\x93#$\xc0?V2it\x82@\xc0sf\xbc\x95\x97t\xf0\xbf'
p231
tp232
bsg222
S'Cell[3].axon[33]'
p233
sI149
I140
tp234
a(F1.5414114414852838
S'Cell[1].dend[10] syn_ = new FastInhib(0.785714285714)'
p235
I1
(dp236
S'seg'
p237
F0.3181818181818182
sS'hostfrom'
p238
F7.0
sS'gid'
p239
I103
sS'coords'
p240
g7
(g8
(I0
tp241
g10
tp242
Rp243
(I1
(I3
tp244
g14
(S'f8'
p245
I0
I1
tp246
Rp247
(I3
S'<'
p248
NNNI-1
I-1
I0
tp249
bI00
S'\xcca/W@\xd3J\xc0\xb0\xa8g\x0b\xa0\x11J@\xdd\xb3\xda@\x03\xd1C\xc0'
p250
tp251
bsS'secnames'
p252
S'Cell[2].axon[162]'
p253
sI103
I92
tp254
a(F1.628887951477393
S'Cell[1].dend[13] syn_ = new FastInhib(0.5)'
p255
I1
(dp256
g237
F0.8333333333333333
sg238
F7.0
sg239
I103
sg240
g7
(g8
(I0
tp257
g10
tp258
Rp259
(I1
(I3
tp260
g247
I00
S'_g\x97B\xeb\xd0C@``w{j\xf34\xc0\x00\x00\x00\x00\xd7#&\xc0'
p261
tp262
bsg252
S'Cell[2].axon[381]'
p263
sI103
I92
tp264
a(F1.9943398290849548
S'Cell[0].apic[16] syn_ = new ExpSid(0.5)'
p265
I0
(dp266
g237
F0.8333333333333333
sg238
F7.0
sg239
I151
sg240
g7
(g8
(I0
tp267
g10
tp268
Rp269
(I1
(I3
tp270
g247
I00
S'B\x96\xc1\xb4]\xc9#\xc0\x100~\xb1\x19\x0b[@\x00\x00\x00\xe0Q\xf80@'
p271
tp272
bsg252
S'Cell[3].axon[92]'
p273
sI151
I44
tp274
a(F2.4759072467762935
S'Cell[2].dend[25] syn_ = new FastInhib(0.5)'
p275
I2
(dp276
g237
F0.5
sg238
F7.0
sg239
I151
sg240
g7
(g8
(I0
tp277
g10
tp278
Rp279
(I1
(I3
tp280
g247
I00
S'y\xb1\x83f\xc8\x91-@e\xb9\x93\xfe\xd0tC\xc0\x00\x00\x00 \xaeG\xd1\xbf'
p281
tp282
bsg252
S'Cell[3].axon[99]'
p283
sI151
I140
tp284
a(F1.8481018369186875
S'Cell[1].dend[29] syn_ = new FastInhib(0.833333333333)'
p285
I1
(dp286
g237
F0.8999999999999999
sg238
F7.0
sg239
I151
sg240
g7
(g8
(I0
tp287
g10
tp288
Rp289
(I1
(I3
tp290
g247
I00
S'\x01\x00\x00\xe0z\x94O@g\x9f(\xf05t!\xc0\xbf\x1cu?\x9b%@\xc0'
p291
tp292
bsg252
S'Cell[3].axon[184]'
p293
sI151
I92
tp294
a(F2.218786100318458
S'Cell[1].dend[27] syn_ = new FastInhib(0.166666666667)'
p295
I1
(dp296
g237
F0.21428571428571427
sg238
F7.0
sg239
I151
sg240
g7
(g8
(I0
tp297
g10
tp298
Rp299
(I1
(I3
tp300
g247
I00
S'E\xe7\xd3\x89\x8c^P@`E!s\x17X?@c\xbf\x8d}\xaf\xf3C\xc0'
p301
tp302
bsg252
S'Cell[3].axon[185]'
p303
sI151
I92
tp304
a(F2.372980971501241
S'Cell[0].apic[22] syn_ = new ExpSid(0.3)'
p305
I0
(dp306
g237
F0.16666666666666666
sg238
F7.0
sg239
I151
sg240
g7
(g8
(I0
tp307
g10
tp308
Rp309
(I1
(I3
tp310
g247
I00
S"0\xd7\xd6\xb5'n\xea\xbf\x08\x1d\x95n\xf7\x02a@\x8e\r\x8c\x08\x0c\x171@"
p311
tp312
bsg252
S'Cell[3].axon[227]'
p313
sI151
I44
tp314
a(F2.3497972998962244
S'Cell[0].apic[40] syn_ = new ExpSid(0.1)'
p315
I0
(dp316
g237
F0.5
sg238
F7.0
sg239
I151
sg240
g7
(g8
(I0
tp317
g10
tp318
Rp319
(I1
(I3
tp320
g247
I00
S'\xc6\x8b\x9d\xa2c\x1b @\x94\x04\x9c%\x89\xd7[@\xda{]\x0b"\x91H\xc0'
p321
tp322
bsg252
S'Cell[3].axon[245]'
p323
sI151
I44
tp324
a(F2.1701317839268293
S'Cell[0].apic[36] syn_ = new ExpSid(0.5)'
p325
I0
(dp326
g237
F0.30000000000000004
sg238
F7.0
sg239
I151
sg240
g7
(g8
(I0
tp327
g10
tp328
Rp329
(I1
(I3
tp330
g247
I00
S"\xd9\x92\x1c\xc0\x1f5\x16@\xd9z'\xf0\xaa\xd6Y@\x10\xcd\x9c\xd6\xf2'J\xc0"
p331
tp332
bsg252
S'Cell[3].axon[246]'
p333
sI151
I44
tp334
a(F2.4078229386365795
S'Cell[2].dend[34] syn_ = new FastInhib(0.5)'
p335
I2
(dp336
g237
F0.16666666666666666
sg238
F7.0
sg239
I151
sg240
g7
(g8
(I0
tp337
g10
tp338
Rp339
(I1
(I3
tp340
g247
I00
S'\x1c\x07p\xb4\r\x12\xfb\xbfiD\xed\x14\xf71P\xc0\xf9`\x9f\xc8\x89\xba7\xc0'
p341
tp342
bsg252
S'Cell[3].axon[284]'
p343
sI151
I140
tp344
a(F1.5978527751235447
S'Cell[1].dend[3] syn_ = new FastInhib(0.833333333333)'
p345
I1
(dp346
g237
F0.8333333333333333
sg238
F7.0
sg239
I151
sg240
g7
(g8
(I0
tp347
g10
tp348
Rp349
(I1
(I3
tp350
g247
I00
S'v\xf1+\xc4\xfa9\xf4?\xe7\xb8\x1b\x1eZ)A\xc0I:\x96\x9e\n\xc7\r@'
p351
tp352
bsg252
S'Cell[3].axon[286]'
p353
sI151
I92
tp354
a(F1.8735805339240725
S'Cell[0].dend[15] syn_ = new AmpaNmda(0.833333333333)'
p355
I0
(dp356
S'seg'
p357
F0.5
sS'hostfrom'
p358
F8.0
sS'gid'
p359
I56
sS'coords'
p360
g7
(g8
(I0
tp361
g10
tp362
Rp363
(I1
(I3
tp364
g14
(S'f8'
p365
I0
I1
tp366
Rp367
(I3
S'<'
p368
NNNI-1
I-1
I0
tp369
bI00
S'J\x15\x91P\x96_=\xc0\xa6O@\x7f\x81\xa4\\\xc0r\xf7\xe0\xc6\x1a\x9d%\xc0'
p370
tp371
bsS'secnames'
p372
S'Cell[1].axon[8]'
p373
sI56
I44
tp374
a(F2.013292292477346
S'Cell[2].dend[19] syn_ = new FastInhib(0.3)'
p375
I2
(dp376
g357
F0.30000000000000004
sg358
F8.0
sg359
I152
sg360
g7
(g8
(I0
tp377
g10
tp378
Rp379
(I1
(I3
tp380
g367
I00
S'\x12?,[E\x11B@\xe4\x87\x9b\x11#\x13G@\xf5\x90\xe9\xf7_29\xc0'
p381
tp382
bsg372
S'Cell[3].axon[342]'
p383
sI152
I140
tp384
a(F1.6059200018801831
S'Cell[1].dend[3] syn_ = new FastInhib(0.166666666667)'
p385
I1
(dp386
g357
F0.8333333333333333
sg358
F8.0
sg359
I152
sg360
g7
(g8
(I0
tp387
g10
tp388
Rp389
(I1
(I3
tp390
g367
I00
S'\xfd\x93\x05}S\x921@\xe7\x93ls\xcb\t@\xc0A\xd2W\xde\x8f]\x06@'
p391
tp392
bsg372
S'Cell[3].axon[519]'
p393
sI152
I92
tp394
a(F1.860400433999687
S'Cell[0].apic[7] syn_ = new AmpaNmda(0.1)'
p395
I0
(dp396
g357
F0.5
sg358
F8.0
sg359
I152
sg360
g7
(g8
(I0
tp397
g10
tp398
Rp399
(I1
(I3
tp400
g367
I00
S'\x07\xcb\x9f\xdb\xc7\xe0.@\x8f\x052\x05\x19F%\xc0\x12h\xae\xf3F\x99\x1b\xc0'
p401
tp402
bsg372
S'Cell[3].axon[523]'
p403
sI152
I44
tp404
a(F2.0655119460647184
S'Cell[3].dend[38] syn_ = new FastInhib(0.166666666667)'
p405
I3
(dp406
g357
F0.16666666666666666
sg358
F8.0
sg359
I152
sg360
g7
(g8
(I0
tp407
g10
tp408
Rp409
(I1
(I3
tp410
g367
I00
S'\xbf\x9f\xb3\xdcQgK\xc0\x10\xf8{dl\xe8/@\x00\x00\x00\x80\xeb\xd1)\xc0'
p411
tp412
bsg372
S'Cell[3].axon[570]'
p413
sI152
I188
tp414
a(F1.6583337253495563
S'Cell[3].dend[45] syn_ = new FastInhib(0.5)'
p415
I3
(dp416
g357
F0.5
sg358
F8.0
sg359
I104
sg360
g7
(g8
(I0
tp417
g10
tp418
Rp419
(I1
(I3
tp420
g367
I00
S";2\x8b\x94J U@\x8b\x05\tnp%E@/S/\xec\n'\x06@"
p421
tp422
bsg372
S'Cell[2].axon[162]'
p423
sI104
I188
tp424
a(F1.9557640163498942
S'Cell[1].dend[16] syn_ = new FastInhib(0.3)'
p425
I1
(dp426
g357
F0.7
sg358
F8.0
sg359
I104
sg360
g7
(g8
(I0
tp427
g10
tp428
Rp429
(I1
(I3
tp430
g367
I00
S"B\xc3\x1c*!\xbdK@\xd2@\xdc\tZ'E\xc0\x98\x07\xfcbn\x169\xc0"
p431
tp432
bsg372
S'Cell[2].axon[164]'
p433
sI104
I92
tp434
a(F1.315402254910317
S'Cell[3].dend[31] syn_ = new FastInhib(0.5)'
p435
I3
(dp436
g357
F0.5
sg358
F8.0
sg359
I104
sg360
g7
(g8
(I0
tp437
g10
tp438
Rp439
(I1
(I3
tp440
g367
I00
S'\xe4\xc1e\xf7b\xf5N\xc0\xa7\xb3_\x04\xd4\x82Q@5\xd2\xa3\x01\x0e\x80V\xc0'
p441
tp442
bsg372
S'Cell[2].axon[364]'
p443
sI104
I188
tp444
a(F1.647774994849168
S'Cell[0].dend[15] syn_ = new ExpSid(0.5)'
p445
I0
(dp446
S'seg'
p447
F0.21428571428571427
sS'hostfrom'
p448
F9.0
sS'gid'
p449
I9
sS'coords'
p450
g7
(g8
(I0
tp451
g10
tp452
Rp453
(I1
(I3
tp454
g14
(S'f8'
p455
I0
I1
tp456
Rp457
(I3
S'<'
p458
NNNI-1
I-1
I0
tp459
bI00
S'K\xc3\xe4}\x86\x977\xc0k)\x9d\xc3\xc8\xdfU\xc0z\xf5\x97\\\xfb\xde!\xc0'
p460
tp461
bsS'secnames'
p462
S'Cell[0].axon[4]'
p463
sI9
I44
tp464
a(F1.1618009235455096
S'Cell[1].dend[24] syn_ = new FastInhib(0.423076923077)'
p465
I1
(dp466
g447
F0.21428571428571427
sg448
F9.0
sg449
I105
sg450
g7
(g8
(I0
tp467
g10
tp468
Rp469
(I1
(I3
tp470
g457
I00
S"\xb1\xfc\x15K\xac\xc5L@\x0e'\x0cu\xcb\xdb`@\xcb\xeb\xf2\x15\xed\xacU\xc0"
p471
tp472
bsg462
S'Cell[2].axon[18]'
p473
sI105
I92
tp474
a(F0.6437560484455387
S'Cell[1].dend[30] syn_ = new FastInhib(0.833333333333)'
p475
I1
(dp476
S'seg'
p477
F0.8333333333333333
sS'hostfrom'
p478
F10.0
sS'gid'
p479
I106
sS'coords'
p480
g7
(g8
(I0
tp481
g10
tp482
Rp483
(I1
(I3
tp484
g14
(S'f8'
p485
I0
I1
tp486
Rp487
(I3
S'<'
p488
NNNI-1
I-1
I0
tp489
bI00
S'\x9e\x81\xe7i\x9d\xa1O@\xdaOF\x1a\x7f[B\xc0\x00M\xaa\xc9\x95xF\xc0'
p490
tp491
bsS'secnames'
p492
S'Cell[2].axon[162]'
p493
sI106
I92
tp494
a(F2.012699480263314
S'Cell[0].apic[10] syn_ = new AmpaNmda(0.5)'
p495
I0
(dp496
g477
F0.8333333333333333
sg478
F10.0
sg479
I106
sg480
g7
(g8
(I0
tp497
g10
tp498
Rp499
(I1
(I3
tp500
g487
I00
S'\xee\xc1\xbb\xe9\x7f\xf9I\xc0L\x15u\x93tO\x15\xc0\xc2\xbed\x8eI\xb4\x12\xc0'
p501
tp502
bsg492
S'Cell[2].axon[177]'
p503
sI106
I44
tp504
a(F2.3085032269681354
S'Cell[3].dend[46] syn_ = new FastInhib(0.5)'
p505
I3
(dp506
g477
F0.5
sg478
F10.0
sg479
I106
sg480
g7
(g8
(I0
tp507
g10
tp508
Rp509
(I1
(I3
tp510
g487
I00
S"\xe2\xde\xd5\x1a{\xa75@\x1b-\xd6QlZ\x0e@\xa8v,\x0b\xc1\xfc'@"
p511
tp512
bsg492
S'Cell[2].axon[190]'
p513
sI106
I188
tp514
a(F1.2790026991436831
S'Cell[1].dend[42] syn_ = new FastInhib(0.0454545454545)'
p515
I1
(dp516
g477
F0.8333333333333333
sg478
F10.0
sg479
I106
sg480
g7
(g8
(I0
tp517
g10
tp518
Rp519
(I1
(I3
tp520
g487
I00
S'0\xfb\x06BJ\x8a,@\x81o\xf8\x1e\xab\xf7U@\x88t3y\xb1\x866\xc0'
p521
tp522
bsg492
S'Cell[2].axon[306]'
p523
sI106
I92
tp524
a(F2.100165682391296
S'Cell[1].dend[42] syn_ = new FastInhib(0.0454545454545)'
p525
I1
(dp526
g477
F0.5
sg478
F10.0
sg479
I106
sg480
g7
(g8
(I0
tp527
g10
tp528
Rp529
(I1
(I3
tp530
g487
I00
S'}QbB \x84+@\\\xcc\\\x83\xa3\xc5U@\x8fq\xe8\xf7\xc2i6\xc0'
p531
tp532
bsg492
S'Cell[2].axon[343]'
p533
sI106
I92
tp534
a(F2.281191934729925
S'Cell[1].dend[32] syn_ = new FastInhib(0.166666666667)'
p535
I1
(dp536
g477
F0.11538461538461539
sg478
F10.0
sg479
I58
sg480
g7
(g8
(I0
tp537
g10
tp538
Rp539
(I1
(I3
tp540
g487
I00
S'\xf9Ty\xc2\x01LC@^\xd3Q\xa0y\xb9>@v`8\x1e\x91F\x10\xc0'
p541
tp542
bsg492
S'Cell[1].axon[36]'
p543
sI58
I92
tp544
a(F2.2841260901231313
S'Cell[0].dend[28] syn_ = new AmpaNmda(0.166666666667)'
p545
I0
(dp546
g477
F0.11904761904761904
sg478
F10.0
sg479
I154
sg480
g7
(g8
(I0
tp547
g10
tp548
Rp549
(I1
(I3
tp550
g487
I00
S"Y\xa9\x10l\xc8\x139@Y\xc5\xf3J>\x94B\xc0k\xe6'\x04)\x14?@"
p551
tp552
bsg492
S'Cell[3].axon[21]'
p553
sI154
I44
tp554
a(F2.1476759135246057
S'Cell[3].dend[48] syn_ = new FastInhib(0.5)'
p555
I3
(dp556
S'seg'
p557
F0.3571428571428571
sS'hostfrom'
p558
F11.0
sS'gid'
p559
I59
sS'coords'
p560
g7
(g8
(I0
tp561
g10
tp562
Rp563
(I1
(I3
tp564
g14
(S'f8'
p565
I0
I1
tp566
Rp567
(I3
S'<'
p568
NNNI-1
I-1
I0
tp569
bI00
S'p\xc1\x01H\xba>S@\x03\xe6~g\xac\xef\x16\xc0\xde\xfb\x92OU\x9a7@'
p570
tp571
bsS'secnames'
p572
S'Cell[1].axon[14]'
p573
sI59
I188
tp574
a(F1.4865160866244107
S'Cell[0].apic[32] syn_ = new ExpSid(0.1)'
p575
I0
(dp576
g557
F0.5
sg558
F11.0
sg559
I155
sg560
g7
(g8
(I0
tp577
g10
tp578
Rp579
(I1
(I3
tp580
g567
I00
S'j5\xe9C\xa7\xd6)@u\xfa\x1f\x15\xe8\xf9X@&\xaf4p\x02w7\xc0'
p581
tp582
bsg572
S'Cell[3].axon[57]'
p583
sI155
I44
tp584
a(F1.4896931896117103
S'Cell[1].dend[22] syn_ = new FastInhib(0.5)'
p585
I1
(dp586
g557
F0.5
sg558
F11.0
sg559
I155
sg560
g7
(g8
(I0
tp587
g10
tp588
Rp589
(I1
(I3
tp590
g567
I00
S'J\x91m\x83\x82\x88\'@:\xb8\x81s\xe3\x1c\xea\xbf\xc1"_\x17\xfaU\x14@'
p591
tp592
bsg572
S'Cell[3].axon[157]'
p593
sI155
I92
tp594
a(F1.6665848106699628
S'Cell[1].dend[3] syn_ = new FastInhib(0.833333333333)'
p595
I1
(dp596
g557
F0.5
sg558
F11.0
sg559
I155
sg560
g7
(g8
(I0
tp597
g10
tp598
Rp599
(I1
(I3
tp600
g567
I00
S'u\x9f:y\x98R\xe0\xbf\xd5v\x1c\xa9(E@\xc0\xfaQ\xf3[\x8dF\x06@'
p601
tp602
bsg572
S'Cell[3].axon[220]'
p603
sI155
I92
tp604
a(F2.3727179495600343
S'Cell[0].apic[2] syn_ = new AmpaNmda(0.1)'
p605
I0
(dp606
S'seg'
p607
F0.30000000000000004
sS'hostfrom'
p608
F12.0
sS'gid'
p609
I156
sS'coords'
p610
g7
(g8
(I0
tp611
g10
tp612
Rp613
(I1
(I3
tp614
g14
(S'f8'
p615
I0
I1
tp616
Rp617
(I3
S'<'
p618
NNNI-1
I-1
I0
tp619
bI00
S'd\x925&G7>@\xe2\xa4\r\xa1\xb9\\?\xc0Y\x1aYneq\xed\xbf'
p620
tp621
bsS'secnames'
p622
S'Cell[3].axon[536]'
p623
sI156
I44
tp624
a(F1.3676674082427858
S'Cell[1].dend[19] syn_ = new FastInhib(0.5)'
p625
I1
(dp626
S'seg'
p627
F0.5
sS'hostfrom'
p628
F13.0
sS'gid'
p629
I109
sS'coords'
p630
g7
(g8
(I0
tp631
g10
tp632
Rp633
(I1
(I3
tp634
g14
(S'f8'
p635
I0
I1
tp636
Rp637
(I3
S'<'
p638
NNNI-1
I-1
I0
tp639
bI00
S'p\x99\x7fo\t\xe6T@\xac\xa0\xfa\xe2"\x14L\xc07?c\x1e\x9a>\x12@'
p640
tp641
bsS'secnames'
p642
S'Cell[2].axon[135]'
p643
sI109
I92
tp644
a(F1.7876494061375086
S'Cell[0].dend[0] syn_ = new AmpaNmda(0.1)'
p645
I0
(dp646
S'seg'
p647
F0.5
sS'hostfrom'
p648
F14.0
sS'gid'
p649
I110
sS'coords'
p650
g7
(g8
(I0
tp651
g10
tp652
Rp653
(I1
(I3
tp654
g14
(S'f8'
p655
I0
I1
tp656
Rp657
(I3
S'<'
p658
NNNI-1
I-1
I0
tp659
bI00
S'\x1b\xbc\x08\xc7E\xd7\x1c\xc0\x88\xdf\x90[[4H\xc0\x00\x00\x00\x80\xc2u6@'
p660
tp661
bsS'secnames'
p662
S'Cell[2].axon[81]'
p663
sI110
I44
tp664
a(F1.798772353902129
S'Cell[1].dend[30] syn_ = new FastInhib(0.166666666667)'
p665
I1
(dp666
g647
F0.49999999999999994
sg648
F14.0
sg649
I110
sg650
g7
(g8
(I0
tp667
g10
tp668
Rp669
(I1
(I3
tp670
g657
I00
S'\xab\xa8\xa4#\xd7YO@\xc0\xacI&\xd5n2\xc0\x00\x00\x00@\n\x17C\xc0'
p671
tp672
bsg662
S'Cell[2].axon[105]'
p673
sI110
I92
tp674
a(F2.4346468759994058
S'Cell[0].apic[43] syn_ = new AmpaNmda(0.5)'
p675
I0
(dp676
g647
F0.5
sg648
F14.0
sg649
I110
sg650
g7
(g8
(I0
tp677
g10
tp678
Rp679
(I1
(I3
tp680
g657
I00
S'y\x83BXQ\xc7\x14@\xa4\x98\x9f\xd8\xb6\xae5@\x84\xbe\xb2\xb4\xcf\xed\xf9?'
p681
tp682
bsg662
S'Cell[2].axon[127]'
p683
sI110
I44
tp684
a(F2.436515133495462
S'Cell[0].apic[32] syn_ = new ExpSid(0.5)'
p685
I0
(dp686
S'seg'
p687
F0.5
sS'hostfrom'
p688
F15.0
sS'gid'
p689
I111
sS'coords'
p690
g7
(g8
(I0
tp691
g10
tp692
Rp693
(I1
(I3
tp694
g14
(S'f8'
p695
I0
I1
tp696
Rp697
(I3
S'<'
p698
NNNI-1
I-1
I0
tp699
bI00
S'.\xd5\xb9\xaa\x8b\x94<@\xa5\xfb\xbc\xc4f\xb5b@\x90\x97\xdc\xc5k,D\xc0'
p700
tp701
bsS'secnames'
p702
S'Cell[2].axon[12]'
p703
sI111
I44
tp704
a(F1.6378276668506855
S'Cell[1].dend[16] syn_ = new FastInhib(0.9)'
p705
I1
(dp706
g687
F0.21428571428571427
sg688
F15.0
sg689
I111
sg690
g7
(g8
(I0
tp707
g10
tp708
Rp709
(I1
(I3
tp710
g697
I00
S'\x9a\xc9\xf1Z!\x10T@P\xe0\xaf\x1f\x9c\xbbP\xc0$Z\xc9`\xb7\xaaP\xc0'
p711
tp712
bsg702
S'Cell[2].axon[229]'
p713
sI111
I92
tp714
a(F1.686388979065302
S'Cell[1].dend[29] syn_ = new FastInhib(0.833333333333)'
p715
I1
(dp716
g687
F0.5
sg688
F15.0
sg689
I111
sg690
g7
(g8
(I0
tp717
g10
tp718
Rp719
(I1
(I3
tp720
g697
I00
S'|\xd4*\xc8i\x9dN@J}\xf5m\x8d\xb6$\xc0\x86\x8cg%&\x8f@\xc0'
p721
tp722
bsg702
S'Cell[2].axon[328]'
p723
sI111
I92
tp724
a(F0.9971852547535357
S'Cell[2].dend[6] syn_ = new FastInhib(0.1)'
p725
I2
(dp726
S'seg'
p727
F0.03333333333333333
sS'hostfrom'
p728
F16.0
sS'gid'
p729
I64
sS'coords'
p730
g7
(g8
(I0
tp731
g10
tp732
Rp733
(I1
(I3
tp734
g14
(S'f8'
p735
I0
I1
tp736
Rp737
(I3
S'<'
p738
NNNI-1
I-1
I0
tp739
bI00
S'\x8c\xb5\xdc\x8b\x81F7@\xe4\xf3\xdc,I\x8f*@\xb9>\xfdg\xd4\xd5V\xc0'
p740
tp741
bsS'secnames'
p742
S'Cell[1].axon[0]'
p743
sI64
I140
tp744
a(F2.194744504169332
S'Cell[0].dend[22] syn_ = new AmpaNmda(0.5)'
p745
I0
(dp746
g727
F0.30000000000000004
sg728
F16.0
sg729
I112
sg730
g7
(g8
(I0
tp747
g10
tp748
Rp749
(I1
(I3
tp750
g737
I00
S"\xa0G\xfe\xbeX\xf12@,\xdcm\xa4\x87\x1dH\xc0\x14\xa3d\x1e!\x97'@"
p751
tp752
bsg742
S'Cell[2].axon[9]'
p753
sI112
I44
tp754
a(F2.4901285133938926
S'Cell[3].dend[37] syn_ = new FastInhib(0.5)'
p755
I3
(dp756
g727
F0.16666666666666666
sg728
F16.0
sg729
I112
sg730
g7
(g8
(I0
tp757
g10
tp758
Rp759
(I1
(I3
tp760
g737
I00
S'.*\x1a\x93{aN\xc0\xd0\xcc<\xf2\x85\x7f\xfb?\x860%\xda\xdf\x88/\xc0'
p761
tp762
bsg742
S'Cell[2].axon[33]'
p763
sI112
I188
tp764
a(F2.1060918880997592
S'Cell[1].dend[15] syn_ = new FastInhib(0.928571428571)'
p765
I1
(dp766
S'seg'
p767
F0.8333333333333333
sS'hostfrom'
p768
F17.0
sS'gid'
p769
I113
sS'coords'
p770
g7
(g8
(I0
tp771
g10
tp772
Rp773
(I1
(I3
tp774
g14
(S'f8'
p775
I0
I1
tp776
Rp777
(I3
S'<'
p778
NNNI-1
I-1
I0
tp779
bI00
S'`Ia\xe6\x85?@@\xcf2E\x87\x0c\x88d\xc0\xa0\xd7*\xf5_\xc8\x02@'
p780
tp781
bsS'secnames'
p782
S'Cell[2].axon[287]'
p783
sI113
I92
tp784
a(F2.3670621612388976
S'Cell[2].dend[19] syn_ = new FastInhib(0.1)'
p785
I2
(dp786
g767
F0.5
sg768
F17.0
sg769
I113
sg770
g7
(g8
(I0
tp787
g10
tp788
Rp789
(I1
(I3
tp790
g777
I00
S')\x1e\x00wu\xee @l\x0e(\xb4u\x819@4\xcd\r\r\xf4c,\xc0'
p791
tp792
bsg782
S'Cell[2].axon[512]'
p793
sI113
I140
tp794
a(F1.8972139442330618
S'Cell[1].dend[40] syn_ = new FastInhib(0.5)'
p795
I1
(dp796
g767
F0.16666666666666666
sg768
F17.0
sg769
I161
sg770
g7
(g8
(I0
tp797
g10
tp798
Rp799
(I1
(I3
tp800
g777
I00
S'\x1c\x84m\xf4~\xe15@\xb9\x14\x89\x93Q\x1eC@\x00\x00\x00\xc0\xf5\xa8&\xc0'
p801
tp802
bsg782
S'Cell[3].axon[120]'
p803
sI161
I92
tp804
a(F1.6492224295387192
S'Cell[1].dend[32] syn_ = new FastInhib(0.166666666667)'
p805
I1
(dp806
g767
F0.5
sg768
F17.0
sg769
I161
sg770
g7
(g8
(I0
tp807
g10
tp808
Rp809
(I1
(I3
tp810
g777
I00
S'\x00\x00\x00\x10\xd7\x03C@\x00\x00\x00 \xae\x07?@\x00\x00\x00<\nW\x12\xc0'
p811
tp812
bsg782
S'Cell[3].axon[128]'
p813
sI161
I92
tp814
a(F2.136020877108085
S'Cell[1].dend[16] syn_ = new FastInhib(0.1)'
p815
I1
(dp816
g767
F0.16666666666666666
sg768
F17.0
sg769
I65
sg770
g7
(g8
(I0
tp817
g10
tp818
Rp819
(I1
(I3
tp820
g777
I00
S'k\xee\x1e\xfe\x93\xc6E@\xfd\x0c\xdf\x04\xe2^A\xc0\x00\x00\x00@\n\xd72\xc0'
p821
tp822
bsg782
S'Cell[1].axon[11]'
p823
sI65
I92
tp824
a(F2.3086466164482866
S'Cell[0].dend[15] syn_ = new AmpaNmda(0.166666666667)'
p825
I0
(dp826
S'seg'
p827
F0.8333333333333333
sS'hostfrom'
p828
F18.0
sS'gid'
p829
I18
sS'coords'
p830
g7
(g8
(I0
tp831
g10
tp832
Rp833
(I1
(I3
tp834
g14
(S'f8'
p835
I0
I1
tp836
Rp837
(I3
S'<'
p838
NNNI-1
I-1
I0
tp839
bI00
S'\xb5\xb6\xe3\x94\x94\xb9"\xc0\x9a%\xdf\xd1\xe9\xcfM\xc0\x00\x00\x00\x80\xebQ%\xc0'
p840
tp841
bsS'secnames'
p842
S'Cell[0].axon[0]'
p843
sI18
I44
tp844
a(F1.422165286948639
S'Cell[1].dend[15] syn_ = new FastInhib(0.5)'
p845
I1
(dp846
g827
F0.5
sg828
F18.0
sg829
I114
sg830
g7
(g8
(I0
tp847
g10
tp848
Rp849
(I1
(I3
tp850
g837
I00
S'8!\x13\xc7P?C@CE\xd2\x0c\r\xa6X\xc0,\x93\x94\x12=8\r\xc0'
p851
tp852
bsg842
S'Cell[2].axon[166]'
p853
sI114
I92
tp854
a(F2.178946490299202
S'Cell[3].dend[25] syn_ = new FastInhib(0.166666666667)'
p855
I3
(dp856
g827
F0.8333333333333333
sg828
F18.0
sg829
I162
sg830
g7
(g8
(I0
tp857
g10
tp858
Rp859
(I1
(I3
tp860
g837
I00
S'\xf4\x0bl\xdf\xc6\xed)\xc0\xc4<3X\xd4\xfa\x1e@\xae\x86\xd8\xe0\xd6W@\xc0'
p861
tp862
bsg842
S'Cell[3].axon[102]'
p863
sI162
I188
tp864
a(F2.2989497507639136
S'Cell[0].apic[45] syn_ = new AmpaNmda(0.5)'
p865
I0
(dp866
g827
F0.5
sg828
F18.0
sg829
I162
sg830
g7
(g8
(I0
tp867
g10
tp868
Rp869
(I1
(I3
tp870
g837
I00
S'!g>z\xfb\xc1\x1d\xc0X\x99/|\xb0\x18E@A\xed\x17f\x06\xc28@'
p871
tp872
bsg842
S'Cell[3].axon[185]'
p873
sI162
I44
tp874
a(F1.6485036149576655
S'Cell[1].dend[46] syn_ = new FastInhib(0.166666666667)'
p875
I1
(dp876
g827
F0.07142857142857142
sg828
F18.0
sg829
I162
sg830
g7
(g8
(I0
tp877
g10
tp878
Rp879
(I1
(I3
tp880
g837
I00
S'\xa3m\xd0\x00o\x08%@:Y\xc4\x00&{G@\xa3\x84h1c\xc0&\xc0'
p881
tp882
bsg842
S'Cell[3].axon[186]'
p883
sI162
I92
tp884
a(F2.209612096463937
S'Cell[0].apic[22] syn_ = new ExpSid(0.9)'
p885
I0
(dp886
S'seg'
p887
F0.8999999999999999
sS'hostfrom'
p888
F19.0
sS'gid'
p889
I115
sS'coords'
p890
g7
(g8
(I0
tp891
g10
tp892
Rp893
(I1
(I3
tp894
g14
(S'f8'
p895
I0
I1
tp896
Rp897
(I3
S'<'
p898
NNNI-1
I-1
I0
tp899
bI00
S',\x87\xb5\xe8\x12z\x0e\xc0\x1a\x85u\xcf\x1a\x86g@\x82\xf9\x13A1\xec4@'
p900
tp901
bsS'secnames'
p902
S'Cell[2].axon[228]'
p903
sI115
I44
tp904
a(F1.5310666576882683
S'Cell[2].dend[38] syn_ = new FastInhib(0.5)'
p905
I2
(dp906
g887
F0.5
sg888
F19.0
sg889
I67
sg890
g7
(g8
(I0
tp907
g10
tp908
Rp909
(I1
(I3
tp910
g897
I00
S'\xd1\xb5\x10\xb5n\x94)\xc0F\x11o\xfb\xd1FR\xc0l\xfd\x8c\xc8\x1f\xfc3@'
p911
tp912
bsg902
S'Cell[1].axon[4]'
p913
sI67
I140
tp914
a(F2.493309353999256
S'Cell[2].dend[15] syn_ = new FastInhib(0.5)'
p915
I2
(dp916
S'seg'
p917
F0.2777777777777778
sS'hostfrom'
p918
F20.0
sS'gid'
p919
I68
sS'coords'
p920
g7
(g8
(I0
tp921
g10
tp922
Rp923
(I1
(I3
tp924
g14
(S'f8'
p925
I0
I1
tp926
Rp927
(I3
S'<'
p928
NNNI-1
I-1
I0
tp929
bI00
S'\xa9\xbc\x84\xbf\x80\xfbY\xc0\xbf(\xe8k$HS@\xb6\xee?\xa74(3@'
p930
tp931
bsS'secnames'
p932
S'Cell[1].axon[16]'
p933
sI68
I140
tp934
a(F2.4290142822541676
S'Cell[0].dend[19] syn_ = new AmpaNmda(0.5)'
p935
I0
(dp936
g917
F0.16666666666666666
sg918
F20.0
sg919
I68
sg920
g7
(g8
(I0
tp937
g10
tp938
Rp939
(I1
(I3
tp940
g927
I00
S'\x00\x92\xe8p\x99^6@\xf8c-W\x07\x9dM\xc0}=\xa9\xbf{\xac\x15@'
p941
tp942
bsg932
S'Cell[1].axon[29]'
p943
sI68
I44
tp944
a(F1.2210616010061228
S'Cell[3].dend[12] syn_ = new FastInhib(0.5)'
p945
I3
(dp946
g917
F0.5
sg918
F20.0
sg919
I116
sg920
g7
(g8
(I0
tp947
g10
tp948
Rp949
(I1
(I3
tp950
g927
I00
S'X\x90\xbc\x9e\xa0\xc1K\xc0\xfa[\xa9\r\x82\xb92\xc02\xdd\x89\xc3\xf4\xa3H\xc0'
p951
tp952
bsg932
S'Cell[2].axon[85]'
p953
sI116
I188
tp954
a(F1.3838301007489844
S'Cell[0].dend[23] syn_ = new ExpSid(0.5)'
p955
I0
(dp956
S'seg'
p957
F0.16666666666666666
sS'hostfrom'
p958
F21.0
sS'gid'
p959
I165
sS'coords'
p960
g7
(g8
(I0
tp961
g10
tp962
Rp963
(I1
(I3
tp964
g14
(S'f8'
p965
I0
I1
tp966
Rp967
(I3
S'<'
p968
NNNI-1
I-1
I0
tp969
bI00
S'\x1aq\xcce\xc8\x02;@WB\xcf\xa4n\tH\xc0D\x87;t\xfd\xde2@'
p970
tp971
bsS'secnames'
p972
S'Cell[3].axon[233]'
p973
sI165
I44
tp974
a(F1.1000316221389268
S'Cell[2].dend[19] syn_ = new FastInhib(0.3)'
p975
I2
(dp976
g957
F0.5
sg958
F21.0
sg959
I117
sg960
g7
(g8
(I0
tp977
g10
tp978
Rp979
(I1
(I3
tp980
g967
I00
S'\xa8\xe1\xe45\xf2\xa3A@\x91k\xc5\x9f\rtF@\x00\x00\x00\x80\xc2u9\xc0'
p981
tp982
bsg972
S'Cell[2].axon[34]'
p983
sI117
I140
tp984
a(F1.7819250795496537
S'Cell[3].dend[44] syn_ = new FastInhib(0.5)'
p985
I3
(dp986
g957
F0.5
sg958
F21.0
sg959
I117
sg960
g7
(g8
(I0
tp987
g10
tp988
Rp989
(I1
(I3
tp990
g967
I00
S'\xb2[]\xcd"ER@\x02\xe5\xa9\x1b\xe8\xcdI@\xff\xff\xff\x7f\xc2u9\xc0'
p991
tp992
bsg972
S'Cell[2].axon[40]'
p993
sI117
I188
tp994
a(F1.7863047584661809
S'Cell[0].apic[32] syn_ = new ExpSid(0.1)'
p995
I0
(dp996
g957
F0.5
sg958
F21.0
sg959
I117
sg960
g7
(g8
(I0
tp997
g10
tp998
Rp999
(I1
(I3
tp1000
g967
I00
S'\x00\x00\x00\x80\x14\xee,@\x00\x00\x00\xc0\xf58Y@\x00\x00\x00\x80\xc2u9\xc0'
p1001
tp1002
bsg972
S'Cell[2].axon[516]'
p1003
sI117
I44
tp1004
a(F2.4411528810770777
S'Cell[0].apic[2] syn_ = new ExpSid(0.5)'
p1005
I0
(dp1006
g957
F0.5
sg958
F21.0
sg959
I21
sg960
g7
(g8
(I0
tp1007
g10
tp1008
Rp1009
(I1
(I3
tp1010
g967
I00
S'\xb2\x0b5\xd5\r0L@]\x7f\xce\xf1\x08\xeaH\xc0\x00\x00\x00\xc0\x1e\x85\xf3\xbf'
p1011
tp1012
bsg972
S'Cell[0].axon[0]'
p1013
sI21
I44
tp1014
a(F2.293090399302698
S'Cell[2].dend[2] syn_ = new FastInhib(0.166666666667)'
p1015
I2
(dp1016
S'seg'
p1017
F0.8999999999999999
sS'hostfrom'
p1018
F22.0
sS'gid'
p1019
I70
sS'coords'
p1020
g7
(g8
(I0
tp1021
g10
tp1022
Rp1023
(I1
(I3
tp1024
g14
(S'f8'
p1025
I0
I1
tp1026
Rp1027
(I3
S'<'
p1028
NNNI-1
I-1
I0
tp1029
bI00
S'\xb0k\xc2\xcb\x04\x0e!\xc0\x92\xdd2\xda&x.@Ym\xd8\xf0\xf9P?\xc0'
p1030
tp1031
bsS'secnames'
p1032
S'Cell[1].axon[10]'
p1033
sI70
I140
tp1034
a(F1.5263843913968713
S'Cell[2].dend[14] syn_ = new FastInhib(0.1)'
p1035
I2
(dp1036
S'seg'
p1037
F0.8333333333333333
sS'hostfrom'
p1038
F23.0
sS'gid'
p1039
I167
sS'coords'
p1040
g7
(g8
(I0
tp1041
g10
tp1042
Rp1043
(I1
(I3
tp1044
g14
(S'f8'
p1045
I0
I1
tp1046
Rp1047
(I3
S'<'
p1048
NNNI-1
I-1
I0
tp1049
bI00
S"6\x8a\x85\xae\xc1\x8f.\xc0\xb6\xf97]\xccC3@!\xb0V\xa77y'\xc0"
p1050
tp1051
bsS'secnames'
p1052
S'Cell[3].axon[164]'
p1053
sI167
I140
tp1054
a(F2.387193774372924
S'Cell[1].dend[47] syn_ = new FastInhib(0.166666666667)'
p1055
I1
(dp1056
g1037
F0.5
sg1038
F23.0
sg1039
I167
sg1040
g7
(g8
(I0
tp1057
g10
tp1058
Rp1059
(I1
(I3
tp1060
g1047
I00
S"\xa0\x89\xff\xbc\x93\xbf'@\x98\xce\xe3\xe33\xf8;@Pi\xdc\n\xdfz*\xc0"
p1061
tp1062
bsg1052
S'Cell[3].axon[166]'
p1063
sI167
I92
tp1064
a(F1.4323301145199385
S'Cell[2].dend[30] syn_ = new FastInhib(0.5)'
p1065
I2
(dp1066
g1037
F0.5
sg1038
F23.0
sg1039
I167
sg1040
g7
(g8
(I0
tp1067
g10
tp1068
Rp1069
(I1
(I3
tp1070
g1047
I00
S'\xdc\xb7\xc3k\x96\xbdC\xc0\x15\xde\xbd\xf8\xc0\xd6H\xc0\xae\x91\xb0G\xa0h\x19\xc0'
p1071
tp1072
bsg1052
S'Cell[3].axon[183]'
p1073
sI167
I140
tp1074
a(F1.999658879950556
S'Cell[3].dend[7] syn_ = new FastInhib(0.833333333333)'
p1075
I3
(dp1076
S'seg'
p1077
F0.30000000000000004
sS'hostfrom'
p1078
F24.0
sS'gid'
p1079
I168
sS'coords'
p1080
g7
(g8
(I0
tp1081
g10
tp1082
Rp1083
(I1
(I3
tp1084
g14
(S'f8'
p1085
I0
I1
tp1086
Rp1087
(I3
S'<'
p1088
NNNI-1
I-1
I0
tp1089
bI00
S'\xb4\xfc\n\x91\x84\xdfC\xc0\x89o\xba\xa0zJO\xc0\x00\x00\x00\xc0\xcc\xdcQ\xc0'
p1090
tp1091
bsS'secnames'
p1092
S'Cell[3].axon[161]'
p1093
sI168
I188
tp1094
a(F1.3233589621879005
S'Cell[3].dend[7] syn_ = new FastInhib(0.833333333333)'
p1095
I3
(dp1096
g1077
F0.5
sg1078
F24.0
sg1079
I168
sg1080
g7
(g8
(I0
tp1097
g10
tp1098
Rp1099
(I1
(I3
tp1100
g1087
I00
S'\x1b\x18\x84uJXC\xc0%\x97\xa8\x13G\x1fN\xc0\x00\x00\x00\xc0\xcc\xdcQ\xc0'
p1101
tp1102
bsg1092
S'Cell[3].axon[329]'
p1103
sI168
I188
tp1104
a(F2.423011375577856
S'Cell[1].dend[15] syn_ = new FastInhib(0.357142857143)'
p1105
I1
(dp1106
g1077
F0.5
sg1078
F24.0
sg1079
I120
sg1080
g7
(g8
(I0
tp1107
g10
tp1108
Rp1109
(I1
(I3
tp1110
g1087
I00
S'\x81\xd2\rC\xb0\x1cD@\x91X\xc0\x0b\xe4\xa9S\xc0\x00\x00\x00 \x85k&\xc0'
p1111
tp1112
bsg1092
S'Cell[2].axon[81]'
p1113
sI120
I92
tp1114
a(F1.0959509899519024
S'Cell[2].dend[29] syn_ = new FastInhib(0.166666666667)'
p1115
I2
(dp1116
g1077
F0.5
sg1078
F24.0
sg1079
I120
sg1080
g7
(g8
(I0
tp1117
g10
tp1118
Rp1119
(I1
(I3
tp1120
g1087
I00
S'~\x1b\x16e+b$\xc0\xf0^\xbe\xd4\xef\x17>\xc0\x19\xea\x08^\x9c\x05\xe4?'
p1121
tp1122
bsg1092
S'Cell[2].axon[288]'
p1123
sI120
I140
tp1124
a(F1.0066695813519815
S'Cell[2].dend[14] syn_ = new FastInhib(0.1)'
p1125
I2
(dp1126
S'seg'
p1127
F0.5
sS'hostfrom'
p1128
F25.0
sS'gid'
p1129
I121
sS'coords'
p1130
g7
(g8
(I0
tp1131
g10
tp1132
Rp1133
(I1
(I3
tp1134
g14
(S'f8'
p1135
I0
I1
tp1136
Rp1137
(I3
S'<'
p1138
NNNI-1
I-1
I0
tp1139
bI00
S'\x8c\xbfN\x1atu.\xc0\x11\xd9\xde\r0\x1e4@\x16\xc0\xce\xeb\x82\x10*\xc0'
p1140
tp1141
bsS'secnames'
p1142
S'Cell[2].axon[101]'
p1143
sI121
I140
tp1144
a(F2.0874968846353825
S'Cell[0].dend[9] syn_ = new ExpSid(0.166666666667)'
p1145
I0
(dp1146
g1127
F0.5
sg1128
F25.0
sg1129
I121
sg1130
g7
(g8
(I0
tp1147
g10
tp1148
Rp1149
(I1
(I3
tp1150
g1137
I00
S"\x83v\x1br\xa4\xc4T\xc0,|\xe8'\xe2\xf7D\xc0\x9f\xcb\xb7\x17\n6\xeb?"
p1151
tp1152
bsg1142
S'Cell[2].axon[255]'
p1153
sI121
I44
tp1154
a(F1.8742864703687172
S'Cell[3].dend[41] syn_ = new FastInhib(0.9)'
p1155
I3
(dp1156
g1127
F0.7857142857142856
sg1128
F25.0
sg1129
I169
sg1130
g7
(g8
(I0
tp1157
g10
tp1158
Rp1159
(I1
(I3
tp1160
g1137
I00
S'\xf0\xaa\x8cCsIY\xc0\x9e`\xd6Lj\xb6&\xc0\xd5&\xe9\xdc\\\x9eM\xc0'
p1161
tp1162
bsg1142
S'Cell[3].axon[171]'
p1163
sI169
I188
tp1164
a(F0.7513706393419287
S'Cell[0].dend[8] syn_ = new ExpSid(0.5)'
p1165
I0
(dp1166
g1127
F0.8333333333333333
sg1128
F25.0
sg1129
I169
sg1130
g7
(g8
(I0
tp1167
g10
tp1168
Rp1169
(I1
(I3
tp1170
g1137
I00
S'8BQ,kyI\xc0a\xee5\xf4\xe4hB\xc0\x9a~k\x07\xa3e\x12\xc0'
p1171
tp1172
bsg1142
S'Cell[3].axon[192]'
p1173
sI169
I44
tp1174
a(F0.7113839649088496
S'Cell[0].apic[17] syn_ = new AmpaNmda(0.928571428571)'
p1175
I0
(dp1176
S'seg'
p1177
F0.1
sS'hostfrom'
p1178
F26.0
sS'gid'
p1179
I170
sS'coords'
p1180
g7
(g8
(I0
tp1181
g10
tp1182
Rp1183
(I1
(I3
tp1184
g14
(S'f8'
p1185
I0
I1
tp1186
Rp1187
(I3
S'<'
p1188
NNNI-1
I-1
I0
tp1189
bI00
S'\xd4\x8e|W[X[\xc0}\x88\t\xdbdgh@\x1e.\xe9\xd6`\x01&@'
p1190
tp1191
bsS'secnames'
p1192
S'Cell[3].axon[424]'
p1193
sI170
I44
tp1194
a(F2.3109980643724692
S'Cell[0].dend[13] syn_ = new ExpSid(0.5)'
p1195
I0
(dp1196
S'seg'
p1197
F0.13636363636363635
sS'hostfrom'
p1198
F27.0
sS'gid'
p1199
I75
sS'coords'
p1200
g7
(g8
(I0
tp1201
g10
tp1202
Rp1203
(I1
(I3
tp1204
g14
(S'f8'
p1205
I0
I1
tp1206
Rp1207
(I3
S'<'
p1208
NNNI-1
I-1
I0
tp1209
bI00
S'\xea\xa5\xb8\xaf\xb4\xc4\x11@F!ks\xa8\x87F\xc0\x00\x00\x00@\n\xd7/\xc0'
p1210
tp1211
bsS'secnames'
p1212
S'Cell[1].axon[14]'
p1213
sI75
I44
tp1214
a(F2.0966286578595335
S'Cell[1].dend[15] syn_ = new FastInhib(0.0714285714286)'
p1215
I1
(dp1216
g1197
F0.3571428571428571
sg1198
F27.0
sg1199
I27
sg1200
g7
(g8
(I0
tp1217
g10
tp1218
Rp1219
(I1
(I3
tp1220
g1207
I00
S'\xf8\xe6\xab\x1b\x9c?B@\x88Q\xef\xec\xf7\x80C\xc0Ue\xeb}\x1a\x16+\xc0'
p1221
tp1222
bsg1212
S'Cell[0].axon[37]'
p1223
sI27
I92
tp1224
a(F1.478066475607571
S'Cell[1].dend[10] syn_ = new FastInhib(0.357142857143)'
p1225
I1
(dp1226
S'seg'
p1227
F0.8333333333333333
sS'hostfrom'
p1228
F28.0
sS'gid'
p1229
I172
sS'coords'
p1230
g7
(g8
(I0
tp1231
g10
tp1232
Rp1233
(I1
(I3
tp1234
g14
(S'f8'
p1235
I0
I1
tp1236
Rp1237
(I3
S'<'
p1238
NNNI-1
I-1
I0
tp1239
bI00
S'1\x12\x81\x1f\xc0d5\xc0\xd2\x10o\xb3-\xc0\xfa?\x17\xa1\xa4\x17G\xf75\xc0'
p1240
tp1241
bsS'secnames'
p1242
S'Cell[3].axon[0]'
p1243
sI172
I92
tp1244
a(F2.0792157029450444
S'Cell[1].dend[24] syn_ = new FastInhib(0.269230769231)'
p1245
I1
(dp1246
S'seg'
p1247
F0.16666666666666666
sS'hostfrom'
p1248
F29.0
sS'gid'
p1249
I173
sS'coords'
p1250
g7
(g8
(I0
tp1251
g10
tp1252
Rp1253
(I1
(I3
tp1254
g14
(S'f8'
p1255
I0
I1
tp1256
Rp1257
(I3
S'<'
p1258
NNNI-1
I-1
I0
tp1259
bI00
S'\xd7[2\xae%gH@:\xba\xec\xc0\xa6\x94V@D\xa4&\xf5`\x8aP\xc0'
p1260
tp1261
bsS'secnames'
p1262
S'Cell[3].axon[36]'
p1263
sI173
I92
tp1264
a(F2.238466079697407
S'Cell[0].apic[32] syn_ = new ExpSid(0.1)'
p1265
I0
(dp1266
g1247
F0.8333333333333333
sg1248
F29.0
sg1249
I173
sg1250
g7
(g8
(I0
tp1267
g10
tp1268
Rp1269
(I1
(I3
tp1270
g1257
I00
S'\x1d\x96x@Z\xdf\'@E\xf0\xc1\x1d\xe1\xd8X@\xe3P"w\xd7A7\xc0'
p1271
tp1272
bsg1262
S'Cell[3].axon[38]'
p1273
sI173
I44
tp1274
a(F1.9907164376824378
S'Cell[0].dend[18] syn_ = new ExpSid(0.166666666667)'
p1275
I0
(dp1276
g1247
F0.5
sg1248
F29.0
sg1249
I77
sg1250
g7
(g8
(I0
tp1277
g10
tp1278
Rp1279
(I1
(I3
tp1280
g1257
I00
S'\xca\xbd\xf9\x9f\xec.@@\x18\xf1\xf18ppM\xc0b.\x14\x06\xb6\xb5\xf0?'
p1281
tp1282
bsg1262
S'Cell[1].axon[1]'
p1283
sI77
I44
tp1284
a(F1.2098608541445843
S'Cell[1].dend[11] syn_ = new FastInhib(0.1)'
p1285
I1
(dp1286
g1247
F0.8333333333333333
sg1248
F29.0
sg1249
I77
sg1250
g7
(g8
(I0
tp1287
g10
tp1288
Rp1289
(I1
(I3
tp1290
g1257
I00
S'\xb0u\xf7,@A)@\xae+\x81\x05.6>\xc0\xc5\xfd\x88e\xe3\xa18\xc0'
p1291
tp1292
bsg1262
S'Cell[1].axon[6]'
p1293
sI77
I92
tp1294
a(F1.0535146799916266
S'Cell[1].dend[11] syn_ = new FastInhib(0.5)'
p1295
I1
(dp1296
S'seg'
p1297
F0.5
sS'hostfrom'
p1298
F30.0
sS'gid'
p1299
I126
sS'coords'
p1300
g7
(g8
(I0
tp1301
g10
tp1302
Rp1303
(I1
(I3
tp1304
g14
(S'f8'
p1305
I0
I1
tp1306
Rp1307
(I3
S'<'
p1308
NNNI-1
I-1
I0
tp1309
bI00
S'\x00\x00\x00\xa0p\xfd+\xc0\x00\x00\x00\x00)\xfc@\xc0\x00\x00\x00`\x8fRH\xc0'
p1310
tp1311
bsS'secnames'
p1312
S'Cell[2].axon[42]'
p1313
sI126
I92
tp1314
a(F2.214370852877264
S'Cell[0].apic[24] syn_ = new AmpaNmda(0.5)'
p1315
I0
(dp1316
g1297
F0.5
sg1298
F30.0
sg1299
I174
sg1300
g7
(g8
(I0
tp1317
g10
tp1318
Rp1319
(I1
(I3
tp1320
g1307
I00
S'\xfdgU,\x85\xa31@\xc6X\n\x19DbR@\xfc\x18\x91\xc1\xcd\xf5\x10\xc0'
p1321
tp1322
bsg1312
S'Cell[3].axon[151]'
p1323
sI174
I44
tp1324
a(F1.864914683384027
S'Cell[0].apic[22] syn_ = new ExpSid(0.7)'
p1325
I0
(dp1326
S'seg'
p1327
F0.5
sS'hostfrom'
p1328
F31.0
sS'gid'
p1329
I175
sS'coords'
p1330
g7
(g8
(I0
tp1331
g10
tp1332
Rp1333
(I1
(I3
tp1334
g14
(S'f8'
p1335
I0
I1
tp1336
Rp1337
(I3
S'<'
p1338
NNNI-1
I-1
I0
tp1339
bI00
S'\x00\x00\x00\xe0z\x14\x15\xc0\x00\x00\x00`\x8fze@\x00\x00\x00\xe0\xa3p7@'
p1340
tp1341
bsS'secnames'
p1342
S'Cell[3].axon[132]'
p1343
sI175
I44
tp1344
a(F1.2035729913321487
S'Cell[2].dend[28] syn_ = new FastInhib(0.5)'
p1345
I2
(dp1346
S'seg'
p1347
F0.5
sS'hostfrom'
p1348
F32.0
sS'gid'
p1349
I176
sS'coords'
p1350
g7
(g8
(I0
tp1351
g10
tp1352
Rp1353
(I1
(I3
tp1354
g14
(S'f8'
p1355
I0
I1
tp1356
Rp1357
(I3
S'<'
p1358
NNNI-1
I-1
I0
tp1359
bI00
S'8\xc7\x10c\xe5K \xc0"aX\xa8\xe5\xe78\xc0\xcd\x91\xee0\xd3]\x15@'
p1360
tp1361
bsS'secnames'
p1362
S'Cell[3].axon[12]'
p1363
sI176
I140
tp1364
a(F2.271458140875955
S'Cell[0].apic[31] syn_ = new ExpSid(0.3)'
p1365
I0
(dp1366
S'seg'
p1367
F0.16666666666666666
sS'hostfrom'
p1368
F33.0
sS'gid'
p1369
I129
sS'coords'
p1370
g7
(g8
(I0
tp1371
g10
tp1372
Rp1373
(I1
(I3
tp1374
g14
(S'f8'
p1375
I0
I1
tp1376
Rp1377
(I3
S'<'
p1378
NNNI-1
I-1
I0
tp1379
bI00
S'\x92\x88\xd9cB\xd41\xc0X\x0f\xf3\xe0W\x9e^@\x00\x00\x00\xa0\x99\x99%\xc0'
p1380
tp1381
bsS'secnames'
p1382
S'Cell[2].axon[20]'
p1383
sI129
I44
tp1384
a(F2.241087196656754
S'Cell[0].dend[0] syn_ = new ExpSid(0.5)'
p1385
I0
(dp1386
g1367
F0.07142857142857142
sg1368
F33.0
sg1369
I33
sg1370
g7
(g8
(I0
tp1387
g10
tp1388
Rp1389
(I1
(I3
tp1390
g1377
I00
S'\xbe\xb2&>\xda\x1b)\xc0\x9b\xab\xa9\x1d\xa4\xd1U\xc0\x8b\x89\xe9\xd1\xfb\x94=@'
p1391
tp1392
bsg1382
S'Cell[0].axon[37]'
p1393
sI33
I44
tp1394
a(F1.9567731148734362
S'Cell[1].dend[44] syn_ = new FastInhib(0.5)'
p1395
I1
(dp1396
g1367
F0.8999999999999999
sg1368
F33.0
sg1369
I177
sg1370
g7
(g8
(I0
tp1397
g10
tp1398
Rp1399
(I1
(I3
tp1400
g1377
I00
S'\xfdV3|l\x14\x14\xc0\x14Re\xd6h\x19i@\x00\x00\x00@\n\x17G\xc0'
p1401
tp1402
bsg1382
S'Cell[3].axon[81]'
p1403
sI177
I92
tp1404
a(F2.3586794633758426
S'Cell[2].dend[2] syn_ = new FastInhib(0.166666666667)'
p1405
I2
(dp1406
S'seg'
p1407
F0.3181818181818182
sS'hostfrom'
p1408
F34.0
sS'gid'
p1409
I82
sS'coords'
p1410
g7
(g8
(I0
tp1411
g10
tp1412
Rp1413
(I1
(I3
tp1414
g14
(S'f8'
p1415
I0
I1
tp1416
Rp1417
(I3
S'<'
p1418
NNNI-1
I-1
I0
tp1419
bI00
S'\xfd\xcaYR\xdf\xc4%\xc0\xa2\xa2\xa9)\x01A+@T%Y,\xbe\xba=\xc0'
p1420
tp1421
bsS'secnames'
p1422
S'Cell[1].axon[264]'
p1423
sI82
I140
tp1424
a(F2.4504827732127783
S'Cell[1].dend[4] syn_ = new FastInhib(0.5)'
p1425
I1
(dp1426
S'seg'
p1427
F0.8333333333333333
sS'hostfrom'
p1428
F35.0
sS'gid'
p1429
I83
sS'coords'
p1430
g7
(g8
(I0
tp1431
g10
tp1432
Rp1433
(I1
(I3
tp1434
g14
(S'f8'
p1435
I0
I1
tp1436
Rp1437
(I3
S'<'
p1438
NNNI-1
I-1
I0
tp1439
bI00
S'\x80\xa3;\x9c\x9a\xfb6@\x949i\xd8\xaa\x80D\xc0m\x9e`\x1f\xb1\xbb\x0c@'
p1440
tp1441
bsS'secnames'
p1442
S'Cell[1].axon[0]'
p1443
sI83
I92
tp1444
a(F1.3893089184492697
S'Cell[2].dend[32] syn_ = new FastInhib(0.5)'
p1445
I2
(dp1446
g1427
F0.8333333333333333
sg1428
F35.0
sg1429
I35
sg1430
g7
(g8
(I0
tp1447
g10
tp1448
Rp1449
(I1
(I3
tp1450
g1437
I00
S'\xe6\x018r8 \x1a\xc0\x16Y\xba"\xc6\xeeA\xc0\x10\x10?\x9c@2#@'
p1451
tp1452
bsg1442
S'Cell[0].axon[10]'
p1453
sI35
I140
tp1454
a(F2.189436810660613
S'Cell[0].apic[14] syn_ = new ExpSid(0.5)'
p1455
I0
(dp1456
g1427
F0.1
sg1428
F35.0
sg1429
I179
sg1430
g7
(g8
(I0
tp1457
g10
tp1458
Rp1459
(I1
(I3
tp1460
g1437
I00
S'\xb23`/1a/@\xba4\xd2\xc8\xcb%P@\xb1\xfb\xb7\xa6\x08\xda\x14\xc0'
p1461
tp1462
bsg1442
S'Cell[3].axon[33]'
p1463
sI179
I44
tp1464
a(F1.786959460529301
S'Cell[3].dend[44] syn_ = new FastInhib(0.7)'
p1465
I3
(dp1466
g1427
F0.16666666666666666
sg1428
F35.0
sg1429
I179
sg1430
g7
(g8
(I0
tp1467
g10
tp1468
Rp1469
(I1
(I3
tp1470
g1437
I00
S'<\x7f\xf2\xbf!~U@\x05\xe3t{\x12sP@\x00\x00\x00@3\x13A\xc0'
p1471
tp1472
bsg1442
S'Cell[3].axon[77]'
p1473
sI179
I188
tp1474
a(F0.8533254639746493
S'Cell[1].dend[24] syn_ = new FastInhib(0.884615384615)'
p1475
I1
(dp1476
S'seg'
p1477
F0.8333333333333333
sS'hostfrom'
p1478
F36.0
sS'gid'
p1479
I84
sS'coords'
p1480
g7
(g8
(I0
tp1481
g10
tp1482
Rp1483
(I1
(I3
tp1484
g14
(S'f8'
p1485
I0
I1
tp1486
Rp1487
(I3
S'<'
p1488
NNNI-1
I-1
I0
tp1489
bI00
S'o\xbf>q\xc1\x08b@S\xc7&k\x1d\x1em@\xe5\x17\x80\xcd\x95\x7f`\xc0'
p1490
tp1491
bsS'secnames'
p1492
S'Cell[1].axon[129]'
p1493
sI84
I92
tp1494
a(F1.572299845513795
S'Cell[1].dend[36] syn_ = new FastInhib(0.5)'
p1495
I1
(dp1496
g1477
F0.5
sg1478
F36.0
sg1479
I84
sg1480
g7
(g8
(I0
tp1497
g10
tp1498
Rp1499
(I1
(I3
tp1500
g1487
I00
S'7\x94\xff1\x9b\x0bA@e\x17\xaa\x8f\x9bZF@$\xaab_+A\x17\xc0'
p1501
tp1502
bsg1492
S'Cell[1].axon[511]'
p1503
sI84
I92
tp1504
a(F2.125399053315544
S'Cell[1].dend[37] syn_ = new FastInhib(0.7)'
p1505
I1
(dp1506
g1477
F0.16666666666666666
sg1478
F36.0
sg1479
I132
sg1480
g7
(g8
(I0
tp1507
g10
tp1508
Rp1509
(I1
(I3
tp1510
g1487
I00
S'|\xe9Y\x87\xa0C9@\xae\xd6\xed\x17{O\\@N\xa1\xb9\xe4\xcd\xe6\x0f\xc0'
p1511
tp1512
bsg1492
S'Cell[2].axon[79]'
p1513
sI132
I92
tp1514
a(F2.3803709342861192
S'Cell[0].apic[48] syn_ = new AmpaNmda(0.7)'
p1515
I0
(dp1516
g1477
F0.16666666666666666
sg1478
F36.0
sg1479
I132
sg1480
g7
(g8
(I0
tp1517
g10
tp1518
Rp1519
(I1
(I3
tp1520
g1487
I00
S'qA \x80[*O@)\x01\r\xce\xa8o?@qo\xfbT\xf8\xdf*@'
p1521
tp1522
bsg1492
S'Cell[2].axon[152]'
p1523
sI132
I44
tp1524
a(F2.418956638723052
S'Cell[1].dend[37] syn_ = new FastInhib(0.3)'
p1525
I1
(dp1526
g1477
F0.16666666666666666
sg1478
F36.0
sg1479
I132
sg1480
g7
(g8
(I0
tp1527
g10
tp1528
Rp1529
(I1
(I3
tp1530
g1487
I00
S'\x12\xfd@\xc4"\x07:@wz\x04\xa5d!U@zM\xe0\xfa\x85\x95\x13\xc0'
p1531
tp1532
bsg1492
S'Cell[2].axon[180]'
p1533
sI132
I92
tp1534
a(F2.388519467701304
S'Cell[1].dend[2] syn_ = new FastInhib(0.5)'
p1535
I1
(dp1536
g1477
F0.8333333333333333
sg1478
F36.0
sg1479
I132
sg1480
g7
(g8
(I0
tp1537
g10
tp1538
Rp1539
(I1
(I3
tp1540
g1487
I00
S'\xd7\x1e\xddal\x8a9@\xea\x85\x14\x87\xd1f3\xc0{\x80\x8d\x00\x98\xc6\x0c\xc0'
p1541
tp1542
bsg1492
S'Cell[2].axon[202]'
p1543
sI132
I92
tp1544
a(F1.6349347755652597
S'Cell[0].apic[11] syn_ = new AmpaNmda(0.5)'
p1545
I0
(dp1546
g1477
F0.5
sg1478
F36.0
sg1479
I180
sg1480
g7
(g8
(I0
tp1547
g10
tp1548
Rp1549
(I1
(I3
tp1550
g1487
I00
S'\x00\x00\x00\x00\x00\x00\x16@\x00\x00\x00 \xae\xc7!@\x00\x00\x00\xa0\x99\x99\xa9\xbf'
p1551
tp1552
bsg1492
S'Cell[3].soma[0]'
p1553
sI180
I44
tp1554
a(F1.6008631773344577
S'Cell[1].dend[3] syn_ = new FastInhib(0.833333333333)'
p1555
I1
(dp1556
g1477
F0.5
sg1478
F36.0
sg1479
I180
sg1480
g7
(g8
(I0
tp1557
g10
tp1558
Rp1559
(I1
(I3
tp1560
g1487
I00
S'\xe5\xed@\xe6g^\xc6\xbf\xec\xef|M|\x91@\xc0-\xa0R\xa5\xb7\xbe\x10@'
p1561
tp1562
bsg1492
S'Cell[3].axon[70]'
p1563
sI180
I92
tp1564
a(F2.2523965155728063
S'Cell[1].dend[23] syn_ = new FastInhib(0.833333333333)'
p1565
I1
(dp1566
S'seg'
p1567
F0.5
sS'hostfrom'
p1568
F37.0
sS'gid'
p1569
I133
sS'coords'
p1570
g7
(g8
(I0
tp1571
g10
tp1572
Rp1573
(I1
(I3
tp1574
g14
(S'f8'
p1575
I0
I1
tp1576
Rp1577
(I3
S'<'
p1578
NNNI-1
I-1
I0
tp1579
bI00
S'z="%Bi\xf9\xbf$\xb9\\<\xf21@\xc0r\x0c3\xde\x15\xfe"@'
p1580
tp1581
bsS'secnames'
p1582
S'Cell[2].axon[2]'
p1583
sI133
I92
tp1584
a(F2.158731460420835
S'Cell[1].dend[37] syn_ = new FastInhib(0.5)'
p1585
I1
(dp1586
g1567
F0.5
sg1568
F37.0
sg1569
I133
sg1570
g7
(g8
(I0
tp1587
g10
tp1588
Rp1589
(I1
(I3
tp1590
g1577
I00
S'\xe0\x0e\x7fp\xe5Y<@\x04f_\x85\x80\x1cY@\xd5\x03\xbd\xe1\xcd\x8f\xfe?'
p1591
tp1592
bsg1582
S'Cell[2].axon[29]'
p1593
sI133
I92
tp1594
a(F1.7845127115841342
S'Cell[1].dend[2] syn_ = new FastInhib(0.5)'
p1595
I1
(dp1596
g1567
F0.5
sg1568
F37.0
sg1569
I133
sg1570
g7
(g8
(I0
tp1597
g10
tp1598
Rp1599
(I1
(I3
tp1600
g1577
I00
S'6\x9a\x98\x1e11<@t>\x11ff65\xc0\xe2\xf1\xe0\xec\xa5V\x0f\xc0'
p1601
tp1602
bsg1582
S'Cell[2].axon[89]'
p1603
sI133
I92
tp1604
a(F1.9679306403437453
S'Cell[2].dend[23] syn_ = new FastInhib(0.166666666667)'
p1605
I2
(dp1606
g1567
F0.05555555555555555
sg1568
F37.0
sg1569
I181
sg1570
g7
(g8
(I0
tp1607
g10
tp1608
Rp1609
(I1
(I3
tp1610
g1577
I00
S'D8b[oP\x1e@%\xb1Z\xcc\xbeA\xfc?\x00\x00\x00`\xb8\x1e\xd5?'
p1611
tp1612
bsg1582
S'Cell[3].axon[163]'
p1613
sI181
I140
tp1614
a(F0.9782606107074245
S'Cell[2].dend[6] syn_ = new FastInhib(0.1)'
p1615
I2
(dp1616
g1567
F0.9666666666666666
sg1568
F37.0
sg1569
I181
sg1570
g7
(g8
(I0
tp1617
g10
tp1618
Rp1619
(I1
(I3
tp1620
g1577
I00
S'|F\xc8\x88\xbc\t7@\xccFY+\x01c+@AS\xd1\xe4\x13\xd6V\xc0'
p1621
tp1622
bsg1582
S'Cell[3].axon[171]'
p1623
sI181
I140
tp1624
a(F1.4407946728314323
S'Cell[1].dend[39] syn_ = new FastInhib(0.5)'
p1625
I1
(dp1626
S'seg'
p1627
F0.8333333333333333
sS'hostfrom'
p1628
F38.0
sS'gid'
p1629
I182
sS'coords'
p1630
g7
(g8
(I0
tp1631
g10
tp1632
Rp1633
(I1
(I3
tp1634
g14
(S'f8'
p1635
I0
I1
tp1636
Rp1637
(I3
S'<'
p1638
NNNI-1
I-1
I0
tp1639
bI00
S'\x864\x90VV\xfb7@y\x02\xe5\xe04\x12?@\x8d\xaf\xfd\xc7DN\x1f\xc0'
p1640
tp1641
bsS'secnames'
p1642
S'Cell[3].axon[0]'
p1643
sI182
I92
tp1644
a(F1.9769699606664353
S'Cell[2].dend[17] syn_ = new FastInhib(0.5)'
p1645
I2
(dp1646
g1627
F0.5
sg1628
F38.0
sg1629
I182
sg1630
g7
(g8
(I0
tp1647
g10
tp1648
Rp1649
(I1
(I3
tp1650
g1637
I00
S'\x85\xa7\xe5\x08\xdd\x88\x16\xc0\xdbiv\x0b\x90\xcf3@\x00\x00\x00\x00\x00\x802\xc0'
p1651
tp1652
bsg1642
S'Cell[3].axon[30]'
p1653
sI182
I140
tp1654
a(F1.9261125480450976
S'Cell[1].dend[16] syn_ = new FastInhib(0.9)'
p1655
I1
(dp1656
g1627
F0.8333333333333333
sg1628
F38.0
sg1629
I86
sg1630
g7
(g8
(I0
tp1657
g10
tp1658
Rp1659
(I1
(I3
tp1660
g1637
I00
S'v\xcch\xcb\r\xdeT@he\x81\x9al\xa7P\xc0\xdf\xdahx\xb0\xe9P\xc0'
p1661
tp1662
bsg1642
S'Cell[1].axon[128]'
p1663
sI86
I92
tp1664
a(F0.8594066504760234
S'Cell[0].dend[14] syn_ = new AmpaNmda(0.166666666667)'
p1665
I0
(dp1666
g1627
F0.16666666666666666
sg1628
F38.0
sg1629
I38
sg1630
g7
(g8
(I0
tp1667
g10
tp1668
Rp1669
(I1
(I3
tp1670
g1637
I00
S'\xae\x10V@\xf3\x15\x1b@\xd2\xfe\x9f\x04\xc5\xf5M\xc0\x00\x00\x00\x80=\n\x1b\xc0'
p1671
tp1672
bsg1642
S'Cell[0].axon[36]'
p1673
sI38
I44
tp1674
a(F0.8674496128109999
S'Cell[1].dend[16] syn_ = new FastInhib(0.3)'
p1675
I1
(dp1676
S'seg'
p1677
F0.5
sS'hostfrom'
p1678
F39.0
sS'gid'
p1679
I87
sS'coords'
p1680
g7
(g8
(I0
tp1681
g10
tp1682
Rp1683
(I1
(I3
tp1684
g14
(S'f8'
p1685
I0
I1
tp1686
Rp1687
(I3
S'<'
p1688
NNNI-1
I-1
I0
tp1689
bI00
S'\x8b\x07DP\xcfDL@\xc6\x94\xd7Q\xf4\nF\xc0\xa0\xc7\xb0\xb4\x0bt9\xc0'
p1690
tp1691
bsS'secnames'
p1692
S'Cell[1].axon[42]'
p1693
sI87
I92
tp1694
a(F1.9857857259028646
S'Cell[2].dend[20] syn_ = new FastInhib(0.5)'
p1695
I2
(dp1696
g1677
F0.8333333333333333
sg1678
F39.0
sg1679
I87
sg1680
g7
(g8
(I0
tp1697
g10
tp1698
Rp1699
(I1
(I3
tp1700
g1687
I00
S"\x81\xfd\xdf\x88\xb8\x0f\x06@\xe4m\xbe\xbd\t\xba'@Df\x04\x95\x8c;B\xc0"
p1701
tp1702
bsg1692
S'Cell[1].axon[54]'
p1703
sI87
I140
tp1704
a(F2.178657654843464
S'Cell[1].dend[1] syn_ = new FastInhib(0.5)'
p1705
I1
(dp1706
g1677
F0.16666666666666666
sg1678
F39.0
sg1679
I135
sg1680
g7
(g8
(I0
tp1707
g10
tp1708
Rp1709
(I1
(I3
tp1710
g1687
I00
S'\xc2\xe5\xa4O1\n?@\x9f\xe8\x87r/N\x1b\xc0|\x91\x03A\xde\x1b(\xc0'
p1711
tp1712
bsg1692
S'Cell[2].axon[158]'
p1713
sI135
I92
tp1714
a(F2.024503334606897
S'Cell[3].dend[20] syn_ = new FastInhib(0.5)'
p1715
I3
(dp1716
g1677
F0.5
sg1678
F39.0
sg1679
I183
sg1680
g7
(g8
(I0
tp1717
g10
tp1718
Rp1719
(I1
(I3
tp1720
g1687
I00
S'X\x97\x80\xff\x1e\xbb1@\n\xe2\xcc\xac\x19\xb7X@\xe6\xa4"W-\xbb\\\xc0'
p1721
tp1722
bsg1692
S'Cell[3].axon[259]'
p1723
sI183
I188
tp1724
a(F1.9305668140526122
S'Cell[0].dend[15] syn_ = new ExpSid(0.833333333333)'
p1725
I0
(dp1726
g1677
F0.21428571428571427
sg1678
F39.0
sg1679
I39
sg1680
g7
(g8
(I0
tp1727
g10
tp1728
Rp1729
(I1
(I3
tp1730
g1687
I00
S'\xdd\xe2\xf7\xa0\xd7\x9b:\xc0\xee\x15\xba\x8a\xec\xb4\\\xc0\x00\x00\x00\x00\x00\x00$\xc0'
p1731
tp1732
bsg1692
S'Cell[0].axon[2]'
p1733
sI39
I44
tp1734
a(F1.5834492081757423
S'Cell[1].dend[14] syn_ = new FastInhib(0.5)'
p1735
I1
(dp1736
S'seg'
p1737
F0.16666666666666666
sS'hostfrom'
p1738
F40.0
sS'gid'
p1739
I40
sS'coords'
p1740
g7
(g8
(I0
tp1741
g10
tp1742
Rp1743
(I1
(I3
tp1744
g14
(S'f8'
p1745
I0
I1
tp1746
Rp1747
(I3
S'<'
p1748
NNNI-1
I-1
I0
tp1749
bI00
S'F\xa0\xa5\x0e\xeaLD@\xaf\x8f\xc4~\xff\x0b:\xc0j\xe7\xb0\xa2\xba,%\xc0'
p1750
tp1751
bsS'secnames'
p1752
S'Cell[0].axon[0]'
p1753
sI40
I92
tp1754
a(F1.7144136898019684
S'Cell[1].dend[29] syn_ = new FastInhib(0.166666666667)'
p1755
I1
(dp1756
g1737
F0.16666666666666666
sg1738
F40.0
sg1739
I88
sg1740
g7
(g8
(I0
tp1757
g10
tp1758
Rp1759
(I1
(I3
tp1760
g1747
I00
S'\xcd\xba@ti(K@d\xb39X\xd5\xda(@\x10\xfe:\xdc\x90d5\xc0'
p1761
tp1762
bsg1752
S'Cell[1].axon[173]'
p1763
sI88
I92
tp1764
a(F2.2524726007817644
S'Cell[0].apic[25] syn_ = new AmpaNmda(0.5)'
p1765
I0
(dp1766
g1737
F0.5
sg1738
F40.0
sg1739
I88
sg1740
g7
(g8
(I0
tp1767
g10
tp1768
Rp1769
(I1
(I3
tp1770
g1747
I00
S'a\xdd\x92\x97(\x166@\xd0\xbf\xce\x02W(V@\x90\x0eb\x19\x96\xee\r@'
p1771
tp1772
bsg1752
S'Cell[1].axon[192]'
p1773
sI88
I44
tp1774
a(F1.9096883696218352
S'Cell[1].dend[27] syn_ = new FastInhib(0.166666666667)'
p1775
I1
(dp1776
g1737
F0.5
sg1738
F40.0
sg1739
I88
sg1740
g7
(g8
(I0
tp1777
g10
tp1778
Rp1779
(I1
(I3
tp1780
g1747
I00
S'\xc9p\xae\xc7<\x04Q@\xc3\x8a\xe9|\xef\xe8@@@\x15\x12\xcc+\x19C\xc0'
p1781
tp1782
bsg1752
S'Cell[1].axon[200]'
p1783
sI88
I92
tp1784
a(F2.4224904721447866
S'Cell[2].dend[2] syn_ = new FastInhib(0.166666666667)'
p1785
I2
(dp1786
g1737
F0.16666666666666666
sg1738
F40.0
sg1739
I88
sg1740
g7
(g8
(I0
tp1787
g10
tp1788
Rp1789
(I1
(I3
tp1790
g1747
I00
S'\x91\xec\xac\\{\x99$\xc0N\x12\xf1ma\x83&@\xf8\xcd\xd6\x84;7@\xc0'
p1791
tp1792
bsg1752
S'Cell[1].axon[239]'
p1793
sI88
I140
tp1794
a(F1.392273100921722
S'Cell[2].dend[5] syn_ = new FastInhib(0.357142857143)'
p1795
I2
(dp1796
g1737
F0.5
sg1738
F40.0
sg1739
I136
sg1740
g7
(g8
(I0
tp1797
g10
tp1798
Rp1799
(I1
(I3
tp1800
g1747
I00
S'\x8d!\xd1\xbf\xf6\xde6@\x12\xc8p\x0e WC@\x82\xccN\x9b\x19VU\xc0'
p1801
tp1802
bsg1752
S'Cell[2].axon[173]'
p1803
sI136
I140
tp1804
a(F2.3063174465327045
S'Cell[0].apic[13] syn_ = new ExpSid(0.5)'
p1805
I0
(dp1806
S'seg'
p1807
F0.5
sS'hostfrom'
p1808
F41.0
sS'gid'
p1809
I137
sS'coords'
p1810
g7
(g8
(I0
tp1811
g10
tp1812
Rp1813
(I1
(I3
tp1814
g14
(S'f8'
p1815
I0
I1
tp1816
Rp1817
(I3
S'<'
p1818
NNNI-1
I-1
I0
tp1819
bI00
S'\xca:"R\xed\xa8\x16@~\xf7\xdb\x13\x1c-G@\x8b\xfa\xc8\x87m2\t@'
p1820
tp1821
bsS'secnames'
p1822
S'Cell[2].axon[4]'
p1823
sI137
I44
tp1824
a(F2.4412273744997464
S'Cell[2].dend[14] syn_ = new FastInhib(0.1)'
p1825
I2
(dp1826
g1807
F0.5
sg1808
F41.0
sg1809
I185
sg1810
g7
(g8
(I0
tp1827
g10
tp1828
Rp1829
(I1
(I3
tp1830
g1817
I00
S'\xb3i\x92\xbcP)1\xc0!\x8c\xc7n]\xb13@\x00\x00\x00\xc0\xf5(.\xc0'
p1831
tp1832
bsg1822
S'Cell[3].axon[76]'
p1833
sI185
I140
tp1834
a(F1.8966660328564613
S'Cell[2].dend[14] syn_ = new FastInhib(0.7)'
p1835
I2
(dp1836
g1807
F0.5
sg1808
F41.0
sg1809
I185
sg1810
g7
(g8
(I0
tp1837
g10
tp1838
Rp1839
(I1
(I3
tp1840
g1817
I00
S'\x007T`\x1a\xaeQ\xc0/\xb2\x1e\x13\xa8{L@R\x9f\xa6\x003!\x1b@'
p1841
tp1842
bsg1822
S'Cell[3].axon[86]'
p1843
sI185
I140
tp1844
a(F2.464073134730162
S'Cell[2].dend[18] syn_ = new FastInhib(0.166666666667)'
p1845
I2
(dp1846
g1807
F0.16666666666666666
sg1808
F41.0
sg1809
I185
sg1810
g7
(g8
(I0
tp1847
g10
tp1848
Rp1849
(I1
(I3
tp1850
g1817
I00
S'\xde\x17\xe0n^\xed&\xc0\x8ac?\xb1\x18\x99>@\xfa`U\xe5\xe9\xc9*\xc0'
p1851
tp1852
bsg1822
S'Cell[3].axon[91]'
p1853
sI185
I140
tp1854
a(F2.28025318492196
S'Cell[3].dend[30] syn_ = new FastInhib(0.5)'
p1855
I3
(dp1856
g1807
F0.49999999999999994
sg1808
F41.0
sg1809
I89
sg1810
g7
(g8
(I0
tp1857
g10
tp1858
Rp1859
(I1
(I3
tp1860
g1817
I00
S'\xb4)\xee\x13y\x85L\xc0\x00\x00\x00\xc0\x1e\x85P@\xcc\x0e\x9e\xfaK\xd0U\xc0'
p1861
tp1862
bsg1822
S'Cell[1].axon[48]'
p1863
sI89
I188
tp1864
a(F1.1288178435080094
S'Cell[2].dend[16] syn_ = new FastInhib(0.166666666667)'
p1865
I2
(dp1866
g1807
F0.5
sg1808
F41.0
sg1809
I89
sg1810
g7
(g8
(I0
tp1867
g10
tp1868
Rp1869
(I1
(I3
tp1870
g1817
I00
S'M\xe8\x03\xd8\xa8\x8bY\xc0C\x0b-\xd6\xf7\xc9T@\x00\x00\x00`\x8f\x024@'
p1871
tp1872
bsg1822
S'Cell[1].axon[115]'
p1873
sI89
I140
tp1874
a(F2.0946840681186454
S'Cell[2].dend[14] syn_ = new FastInhib(0.5)'
p1875
I2
(dp1876
g1807
F0.5
sg1808
F41.0
sg1809
I89
sg1810
g7
(g8
(I0
tp1877
g10
tp1878
Rp1879
(I1
(I3
tp1880
g1817
I00
S'\x16\r\x16Q\x98VJ\xc0\xbc\xf1zg.xF@r6k\xed\x13<\xeb\xbf'
p1881
tp1882
bsg1822
S'Cell[1].axon[140]'
p1883
sI89
I140
tp1884
a(F2.467749454176543
S'Cell[0].dend[18] syn_ = new ExpSid(0.5)'
p1885
I0
(dp1886
g1807
F0.8333333333333335
sg1808
F41.0
sg1809
I89
sg1810
g7
(g8
(I0
tp1887
g10
tp1888
Rp1889
(I1
(I3
tp1890
g1817
I00
S'Q\x12\xf0\x88(\x98H@6\x1aF\xed\xb1\xb8S\xc0\xe9\x99\x08yny-@'
p1891
tp1892
bsg1822
S'Cell[1].axon[155]'
p1893
sI89
I44
tp1894
a(F1.95692651171835
S'Cell[1].dend[25] syn_ = new FastInhib(0.5)'
p1895
I1
(dp1896
g1807
F0.16666666666666666
sg1808
F41.0
sg1809
I89
sg1810
g7
(g8
(I0
tp1897
g10
tp1898
Rp1899
(I1
(I3
tp1900
g1817
I00
S'\x9aE(9\xe75G@x\xcfz\x19a\xa90@>\xb4\xa3\xbf\x06h2\xc0'
p1901
tp1902
bsg1822
S'Cell[1].axon[160]'
p1903
sI89
I92
tp1904
a(F1.145672993154001
S'Cell[1].dend[0] syn_ = new FastInhib(0.5)'
p1905
I1
(dp1906
S'seg'
p1907
F0.5
sS'hostfrom'
p1908
F42.0
sS'gid'
p1909
I42
sS'coords'
p1910
g7
(g8
(I0
tp1911
g10
tp1912
Rp1913
(I1
(I3
tp1914
g14
(S'f8'
p1915
I0
I1
tp1916
Rp1917
(I3
S'<'
p1918
NNNI-1
I-1
I0
tp1919
bI00
S'\x00\x00\x00\x08\x00 @@\x00\x00\x00\xe0\xa3p\r\xc0\x00\x00\x00\xa0\x99\x19!\xc0'
p1920
tp1921
bsS'secnames'
p1922
S'Cell[0].soma[0]'
p1923
sI42
I92
tp1924
a(F1.3871548906835018
S'Cell[3].dend[0] syn_ = new FastInhib(0.5)'
p1925
I3
(dp1926
g1907
F0.8333333333333333
sg1908
F42.0
sg1909
I90
sg1910
g7
(g8
(I0
tp1927
g10
tp1928
Rp1929
(I1
(I3
tp1930
g1917
I00
S'\xfc\xd4\xa3\x03\xe9\x99)@\xf4\xda}-\xa62H\xc0\x01]\xea\xe0\r\x056@'
p1931
tp1932
bsg1922
S'Cell[1].axon[127]'
p1933
sI90
I188
tp1934
a(F1.998988439621704
S'Cell[2].dend[5] syn_ = new FastInhib(0.357142857143)'
p1935
I2
(dp1936
S'seg'
p1937
F0.5
sS'hostfrom'
p1938
F43.0
sS'gid'
p1939
I91
sS'coords'
p1940
g7
(g8
(I0
tp1941
g10
tp1942
Rp1943
(I1
(I3
tp1944
g14
(S'f8'
p1945
I0
I1
tp1946
Rp1947
(I3
S'<'
p1948
NNNI-1
I-1
I0
tp1949
bI00
S'\xc6\x9d_~uV8@\xaeg\x94\x14\xde3D@n\x06\x8a6\x8cyU\xc0'
p1950
tp1951
bsS'secnames'
p1952
S'Cell[1].axon[357]'
p1953
sI91
I140
tp1954
a(F1.1621887482397637
S'Cell[0].apic[4] syn_ = new ExpSid(0.166666666667)'
p1955
I0
(dp1956
g1937
F0.16666666666666666
sg1938
F43.0
sg1939
I187
sg1940
g7
(g8
(I0
tp1957
g10
tp1958
Rp1959
(I1
(I3
tp1960
g1947
I00
S'\x92[R\x95m\x99G@\xfa\n\x06Q\xa5\x05\'\xc0\x80"\x18\x0c\x16^\x11\xc0'
p1961
tp1962
bsg1952
S'Cell[3].axon[106]'
p1963
sI187
I44
tp1964
a(F1.474274995712739
S'Cell[0].apic[15] syn_ = new AmpaNmda(0.833333333333)'
p1965
I0
(dp1966
S'seg'
p1967
F0.8999999999999999
sS'hostfrom'
p1968
F44.0
sS'gid'
p1969
I92
sS'coords'
p1970
g7
(g8
(I0
tp1971
g10
tp1972
Rp1973
(I1
(I3
tp1974
g14
(S'f8'
p1975
I0
I1
tp1976
Rp1977
(I3
S'<'
p1978
NNNI-1
I-1
I0
tp1979
bI00
S"d\xf6\xc7t\x90~\xe8\xbf\xee\xbd\x12&\xf1?X@\x19\x08\x8d\xfc\x12\xc0'@"
p1980
tp1981
bsS'secnames'
p1982
S'Cell[1].axon[211]'
p1983
sI92
I44
tp1984
a(F2.170403218491994
S'Cell[0].apic[9] syn_ = new AmpaNmda(0.5)'
p1985
I0
(dp1986
g1967
F0.5
sg1968
F44.0
sg1969
I188
sg1970
g7
(g8
(I0
tp1987
g10
tp1988
Rp1989
(I1
(I3
tp1990
g1977
I00
S'\x00\x00\x00@\nW\x1c@\x00\x00\x00\x05\xaeG\xe9\xbf\x00\x00\x00\xd2\xa3p\xed\xbf'
p1991
tp1992
bsg1982
S'Cell[3].axon[0]'
p1993
sI188
I44
tp1994
a(F2.2032813013055983
S'Cell[0].apic[11] syn_ = new AmpaNmda(0.5)'
p1995
I0
(dp1996
g1967
F0.16666666666666666
sg1968
F44.0
sg1969
I188
sg1970
g7
(g8
(I0
tp1997
g10
tp1998
Rp1999
(I1
(I3
tp2000
g1977
I00
S'bP\xe9\x87\xb3\xb5\x1e@pE\xf3s\x01\x9f\x19@\x00\x00\x00 \x85\xeb\xe1\xbf'
p2001
tp2002
bsg1982
S'Cell[3].axon[1]'
p2003
sI188
I44
tp2004
a(F0.6666684855726729
S'Cell[2].dend[14] syn_ = new FastInhib(0.7)'
p2005
I2
(dp2006
g1967
F0.30000000000000004
sg1968
F44.0
sg1969
I188
sg1970
g7
(g8
(I0
tp2007
g10
tp2008
Rp2009
(I1
(I3
tp2010
g1977
I00
S'\x9b\x00\x16\x8e\xbc\xcaQ\xc0j\x023\x9d\xc1\xcfK@\xd9h\xea*\x04\xaa!@'
p2011
tp2012
bsg1982
S'Cell[3].axon[18]'
p2013
sI188
I140
tp2014
a(F2.3975893321959747
S'Cell[1].dend[23] syn_ = new FastInhib(0.166666666667)'
p2015
I1
(dp2016
g1967
F0.30000000000000004
sg1968
F44.0
sg1969
I188
sg1970
g7
(g8
(I0
tp2017
g10
tp2018
Rp2019
(I1
(I3
tp2020
g1977
I00
S'6(\xe5\xd4\xe7\x963@D\x9bsP\xf9\x10(\xc0eP\xf7\xa8\x84F\x17@'
p2021
tp2022
bsg1982
S'Cell[3].axon[60]'
p2023
sI188
I92
tp2024
a(F2.2024655565646745
S'Cell[1].dend[27] syn_ = new FastInhib(0.5)'
p2025
I1
(dp2026
g1967
F0.5
sg1968
F44.0
sg1969
I188
sg1970
g7
(g8
(I0
tp2027
g10
tp2028
Rp2029
(I1
(I3
tp2030
g1977
I00
S"\xacE+\x99\xc6$S@\x84(\xfcr?\x13E@Wo\x8f\x08\xb1'F\xc0"
p2031
tp2032
bsg1982
S'Cell[3].axon[104]'
p2033
sI188
I92
tp2034
a(F1.72382252157951
S'Cell[0].apic[26] syn_ = new AmpaNmda(0.5)'
p2035
I0
(dp2036
g1967
F0.5
sg1968
F44.0
sg1969
I188
sg1970
g7
(g8
(I0
tp2037
g10
tp2038
Rp2039
(I1
(I3
tp2040
g1977
I00
S'L_\x91\xc8X0A@!\x89\xd5\xe6\x9b\xdd_@\x00\x00\x00\xc0\xcc\x0c;@'
p2041
tp2042
bsg1982
S'Cell[3].axon[195]'
p2043
sI188
I44
tp2044
a(F1.1558688561464916
S'Cell[1].dend[6] syn_ = new FastInhib(0.5)'
p2045
I1
(dp2046
S'seg'
p2047
F0.5
sS'hostfrom'
p2048
F45.0
sS'gid'
p2049
I141
sS'coords'
p2050
g7
(g8
(I0
tp2051
g10
tp2052
Rp2053
(I1
(I3
tp2054
g14
(S'f8'
p2055
I0
I1
tp2056
Rp2057
(I3
S'<'
p2058
NNNI-1
I-1
I0
tp2059
bI00
S'\xa64\xe2\xe8\xa6\x05@@\xc0\x1aV\xff2\xc35\xc0Hjw<4\x8b?\xc0'
p2060
tp2061
bsS'secnames'
p2062
S'Cell[2].axon[48]'
p2063
sI141
I92
tp2064
a(F1.8811860405024698
S'Cell[0].apic[2] syn_ = new ExpSid(0.3)'
p2065
I0
(dp2066
g2047
F0.49999999999999994
sg2048
F45.0
sg2049
I141
sg2050
g7
(g8
(I0
tp2067
g10
tp2068
Rp2069
(I1
(I3
tp2070
g2057
I00
S'\x0f\x89K\xbdRlF@\x13\x84\xaf\xab\xea\xa7C\xc0\xa9\xa4\x19\x83U\x12\x14\xc0'
p2071
tp2072
bsg2062
S'Cell[2].axon[147]'
p2073
sI141
I44
tp2074
a(F1.6636591465082302
S'Cell[3].dend[25] syn_ = new FastInhib(0.5)'
p2075
I3
(dp2076
g2047
F0.5
sg2048
F45.0
sg2049
I141
sg2050
g7
(g8
(I0
tp2077
g10
tp2078
Rp2079
(I1
(I3
tp2080
g2057
I00
S'7us$\x03\x19<\xc0\x052\xcfMBt0@\xbc&\xb7\n\x10UE\xc0'
p2081
tp2082
bsg2062
S'Cell[2].axon[450]'
p2083
sI141
I188
tp2084
a(F1.923938624014758
S'Cell[3].dend[10] syn_ = new FastInhib(0.5)'
p2085
I3
(dp2086
g2047
F0.8333333333333333
sg2048
F45.0
sg2049
I189
sg2050
g7
(g8
(I0
tp2087
g10
tp2088
Rp2089
(I1
(I3
tp2090
g2057
I00
S'\xf0(nr+\x834\xc0y\xa3\x1eP\x99o%\xc0\x00\x00\x00`\x8f\x02>\xc0'
p2091
tp2092
bsg2062
S'Cell[3].axon[96]'
p2093
sI189
I188
tp2094
a(F1.7182148435599416
S'Cell[2].dend[10] syn_ = new FastInhib(0.642857142857)'
p2095
I2
(dp2096
g2047
F0.5
sg2048
F45.0
sg2049
I93
sg2050
g7
(g8
(I0
tp2097
g10
tp2098
Rp2099
(I1
(I3
tp2100
g2057
I00
S"\x1c\xdb\x04#\x12:H\xc0\r\x98\xbf'I0P@\xcb\x83\xceG\xb4\xb9h\xc0"
p2101
tp2102
bsg2062
S'Cell[1].axon[129]'
p2103
sI93
I140
tp2104
a(F2.119006567671366
S'Cell[3].dend[44] syn_ = new FastInhib(0.5)'
p2105
I3
(dp2106
g2047
F0.5
sg2048
F45.0
sg2049
I93
sg2050
g7
(g8
(I0
tp2107
g10
tp2108
Rp2109
(I1
(I3
tp2110
g2057
I00
S'\x14,\x933\x07FR@\xe9\x1b\x13\x13\xf1xI@\x00\x00\x00`\xb8\x9e8\xc0'
p2111
tp2112
bsg2062
S'Cell[1].axon[288]'
p2113
sI93
I188
tp2114
a(F1.4523369571326923
S'Cell[3].dend[45] syn_ = new FastInhib(0.166666666667)'
p2115
I3
(dp2116
S'seg'
p2117
F0.8333333333333333
sS'hostfrom'
p2118
F46.0
sS'gid'
p2119
I94
sS'coords'
p2120
g7
(g8
(I0
tp2121
g10
tp2122
Rp2123
(I1
(I3
tp2124
g14
(S'f8'
p2125
I0
I1
tp2126
Rp2127
(I3
S'<'
p2128
NNNI-1
I-1
I0
tp2129
bI00
S'\x08;\xae\xea=\xcdP@\x00\x9e\xf88\xc8\xe0?@\x00\x00\x00@33\x1f@'
p2130
tp2131
bsS'secnames'
p2132
S'Cell[1].axon[186]'
p2133
sI94
I188
tp2134
a(F2.1075022139966366
S'Cell[0].apic[7] syn_ = new AmpaNmda(0.9)'
p2135
I0
(dp2136
g2117
F0.5
sg2118
F46.0
sg2119
I94
sg2120
g7
(g8
(I0
tp2137
g10
tp2138
Rp2139
(I1
(I3
tp2140
g2127
I00
S'\xb2W\xe4hN\xb4U@|\xf7\xac\x05u8\xe4\xbf\xd8\x90K\xcb\x14\x8fE\xc0'
p2141
tp2142
bsg2132
S'Cell[1].axon[280]'
p2143
sI94
I44
tp2144
a(F2.204746574605016
S'Cell[1].dend[24] syn_ = new FastInhib(0.192307692308)'
p2145
I1
(dp2146
g2117
F0.5
sg2118
F46.0
sg2119
I94
sg2120
g7
(g8
(I0
tp2147
g10
tp2148
Rp2149
(I1
(I3
tp2150
g2127
I00
S'L\x8c,\xddN\xe6E@\xfe\xf4\x1f\x1fh\x9cP@\x9a\x18\xd45PcK\xc0'
p2151
tp2152
bsg2132
S'Cell[1].axon[285]'
p2153
sI94
I92
tp2154
a(F2.290363552914999
S'Cell[1].dend[24] syn_ = new FastInhib(0.5)'
p2155
I1
(dp2156
S'seg'
p2157
F0.5
sS'hostfrom'
p2158
F47.0
sS'gid'
p2159
I95
sS'coords'
p2160
g7
(g8
(I0
tp2161
g10
tp2162
Rp2163
(I1
(I3
tp2164
g14
(S'f8'
p2165
I0
I1
tp2166
Rp2167
(I3
S'<'
p2168
NNNI-1
I-1
I0
tp2169
bI00
S'\xc34\x00\xa4\xb1\xf3P@q$o<K\x9cc@\x0c\xa64m\xbd\xd8V\xc0'
p2170
tp2171
bsS'secnames'
p2172
S'Cell[1].axon[288]'
p2173
sI95
I92
tp2174
a(F2.4691305142115034
S'Cell[1].dend[46] syn_ = new FastInhib(0.166666666667)'
p2175
I1
(dp2176
g2157
F0.7
sg2158
F47.0
sg2159
I143
sg2160
g7
(g8
(I0
tp2177
g10
tp2178
Rp2179
(I1
(I3
tp2180
g2167
I00
S'*&\x83n\x95\x88,@\x8a\xc9\xa0\x9b\x81\x91G@\x00\x00\x00\x00)\xdc%\xc0'
p2181
tp2182
bsg2172
S'Cell[2].axon[84]'
p2183
sI143
I92
tp2184
a(F1.0141856835362126
S'Cell[1].dend[37] syn_ = new FastInhib(0.1)'
p2185
I1
(dp2186
g2157
F0.07142857142857142
sg2158
F47.0
sg2159
I143
sg2160
g7
(g8
(I0
tp2187
g10
tp2188
Rp2189
(I1
(I3
tp2190
g2167
I00
S'\xaf\xe7, \x8aHA@$7f\x8bgOQ@\xaa\xad\xbd_\xe4e\x17\xc0'
p2191
tp2192
bsg2172
S'Cell[2].axon[134]'
p2193
sI143
I92
tp2194
a(F0.5105728321334466
S'Cell[3].dend[45] syn_ = new FastInhib(0.5)'
p2195
I3
(dp2196
g2157
F0.5
sg2158
F47.0
sg2159
I143
sg2160
g7
(g8
(I0
tp2197
g10
tp2198
Rp2199
(I1
(I3
tp2200
g2167
I00
S'\xf0\tc\xbd\xf9\x8dU@Y\xd4f_\xdb\xa3D@\xd9\xc6:w\x13H\x0b@'
p2201
tp2202
bsg2172
S'Cell[2].axon[177]'
p2203
sI143
I188
tp2204
a(F2.1799337181317684
S'Cell[3].dend[24] syn_ = new FastInhib(0.5)'
p2205
I3
(dp2206
g2157
F0.1
sg2158
F47.0
sg2159
I143
sg2160
g7
(g8
(I0
tp2207
g10
tp2208
Rp2209
(I1
(I3
tp2210
g2167
I00
S'\xe11\xd5\xefP\xd3\x18\xc0X\xd6|\x1d\xb4\x97C@\xc0v\x97\n\x95D9\xc0'
p2211
tp2212
bsg2172
S'Cell[2].axon[230]'
p2213
sI143
I188
tp2214
a(F2.362865071519585
S'Cell[1].dend[37] syn_ = new FastInhib(0.3)'
p2215
I1
(dp2216
g2157
F0.9285714285714284
sg2158
F47.0
sg2159
I47
sg2160
g7
(g8
(I0
tp2217
g10
tp2218
Rp2219
(I1
(I3
tp2220
g2167
I00
S'\x0c\xdb\xf2o\x1b\xd0:@\xd4\x83\xcezFEU@\xc7b\x02\xef\x93\xcb\x14\xc0'
p2221
tp2222
bsg2172
S'Cell[0].axon[15]'
p2223
sI47
I92
tp2224
a.