(lp0
(F2.2884540715744084
S'Cell[1].dend[10] syn_ = new ExpSid(0.166666666667)'
p1
I1
(dp2
S'seg'
p3
F0.30000000000000004
sS'hostfrom'
p4
F1.0
sS'gid'
p5
I145
sS'coords'
p6
cnumpy.core.multiarray
_reconstruct
p7
(cnumpy
ndarray
p8
(I0
tp9
S'b'
p10
tp11
Rp12
(I1
(I3
tp13
cnumpy
dtype
p14
(S'f8'
p15
I0
I1
tp16
Rp17
(I3
S'<'
p18
NNNI-1
I-1
I0
tp19
bI00
S'\x18\xe8\xf5k\xa3GS\xc0\xddT\xda\x92\xd87K@\xf0\xa6Q\xfd\xd5\xc2:\xc0'
p20
tp21
bsS'secnames'
p22
S'Cell[3].axon[31]'
p23
sI145
I51
tp24
a(F2.096736017141413
S'Cell[2].dend[35] syn_ = new FastInhib(0.5)'
p25
I2
(dp26
g3
F0.5
sg4
F1.0
sg5
I97
sg6
g7
(g8
(I0
tp27
g10
tp28
Rp29
(I1
(I3
tp30
g17
I00
S'\xdev,\x9c\x81\xab#@\x7f,\xabO\xf5\xa8?\xc0\x93\x81d\xee\x8d2\x1a@'
p31
tp32
bsg22
S'Cell[2].axon[164]'
p33
sI97
I99
tp34
a(F1.8788789162353061
S'Cell[1].dend[49] syn_ = new AmpaNmda(0.5)'
p35
I1
(dp36
S'seg'
p37
F0.30000000000000004
sS'hostfrom'
p38
F2.0
sS'gid'
p39
I98
sS'coords'
p40
g7
(g8
(I0
tp41
g10
tp42
Rp43
(I1
(I3
tp44
g14
(S'f8'
p45
I0
I1
tp46
Rp47
(I3
S'<'
p48
NNNI-1
I-1
I0
tp49
bI00
S'\x00\x00\x00\x80\x14\xeeH@\xea?\xbd\x08/\xc5:@*\x9e\x88\xb2\xbaO\x06\xc0'
p50
tp51
bsS'secnames'
p52
S'Cell[2].axon[187]'
p53
sI98
I51
tp54
a(F1.558017020603776
S'Cell[1].apic[45] syn_ = new AmpaNmda(0.5)'
p55
I1
(dp56
g37
F0.16666666666666666
sg38
F2.0
sg39
I98
sg40
g7
(g8
(I0
tp57
g10
tp58
Rp59
(I1
(I3
tp60
g47
I00
S'\xd6\x15\xd1\xaf?\xf7=\xc0\x10E\xcc\xcf=\xa5\\@\x8e\x8d>\xa0\xe1\xdb \xc0'
p61
tp62
bsg52
S'Cell[2].axon[283]'
p63
sI98
I51
tp64
a(F0.8436501887149976
S'Cell[1].apic[43] syn_ = new AmpaNmda(0.166666666667)'
p65
I1
(dp66
g37
F0.16666666666666666
sg38
F2.0
sg39
I98
sg40
g7
(g8
(I0
tp67
g10
tp68
Rp69
(I1
(I3
tp70
g47
I00
S"\xe7S7\xbf\x1aa'\xc0\x11D\xea\x9f\xa7(`@\x00\x00\x00\xe0Q\xf8<\xc0"
p71
tp72
bsg52
S'Cell[2].axon[293]'
p73
sI98
I51
tp74
a(F0.5437058824513906
S'Cell[1].apic[62] syn_ = new AmpaNmda(0.5)'
p75
I1
(dp76
g37
F0.5
sg38
F2.0
sg39
I98
sg40
g7
(g8
(I0
tp77
g10
tp78
Rp79
(I1
(I3
tp80
g47
I00
S'\x00\x00\x000\\O5\xc0\x00\x00\x00p\x14\xe6R@\x00\x00\x00@\n\xd7\x0b\xc0'
p81
tp82
bsg52
S'Cell[2].axon[369]'
p83
sI98
I51
tp84
a(F1.8230650729047706
S'Cell[1].apic[4] syn_ = new AmpaNmda(0.5)'
p85
I1
(dp86
g37
F0.30000000000000004
sg38
F2.0
sg39
I98
sg40
g7
(g8
(I0
tp87
g10
tp88
Rp89
(I1
(I3
tp90
g47
I00
S'\x86\x83\x83\xb4\xa8\x00@\xc0\x86\x0e\t\x0c\x9c\x91\\@\xfdC\xaf\x84\xe0\xf61\xc0'
p91
tp92
bsg52
S'Cell[2].axon[447]'
p93
sI98
I51
tp94
a(F1.8788789162353061
S'Cell[1].dend[49] syn_ = new ExpSid(0.5)'
p95
I1
(dp96
S'seg'
p97
F0.30000000000000004
sS'hostfrom'
p98
F3.0
sS'gid'
p99
I99
sS'coords'
p100
g7
(g8
(I0
tp101
g10
tp102
Rp103
(I1
(I3
tp104
g14
(S'f8'
p105
I0
I1
tp106
Rp107
(I3
S'<'
p108
NNNI-1
I-1
I0
tp109
bI00
S'\x00\x00\x00\x80\x14\xeeH@\xea?\xbd\x08/\xc5:@*\x9e\x88\xb2\xbaO\x06\xc0'
p110
tp111
bsS'secnames'
p112
S'Cell[2].axon[187]'
p113
sI99
I51
tp114
a(F1.558017020603776
S'Cell[1].apic[45] syn_ = new ExpSid(0.5)'
p115
I1
(dp116
g97
F0.16666666666666666
sg98
F3.0
sg99
I99
sg100
g7
(g8
(I0
tp117
g10
tp118
Rp119
(I1
(I3
tp120
g107
I00
S'\xd6\x15\xd1\xaf?\xf7=\xc0\x10E\xcc\xcf=\xa5\\@\x8e\x8d>\xa0\xe1\xdb \xc0'
p121
tp122
bsg112
S'Cell[2].axon[283]'
p123
sI99
I51
tp124
a(F0.8436501887149976
S'Cell[1].apic[43] syn_ = new ExpSid(0.166666666667)'
p125
I1
(dp126
g97
F0.16666666666666666
sg98
F3.0
sg99
I99
sg100
g7
(g8
(I0
tp127
g10
tp128
Rp129
(I1
(I3
tp130
g107
I00
S"\xe7S7\xbf\x1aa'\xc0\x11D\xea\x9f\xa7(`@\x00\x00\x00\xe0Q\xf8<\xc0"
p131
tp132
bsg112
S'Cell[2].axon[293]'
p133
sI99
I51
tp134
a(F0.5437058824513906
S'Cell[1].apic[62] syn_ = new ExpSid(0.5)'
p135
I1
(dp136
g97
F0.5
sg98
F3.0
sg99
I99
sg100
g7
(g8
(I0
tp137
g10
tp138
Rp139
(I1
(I3
tp140
g107
I00
S'\x00\x00\x000\\O5\xc0\x00\x00\x00p\x14\xe6R@\x00\x00\x00@\n\xd7\x0b\xc0'
p141
tp142
bsg112
S'Cell[2].axon[369]'
p143
sI99
I51
tp144
a(F1.8230650729047706
S'Cell[1].apic[4] syn_ = new ExpSid(0.5)'
p145
I1
(dp146
g97
F0.30000000000000004
sg98
F3.0
sg99
I99
sg100
g7
(g8
(I0
tp147
g10
tp148
Rp149
(I1
(I3
tp150
g107
I00
S'\x86\x83\x83\xb4\xa8\x00@\xc0\x86\x0e\t\x0c\x9c\x91\\@\xfdC\xaf\x84\xe0\xf61\xc0'
p151
tp152
bsg112
S'Cell[2].axon[447]'
p153
sI99
I51
tp154
a(F2.0238721250743734
S'Cell[3].dend[52] syn_ = new FastInhib(0.166666666667)'
p155
I3
(dp156
g97
F0.5
sg98
F3.0
sg99
I51
sg100
g7
(g8
(I0
tp157
g10
tp158
Rp159
(I1
(I3
tp160
g107
I00
S'ar\xa6\xac\x8d\xd8F\xc0Bn\xaadL\xc8D\xc0J\xbc\xb5\\\x95\xb6\x1d\xc0'
p161
tp162
bsg112
S'Cell[1].axon[4]'
p163
sI51
I147
tp164
a(F1.325794120072993
S'Cell[3].dend[21] syn_ = new FastInhib(0.5)'
p165
I3
(dp166
S'seg'
p167
F0.8333333333333333
sS'hostfrom'
p168
F4.0
sS'gid'
p169
I148
sS'coords'
p170
g7
(g8
(I0
tp171
g10
tp172
Rp173
(I1
(I3
tp174
g14
(S'f8'
p175
I0
I1
tp176
Rp177
(I3
S'<'
p178
NNNI-1
I-1
I0
tp179
bI00
S'\x90+\x18\xa7\xab\x1f*@}-\x10:#\xfeX\xc0\xfe\x15\xa3F9`N\xc0'
p180
tp181
bsS'secnames'
p182
S'Cell[3].axon[385]'
p183
sI148
I147
tp184
a(F0.8552459282977901
S'Cell[3].dend[1] syn_ = new FastInhib(0.5)'
p185
I3
(dp186
S'seg'
p187
F0.7
sS'hostfrom'
p188
F5.0
sS'gid'
p189
I149
sS'coords'
p190
g7
(g8
(I0
tp191
g10
tp192
Rp193
(I1
(I3
tp194
g14
(S'f8'
p195
I0
I1
tp196
Rp197
(I3
S'<'
p198
NNNI-1
I-1
I0
tp199
bI00
S'\xe8\xf7\xb3\xf5/\x12\x1c\xc0P\xc7\xbed\x85#\x18\xc0\x04\x0cc\xac\xf5\xda\x0b@'
p200
tp201
bsS'secnames'
p202
S'Cell[3].axon[11]'
p203
sI149
I147
tp204
a(F1.20234083598228
S'Cell[1].dend[27] syn_ = new AmpaNmda(0.166666666667)'
p205
I1
(dp206
S'seg'
p207
F0.5
sS'hostfrom'
p208
F6.0
sS'gid'
p209
I150
sS'coords'
p210
g7
(g8
(I0
tp211
g10
tp212
Rp213
(I1
(I3
tp214
g14
(S'f8'
p215
I0
I1
tp216
Rp217
(I3
S'<'
p218
NNNI-1
I-1
I0
tp219
bI00
S"\xfc\xd4>\x95\xc35 \xc0\xd2\xd4\xe2'\xd6\xd1F@\x00\x00\x00\x80\x14\xee>\xc0"
p220
tp221
bsS'secnames'
p222
S'Cell[3].axon[41]'
p223
sI150
I51
tp224
a(F1.453175510101257
S'Cell[1].dend[27] syn_ = new AmpaNmda(0.166666666667)'
p225
I1
(dp226
g207
F0.16666666666666666
sg208
F6.0
sg209
I150
sg210
g7
(g8
(I0
tp227
g10
tp228
Rp229
(I1
(I3
tp230
g217
I00
S'\x81?3\xa8J\xb5\x1d\xc0\x00,K9\x9e\xd5F@\x00\x00\x00\x80\x14\xee>\xc0'
p231
tp232
bsg222
S'Cell[3].axon[42]'
p233
sI150
I51
tp234
a(F1.9362980198972777
S'Cell[1].dend[27] syn_ = new AmpaNmda(0.166666666667)'
p235
I1
(dp236
g207
F0.16666666666666666
sg208
F6.0
sg209
I150
sg210
g7
(g8
(I0
tp237
g10
tp238
Rp239
(I1
(I3
tp240
g217
I00
S'\x02Z\xf5\x92\xf3r#\xc0\xbeZ\x1fH\n\xc0F@\x00\x00\x00\x80\x14\xee>\xc0'
p241
tp242
bsg222
S'Cell[3].axon[58]'
p243
sI150
I51
tp244
a(F2.2211742718206753
S'Cell[1].dend[26] syn_ = new AmpaNmda(0.5)'
p245
I1
(dp246
g207
F0.5
sg208
F6.0
sg209
I150
sg210
g7
(g8
(I0
tp247
g10
tp248
Rp249
(I1
(I3
tp250
g217
I00
S'\\\xf6\xa2:\xcf\xe11\xc0\x7f\xe6\xb5\x1b\xa9\xa0G@\x01\x00\x00\x80\x14\xee>\xc0'
p251
tp252
bsg222
S'Cell[3].axon[149]'
p253
sI150
I51
tp254
a(F1.8859895251804382
S'Cell[1].dend[28] syn_ = new ExpSid(0.166666666667)'
p255
I1
(dp256
S'seg'
p257
F0.5
sS'hostfrom'
p258
F7.0
sS'gid'
p259
I103
sS'coords'
p260
g7
(g8
(I0
tp261
g10
tp262
Rp263
(I1
(I3
tp264
g14
(S'f8'
p265
I0
I1
tp266
Rp267
(I3
S'<'
p268
NNNI-1
I-1
I0
tp269
bI00
S"\xb7\x8c'g\xbf\xceB@\xf2\xc0\x80Q7\x954@\xeegl!\xf7\xd5#\xc0"
p270
tp271
bsS'secnames'
p272
S'Cell[2].axon[10]'
p273
sI103
I51
tp274
a(F1.4526297859817807
S'Cell[2].dend[44] syn_ = new FastInhib(0.5)'
p275
I2
(dp276
g257
F0.7
sg258
F7.0
sg259
I103
sg260
g7
(g8
(I0
tp277
g10
tp278
Rp279
(I1
(I3
tp280
g267
I00
S'c\xda\x86\x9f\xec\xb7F\xc0\x1f\xcd=\xd2>\xc3\x03\xc0\x00\x00\x00\x80\xc2\xf5"\xc0'
p281
tp282
bsg272
S'Cell[2].axon[88]'
p283
sI103
I99
tp284
a(F1.6765180898527983
S'Cell[1].dend[49] syn_ = new ExpSid(0.166666666667)'
p285
I1
(dp286
g257
F0.8333333333333333
sg258
F7.0
sg259
I103
sg260
g7
(g8
(I0
tp287
g10
tp288
Rp289
(I1
(I3
tp290
g267
I00
S'\xcc|6\xa9\xb1\x112@\x9a\xb3Co\x86OC@\x00\x00\x00\xa0\x99\x99\x0f\xc0'
p291
tp292
bsg272
S'Cell[2].axon[403]'
p293
sI103
I51
tp294
a(F2.4991480179217582
S'Cell[3].dend[10] syn_ = new FastInhib(0.5)'
p295
I3
(dp296
g257
F0.5
sg258
F7.0
sg259
I151
sg260
g7
(g8
(I0
tp297
g10
tp298
Rp299
(I1
(I3
tp300
g267
I00
S'\x88(\xdfSo\x17&@*\xa6\xb6\x0e\xfc&4\xc0\x00\x00\x00@\xe1z*\xc0'
p301
tp302
bsg272
S'Cell[3].axon[4]'
p303
sI151
I147
tp304
a(F2.4425057915567105
S'Cell[3].dend[11] syn_ = new FastInhib(0.1)'
p305
I3
(dp306
g257
F0.5
sg258
F7.0
sg259
I151
sg260
g7
(g8
(I0
tp307
g10
tp308
Rp309
(I1
(I3
tp310
g267
I00
S'\x1e\x86\x0e\x08\xe3\x9c5@\xf5\x02\xae\xbd\x93\x88?\xc0\xd1\x0ci!\xab\xbe)\xc0'
p311
tp312
bsg272
S'Cell[3].axon[69]'
p313
sI151
I147
tp314
a(F1.46299789315997
S'Cell[1].apic[3] syn_ = new AmpaNmda(0.5)'
p315
I1
(dp316
S'seg'
p317
F0.16666666666666666
sS'hostfrom'
p318
F8.0
sS'gid'
p319
I104
sS'coords'
p320
g7
(g8
(I0
tp321
g10
tp322
Rp323
(I1
(I3
tp324
g14
(S'f8'
p325
I0
I1
tp326
Rp327
(I3
S'<'
p328
NNNI-1
I-1
I0
tp329
bI00
S'@l\x7fw6o=\xc0"a\xa5"\xa6\xf0X@\x00\x00\x00\xa0G\xe1(\xc0'
p330
tp331
bsS'secnames'
p332
S'Cell[2].axon[390]'
p333
sI104
I51
tp334
a(F2.3850688043432005
S'Cell[1].dend[46] syn_ = new AmpaNmda(0.833333333333)'
p335
I1
(dp336
g317
F0.5
sg318
F8.0
sg319
I104
sg320
g7
(g8
(I0
tp337
g10
tp338
Rp339
(I1
(I3
tp340
g327
I00
S'\xcf_\t"\xe3\xff\xf9\xbf=\x05\x1eO\xd6\xe0R@\xca\x11\x8a\xf9\x8cy3@'
p341
tp342
bsg332
S'Cell[2].axon[432]'
p343
sI104
I51
tp344
a(F0.9808904241549844
S'Cell[1].dend[30] syn_ = new ExpSid(0.5)'
p345
I1
(dp346
S'seg'
p347
F0.8333333333333333
sS'hostfrom'
p348
F9.0
sS'gid'
p349
I153
sS'coords'
p350
g7
(g8
(I0
tp351
g10
tp352
Rp353
(I1
(I3
tp354
g14
(S'f8'
p355
I0
I1
tp356
Rp357
(I3
S'<'
p358
NNNI-1
I-1
I0
tp359
bI00
S'!\xb8\x8a\x1b\xff\xdcD@\xc3\xa5\x04\x9c/\xebD\xc0\x17\x80*Jg\xcb%@'
p360
tp361
bsS'secnames'
p362
S'Cell[3].axon[14]'
p363
sI153
I51
tp364
a(F2.4314511853655083
S'Cell[1].dend[28] syn_ = new ExpSid(0.5)'
p365
I1
(dp366
g347
F0.16666666666666666
sg348
F9.0
sg349
I153
sg350
g7
(g8
(I0
tp367
g10
tp368
Rp369
(I1
(I3
tp370
g357
I00
S'h\xbd\xc4I"\xbeE@^\x14\xd9\x0f\xfe\xe6\x04@auU\x98"\x9c\xe7\xbf'
p371
tp372
bsg362
S'Cell[3].axon[37]'
p373
sI153
I51
tp374
a(F2.221949782251866
S'Cell[3].dend[14] syn_ = new FastInhib(0.1)'
p375
I3
(dp376
g347
F0.16666666666666666
sg348
F9.0
sg349
I105
sg350
g7
(g8
(I0
tp377
g10
tp378
Rp379
(I1
(I3
tp380
g357
I00
S'\x9f\xa6Q\xc6\xf9- @\xeeN4\x0cQ\x9dB\xc0\x00\x00\x00\x00\xd7c9\xc0'
p381
tp382
bsg362
S'Cell[2].axon[5]'
p383
sI105
I147
tp384
a(F2.4722700292509083
S'Cell[3].dend[14] syn_ = new FastInhib(0.5)'
p385
I3
(dp386
S'seg'
p387
F0.5
sS'hostfrom'
p388
F10.0
sS'gid'
p389
I106
sS'coords'
p390
g7
(g8
(I0
tp391
g10
tp392
Rp393
(I1
(I3
tp394
g14
(S'f8'
p395
I0
I1
tp396
Rp397
(I3
S'<'
p398
NNNI-1
I-1
I0
tp399
bI00
S'x\xdf\xdc\xf00\x88\x17\xc0\xa3f\xa3\x86T\xaeQ\xc0(\x98y\xea\xa3\xf2B\xc0'
p400
tp401
bsS'secnames'
p402
S'Cell[2].axon[33]'
p403
sI106
I147
tp404
a(F1.2933217278137623
S'Cell[1].apic[44] syn_ = new AmpaNmda(0.833333333333)'
p405
I1
(dp406
g387
F0.5
sg388
F10.0
sg389
I106
sg390
g7
(g8
(I0
tp407
g10
tp408
Rp409
(I1
(I3
tp410
g397
I00
S'B\x02\xee\xe9\xe8&G@\x8cz\xa8?\xc9\xcf`@\x18!\xe1\x9bAa-\xc0'
p411
tp412
bsg402
S'Cell[2].axon[58]'
p413
sI106
I51
tp414
a(F1.4401512418388287
S'Cell[2].dend[11] syn_ = new FastInhib(0.833333333333)'
p415
I2
(dp416
g387
F0.5
sg388
F10.0
sg389
I106
sg390
g7
(g8
(I0
tp417
g10
tp418
Rp419
(I1
(I3
tp420
g397
I00
S"\x98\xa9\xceR\xf5\x80\x10@\xde\xf9\x9b\x19\xe2\x9ad@h(&\xbc\x8b\xa0'@"
p421
tp422
bsg402
S'Cell[2].axon[65]'
p423
sI106
I99
tp424
a(F1.6755271749669385
S'Cell[2].dend[39] syn_ = new FastInhib(0.166666666667)'
p425
I2
(dp426
g387
F0.16666666666666666
sg388
F10.0
sg389
I106
sg390
g7
(g8
(I0
tp427
g10
tp428
Rp429
(I1
(I3
tp430
g397
I00
S'h=\xb0u\xdc\xb32@K\x8e\x866t-:\xc0\xf4\x93a\xf6\x91\x11\x1d@'
p431
tp432
bsg402
S'Cell[2].axon[182]'
p433
sI106
I99
tp434
a(F2.445770759784643
S'Cell[3].dend[11] syn_ = new FastInhib(0.9)'
p435
I3
(dp436
g387
F0.5
sg388
F10.0
sg389
I106
sg390
g7
(g8
(I0
tp437
g10
tp438
Rp439
(I1
(I3
tp440
g397
I00
S'zY\x05\xeb~_]@\xa4\xc4K\xe5\xea[8\xc0|\x8a\x84\xb0\xdb\xcf=\xc0'
p441
tp442
bsg402
S'Cell[2].axon[292]'
p443
sI106
I147
tp444
a(F1.9173810274614262
S'Cell[1].dend[27] syn_ = new AmpaNmda(0.166666666667)'
p445
I1
(dp446
g387
F0.5
sg388
F10.0
sg389
I106
sg390
g7
(g8
(I0
tp447
g10
tp448
Rp449
(I1
(I3
tp450
g397
I00
S'\x94x\r\x84\x0c\xf3#\xc0}\xd6\x9c\x9d\x07TG@\x82\x08t\x80\xdc"@\xc0'
p451
tp452
bsg402
S'Cell[2].axon[305]'
p453
sI106
I51
tp454
a(F0.49585693676625203
S'Cell[1].apic[44] syn_ = new AmpaNmda(0.166666666667)'
p455
I1
(dp456
g387
F0.5
sg388
F10.0
sg389
I106
sg390
g7
(g8
(I0
tp457
g10
tp458
Rp459
(I1
(I3
tp460
g397
I00
S'\xac\xeb>G\xaa\xd4$\xc0\xd8t\x7f\xb37\xc1^@E3\xd3\xe5\xfe\xc51\xc0'
p461
tp462
bsg402
S'Cell[2].axon[311]'
p463
sI106
I51
tp464
a(F0.9549732001403064
S'Cell[2].dend[26] syn_ = new FastInhib(0.5)'
p465
I2
(dp466
g387
F0.8333333333333333
sg388
F10.0
sg389
I106
sg390
g7
(g8
(I0
tp467
g10
tp468
Rp469
(I1
(I3
tp470
g397
I00
S'\xec\xdd&\x087`\x1d@{yn\xb3O\x13!@\x97\xaa\x18\xc5%\xaaB\xc0'
p471
tp472
bsg402
S'Cell[2].axon[337]'
p473
sI106
I99
tp474
a(F2.1323427202347833
S'Cell[1].dend[50] syn_ = new AmpaNmda(0.166666666667)'
p475
I1
(dp476
g387
F0.5
sg388
F10.0
sg389
I106
sg390
g7
(g8
(I0
tp477
g10
tp478
Rp479
(I1
(I3
tp480
g397
I00
S'9\xdc\xfcB\xb2p+@JR\x88\x06^;B@\xbc\x9f\x01\xf5]\xf1!\xc0'
p481
tp482
bsg402
S'Cell[2].axon[347]'
p483
sI106
I51
tp484
a(F2.159035580206186
S'Cell[2].dend[26] syn_ = new FastInhib(0.5)'
p485
I2
(dp486
g387
F0.5
sg388
F10.0
sg389
I106
sg390
g7
(g8
(I0
tp487
g10
tp488
Rp489
(I1
(I3
tp490
g397
I00
S'\xca\x8a\xcb\xf9\xeb|\x19@\xdc/\x90\xfc\x9a\xa9\x1a@\xb6\xdc\xe0\x96\x07\nC\xc0'
p491
tp492
bsg402
S'Cell[2].axon[349]'
p493
sI106
I99
tp494
a(F2.330193155141476
S'Cell[1].dend[35] syn_ = new AmpaNmda(0.9)'
p495
I1
(dp496
g387
F0.30000000000000004
sg388
F10.0
sg389
I106
sg390
g7
(g8
(I0
tp497
g10
tp498
Rp499
(I1
(I3
tp500
g397
I00
S'(\xe4\xe9\xb4\x8bb\xc9?G\x821\xbdc@\xfc\xbf\xf0\xef\xa5\xa9\x1f\xe5Z\xc0'
p501
tp502
bsg402
S'Cell[2].axon[388]'
p503
sI106
I51
tp504
a(F0.9089141740913812
S'Cell[2].dend[36] syn_ = new FastInhib(0.1)'
p505
I2
(dp506
g387
F0.5
sg388
F10.0
sg389
I58
sg390
g7
(g8
(I0
tp507
g10
tp508
Rp509
(I1
(I3
tp510
g397
I00
S'\x8f\xff&\x81Y\xe7$@\xad}\xea\xb9\x87VF\xc0\xe7\x87\xd0\xcd\xb9\xf1\x19@'
p511
tp512
bsg402
S'Cell[1].axon[9]'
p513
sI58
I99
tp514
a(F2.17909218698571
S'Cell[1].dend[8] syn_ = new ExpSid(0.166666666667)'
p515
I1
(dp516
S'seg'
p517
F0.8333333333333333
sS'hostfrom'
p518
F11.0
sS'gid'
p519
I59
sS'coords'
p520
g7
(g8
(I0
tp521
g10
tp522
Rp523
(I1
(I3
tp524
g14
(S'f8'
p525
I0
I1
tp526
Rp527
(I3
S'<'
p528
NNNI-1
I-1
I0
tp529
bI00
S'\xf7\x0f\x17\xe3\xbf\x8cQ\xc0\xc7\xbd\x02\xcd"r@@(\x06\x95\x85t]E\xc0'
p530
tp531
bsS'secnames'
p532
S'Cell[1].axon[61]'
p533
sI59
I51
tp534
a(F1.8362213337020306
S'Cell[3].dend[14] syn_ = new FastInhib(0.3)'
p535
I3
(dp536
g517
F0.7
sg518
F11.0
sg519
I155
sg520
g7
(g8
(I0
tp537
g10
tp538
Rp539
(I1
(I3
tp540
g527
I00
S'O\xa4\x1f\xf1\x92\xbb\x12@\xf3\x05\xe69\xed\xe5K\xc0\x00\x00\x00@\nW<\xc0'
p541
tp542
bsg532
S'Cell[3].axon[71]'
p543
sI155
I147
tp544
a(F1.80759573938333
S'Cell[1].apic[60] syn_ = new ExpSid(0.166666666667)'
p545
I1
(dp546
g517
F0.16666666666666666
sg518
F11.0
sg519
I155
sg520
g7
(g8
(I0
tp547
g10
tp548
Rp549
(I1
(I3
tp550
g527
I00
S'\x169\x8b\xa8x\xb5C\xc0X\xdf\xc5.\xe4!Q@\xa8p\x9fG*\xe6\x11@'
p551
tp552
bsg532
S'Cell[3].axon[179]'
p553
sI155
I51
tp554
a(F2.458139160527655
S'Cell[2].dend[44] syn_ = new FastInhib(0.5)'
p555
I2
(dp556
S'seg'
p557
F0.5
sS'hostfrom'
p558
F12.0
sS'gid'
p559
I156
sS'coords'
p560
g7
(g8
(I0
tp561
g10
tp562
Rp563
(I1
(I3
tp564
g14
(S'f8'
p565
I0
I1
tp566
Rp567
(I3
S'<'
p568
NNNI-1
I-1
I0
tp569
bI00
S'z\x175\x9f\x1b\xc6F\xc0 \x17\x1b\x7f\x9c\xee\xbe?\xfa\x9f\xdd\xd6\xb3\xaf!\xc0'
p570
tp571
bsS'secnames'
p572
S'Cell[3].axon[623]'
p573
sI156
I99
tp574
a(F1.6856533994311675
S'Cell[1].apic[54] syn_ = new AmpaNmda(0.833333333333)'
p575
I1
(dp576
g557
F0.16666666666666666
sg558
F12.0
sg559
I108
sg560
g7
(g8
(I0
tp577
g10
tp578
Rp579
(I1
(I3
tp580
g567
I00
S'f\x0b\xaev\x05~R\xc0$\x04\xae6\x83}`@\xd1\x03A\xd3\xe2\xa3B@'
p581
tp582
bsg572
S'Cell[2].axon[74]'
p583
sI108
I51
tp584
a(F1.9820801998867146
S'Cell[1].apic[64] syn_ = new ExpSid(0.166666666667)'
p585
I1
(dp586
S'seg'
p587
F0.16666666666666666
sS'hostfrom'
p588
F13.0
sS'gid'
p589
I109
sS'coords'
p590
g7
(g8
(I0
tp591
g10
tp592
Rp593
(I1
(I3
tp594
g14
(S'f8'
p595
I0
I1
tp596
Rp597
(I3
S'<'
p598
NNNI-1
I-1
I0
tp599
bI00
S'\x00\x00\x00\x80\xc2\xf5\x1a\xc0\xf6\xd8\xc7\xddl\x08S@\x9f\x03\ri\x02\xe1(@'
p600
tp601
bsS'secnames'
p602
S'Cell[2].axon[235]'
p603
sI109
I51
tp604
a(F2.1989783790011153
S'Cell[1].dend[38] syn_ = new ExpSid(0.5)'
p605
I1
(dp606
S'seg'
p607
F0.30000000000000004
sS'hostfrom'
p608
F15.0
sS'gid'
p609
I111
sS'coords'
p610
g7
(g8
(I0
tp611
g10
tp612
Rp613
(I1
(I3
tp614
g14
(S'f8'
p615
I0
I1
tp616
Rp617
(I3
S'<'
p618
NNNI-1
I-1
I0
tp619
bI00
S':\xdd\xc5\xe1gf9\xc0\x1c_\xed\xf5\xc8oM@e\x9dz\xd9:MB\xc0'
p620
tp621
bsS'secnames'
p622
S'Cell[2].axon[260]'
p623
sI111
I51
tp624
a(F1.6304333603326209
S'Cell[3].dend[10] syn_ = new FastInhib(0.5)'
p625
I3
(dp626
g607
F0.5
sg608
F15.0
sg609
I159
sg610
g7
(g8
(I0
tp627
g10
tp628
Rp629
(I1
(I3
tp630
g617
I00
S' \xe0\x0455\xe9"@\x12)2\xef\xd3V4\xc0%\x0b\x14c\xebf(\xc0'
p631
tp632
bsg622
S'Cell[3].axon[80]'
p633
sI159
I147
tp634
a(F1.8514044707990542
S'Cell[2].dend[31] syn_ = new FastInhib(0.1)'
p635
I2
(dp636
S'seg'
p637
F0.8333333333333333
sS'hostfrom'
p638
F17.0
sS'gid'
p639
I113
sS'coords'
p640
g7
(g8
(I0
tp641
g10
tp642
Rp643
(I1
(I3
tp644
g14
(S'f8'
p645
I0
I1
tp646
Rp647
(I3
S'<'
p648
NNNI-1
I-1
I0
tp649
bI00
S'\xee*\xcf\xa1m\xa7\x1e\xc0C\n\x8cY]p%\xc0^\x99:\x91\x87\xe6\xf3\xbf'
p650
tp651
bsS'secnames'
p652
S'Cell[2].axon[496]'
p653
sI113
I99
tp654
a(F2.3189237972679986
S'Cell[3].dend[11] syn_ = new FastInhib(0.1)'
p655
I3
(dp656
g637
F0.16666666666666666
sg638
F17.0
sg639
I113
sg640
g7
(g8
(I0
tp657
g10
tp658
Rp659
(I1
(I3
tp660
g647
I00
S'$\x9a\xe5\xbd\x95\x1e7@Q\x18\xe9\xc3\x16\xaa@\xc0\x0e\xff`\x16K\x12&\xc0'
p661
tp662
bsg652
S'Cell[2].axon[609]'
p663
sI113
I147
tp664
a(F2.4437992075611525
S'Cell[1].dend[11] syn_ = new ExpSid(0.5)'
p665
I1
(dp666
g637
F0.5
sg638
F17.0
sg639
I161
sg640
g7
(g8
(I0
tp667
g10
tp668
Rp669
(I1
(I3
tp670
g647
I00
S'\xb0x\x18\x85\xa3\x07I\xc0\xd8 \xa1\xfdy\xd1K@\xfc\xd1T\xd5\x9c\x1dC\xc0'
p671
tp672
bsg652
S'Cell[3].axon[90]'
p673
sI161
I51
tp674
a(F1.8998933160318368
S'Cell[0].apic[127] syn_ = new ExpSid(0.5)'
p675
I0
(dp676
g637
F0.16666666666666666
sg638
F17.0
sg639
I161
sg640
g7
(g8
(I0
tp677
g10
tp678
Rp679
(I1
(I3
tp680
g647
I00
S'\xea\xc1\x03I\xd6\xb4[\xc0B\xc8\xa9\xf0f\xc2\\@\xe5\x87\xe9\xa7\x97\x04G@'
p681
tp682
bsg652
S'Cell[3].axon[188]'
p683
sI161
I3
tp684
a(F2.3991245372831482
S'Cell[1].apic[53] syn_ = new ExpSid(0.5)'
p685
I1
(dp686
g637
F0.16666666666666666
sg638
F17.0
sg639
I161
sg640
g7
(g8
(I0
tp687
g10
tp688
Rp689
(I1
(I3
tp690
g647
I00
S'\xe8YzY\x01\x9dS\xc0?\xdfM\xb8\n\\c@-\xcc\xc9\xc1l\x196@'
p691
tp692
bsg652
S'Cell[3].axon[190]'
p693
sI161
I51
tp694
a(F1.7901798467439813
S'Cell[1].dend[8] syn_ = new ExpSid(0.833333333333)'
p695
I1
(dp696
g637
F0.3888888888888889
sg638
F17.0
sg639
I161
sg640
g7
(g8
(I0
tp697
g10
tp698
Rp699
(I1
(I3
tp700
g647
I00
S'\x892\xb7\xeb\x9a\xc2W\xc0\xb8\x7f\xda\xbe\xe64\xd1\xbf\x85\xab\xacoY{S\xc0'
p701
tp702
bsg652
S'Cell[3].axon[239]'
p703
sI161
I51
tp704
a(F2.2318094964480704
S'Cell[0].apic[129] syn_ = new AmpaNmda(0.9)'
p705
I0
(dp706
S'seg'
p707
F0.5
sS'hostfrom'
p708
F18.0
sS'gid'
p709
I114
sS'coords'
p710
g7
(g8
(I0
tp711
g10
tp712
Rp713
(I1
(I3
tp714
g14
(S'f8'
p715
I0
I1
tp716
Rp717
(I3
S'<'
p718
NNNI-1
I-1
I0
tp719
bI00
S'\xbb\xa9\xac\x85\x8b\xc5C\xc0\x8b\xe4\xe3\x9d\x8b\x8a)@\x00\x00\x00@3\xb3+\xc0'
p720
tp721
bsS'secnames'
p722
S'Cell[2].axon[78]'
p723
sI114
I3
tp724
a(F2.3400132568255665
S'Cell[0].dend[1] syn_ = new AmpaNmda(0.166666666667)'
p725
I0
(dp726
g707
F0.1
sg708
F18.0
sg709
I114
sg710
g7
(g8
(I0
tp727
g10
tp728
Rp729
(I1
(I3
tp730
g717
I00
S'J\xef2I\x1d9:@\x7f]o\xfd8q;\xc0\x07>9\x1c \x1e2@'
p731
tp732
bsg722
S'Cell[2].axon[87]'
p733
sI114
I3
tp734
a(F1.6962327218909423
S'Cell[3].dend[16] syn_ = new FastInhib(0.5)'
p735
I3
(dp736
g707
F0.7
sg708
F18.0
sg709
I162
sg710
g7
(g8
(I0
tp737
g10
tp738
Rp739
(I1
(I3
tp740
g717
I00
S'T7\x8e\x01M\x059@:\xa7!\xb8\x1aHC\xc0\x00\x00\x00\x80\x14\x8eB\xc0'
p741
tp742
bsg722
S'Cell[3].axon[23]'
p743
sI162
I147
tp744
a(F2.4742043861366825
S'Cell[1].dend[34] syn_ = new AmpaNmda(0.833333333333)'
p745
I1
(dp746
g707
F0.1
sg708
F18.0
sg709
I162
sg710
g7
(g8
(I0
tp747
g10
tp748
Rp749
(I1
(I3
tp750
g717
I00
S'&\xcb\xd4\x9e\x8f35@\xad\x90]\xa1\x90\xa6\x03\xc0\xbe\x89\xe4\x9bzK\x17\xc0'
p751
tp752
bsg722
S'Cell[3].axon[92]'
p753
sI162
I51
tp754
a(F1.408364488749675
S'Cell[1].dend[27] syn_ = new AmpaNmda(0.166666666667)'
p755
I1
(dp756
g707
F0.1
sg708
F18.0
sg709
I162
sg710
g7
(g8
(I0
tp757
g10
tp758
Rp759
(I1
(I3
tp760
g717
I00
S'p\xb3B\x96\x06\x9c"\xc0\xc7\xb8\xf7\x10\xcc\xfdF@\x00\x00\x00\x80\xc2\xb5>\xc0'
p761
tp762
bsg722
S'Cell[3].axon[97]'
p763
sI162
I51
tp764
a(F2.4317366843293793
S'Cell[2].dend[2] syn_ = new FastInhib(0.166666666667)'
p765
I2
(dp766
g707
F0.8333333333333333
sg708
F18.0
sg709
I162
sg710
g7
(g8
(I0
tp767
g10
tp768
Rp769
(I1
(I3
tp770
g717
I00
S'\x16l\x14\xbaG\xc7\x10@8\x9f\x8a\xd2\x91*:@\xe5\xd0\xa0o\t\xc11@'
p771
tp772
bsg722
S'Cell[3].axon[181]'
p773
sI162
I99
tp774
a(F1.1861877664236307
S'Cell[1].dend[10] syn_ = new ExpSid(0.5)'
p775
I1
(dp776
S'seg'
p777
F0.5
sS'hostfrom'
p778
F19.0
sS'gid'
p779
I115
sS'coords'
p780
g7
(g8
(I0
tp781
g10
tp782
Rp783
(I1
(I3
tp784
g14
(S'f8'
p785
I0
I1
tp786
Rp787
(I3
S'<'
p788
NNNI-1
I-1
I0
tp789
bI00
S'C\xedZ\\\x19\x19Z\xc0;y\x974-\xbaK@8 |\xa1,\xec4\xc0'
p790
tp791
bsS'secnames'
p792
S'Cell[2].axon[33]'
p793
sI115
I51
tp794
a(F2.3501782152038033
S'Cell[2].dend[21] syn_ = new FastInhib(0.5)'
p795
I2
(dp796
S'seg'
p797
F0.1
sS'hostfrom'
p798
F20.0
sS'gid'
p799
I164
sS'coords'
p800
g7
(g8
(I0
tp801
g10
tp802
Rp803
(I1
(I3
tp804
g14
(S'f8'
p805
I0
I1
tp806
Rp807
(I3
S'<'
p808
NNNI-1
I-1
I0
tp809
bI00
S'\x14\xcd\xb9\xcfQ83@;\xb8|\x1eO5\r@\x00\x00\x00\xe0zT8@'
p810
tp811
bsS'secnames'
p812
S'Cell[3].axon[0]'
p813
sI164
I99
tp814
a(F1.7576130570945083
S'Cell[3].dend[36] syn_ = new FastInhib(0.5)'
p815
I3
(dp816
S'seg'
p817
F0.21428571428571427
sS'hostfrom'
p818
F21.0
sS'gid'
p819
I165
sS'coords'
p820
g7
(g8
(I0
tp821
g10
tp822
Rp823
(I1
(I3
tp824
g14
(S'f8'
p825
I0
I1
tp826
Rp827
(I3
S'<'
p828
NNNI-1
I-1
I0
tp829
bI00
S'\xd0B\r\x8cg\xe2M@;\x94)\x190!*\xc08\xe1\xea\x861*=\xc0'
p830
tp831
bsS'secnames'
p832
S'Cell[3].axon[26]'
p833
sI165
I147
tp834
a(F1.7748496358510713
S'Cell[1].apic[56] syn_ = new ExpSid(0.1)'
p835
I1
(dp836
g817
F0.5
sg818
F21.0
sg819
I165
sg820
g7
(g8
(I0
tp837
g10
tp838
Rp839
(I1
(I3
tp840
g827
I00
S'\x00\x00\x00\xe0Q\x08H\xc0\x00\x00\x00`\x8f\x8aW@\x00\x00\x00\xa0\x99y=\xc0'
p841
tp842
bsg832
S'Cell[3].axon[76]'
p843
sI165
I51
tp844
a(F1.6159203025146907
S'Cell[1].dend[27] syn_ = new ExpSid(0.166666666667)'
p845
I1
(dp846
g817
F0.16666666666666666
sg818
F21.0
sg819
I117
sg820
g7
(g8
(I0
tp847
g10
tp848
Rp849
(I1
(I3
tp850
g827
I00
S'\x01,\x8b\xcf\r\x1f \xc0\x16\xc11T\x9c\x94G@\xd6\xfd^\xc6:\xca=\xc0'
p851
tp852
bsg832
S'Cell[2].axon[14]'
p853
sI117
I51
tp854
a(F2.3818470503558236
S'Cell[2].dend[48] syn_ = new FastInhib(0.5)'
p855
I2
(dp856
g817
F0.7857142857142856
sg818
F21.0
sg819
I21
sg820
g7
(g8
(I0
tp857
g10
tp858
Rp859
(I1
(I3
tp860
g827
I00
S' \x94\xa7\x05v]P@\x9c\xc3\x07\x91\xc2]4@\x00\x00\x00\xe0\xa3p0@'
p861
tp862
bsg832
S'Cell[0].axon[62]'
p863
sI21
I99
tp864
a(F1.4424869520459584
S'Cell[3].dend[49] syn_ = new FastInhib(0.5)'
p865
I3
(dp866
S'seg'
p867
F0.5
sS'hostfrom'
p868
F22.0
sS'gid'
p869
I70
sS'coords'
p870
g7
(g8
(I0
tp871
g10
tp872
Rp873
(I1
(I3
tp874
g14
(S'f8'
p875
I0
I1
tp876
Rp877
(I3
S'<'
p878
NNNI-1
I-1
I0
tp879
bI00
S'\x00\x00\x00\x80\x14\xce2\xc0\x00\x00\x00\x90\x99\xb9:\xc0\x00\x00\x00x=\n\x01@'
p880
tp881
bsS'secnames'
p882
S'Cell[1].axon[1]'
p883
sI70
I147
tp884
a(F0.9577309701643252
S'Cell[2].dend[6] syn_ = new FastInhib(0.5)'
p885
I2
(dp886
g867
F0.6428571428571428
sg868
F22.0
sg869
I166
sg870
g7
(g8
(I0
tp887
g10
tp888
Rp889
(I1
(I3
tp890
g877
I00
S'?[\x144\xb1\xd96\xc0\x0c\xf8\x11#MCm@\x1c\xb85\xc1\nCM\xc0'
p891
tp892
bsg882
S'Cell[3].axon[6]'
p893
sI166
I99
tp894
a(F2.138391513207401
S'Cell[1].apic[44] syn_ = new AmpaNmda(0.5)'
p895
I1
(dp896
g867
F0.5
sg868
F22.0
sg869
I166
sg870
g7
(g8
(I0
tp897
g10
tp898
Rp899
(I1
(I3
tp900
g877
I00
S'\x0b&\x8a\x0bP\x133@\t\xf7\x06\x12]\xcd_@^>\x0f8X\xab(\xc0'
p901
tp902
bsg882
S'Cell[3].axon[94]'
p903
sI166
I51
tp904
a(F2.350505755458346
S'Cell[3].dend[0] syn_ = new FastInhib(0.5)'
p905
I3
(dp906
g867
F0.5
sg868
F22.0
sg869
I166
sg870
g7
(g8
(I0
tp907
g10
tp908
Rp909
(I1
(I3
tp910
g877
I00
S'*M\xceFs9\x11\xc0p\x19.M@\xea*@g\xea\xd3\x90[?&@'
p911
tp912
bsg882
S'Cell[3].axon[300]'
p913
sI166
I147
tp914
a(F1.5771910334134664
S'Cell[2].dend[30] syn_ = new FastInhib(0.5)'
p915
I2
(dp916
S'seg'
p917
F0.5
sS'hostfrom'
p918
F23.0
sS'gid'
p919
I71
sS'coords'
p920
g7
(g8
(I0
tp921
g10
tp922
Rp923
(I1
(I3
tp924
g14
(S'f8'
p925
I0
I1
tp926
Rp927
(I3
S'<'
p928
NNNI-1
I-1
I0
tp929
bI00
S'P@\xc3*\xf5\xa6\x0c@J2\xb4\x85\x8f\xca\x11\xc0\x1e\xef\xe0C\xc8\xb4\x15@'
p930
tp931
bsS'secnames'
p932
S'Cell[1].axon[0]'
p933
sI71
I99
tp934
a(F0.6835952687445449
S'Cell[1].dend[16] syn_ = new AmpaNmda(0.5)'
p935
I1
(dp936
S'seg'
p937
F0.5
sS'hostfrom'
p938
F24.0
sS'gid'
p939
I168
sS'coords'
p940
g7
(g8
(I0
tp941
g10
tp942
Rp943
(I1
(I3
tp944
g14
(S'f8'
p945
I0
I1
tp946
Rp947
(I3
S'<'
p948
NNNI-1
I-1
I0
tp949
bI00
S'\x14\x12\xf1\x90\xfc\x03P\xc0\x0b9\t\x0e\xb5\xf9N@\x00\x00\x00\xc0\xcc\xdcQ\xc0'
p950
tp951
bsS'secnames'
p952
S'Cell[3].axon[534]'
p953
sI168
I51
tp954
a(F2.2447144165331787
S'Cell[3].dend[22] syn_ = new FastInhib(0.166666666667)'
p955
I3
(dp956
g937
F0.7
sg938
F24.0
sg939
I120
sg940
g7
(g8
(I0
tp957
g10
tp958
Rp959
(I1
(I3
tp960
g947
I00
S'\xd8\x13\xdd\xe6\xce\xa5\xcc?-N\xaeiC\xfd_\xc0:\xac\x08.SMQ\xc0'
p961
tp962
bsg952
S'Cell[2].axon[35]'
p963
sI120
I147
tp964
a(F2.0205555877157293
S'Cell[1].dend[9] syn_ = new AmpaNmda(0.833333333333)'
p965
I1
(dp966
g937
F0.6428571428571428
sg938
F24.0
sg939
I120
sg940
g7
(g8
(I0
tp967
g10
tp968
Rp969
(I1
(I3
tp970
g947
I00
S'G\x11a\xd8\xa95U\xc0\xd8r\xe8\xda;g"@\xbc(\xe7?yQC\xc0'
p971
tp972
bsg952
S'Cell[2].axon[275]'
p973
sI120
I51
tp974
a(F1.875323283606838
S'Cell[2].dend[25] syn_ = new FastInhib(0.3)'
p975
I2
(dp976
S'seg'
p977
F0.5
sS'hostfrom'
p978
F25.0
sS'gid'
p979
I121
sS'coords'
p980
g7
(g8
(I0
tp981
g10
tp982
Rp983
(I1
(I3
tp984
g14
(S'f8'
p985
I0
I1
tp986
Rp987
(I3
S'<'
p988
NNNI-1
I-1
I0
tp989
bI00
S'\xf4\x11\xaa\x98#\x80A@\xef\xe0O\xdaK|\x1e\xc0Q\xd1\x10"\xf4^R\xc0'
p990
tp991
bsS'secnames'
p992
S'Cell[2].axon[100]'
p993
sI121
I99
tp994
a(F0.9066273254679489
S'Cell[1].apic[1] syn_ = new ExpSid(0.5)'
p995
I1
(dp996
g977
F0.5
sg978
F25.0
sg979
I121
sg980
g7
(g8
(I0
tp997
g10
tp998
Rp999
(I1
(I3
tp1000
g987
I00
S'p\x86\x10i\xf7\x92A\xc0\x18\x9a\x83#\xdf\x08S@pvb\x87\xd095\xc0'
p1001
tp1002
bsg992
S'Cell[2].axon[119]'
p1003
sI121
I51
tp1004
a(F1.12990115594343
S'Cell[3].dend[57] syn_ = new FastInhib(0.5)'
p1005
I3
(dp1006
g977
F0.30000000000000004
sg978
F25.0
sg979
I169
sg980
g7
(g8
(I0
tp1007
g10
tp1008
Rp1009
(I1
(I3
tp1010
g987
I00
S'\xaeC\xb1\xbe\xc73C\xc0\x1ac\xe9\x83[\x03\\\xc0\xa6\x90%\xe4\x1a\xbeH\xc0'
p1011
tp1012
bsg992
S'Cell[3].axon[153]'
p1013
sI169
I147
tp1014
a(F2.2186843687430073
S'Cell[1].apic[53] syn_ = new AmpaNmda(0.166666666667)'
p1015
I1
(dp1016
S'seg'
p1017
F0.16666666666666666
sS'hostfrom'
p1018
F26.0
sS'gid'
p1019
I170
sS'coords'
p1020
g7
(g8
(I0
tp1021
g10
tp1022
Rp1023
(I1
(I3
tp1024
g14
(S'f8'
p1025
I0
I1
tp1026
Rp1027
(I3
S'<'
p1028
NNNI-1
I-1
I0
tp1029
bI00
S"\xd2\xf4\xbf\x16\x9dFM\xc0\t\xf1\x88\x8d\x81{`@\xa6\xef{R\x07f'@"
p1030
tp1031
bsS'secnames'
p1032
S'Cell[3].axon[232]'
p1033
sI170
I51
tp1034
a(F2.4767064126607368
S'Cell[2].dend[13] syn_ = new FastInhib(0.5)'
p1035
I2
(dp1036
g1017
F0.5
sg1018
F26.0
sg1019
I170
sg1020
g7
(g8
(I0
tp1037
g10
tp1038
Rp1039
(I1
(I3
tp1040
g1027
I00
S'\x14\x83B(\xd4\xde\x13@`\xa2\xef\xc2\x9d\x13l@`\x95\x1d"\x13\x82\xd6\xbf'
p1041
tp1042
bsg1032
S'Cell[3].axon[412]'
p1043
sI170
I99
tp1044
a(F2.2884527670189243
S'Cell[0].apic[129] syn_ = new AmpaNmda(0.5)'
p1045
I0
(dp1046
g1017
F0.5
sg1018
F26.0
sg1019
I170
sg1020
g7
(g8
(I0
tp1047
g10
tp1048
Rp1049
(I1
(I3
tp1050
g1027
I00
S'\x00\x00\x00\xa0p\x1d;\xc0\x00\x00\x00@\xe1zJ@\x00\x00\x00@33#@'
p1051
tp1052
bsg1032
S'Cell[3].axon[493]'
p1053
sI170
I3
tp1054
a(F1.2187835312225754
S'Cell[3].dend[28] syn_ = new FastInhib(0.5)'
p1055
I3
(dp1056
S'seg'
p1057
F0.23333333333333334
sS'hostfrom'
p1058
F27.0
sS'gid'
p1059
I123
sS'coords'
p1060
g7
(g8
(I0
tp1061
g10
tp1062
Rp1063
(I1
(I3
tp1064
g14
(S'f8'
p1065
I0
I1
tp1066
Rp1067
(I3
S'<'
p1068
NNNI-1
I-1
I0
tp1069
bI00
S'\xef?y\x1f\xef+:@aU\x03B(\xe12\xc0\xf4\xfd3X\xf3x4\xc0'
p1070
tp1071
bsS'secnames'
p1072
S'Cell[2].axon[32]'
p1073
sI123
I147
tp1074
a(F1.8025231595336755
S'Cell[1].dend[50] syn_ = new ExpSid(0.166666666667)'
p1075
I1
(dp1076
g1057
F0.5
sg1058
F27.0
sg1059
I171
sg1060
g7
(g8
(I0
tp1077
g10
tp1078
Rp1079
(I1
(I3
tp1080
g1067
I00
S'\xbc=\xa5\x1a\xad\xdf(@\xbb \xf2\xfe\x02\x0fB@C\xd4T\xc6X\xb2 \xc0'
p1081
tp1082
bsg1072
S'Cell[3].axon[28]'
p1083
sI171
I51
tp1084
a(F1.8498933048429773
S'Cell[2].dend[31] syn_ = new FastInhib(0.1)'
p1085
I2
(dp1086
S'seg'
p1087
F0.5
sS'hostfrom'
p1088
F29.0
sS'gid'
p1089
I173
sS'coords'
p1090
g7
(g8
(I0
tp1091
g10
tp1092
Rp1093
(I1
(I3
tp1094
g14
(S'f8'
p1095
I0
I1
tp1096
Rp1097
(I3
S'<'
p1098
NNNI-1
I-1
I0
tp1099
bI00
S'\x00\x00\x00\xa0\x99\x99"\xc0\x00\x00\x00\xe0Q\xb8"\xc0\x00\x00\x00\x80=\n\xd7\xbf'
p1100
tp1101
bsS'secnames'
p1102
S'Cell[3].soma[0]'
p1103
sI173
I99
tp1104
a(F2.343925307332974
S'Cell[3].dend[41] syn_ = new FastInhib(0.833333333333)'
p1105
I3
(dp1106
g1087
F0.8999999999999999
sg1088
F29.0
sg1089
I125
sg1090
g7
(g8
(I0
tp1107
g10
tp1108
Rp1109
(I1
(I3
tp1110
g1097
I00
S'\x9ap\xc1\xc3`MU@@w\xaax\x84\x972@\xda\x8c\x1a\xd6\n\x96C\xc0'
p1111
tp1112
bsg1102
S'Cell[2].axon[174]'
p1113
sI125
I147
tp1114
a(F2.4237934369881757
S'Cell[3].dend[61] syn_ = new FastInhib(0.833333333333)'
p1115
I3
(dp1116
g1087
F0.5
sg1088
F29.0
sg1089
I125
sg1090
g7
(g8
(I0
tp1117
g10
tp1118
Rp1119
(I1
(I3
tp1120
g1097
I00
S'0\x1a\xa0\xf4S\x0eJ\xc0\xbe\xa8\x8d\xcc\xbc*]\xc0\x95\xd1T\xc92\x95*@'
p1121
tp1122
bsg1102
S'Cell[2].axon[188]'
p1123
sI125
I147
tp1124
a(F1.8691575677592802
S'Cell[1].dend[49] syn_ = new AmpaNmda(0.166666666667)'
p1125
I1
(dp1126
S'seg'
p1127
F0.5
sS'hostfrom'
p1128
F30.0
sS'gid'
p1129
I126
sS'coords'
p1130
g7
(g8
(I0
tp1131
g10
tp1132
Rp1133
(I1
(I3
tp1134
g14
(S'f8'
p1135
I0
I1
tp1136
Rp1137
(I3
S'<'
p1138
NNNI-1
I-1
I0
tp1139
bI00
S'+\x00]\xe6n\x941@\xb2\x1c\x83\x02\xb1\xc2B@k\x81\xd9\xcc\xf3@\xff\xbf'
p1140
tp1141
bsS'secnames'
p1142
S'Cell[2].axon[28]'
p1143
sI126
I51
tp1144
a(F2.2789200316054945
S'Cell[1].dend[42] syn_ = new AmpaNmda(0.833333333333)'
p1145
I1
(dp1146
g1127
F0.5
sg1128
F30.0
sg1129
I126
sg1130
g7
(g8
(I0
tp1147
g10
tp1148
Rp1149
(I1
(I3
tp1150
g1137
I00
S'\x00\x00\x00\xc0\xcc\xacC@\xe4\xf8\x06O`6S@\xccQqje\x95Y\xc0'
p1151
tp1152
bsg1142
S'Cell[2].axon[172]'
p1153
sI126
I51
tp1154
a(F1.2432088202820029
S'Cell[1].apic[13] syn_ = new AmpaNmda(0.7)'
p1155
I1
(dp1156
g1127
F0.8333333333333333
sg1128
F30.0
sg1129
I126
sg1130
g7
(g8
(I0
tp1157
g10
tp1158
Rp1159
(I1
(I3
tp1160
g1137
I00
S'.q\x8f\xd8\xcf\x9fP@|\x04d\xcb\xcc\x95w@\x84F\x1a~\xb2\x1a\x16@'
p1161
tp1162
bsg1142
S'Cell[2].axon[223]'
p1163
sI126
I51
tp1164
a(F2.187651895598281
S'Cell[1].dend[24] syn_ = new AmpaNmda(0.166666666667)'
p1165
I1
(dp1166
g1127
F0.5
sg1128
F30.0
sg1129
I174
sg1130
g7
(g8
(I0
tp1167
g10
tp1168
Rp1169
(I1
(I3
tp1170
g1137
I00
S"\x00\x00\x00p=JF\xc0\x00\x00\x00\x00\x00`D@\x00\x00\x00\xe0\xa3\xb0'\xc0"
p1171
tp1172
bsg1142
S'Cell[3].axon[88]'
p1173
sI174
I51
tp1174
a(F2.4513041715265342
S'Cell[1].dend[24] syn_ = new AmpaNmda(0.166666666667)'
p1175
I1
(dp1176
g1127
F0.16666666666666666
sg1128
F30.0
sg1129
I174
sg1130
g7
(g8
(I0
tp1177
g10
tp1178
Rp1179
(I1
(I3
tp1180
g1137
I00
S'H\x0bA~\xae\xfcE\xc0\xf6\xffh\x17{\xe8E@\xff\x1c\xbd\nv\xaa)\xc0'
p1181
tp1182
bsg1142
S'Cell[3].axon[89]'
p1183
sI174
I51
tp1184
a(F1.01275399539255
S'Cell[2].dend[31] syn_ = new FastInhib(0.7)'
p1185
I2
(dp1186
g1127
F0.5
sg1128
F30.0
sg1129
I174
sg1130
g7
(g8
(I0
tp1187
g10
tp1188
Rp1189
(I1
(I3
tp1190
g1137
I00
S'\xe0\xc0)\xe12QQ\xc0\xc3*\xa5\x0e\xe3\xd1)@\xb4]\xfb\x9fUdD\xc0'
p1191
tp1192
bsg1142
S'Cell[3].axon[167]'
p1193
sI174
I99
tp1194
a(F1.8883726351954777
S'Cell[1].dend[49] syn_ = new ExpSid(0.5)'
p1195
I1
(dp1196
S'seg'
p1197
F0.5
sS'hostfrom'
p1198
F31.0
sS'gid'
p1199
I127
sS'coords'
p1200
g7
(g8
(I0
tp1201
g10
tp1202
Rp1203
(I1
(I3
tp1204
g14
(S'f8'
p1205
I0
I1
tp1206
Rp1207
(I3
S'<'
p1208
NNNI-1
I-1
I0
tp1209
bI00
S'\xb3B_[<\x87I@\xc4\x17\xdbE\xc5<=@\x00\x00\x00\x00\xa4p\x13\xc0'
p1210
tp1211
bsS'secnames'
p1212
S'Cell[2].axon[1]'
p1213
sI127
I51
tp1214
a(F1.797577123157029
S'Cell[3].dend[27] syn_ = new FastInhib(0.5)'
p1215
I3
(dp1216
g1197
F0.07142857142857142
sg1198
F31.0
sg1199
I127
sg1200
g7
(g8
(I0
tp1217
g10
tp1218
Rp1219
(I1
(I3
tp1220
g1207
I00
S'^\xe7\xa8\x86\x8b\xce3@\xc6O\xfaG3r=\xc0\x14\xf1\x12\xb9m\x11>\xc0'
p1221
tp1222
bsg1212
S'Cell[2].axon[16]'
p1223
sI127
I147
tp1224
a(F1.6970738949726627
S'Cell[2].dend[38] syn_ = new FastInhib(0.9)'
p1225
I2
(dp1226
g1197
F0.5
sg1198
F31.0
sg1199
I127
sg1200
g7
(g8
(I0
tp1227
g10
tp1228
Rp1229
(I1
(I3
tp1230
g1207
I00
S'\xe5J\x8b\x95@."\xc0\xe7\xfe\xf1\xf9J\x1ac\xc0\xd3\xa29V\xd6\x17.\xc0'
p1231
tp1232
bsg1212
S'Cell[2].axon[19]'
p1233
sI127
I99
tp1234
a(F1.9180454616594922
S'Cell[0].apic[122] syn_ = new ExpSid(0.214285714286)'
p1235
I0
(dp1236
g1197
F0.5
sg1198
F31.0
sg1199
I175
sg1200
g7
(g8
(I0
tp1237
g10
tp1238
Rp1239
(I1
(I3
tp1240
g1207
I00
S'T\x81\x0c\xba\xc4&\x1f@\x87u}:\xecDc@R"\x9a\x8d@\x074@'
p1241
tp1242
bsg1212
S'Cell[3].axon[129]'
p1243
sI175
I3
tp1244
a(F1.137754536292371
S'Cell[2].dend[25] syn_ = new FastInhib(0.1)'
p1245
I2
(dp1246
g1197
F0.8333333333333333
sg1198
F31.0
sg1199
I175
sg1200
g7
(g8
(I0
tp1247
g10
tp1248
Rp1249
(I1
(I3
tp1250
g1207
I00
S'\xac\x189\xbbz\x7f@@\xa7\x82\x87\xc6u\xee\xf4\xbf\xa3\x10\x83\x0f+\xd3K\xc0'
p1251
tp1252
bsg1212
S'Cell[3].axon[229]'
p1253
sI175
I99
tp1254
a(F2.4435779578670247
S'Cell[3].dend[3] syn_ = new FastInhib(0.5)'
p1255
I3
(dp1256
S'seg'
p1257
F0.5
sS'hostfrom'
p1258
F32.0
sS'gid'
p1259
I176
sS'coords'
p1260
g7
(g8
(I0
tp1261
g10
tp1262
Rp1263
(I1
(I3
tp1264
g14
(S'f8'
p1265
I0
I1
tp1266
Rp1267
(I3
S'<'
p1268
NNNI-1
I-1
I0
tp1269
bI00
S'.\xcc\x9b\x99\xab\x8f5\xc0\xfe\x88MK\x90\xb1\x1c@\xb6#\x81\x10u\x11)@'
p1270
tp1271
bsS'secnames'
p1272
S'Cell[3].axon[13]'
p1273
sI176
I147
tp1274
a(F0.9878085644255786
S'Cell[2].dend[15] syn_ = new FastInhib(0.5)'
p1275
I2
(dp1276
S'seg'
p1277
F0.16666666666666666
sS'hostfrom'
p1278
F33.0
sS'gid'
p1279
I129
sS'coords'
p1280
g7
(g8
(I0
tp1281
g10
tp1282
Rp1283
(I1
(I3
tp1284
g14
(S'f8'
p1285
I0
I1
tp1286
Rp1287
(I3
S'<'
p1288
NNNI-1
I-1
I0
tp1289
bI00
S'p\xe0\xe06\xd1\xb9D\xc0m\x86Y9\x07\xd8R@]\xab\xedw\x99\xd1&@'
p1290
tp1291
bsS'secnames'
p1292
S'Cell[2].axon[71]'
p1293
sI129
I99
tp1294
a(F1.9345055427518008
S'Cell[1].dend[49] syn_ = new ExpSid(0.166666666667)'
p1295
I1
(dp1296
g1277
F0.5
sg1278
F33.0
sg1279
I177
sg1280
g7
(g8
(I0
tp1297
g10
tp1298
Rp1299
(I1
(I3
tp1300
g1287
I00
S"\x1cA/\x11\xc5'2@V\xac[\xd5\x8b\xf0A@1\x91\x8f\x1a\xb9\xae\x00\xc0"
p1301
tp1302
bsg1292
S'Cell[3].axon[36]'
p1303
sI177
I51
tp1304
a(F1.7710770195767953
S'Cell[3].dend[5] syn_ = new FastInhib(0.5)'
p1305
I3
(dp1306
g1277
F0.30000000000000004
sg1278
F33.0
sg1279
I177
sg1280
g7
(g8
(I0
tp1307
g10
tp1308
Rp1309
(I1
(I3
tp1310
g1287
I00
S'\xe6\xde\xf8Q\xd1^I\xc0Z\x067\x94\xefT3@;\x1e\xd4[\xf7\xdc+@'
p1311
tp1312
bsg1292
S'Cell[3].axon[60]'
p1313
sI177
I147
tp1314
a(F2.3315373544131583
S'Cell[3].dend[53] syn_ = new FastInhib(0.833333333333)'
p1315
I3
(dp1316
S'seg'
p1317
F0.8333333333333333
sS'hostfrom'
p1318
F34.0
sS'gid'
p1319
I130
sS'coords'
p1320
g7
(g8
(I0
tp1321
g10
tp1322
Rp1323
(I1
(I3
tp1324
g14
(S'f8'
p1325
I0
I1
tp1326
Rp1327
(I3
S'<'
p1328
NNNI-1
I-1
I0
tp1329
bI00
S"\xc6\xd2D\xcc\x9a\x0f[\xc0\x0e\x90,\xd5F\xbaS\xc08\xab&DN\x13'\xc0"
p1330
tp1331
bsS'secnames'
p1332
S'Cell[2].axon[36]'
p1333
sI130
I147
tp1334
a(F1.6755300646948916
S'Cell[2].dend[24] syn_ = new FastInhib(0.166666666667)'
p1335
I2
(dp1336
g1317
F0.5
sg1318
F34.0
sg1319
I178
sg1320
g7
(g8
(I0
tp1337
g10
tp1338
Rp1339
(I1
(I3
tp1340
g1327
I00
S'\x00\x00\x00\x90\xc2%C@\x00\x00\x00\xe8Q8\x13@\x00\x00\x00\x80\xebaE\xc0'
p1341
tp1342
bsg1332
S'Cell[3].axon[27]'
p1343
sI178
I99
tp1344
a(F1.902653535830804
S'Cell[1].apic[31] syn_ = new AmpaNmda(0.5)'
p1345
I1
(dp1346
g1317
F0.5
sg1318
F34.0
sg1319
I178
sg1320
g7
(g8
(I0
tp1347
g10
tp1348
Rp1349
(I1
(I3
tp1350
g1327
I00
S'\x00\x00\x00\xd0\xcc<H\xc0\x00\x00\x00\xe0\xa3\xe2t@\x00\x00\x00\x10\xd7\x93E\xc0'
p1351
tp1352
bsg1332
S'Cell[3].axon[422]'
p1353
sI178
I51
tp1354
a(F2.341102955561594
S'Cell[1].apic[16] syn_ = new AmpaNmda(0.166666666667)'
p1355
I1
(dp1356
S'seg'
p1357
F0.16666666666666666
sS'hostfrom'
p1358
F36.0
sS'gid'
p1359
I84
sS'coords'
p1360
g7
(g8
(I0
tp1361
g10
tp1362
Rp1363
(I1
(I3
tp1364
g14
(S'f8'
p1365
I0
I1
tp1366
Rp1367
(I3
S'<'
p1368
NNNI-1
I-1
I0
tp1369
bI00
S'\xe5\xe8\x0f =\xd3\xf6\xbfT,\x99\x08q\xd6s@\xf4\x9d\xe2\x8d\xe2\x7f9\xc0'
p1370
tp1371
bsS'secnames'
p1372
S'Cell[1].axon[92]'
p1373
sI84
I51
tp1374
a(F2.4931112128623183
S'Cell[1].dend[33] syn_ = new AmpaNmda(0.833333333333)'
p1375
I1
(dp1376
g1357
F0.5
sg1358
F36.0
sg1359
I132
sg1360
g7
(g8
(I0
tp1377
g10
tp1378
Rp1379
(I1
(I3
tp1380
g1367
I00
S'\xcc\xc9||\x1c\xbd<@r|\x02\xa5\xabL\x19@\xec\x1c3\x89\x9d\x102@'
p1381
tp1382
bsg1372
S'Cell[2].axon[164]'
p1383
sI132
I51
tp1384
a(F1.9327122654520739
S'Cell[2].dend[46] syn_ = new FastInhib(0.5)'
p1385
I2
(dp1386
g1357
F0.16666666666666666
sg1358
F36.0
sg1359
I180
sg1360
g7
(g8
(I0
tp1387
g10
tp1388
Rp1389
(I1
(I3
tp1390
g1367
I00
S'\xc7a\xcbu\xb6#>@\xa6\x1c\x9ak\x11\xf9.@<)\xbd0>\xeb.@'
p1391
tp1392
bsg1372
S'Cell[3].axon[195]'
p1393
sI180
I99
tp1394
a(F1.759731525441754
S'Cell[2].dend[49] syn_ = new FastInhib(0.5)'
p1395
I2
(dp1396
g1357
F0.5
sg1358
F36.0
sg1359
I180
sg1360
g7
(g8
(I0
tp1397
g10
tp1398
Rp1399
(I1
(I3
tp1400
g1367
I00
S'^\xe0\x89\x81\x03\xf8>@\xc6\xc2\xa9Pm\xdb;@\xff\xff\xff\x7f\xebQ/@'
p1401
tp1402
bsg1372
S'Cell[3].axon[195]'
p1403
sI180
I99
tp1404
a(F1.567680781326882
S'Cell[2].dend[32] syn_ = new FastInhib(0.3)'
p1405
I2
(dp1406
g1357
F0.5
sg1358
F36.0
sg1359
I180
sg1360
g7
(g8
(I0
tp1407
g10
tp1408
Rp1409
(I1
(I3
tp1410
g1367
I00
S'\xe6Psh\x00i\xf8\xbf\xf8\xd5\xbfm=\x00=\xc0\xce\x171\x0ce\x00<\xc0'
p1411
tp1412
bsg1372
S'Cell[3].axon[271]'
p1413
sI180
I99
tp1414
a(F2.11875069475082
S'Cell[2].dend[37] syn_ = new FastInhib(0.1)'
p1415
I2
(dp1416
g1357
F0.5
sg1358
F36.0
sg1359
I36
sg1360
g7
(g8
(I0
tp1417
g10
tp1418
Rp1419
(I1
(I3
tp1420
g1367
I00
S'\x08\x00\x00\x10\x85\xab3@\x00\x00\x00@\nwD\xc0\x00\x00\x00`\xb8\x1e @'
p1421
tp1422
bsg1372
S'Cell[0].soma[0]'
p1423
sI36
I99
tp1424
a(F1.5916878632325808
S'Cell[3].dend[43] syn_ = new FastInhib(0.5)'
p1425
I3
(dp1426
S'seg'
p1427
F0.5
sS'hostfrom'
p1428
F38.0
sS'gid'
p1429
I182
sS'coords'
p1430
g7
(g8
(I0
tp1431
g10
tp1432
Rp1433
(I1
(I3
tp1434
g14
(S'f8'
p1435
I0
I1
tp1436
Rp1437
(I3
S'<'
p1438
NNNI-1
I-1
I0
tp1439
bI00
S'uR\xc5]\x81\xe2X@\x17\x8f\x80\xed\x8f\xb4#@\xd9\x02\xd2d|\x92B\xc0'
p1440
tp1441
bsS'secnames'
p1442
S'Cell[3].axon[221]'
p1443
sI182
I147
tp1444
a(F2.4326907704192564
S'Cell[3].dend[49] syn_ = new FastInhib(0.5)'
p1445
I3
(dp1446
g1427
F0.8333333333333333
sg1428
F38.0
sg1429
I86
sg1430
g7
(g8
(I0
tp1447
g10
tp1448
Rp1449
(I1
(I3
tp1450
g1437
I00
S'Z\xad\xb0\x0b\xb6\xec4\xc0\x96\xfd\xe8\x01\xca\xea9\xc0KW\xcc4\x08\xcd\x10@'
p1451
tp1452
bsg1442
S'Cell[1].axon[211]'
p1453
sI86
I147
tp1454
a(F2.017926586505641
S'Cell[1].apic[63] syn_ = new ExpSid(0.1)'
p1455
I1
(dp1456
S'seg'
p1457
F0.05555555555555555
sS'hostfrom'
p1458
F39.0
sS'gid'
p1459
I183
sS'coords'
p1460
g7
(g8
(I0
tp1461
g10
tp1462
Rp1463
(I1
(I3
tp1464
g14
(S'f8'
p1465
I0
I1
tp1466
Rp1467
(I3
S'<'
p1468
NNNI-1
I-1
I0
tp1469
bI00
S'\xa3\xd4\xb8\xa0\xfa\xef\x19\xc0Te\x90\xa2\xf1\xc7T@\xa7r\x84\xfah\xab\x1c@'
p1470
tp1471
bsS'secnames'
p1472
S'Cell[3].axon[50]'
p1473
sI183
I51
tp1474
a(F2.220446828593366
S'Cell[3].dend[31] syn_ = new FastInhib(0.5)'
p1475
I3
(dp1476
g1457
F0.8333333333333333
sg1458
F39.0
sg1459
I183
sg1460
g7
(g8
(I0
tp1477
g10
tp1478
Rp1479
(I1
(I3
tp1480
g1467
I00
S'_\x9b\xa3g``B@&y\xc0y}:\x05\xc0\x00\x00\x00\xe0z\x94*\xc0'
p1481
tp1482
bsg1472
S'Cell[3].axon[119]'
p1483
sI183
I147
tp1484
a(F1.720567628586391
S'Cell[3].dend[34] syn_ = new FastInhib(0.5)'
p1485
I3
(dp1486
S'seg'
p1487
F0.16666666666666666
sS'hostfrom'
p1488
F40.0
sS'gid'
p1489
I88
sS'coords'
p1490
g7
(g8
(I0
tp1491
g10
tp1492
Rp1493
(I1
(I3
tp1494
g14
(S'f8'
p1495
I0
I1
tp1496
Rp1497
(I3
S'<'
p1498
NNNI-1
I-1
I0
tp1499
bI00
S'v\xba(j,JE@z\x95\xe8\x8b H0\xc0\xa1\xc4\xf8\x92\x8f[7\xc0'
p1500
tp1501
bsS'secnames'
p1502
S'Cell[1].axon[165]'
p1503
sI88
I147
tp1504
a(F1.5791590854508588
S'Cell[1].dend[31] syn_ = new AmpaNmda(0.5)'
p1505
I1
(dp1506
g1487
F0.5
sg1488
F40.0
sg1489
I88
sg1490
g7
(g8
(I0
tp1507
g10
tp1508
Rp1509
(I1
(I3
tp1510
g1497
I00
S'oP\x81\x95B\rJ@\xdd\x1e\x9d\xb9\t\xe59@\xa2\xb6\x88Q\x82X5\xc0'
p1511
tp1512
bsg1502
S'Cell[1].axon[377]'
p1513
sI88
I51
tp1514
a(F1.8265225621565957
S'Cell[3].dend[26] syn_ = new FastInhib(0.5)'
p1515
I3
(dp1516
g1487
F0.5
sg1488
F40.0
sg1489
I136
sg1490
g7
(g8
(I0
tp1517
g10
tp1518
Rp1519
(I1
(I3
tp1520
g1497
I00
S'\x02\x90\x112D~)@D\xfb`\xd0\x9b\x85L\xc0\xfcD\xc6\xc0\xf2KF\xc0'
p1521
tp1522
bsg1502
S'Cell[2].axon[9]'
p1523
sI136
I147
tp1524
a(F1.0012453060690207
S'Cell[3].dend[21] syn_ = new FastInhib(0.166666666667)'
p1525
I3
(dp1526
g1487
F0.5
sg1488
F40.0
sg1489
I136
sg1490
g7
(g8
(I0
tp1527
g10
tp1528
Rp1529
(I1
(I3
tp1530
g1497
I00
S'\x9fhy4\xa9\x9e2@\x7f\xd7\xe1Y\xed\xe1V\xc0\xa6\x90G\x9c2\x15L\xc0'
p1531
tp1532
bsg1502
S'Cell[2].axon[18]'
p1533
sI136
I147
tp1534
a(F2.463004460165244
S'Cell[2].dend[19] syn_ = new FastInhib(0.5)'
p1535
I2
(dp1536
g1487
F0.8333333333333333
sg1488
F40.0
sg1489
I184
sg1490
g7
(g8
(I0
tp1537
g10
tp1538
Rp1539
(I1
(I3
tp1540
g1497
I00
S'\xd0\xd1\x00\xbc\x9e\xab#@\xa8\xb5\xdc\xa3\xb3\x8f\xc0?\xd7\xf7\x88\x8f5\xc87@'
p1541
tp1542
bsg1502
S'Cell[3].axon[29]'
p1543
sI184
I99
tp1544
a(F2.0674667920149994
S'Cell[2].dend[23] syn_ = new FastInhib(0.166666666667)'
p1545
I2
(dp1546
S'seg'
p1547
F0.5
sS'hostfrom'
p1548
F41.0
sS'gid'
p1549
I89
sS'coords'
p1550
g7
(g8
(I0
tp1551
g10
tp1552
Rp1553
(I1
(I3
tp1554
g14
(S'f8'
p1555
I0
I1
tp1556
Rp1557
(I3
S'<'
p1558
NNNI-1
I-1
I0
tp1559
bI00
S'\x00\x9fa\xd2]\x0e)@\x86\xe0\x88\x81\x86i$\xc0\x00\x00\x00\xc0\xf5(1\xc0'
p1560
tp1561
bsS'secnames'
p1562
S'Cell[1].axon[158]'
p1563
sI89
I99
tp1564
a(F2.2321032157072125
S'Cell[0].dend[1] syn_ = new AmpaNmda(0.166666666667)'
p1565
I0
(dp1566
S'seg'
p1567
F0.5
sS'hostfrom'
p1568
F42.0
sS'gid'
p1569
I90
sS'coords'
p1570
g7
(g8
(I0
tp1571
g10
tp1572
Rp1573
(I1
(I3
tp1574
g14
(S'f8'
p1575
I0
I1
tp1576
Rp1577
(I3
S'<'
p1578
NNNI-1
I-1
I0
tp1579
bI00
S'\xf2\x8a\xb0H\x1a\x7f7@\xf9\xb9\xb8\xc5\x96\x819\xc0\x00\x00\x00@332@'
p1580
tp1581
bsS'secnames'
p1582
S'Cell[1].axon[235]'
p1583
sI90
I3
tp1584
a(F2.4185870936721896
S'Cell[3].dend[59] syn_ = new FastInhib(0.833333333333)'
p1585
I3
(dp1586
g1567
F0.30000000000000004
sg1568
F42.0
sg1569
I186
sg1570
g7
(g8
(I0
tp1587
g10
tp1588
Rp1589
(I1
(I3
tp1590
g1577
I00
S'\xdc\xa38]X\x877\xc0%\\\xc7\x027\x0b[\xc0\x00\x00\x00\xe0\xa3p\x07\xc0'
p1591
tp1592
bsg1582
S'Cell[3].axon[156]'
p1593
sI186
I147
tp1594
a(F1.4557100635798021
S'Cell[3].dend[11] syn_ = new FastInhib(0.1)'
p1595
I3
(dp1596
S'seg'
p1597
F0.5
sS'hostfrom'
p1598
F43.0
sS'gid'
p1599
I187
sS'coords'
p1600
g7
(g8
(I0
tp1601
g10
tp1602
Rp1603
(I1
(I3
tp1604
g14
(S'f8'
p1605
I0
I1
tp1606
Rp1607
(I3
S'<'
p1608
NNNI-1
I-1
I0
tp1609
bI00
S'6vp\xb9<M7@G\x83MY\x18\xba?\xc0\x00\x00\x00 \xaeG&\xc0'
p1610
tp1611
bsS'secnames'
p1612
S'Cell[3].axon[1]'
p1613
sI187
I147
tp1614
a(F2.3448763001696067
S'Cell[3].dend[40] syn_ = new FastInhib(0.5)'
p1615
I3
(dp1616
g1597
F0.5
sg1598
F43.0
sg1599
I187
sg1600
g7
(g8
(I0
tp1617
g10
tp1618
Rp1619
(I1
(I3
tp1620
g1607
I00
S'\xc7\xde\x87S\x0f\x9fP@\xa8\r\xc2\x13P\x8e(\xc0\x00\x00\x00\xa0\x99\x99:\xc0'
p1621
tp1622
bsg1612
S'Cell[3].axon[171]'
p1623
sI187
I147
tp1624
a(F1.5356534850868282
S'Cell[1].dend[40] syn_ = new AmpaNmda(0.9)'
p1625
I1
(dp1626
S'seg'
p1627
F0.21428571428571427
sS'hostfrom'
p1628
F44.0
sS'gid'
p1629
I92
sS'coords'
p1630
g7
(g8
(I0
tp1631
g10
tp1632
Rp1633
(I1
(I3
tp1634
g14
(S'f8'
p1635
I0
I1
tp1636
Rp1637
(I3
S'<'
p1638
NNNI-1
I-1
I0
tp1639
bI00
S's\xf8\xe4\xc6\xa7s>@Y\xd2\xec\xc1\x82p]@\xfc\x92\x89?\xbf\x91_\xc0'
p1640
tp1641
bsS'secnames'
p1642
S'Cell[1].axon[128]'
p1643
sI92
I51
tp1644
a(F0.649597414365442
S'Cell[3].dend[9] syn_ = new FastInhib(0.833333333333)'
p1645
I3
(dp1646
g1627
F0.5
sg1628
F44.0
sg1629
I188
sg1630
g7
(g8
(I0
tp1647
g10
tp1648
Rp1649
(I1
(I3
tp1650
g1637
I00
S'D\xb4(\xe4\x8a\xefA\xc0\xd4n%\xe5Q\xc2@@\xd29\xeb\x88\xab\xbb6@'
p1651
tp1652
bsg1642
S'Cell[3].axon[52]'
p1653
sI188
I147
tp1654
a(F2.1235062691783653
S'Cell[1].dend[49] syn_ = new AmpaNmda(0.833333333333)'
p1655
I1
(dp1656
g1627
F0.5
sg1628
F44.0
sg1629
I188
sg1630
g7
(g8
(I0
tp1657
g10
tp1658
Rp1659
(I1
(I3
tp1660
g1637
I00
S'\xb4\xdc\xf4,\xa4iU@F}\x19\xb5\x051;@\x00\x00\x00\x80=\n\x13\xc0'
p1661
tp1662
bsg1642
S'Cell[3].axon[207]'
p1663
sI188
I51
tp1664
a(F1.299523457699623
S'Cell[2].dend[38] syn_ = new FastInhib(0.3)'
p1665
I2
(dp1666
S'seg'
p1667
F0.5
sS'hostfrom'
p1668
F45.0
sS'gid'
p1669
I141
sS'coords'
p1670
g7
(g8
(I0
tp1671
g10
tp1672
Rp1673
(I1
(I3
tp1674
g14
(S'f8'
p1675
I0
I1
tp1676
Rp1677
(I3
S'<'
p1678
NNNI-1
I-1
I0
tp1679
bI00
S'\x00\x00\x00\x00\xd7\xa3\xb0\xbf\x00\x00\x00\x80\xeb\xd1Q\xc0\x00\x00\x00P\x8f\xc2\x13\xc0'
p1680
tp1681
bsS'secnames'
p1682
S'Cell[2].axon[205]'
p1683
sI141
I99
tp1684
a(F1.8435097519870678
S'Cell[3].dend[31] syn_ = new FastInhib(0.833333333333)'
p1685
I3
(dp1686
g1667
F0.5
sg1668
F45.0
sg1669
I189
sg1670
g7
(g8
(I0
tp1687
g10
tp1688
Rp1689
(I1
(I3
tp1690
g1677
I00
S'\xb3F\x14\x07\xff\xaaC@]Su\xac\xf3i#@\x00\x00\x00\xe0\xa3\xf0%\xc0'
p1691
tp1692
bsg1682
S'Cell[3].axon[87]'
p1693
sI189
I147
tp1694
a(F2.036412445566626
S'Cell[2].dend[48] syn_ = new FastInhib(0.166666666667)'
p1695
I2
(dp1696
S'seg'
p1697
F0.5
sS'hostfrom'
p1698
F46.0
sS'gid'
p1699
I94
sS'coords'
p1700
g7
(g8
(I0
tp1701
g10
tp1702
Rp1703
(I1
(I3
tp1704
g14
(S'f8'
p1705
I0
I1
tp1706
Rp1707
(I3
S'<'
p1708
NNNI-1
I-1
I0
tp1709
bI00
S'\x1a+\xbc\x08\x96uG@D\xd5Se\xda\x880@\xa7\xc0\x9c\xb7G\x0e0@'
p1710
tp1711
bsS'secnames'
p1712
S'Cell[1].axon[200]'
p1713
sI94
I99
tp1714
a(F1.9217224654551988
S'Cell[2].dend[36] syn_ = new FastInhib(0.1)'
p1715
I2
(dp1716
g1697
F0.16666666666666666
sg1698
F46.0
sg1699
I94
sg1700
g7
(g8
(I0
tp1717
g10
tp1718
Rp1719
(I1
(I3
tp1720
g1707
I00
S"e\xa0\rx_\xd2'@\xd4%A\xe5\x87\xc3E\xc0\x00\x00\x00\xe0Q\xb8\x1e@"
p1721
tp1722
bsg1712
S'Cell[1].axon[217]'
p1723
sI94
I99
tp1724
a(F2.3848153401001984
S'Cell[3].dend[17] syn_ = new FastInhib(0.3)'
p1725
I3
(dp1726
S'seg'
p1727
F0.5
sS'hostfrom'
p1728
F47.0
sS'gid'
p1729
I95
sS'coords'
p1730
g7
(g8
(I0
tp1731
g10
tp1732
Rp1733
(I1
(I3
tp1734
g14
(S'f8'
p1735
I0
I1
tp1736
Rp1737
(I3
S'<'
p1738
NNNI-1
I-1
I0
tp1739
bI00
S'\x00\x00\x00\x80\x14\x9e@@\x00\x00\x000\\\x97Q\xc0\x00\x00\x00\x10\xd7\xa3M\xc0'
p1740
tp1741
bsS'secnames'
p1742
S'Cell[1].axon[128]'
p1743
sI95
I147
tp1744
a(F1.8014447287882243
S'Cell[1].dend[27] syn_ = new ExpSid(0.166666666667)'
p1745
I1
(dp1746
g1727
F0.5
sg1728
F47.0
sg1729
I143
sg1730
g7
(g8
(I0
tp1747
g10
tp1748
Rp1749
(I1
(I3
tp1750
g1737
I00
S'\x00\x00\x00\x80)\xdc"\xc0\x00\x00\x00\xc0\xcc\x0cH@\x00\x00\x00\xc0\xcc\xec>\xc0'
p1751
tp1752
bsg1742
S'Cell[2].axon[231]'
p1753
sI143
I51
tp1754
a.