(lp0
(F2.355478506595768
S'Cell[2].dend[44] syn_ = new FastInhib(0.3)'
p1
I2
(dp2
S'seg'
p3
F0.30000000000000004
sS'hostfrom'
p4
F1.0
sS'gid'
p5
I145
sS'coords'
p6
cnumpy.core.multiarray
_reconstruct
p7
(cnumpy
ndarray
p8
(I0
tp9
S'b'
p10
tp11
Rp12
(I1
(I3
tp13
cnumpy
dtype
p14
(S'f8'
p15
I0
I1
tp16
Rp17
(I3
S'<'
p18
NNNI-1
I-1
I0
tp19
bI00
S'\xb9\xe9\xe0\xda\xe2\xbaC@SM\x90\x1d\x12\x8dO@T\xd9\x15o\xf8\x07B\xc0'
p20
tp21
bsS'secnames'
p22
S'Cell[3].axon[210]'
p23
sI145
I119
tp24
a(F2.321086243496059
S'Cell[3].dend[21] syn_ = new FastInhib(0.166666666667)'
p25
I3
(dp26
g3
F0.8333333333333333
sg4
F1.0
sg5
I97
sg6
g7
(g8
(I0
tp27
g10
tp28
Rp29
(I1
(I3
tp30
g17
I00
S'\x08g\xa2n\x9c\xd03\xc0\x1a\xd9w\x1d\xf7\xc2a\xc0\x82z\xfbXJ\x96-@'
p31
tp32
bsg22
S'Cell[2].axon[66]'
p33
sI97
I167
tp34
a(F1.894853591555333
S'Cell[2].dend[13] syn_ = new FastInhib(0.5)'
p35
I2
(dp36
g3
F0.1
sg4
F1.0
sg5
I97
sg6
g7
(g8
(I0
tp37
g10
tp38
Rp39
(I1
(I3
tp40
g17
I00
S'\x1b\xe6\x99\xfa\x0e\xe34@4IU\x96J\x88\x14\xc0a}\x19\x92\xb1W\x1d\xc0'
p41
tp42
bsg22
S'Cell[2].axon[70]'
p43
sI97
I119
tp44
a(F0.1312473170136467
S'Cell[3].dend[8] syn_ = new FastInhib(0.833333333333)'
p45
I3
(dp46
g3
F0.5
sg4
F1.0
sg5
I97
sg6
g7
(g8
(I0
tp47
g10
tp48
Rp49
(I1
(I3
tp50
g17
I00
S'\x00\x00\x00\xa0\x99IB@\x00\x00\x00p=\x12[\xc0\x00\x00\x000\\O%\xc0'
p51
tp52
bsg22
S'Cell[2].axon[140]'
p53
sI97
I167
tp54
a(F2.317257402165875
S'Cell[3].dend[37] syn_ = new FastInhib(0.5)'
p55
I3
(dp56
S'seg'
p57
F0.5
sS'hostfrom'
p58
F2.0
sS'gid'
p59
I146
sS'coords'
p60
g7
(g8
(I0
tp61
g10
tp62
Rp63
(I1
(I3
tp64
g14
(S'f8'
p65
I0
I1
tp66
Rp67
(I3
S'<'
p68
NNNI-1
I-1
I0
tp69
bI00
S'\x01\x00\x00\xd0\xa3\xf0.\xc0\x00\x00\x00`ff\x17@\x00\x00\x00\xa0G\xe1\x00\xc0'
p70
tp71
bsS'secnames'
p72
S'Cell[3].soma[0]'
p73
sI146
I167
tp74
a(F2.0800895110797186
S'Cell[2].dend[67] syn_ = new FastInhib(0.7)'
p75
I2
(dp76
g57
F0.8333333333333333
sg58
F2.0
sg59
I146
sg60
g7
(g8
(I0
tp77
g10
tp78
Rp79
(I1
(I3
tp80
g67
I00
S'\xb8\xfe\x9e-\xce\xa5N\xc0\xb9a\x83AG\xd2t\xc0\x00\x00\x00@33*\xc0'
p81
tp82
bsg72
S'Cell[3].axon[68]'
p83
sI146
I119
tp84
a(F2.3730154474790655
S'Cell[0].dend[25] syn_ = new AmpaNmda(0.5)'
p85
I0
(dp86
g57
F0.16666666666666666
sg58
F2.0
sg59
I146
sg60
g7
(g8
(I0
tp87
g10
tp88
Rp89
(I1
(I3
tp90
g67
I00
S'S\x91\xd0\xe5\xb4i\x16@\x88\xceZ\xcf\xbd&c@\x00\x00\x00 \x85\x8b@\xc0'
p91
tp92
bsg72
S'Cell[3].axon[213]'
p93
sI146
I23
tp94
a(F2.0183962170274814
S'Cell[2].dend[33] syn_ = new FastInhib(0.9)'
p95
I2
(dp96
S'seg'
p97
F0.8636363636363638
sS'hostfrom'
p98
F3.0
sS'gid'
p99
I3
sS'coords'
p100
g7
(g8
(I0
tp101
g10
tp102
Rp103
(I1
(I3
tp104
g14
(S'f8'
p105
I0
I1
tp106
Rp107
(I3
S'<'
p108
NNNI-1
I-1
I0
tp109
bI00
S'\x0e\x1bb\xd3\x83\xcaR@\xe1\xedM6\x1e\x1cc\xc0\x92\x8a`8+\xd2B\xc0'
p110
tp111
bsS'secnames'
p112
S'Cell[0].axon[32]'
p113
sI3
I119
tp114
a(F2.1619725202120246
S'Cell[2].dend[25] syn_ = new FastInhib(0.833333333333)'
p115
I2
(dp116
S'seg'
p117
F0.16666666666666666
sS'hostfrom'
p118
F4.0
sS'gid'
p119
I52
sS'coords'
p120
g7
(g8
(I0
tp121
g10
tp122
Rp123
(I1
(I3
tp124
g14
(S'f8'
p125
I0
I1
tp126
Rp127
(I3
S'<'
p128
NNNI-1
I-1
I0
tp129
bI00
S'\x88\x85E\xe3\xcf\xefP@`LGq|\xe3L\xc0\xdeB\xaf\xbed42\xc0'
p130
tp131
bsS'secnames'
p132
S'Cell[1].axon[2]'
p133
sI52
I119
tp134
a(F1.4684369491482374
S'Cell[1].dend[14] syn_ = new AmpaNmda(0.5)'
p135
I1
(dp136
g117
F0.07142857142857142
sg118
F4.0
sg119
I148
sg120
g7
(g8
(I0
tp137
g10
tp138
Rp139
(I1
(I3
tp140
g127
I00
S'\xb4\xc4\xbc\x1f\x9c|\x00\xc0\xc5\xfalc\x16B\x07\xc0F \x92\x04\x8d\x98N\xc0'
p141
tp142
bsg132
S'Cell[3].axon[73]'
p143
sI148
I71
tp144
a(F1.7438264234153957
S'Cell[0].apic[25] syn_ = new AmpaNmda(0.166666666667)'
p145
I0
(dp146
g117
F0.16666666666666666
sg118
F4.0
sg119
I148
sg120
g7
(g8
(I0
tp147
g10
tp148
Rp149
(I1
(I3
tp150
g127
I00
S'R\xeed\xbc"\xe8J@\xf9\xe5\xb3\xb6\x00\x9eQ\xc0\xb0y\xc7h\x98T6\xc0'
p151
tp152
bsg132
S'Cell[3].axon[343]'
p153
sI148
I23
tp154
a(F2.169658263188334
S'Cell[3].dend[36] syn_ = new FastInhib(0.7)'
p155
I3
(dp156
S'seg'
p157
F0.045454545454545456
sS'hostfrom'
p158
F5.0
sS'gid'
p159
I5
sS'coords'
p160
g7
(g8
(I0
tp161
g10
tp162
Rp163
(I1
(I3
tp164
g14
(S'f8'
p165
I0
I1
tp166
Rp167
(I3
S'<'
p168
NNNI-1
I-1
I0
tp169
bI00
S'\xdd9\x8b\xf6\x10uF@W\xad\xd7@O\xb0S@\x00\x00\x00\xc0\x1e\x85\xf7\xbf'
p170
tp171
bsS'secnames'
p172
S'Cell[0].axon[70]'
p173
sI5
I167
tp174
a(F1.6201507567674498
S'Cell[3].dend[11] syn_ = new FastInhib(0.166666666667)'
p175
I3
(dp176
S'seg'
p177
F0.5
sS'hostfrom'
p178
F6.0
sS'gid'
p179
I102
sS'coords'
p180
g7
(g8
(I0
tp181
g10
tp182
Rp183
(I1
(I3
tp184
g14
(S'f8'
p185
I0
I1
tp186
Rp187
(I3
S'<'
p188
NNNI-1
I-1
I0
tp189
bI00
S'Td\xaa\xa8\xa3\x974@"\x9a\xa3\xe6\xe8\x0fO\xc0<\xec\x12-r\x0b\xe7\xbf'
p190
tp191
bsS'secnames'
p192
S'Cell[2].axon[97]'
p193
sI102
I167
tp194
a(F2.47523090728408
S'Cell[3].dend[24] syn_ = new FastInhib(0.5)'
p195
I3
(dp196
g177
F0.1
sg178
F6.0
sg179
I102
sg180
g7
(g8
(I0
tp197
g10
tp198
Rp199
(I1
(I3
tp200
g187
I00
S'p_\xb2\xfds2=\xc0\xea\xc7\xe14IZd\xc0\x00\x00\x00\x80\xeb\x110@'
p201
tp202
bsg192
S'Cell[2].axon[133]'
p203
sI102
I167
tp204
a(F1.0327894894186356
S'Cell[1].dend[8] syn_ = new AmpaNmda(0.166666666667)'
p205
I1
(dp206
g177
F0.1
sg178
F6.0
sg179
I150
sg180
g7
(g8
(I0
tp207
g10
tp208
Rp209
(I1
(I3
tp210
g187
I00
S'\xabL\xec/\x01_F\xc0$\x1f\xf9\xeb\x89\xbb9@\x00\x00\x00\x80\x14\xee>\xc0'
p211
tp212
bsg192
S'Cell[3].axon[223]'
p213
sI150
I71
tp214
a(F2.472352367173676
S'Cell[1].dend[7] syn_ = new ExpSid(0.166666666667)'
p215
I1
(dp216
S'seg'
p217
F0.16666666666666666
sS'hostfrom'
p218
F7.0
sS'gid'
p219
I103
sS'coords'
p220
g7
(g8
(I0
tp221
g10
tp222
Rp223
(I1
(I3
tp224
g14
(S'f8'
p225
I0
I1
tp226
Rp227
(I3
S'<'
p228
NNNI-1
I-1
I0
tp229
bI00
S"&Bi\x138\x1bE\xc0\xb1\xbc\xfc\x82\x1e\x985@S,\x93\xb5\n\x1d'\xc0"
p230
tp231
bsS'secnames'
p232
S'Cell[2].axon[89]'
p233
sI103
I71
tp234
a(F1.0805539412220124
S'Cell[2].dend[46] syn_ = new FastInhib(0.5)'
p235
I2
(dp236
g217
F0.5
sg218
F7.0
sg219
I103
sg220
g7
(g8
(I0
tp237
g10
tp238
Rp239
(I1
(I3
tp240
g227
I00
S'\x08H\xdavi(\n@v-\x8a0i\xdf0\xc0\x10\x03\xd7\xf8)\xc9\xf9?'
p241
tp242
bsg232
S'Cell[2].axon[262]'
p243
sI103
I119
tp244
a(F2.1347586531689924
S'Cell[0].dend[33] syn_ = new ExpSid(0.166666666667)'
p245
I0
(dp246
g217
F0.16666666666666666
sg218
F7.0
sg219
I103
sg220
g7
(g8
(I0
tp247
g10
tp248
Rp249
(I1
(I3
tp250
g227
I00
S'\xf0\xda\xad\x9e\xbc\xfd\xf6\xbf\x0e\xc10:\xa5\x07`@z?\xac\x13\x8f\x02\x16\xc0'
p251
tp252
bsg232
S'Cell[2].axon[272]'
p253
sI103
I23
tp254
a(F1.769543632170549
S'Cell[2].dend[61] syn_ = new FastInhib(0.785714285714)'
p255
I2
(dp256
g217
F0.8999999999999999
sg218
F7.0
sg219
I103
sg220
g7
(g8
(I0
tp257
g10
tp258
Rp259
(I1
(I3
tp260
g227
I00
S' 6\xdd\xbe<\xee]\xc0J_\xceT\xd1\x8eU\xc0\x06\x92r\x96\xed\x1dE\xc0'
p261
tp262
bsg232
S'Cell[2].axon[296]'
p263
sI103
I119
tp264
a(F2.262735775903675
S'Cell[3].dend[39] syn_ = new FastInhib(0.5)'
p265
I3
(dp266
g217
F0.5
sg218
F7.0
sg219
I103
sg220
g7
(g8
(I0
tp267
g10
tp268
Rp269
(I1
(I3
tp270
g227
I00
S'\x85\xc8\x82\x0f\xc2r6\xc0 \x8c\xb2EY\xdd2@\xb8\x19#\t\x0f\xe1"\xc0'
p271
tp272
bsg232
S'Cell[2].axon[445]'
p273
sI103
I167
tp274
a(F1.8191100042147585
S'Cell[1].apic[2] syn_ = new ExpSid(0.5)'
p275
I1
(dp276
g217
F0.5
sg218
F7.0
sg219
I151
sg220
g7
(g8
(I0
tp277
g10
tp278
Rp279
(I1
(I3
tp280
g227
I00
S'\x8cYg\xf6yOC\xc0s\xa6\x98I\xe2\x9fO@86\xf4\x1aK\x82\x1d@'
p281
tp282
bsg232
S'Cell[3].axon[38]'
p283
sI151
I71
tp284
a(F2.0492919046619607
S'Cell[2].dend[52] syn_ = new FastInhib(0.166666666667)'
p285
I2
(dp286
g217
F0.5
sg218
F7.0
sg219
I151
sg220
g7
(g8
(I0
tp287
g10
tp288
Rp289
(I1
(I3
tp290
g227
I00
S'x\x08\xc7\xda\xd7\x8f%@G\\?.\xd2\xb6S\xc0b&v\xf7\xc8\xf8B\xc0'
p291
tp292
bsg232
S'Cell[3].axon[187]'
p293
sI151
I119
tp294
a(F2.420198928056574
S'Cell[0].apic[34] syn_ = new ExpSid(0.166666666667)'
p295
I0
(dp296
g217
F0.8333333333333333
sg218
F7.0
sg219
I151
sg220
g7
(g8
(I0
tp297
g10
tp298
Rp299
(I1
(I3
tp300
g227
I00
S'\r::\xd9\x92\xbf4@Hb\xcc\xda/\xcdg\xc0\xfd\xbd\xce[NGE\xc0'
p301
tp302
bsg232
S'Cell[3].axon[269]'
p303
sI151
I23
tp304
a(F1.6170468304484786
S'Cell[0].apic[34] syn_ = new ExpSid(0.166666666667)'
p305
I0
(dp306
g217
F0.16666666666666666
sg218
F7.0
sg219
I151
sg220
g7
(g8
(I0
tp307
g10
tp308
Rp309
(I1
(I3
tp310
g227
I00
S"\xefX\r\xe1Z\xc43@\x0c\xfc\xb0R\x91\xf8g\xc0x'pI\x8e\xa6C\xc0"
p311
tp312
bsg232
S'Cell[3].axon[270]'
p313
sI151
I23
tp314
a(F2.423720611845783
S'Cell[1].apic[23] syn_ = new AmpaNmda(0.166666666667)'
p315
I1
(dp316
S'seg'
p317
F0.5
sS'hostfrom'
p318
F8.0
sS'gid'
p319
I152
sS'coords'
p320
g7
(g8
(I0
tp321
g10
tp322
Rp323
(I1
(I3
tp324
g14
(S'f8'
p325
I0
I1
tp326
Rp327
(I3
S'<'
p328
NNNI-1
I-1
I0
tp329
bI00
S'iW%\xe6\xffXD\xc0\xe4A\x80\x03\x1cUK@\x00\x00\x00`\x8fB&@'
p330
tp331
bsS'secnames'
p332
S'Cell[3].axon[71]'
p333
sI152
I71
tp334
a(F1.5974705669190907
S'Cell[0].apic[10] syn_ = new AmpaNmda(0.5)'
p335
I0
(dp336
g317
F0.5
sg318
F8.0
sg319
I152
sg320
g7
(g8
(I0
tp337
g10
tp338
Rp339
(I1
(I3
tp340
g327
I00
S'\x97fV\xaaT-N@\x92\xbe\x14\x15\xa2v\x18@\x88\xed\xb3\x15Oz.\xc0'
p341
tp342
bsg332
S'Cell[3].axon[343]'
p343
sI152
I23
tp344
a(F1.7942539444569694
S'Cell[0].apic[11] syn_ = new AmpaNmda(0.5)'
p345
I0
g336
I152
I23
tp346
a(F2.2706923980786033
S'Cell[1].dend[3] syn_ = new AmpaNmda(0.1)'
p347
I1
(dp348
g317
F0.5
sg318
F8.0
sg319
I152
sg320
g7
(g8
(I0
tp349
g10
tp350
Rp351
(I1
(I3
tp352
g327
I00
S'K\r|\xe1\xa3%4\xc0\x7f)i5";;@8\x12\x8eRQ\xb6"\xc0'
p353
tp354
bsg332
S'Cell[3].axon[517]'
p355
sI152
I71
tp356
a(F1.7333489736960832
S'Cell[2].dend[16] syn_ = new FastInhib(0.5)'
p357
I2
(dp358
g317
F0.8999999999999999
sg318
F8.0
sg319
I152
sg320
g7
(g8
(I0
tp359
g10
tp360
Rp361
(I1
(I3
tp362
g327
I00
S'\x02\xa8h|\xbe\x02@@\xc8\xf0\xd3\xf5b\xa8A\xc0\xfa\xeb\x99\xf9\x98\xa0&\xc0'
p363
tp364
bsg332
S'Cell[3].axon[523]'
p365
sI152
I119
tp366
a(F1.2642353211537083
S'Cell[1].dend[4] syn_ = new AmpaNmda(0.5)'
p367
I1
(dp368
g317
F0.5
sg318
F8.0
sg319
I104
sg320
g7
(g8
(I0
tp369
g10
tp370
Rp371
(I1
(I3
tp372
g327
I00
S'\xf8 \xe1\x11\xc6s$\xc0:\x8d\x9b\x80\x9aAC@(`\x92\xa5)^\x13\xc0'
p373
tp374
bsg332
S'Cell[2].axon[126]'
p375
sI104
I71
tp376
a(F2.311254070153313
S'Cell[2].dend[45] syn_ = new FastInhib(0.833333333333)'
p377
I2
(dp378
g317
F0.16666666666666666
sg318
F8.0
sg319
I104
sg320
g7
(g8
(I0
tp379
g10
tp380
Rp381
(I1
(I3
tp382
g327
I00
S"\xd4Ne\xec\xfd\xcc4@\x1e}\xa9\x11\xc3`B@\xb2i\xea\xde\xa9`'\xc0"
p383
tp384
bsg332
S'Cell[2].axon[161]'
p385
sI104
I119
tp386
a(F1.7261499969008622
S'Cell[2].dend[41] syn_ = new FastInhib(0.5)'
p387
I2
(dp388
g317
F0.30000000000000004
sg318
F8.0
sg319
I104
sg320
g7
(g8
(I0
tp389
g10
tp390
Rp391
(I1
(I3
tp392
g327
I00
S'\xd2\xea\xd3\xbe$+;@\x96\xd3\xd6\xad\x94\xfd\x1c\xc0"a\x95\xaa9\xbd0\xc0'
p393
tp394
bsg332
S'Cell[2].axon[164]'
p395
sI104
I119
tp396
a(F2.2042392878719315
S'Cell[0].dend[33] syn_ = new AmpaNmda(0.166666666667)'
p397
I0
(dp398
g317
F0.6111111111111112
sg318
F8.0
sg319
I104
sg320
g7
(g8
(I0
tp399
g10
tp400
Rp401
(I1
(I3
tp402
g327
I00
S'\xf6\x0cY.\x15\x18\xfd\xbf\xb5\x8f\xb6\x08\xe4@`@\xc1v\x15\x87\xca\xa9!\xc0'
p403
tp404
bsg332
S'Cell[2].axon[218]'
p405
sI104
I23
tp406
a(F0.9845849611183548
S'Cell[0].apic[7] syn_ = new AmpaNmda(0.7)'
p407
I0
(dp408
g317
F0.07142857142857142
sg318
F8.0
sg319
I104
sg320
g7
(g8
(I0
tp409
g10
tp410
Rp411
(I1
(I3
tp412
g327
I00
S';\xce\x07Q\xc0:Z@$O`\x0c\x96zT@\x00\xbd\xf3\x04s\xffV\xc0'
p413
tp414
bsg332
S'Cell[2].axon[244]'
p415
sI104
I23
tp416
a(F1.8860710070816504
S'Cell[0].apic[36] syn_ = new ExpSid(0.833333333333)'
p417
I0
(dp418
S'seg'
p419
F0.1
sS'hostfrom'
p420
F9.0
sS'gid'
p421
I153
sS'coords'
p422
g7
(g8
(I0
tp423
g10
tp424
Rp425
(I1
(I3
tp426
g14
(S'f8'
p427
I0
I1
tp428
Rp429
(I3
S'<'
p430
NNNI-1
I-1
I0
tp431
bI00
S'**@O|\xd5K@\xe4M\xa4\xeb\xc9[L@\x13\\u\xa6\xed\x98,@'
p432
tp433
bsS'secnames'
p434
S'Cell[3].axon[58]'
p435
sI153
I23
tp436
a(F2.498181127728591
S'Cell[0].dend[35] syn_ = new ExpSid(0.5)'
p437
I0
(dp438
g419
F0.5
sg420
F9.0
sg421
I153
sg422
g7
(g8
(I0
tp439
g10
tp440
Rp441
(I1
(I3
tp442
g429
I00
S'\x16\x98h\xb9\xe3)4\xc0!\xa0\xca\xf3\x83\xf5a@\xc7f\x83\xb6M\xbe,@'
p443
tp444
bsg434
S'Cell[3].axon[221]'
p445
sI153
I23
tp446
a(F1.5875185235731863
S'Cell[3].dend[10] syn_ = new FastInhib(0.5)'
p447
I3
(dp448
g419
F0.16666666666666666
sg420
F9.0
sg421
I105
sg422
g7
(g8
(I0
tp449
g10
tp450
Rp451
(I1
(I3
tp452
g429
I00
S'\x00\x00\x00@\n\xd7-@\x8a\xcb\xe79\x1f\xfd^\xc0\xcft\xc9\xa9\xfc\x0c\x1c@'
p453
tp454
bsg434
S'Cell[2].axon[68]'
p455
sI105
I167
tp456
a(F1.1425156013531204
S'Cell[2].dend[52] syn_ = new FastInhib(0.388888888889)'
p457
I2
(dp458
g419
F0.8333333333333333
sg420
F9.0
sg421
I105
sg422
g7
(g8
(I0
tp459
g10
tp460
Rp461
(I1
(I3
tp462
g429
I00
S'.\x83-`\xed\xcb4@\x9b\x00\xba\xe7\xa47\\\xc0\x95\xb3\xa9\xf3\xd3b5\xc0'
p463
tp464
bsg434
S'Cell[2].axon[114]'
p465
sI105
I119
tp466
a(F0.7327424154673342
S'Cell[2].dend[52] syn_ = new FastInhib(0.388888888889)'
p467
I2
(dp468
g419
F0.5
sg420
F9.0
sg421
I105
sg422
g7
(g8
(I0
tp469
g10
tp470
Rp471
(I1
(I3
tp472
g429
I00
S'\xca4\xce\x8cN\xfb4@\xb1\x05\xce\x9b\x8f!\\\xc0/\xe1\x95D\xcf\x804\xc0'
p473
tp474
bsg434
S'Cell[2].axon[122]'
p475
sI105
I119
tp476
a(F1.7661217050004046
S'Cell[2].dend[49] syn_ = new FastInhib(0.833333333333)'
p477
I2
(dp478
g419
F0.7
sg420
F9.0
sg421
I105
sg422
g7
(g8
(I0
tp479
g10
tp480
Rp481
(I1
(I3
tp482
g429
I00
S'\xfa<\rS\x88\x18I@\x1e\x1ee5\xa7\xc8r\xc0\xc1\x7f_\x08\x83\x8f(\xc0'
p483
tp484
bsg434
S'Cell[2].axon[176]'
p485
sI105
I119
tp486
a(F2.3166858141767497
S'Cell[2].dend[17] syn_ = new FastInhib(0.5)'
p487
I2
(dp488
S'seg'
p489
F0.5
sS'hostfrom'
p490
F10.0
sS'gid'
p491
I106
sS'coords'
p492
g7
(g8
(I0
tp493
g10
tp494
Rp495
(I1
(I3
tp496
g14
(S'f8'
p497
I0
I1
tp498
Rp499
(I3
S'<'
p500
NNNI-1
I-1
I0
tp501
bI00
S'\xd6x\xf6\xfe\x8f.B@\xe4\xfb\xefg\xc47Q\xc0\x00\x00\x00`\xb8\x1e\x1b\xc0'
p502
tp503
bsS'secnames'
p504
S'Cell[2].axon[160]'
p505
sI106
I119
tp506
a(F2.3315321768591812
S'Cell[2].dend[44] syn_ = new FastInhib(0.3)'
p507
I2
(dp508
g489
F0.8333333333333333
sg490
F10.0
sg491
I106
sg492
g7
(g8
(I0
tp509
g10
tp510
Rp511
(I1
(I3
tp512
g499
I00
S'\xd3\x00z\xab\xed\x94C@\xd6\x08\xb6\xa2Z\xc0N@\x00{\xb5\xc4\x88\xc2C\xc0'
p513
tp514
bsg504
S'Cell[2].axon[185]'
p515
sI106
I119
tp516
a(F2.010487830360806
S'Cell[0].dend[32] syn_ = new AmpaNmda(0.5)'
p517
I0
(dp518
g489
F0.16666666666666666
sg490
F10.0
sg491
I106
sg492
g7
(g8
(I0
tp519
g10
tp520
Rp521
(I1
(I3
tp522
g499
I00
S'\x90o\xfa!\x81K\x1d\xc0\x185s\n\xa8\x9fb@\xeaxx\xc8\xc2\xff-\xc0'
p523
tp524
bsg504
S'Cell[2].axon[314]'
p525
sI106
I23
tp526
a(F1.8308560544704544
S'Cell[0].dend[24] syn_ = new AmpaNmda(0.5)'
p527
I0
(dp528
g489
F0.8333333333333333
sg490
F10.0
sg491
I106
sg492
g7
(g8
(I0
tp529
g10
tp530
Rp531
(I1
(I3
tp532
g499
I00
S"Ba'x:\xcb*@\x9a\xa8\x8a\xb9i\xb8^@\xe6\xbb\xc3\xe1\x8dw8\xc0"
p533
tp534
bsg504
S'Cell[2].axon[344]'
p535
sI106
I23
tp536
a(F2.326194841933666
S'Cell[1].dend[32] syn_ = new AmpaNmda(0.5)'
p537
I1
(dp538
g489
F0.5
sg490
F10.0
sg491
I154
sg492
g7
(g8
(I0
tp539
g10
tp540
Rp541
(I1
(I3
tp542
g499
I00
S"\x82YS\xdc\x875I@V\x7f\x08:\xe1CP@\xf1\xb5`r3*'@"
p543
tp544
bsg504
S'Cell[3].axon[11]'
p545
sI154
I71
tp546
a(F0.6913832122629306
S'Cell[1].dend[32] syn_ = new AmpaNmda(0.5)'
p547
I1
(dp548
g489
F0.5
sg490
F10.0
sg491
I154
sg492
g7
(g8
(I0
tp549
g10
tp550
Rp551
(I1
(I3
tp552
g499
I00
S'\x9e\xb0\x95M\xdf\x8dI@\x8c\x1d&\r\x9f\x9cP@\xcfX\xeb:\x9d\x8b(@'
p553
tp554
bsg504
S'Cell[3].axon[12]'
p555
sI154
I71
tp556
a(F0.7731626827951709
S'Cell[2].dend[3] syn_ = new FastInhib(0.5)'
p557
I2
(dp558
g489
F0.30000000000000004
sg490
F10.0
sg491
I154
sg492
g7
(g8
(I0
tp559
g10
tp560
Rp561
(I1
(I3
tp562
g499
I00
S'QT*_\xe2W\x13\xc0\xd0\x0cvk\x82\xadT@\xc5\x104\x0c\xa8\xe8 @'
p563
tp564
bsg504
S'Cell[3].axon[26]'
p565
sI154
I119
tp566
a(F2.039163233186813
S'Cell[2].dend[53] syn_ = new FastInhib(0.1)'
p567
I2
(dp568
S'seg'
p569
F0.5
sS'hostfrom'
p570
F11.0
sS'gid'
p571
I155
sS'coords'
p572
g7
(g8
(I0
tp573
g10
tp574
Rp575
(I1
(I3
tp576
g14
(S'f8'
p577
I0
I1
tp578
Rp579
(I3
S'<'
p580
NNNI-1
I-1
I0
tp581
bI00
S'\x0f\xce\x82\xb7\xb7\xb90\xc0\x18\xf3\xf1j\x15\xf2M\xc08S\x15\x9f\xd9i:\xc0'
p582
tp583
bsS'secnames'
p584
S'Cell[3].axon[241]'
p585
sI155
I119
tp586
a(F0.9549076595714084
S'Cell[2].dend[10] syn_ = new FastInhib(0.785714285714)'
p587
I2
(dp588
S'seg'
p589
F0.5
sS'hostfrom'
p590
F12.0
sS'gid'
p591
I60
sS'coords'
p592
g7
(g8
(I0
tp593
g10
tp594
Rp595
(I1
(I3
tp596
g14
(S'f8'
p597
I0
I1
tp598
Rp599
(I3
S'<'
p600
NNNI-1
I-1
I0
tp601
bI00
S'\x00\x00\x00P\xb8^;@\x00\x00\x00\xa0\x99\xe1b\xc0\x00\x00\x00\x80\xeb\xd1\x11@'
p602
tp603
bsS'secnames'
p604
S'Cell[1].axon[4]'
p605
sI60
I119
tp606
a(F1.4368845891342477
S'Cell[2].dend[57] syn_ = new FastInhib(0.5)'
p607
I2
(dp608
g589
F0.07142857142857142
sg590
F12.0
sg591
I156
sg592
g7
(g8
(I0
tp609
g10
tp610
Rp611
(I1
(I3
tp612
g599
I00
S'\x90yz\xcf\x90\xca_\xc0\xaa\xd29\x8c4Nn\xc0?=\x9d\xaf\xa4\xe9N\xc0'
p613
tp614
bsg604
S'Cell[3].axon[558]'
p615
sI156
I119
tp616
a(F1.7794588805233622
S'Cell[2].dend[63] syn_ = new FastInhib(0.357142857143)'
p617
I2
(dp618
g589
F0.5
sg590
F12.0
sg591
I156
sg592
g7
(g8
(I0
tp619
g10
tp620
Rp621
(I1
(I3
tp622
g599
I00
S'\x00\x00\x00 \x85+J\xc0\x00\x00\x00\xa0p\xed^\xc0\x00\x00\x00\x80\x14\xee#@'
p623
tp624
bsg604
S'Cell[3].axon[592]'
p625
sI156
I119
tp626
a(F1.826779246349031
S'Cell[2].dend[45] syn_ = new FastInhib(0.5)'
p627
I2
(dp628
g589
F0.5
sg590
F12.0
sg591
I108
sg592
g7
(g8
(I0
tp629
g10
tp630
Rp631
(I1
(I3
tp632
g599
I00
S'5\xca\xe2\xc2\xa3\xf12@-\x8c\x7f\xc8\xd2e4@\x92Y\xad\xf7\xe9\x1e%\xc0'
p633
tp634
bsg604
S'Cell[2].axon[6]'
p635
sI108
I119
tp636
a(F1.9194677524015995
S'Cell[3].dend[36] syn_ = new FastInhib(0.5)'
p637
I3
(dp638
g589
F0.5
sg590
F12.0
sg591
I108
sg592
g7
(g8
(I0
tp639
g10
tp640
Rp641
(I1
(I3
tp642
g599
I00
S'\x00\x00\x00\x80\x14N=@\x00\x00\x00\xa0p\rN@\x00\x00\x00\x80\x14\xae\x11@'
p643
tp644
bsg604
S'Cell[2].axon[55]'
p645
sI108
I167
tp646
a(F1.9548382179203958
S'Cell[2].dend[3] syn_ = new FastInhib(0.5)'
p647
I2
(dp648
S'seg'
p649
F0.5
sS'hostfrom'
p650
F13.0
sS'gid'
p651
I109
sS'coords'
p652
g7
(g8
(I0
tp653
g10
tp654
Rp655
(I1
(I3
tp656
g14
(S'f8'
p657
I0
I1
tp658
Rp659
(I3
S'<'
p660
NNNI-1
I-1
I0
tp661
bI00
S'\x00\x00\x00\x00\xd7\xa3\x12\xc0\x00\x00\x000\\\xa7T@\x00\x00\x00\x90\xc2u%@'
p662
tp663
bsS'secnames'
p664
S'Cell[2].axon[234]'
p665
sI109
I119
tp666
a(F2.3111371117520676
S'Cell[3].dend[45] syn_ = new FastInhib(0.833333333333)'
p667
I3
(dp668
g649
F0.5
sg650
F13.0
sg651
I109
sg652
g7
(g8
(I0
tp669
g10
tp670
Rp671
(I1
(I3
tp672
g659
I00
S'~\xe4\tZ40.@\x08Q\x04\xd4N\x80$\xc0oX\xd0\xcd~]>\xc0'
p673
tp674
bsg664
S'Cell[2].axon[242]'
p675
sI109
I167
tp676
a(F1.422887206471905
S'Cell[0].apic[25] syn_ = new ExpSid(0.833333333333)'
p677
I0
(dp678
g649
F0.16666666666666666
sg650
F13.0
sg651
I13
sg652
g7
(g8
(I0
tp679
g10
tp680
Rp681
(I1
(I3
tp682
g659
I00
S"\xba`\x12\xe03)I@N\x99&\xeeH\xf6X\xc0tc\xf1\x07SV'\xc0"
p683
tp684
bsg664
S'Cell[0].axon[2]'
p685
sI13
I23
tp686
a(F1.664601563609741
S'Cell[2].dend[21] syn_ = new FastInhib(0.166666666667)'
p687
I2
(dp688
S'seg'
p689
F0.16666666666666666
sS'hostfrom'
p690
F14.0
sS'gid'
p691
I110
sS'coords'
p692
g7
(g8
(I0
tp693
g10
tp694
Rp695
(I1
(I3
tp696
g14
(S'f8'
p697
I0
I1
tp698
Rp699
(I3
S'<'
p700
NNNI-1
I-1
I0
tp701
bI00
S'"Q\x00\xdf\xb2{C@\\\xe1\xd6\tq!4\xc0\x9a\x04\xa5\xe6]\xfb:\xc0'
p702
tp703
bsS'secnames'
p704
S'Cell[2].axon[65]'
p705
sI110
I119
tp706
a(F1.5420108751886137
S'Cell[0].apic[28] syn_ = new AmpaNmda(0.833333333333)'
p707
I0
(dp708
g689
F0.8333333333333333
sg690
F14.0
sg691
I14
sg692
g7
(g8
(I0
tp709
g10
tp710
Rp711
(I1
(I3
tp712
g699
I00
S'\xbe\xd9?\xe9\xd5\x86D@&F\x88\x88\x1f)a\xc0\xda:\x9e\x84\xdc\x9c/@'
p713
tp714
bsg704
S'Cell[0].axon[5]'
p715
sI14
I23
tp716
a(F1.655634895909549
S'Cell[3].dend[24] syn_ = new FastInhib(0.166666666667)'
p717
I3
(dp718
g689
F0.8333333333333333
sg690
F14.0
sg691
I14
sg692
g7
(g8
(I0
tp719
g10
tp720
Rp721
(I1
(I3
tp722
g699
I00
S'.2\xf3\x95\x80\xcf;\xc0\xd6\x05\xed\x05V\xe5a\xc0\x00\x00\x00@\xe1z,@'
p723
tp724
bsg704
S'Cell[0].axon[8]'
p725
sI14
I167
tp726
a(F1.4530001913077013
S'Cell[2].dend[28] syn_ = new FastInhib(0.5)'
p727
I2
(dp728
S'seg'
p729
F0.5
sS'hostfrom'
p730
F15.0
sS'gid'
p731
I159
sS'coords'
p732
g7
(g8
(I0
tp733
g10
tp734
Rp735
(I1
(I3
tp736
g14
(S'f8'
p737
I0
I1
tp738
Rp739
(I3
S'<'
p740
NNNI-1
I-1
I0
tp741
bI00
S'\x1f(\x02T\xa6aU@\xba\x14\xd5\x08\xa6\xebV\xc0}3\xb8L\xddmH\xc0'
p742
tp743
bsS'secnames'
p744
S'Cell[3].axon[12]'
p745
sI159
I119
tp746
a(F1.9485736288728013
S'Cell[1].dend[28] syn_ = new AmpaNmda(0.166666666667)'
p747
I1
(dp748
S'seg'
p749
F0.5
sS'hostfrom'
p750
F16.0
sS'gid'
p751
I112
sS'coords'
p752
g7
(g8
(I0
tp753
g10
tp754
Rp755
(I1
(I3
tp756
g14
(S'f8'
p757
I0
I1
tp758
Rp759
(I3
S'<'
p760
NNNI-1
I-1
I0
tp761
bI00
S'vN\x9a\x07`oS@\xa2\xc0%\xce}\xb0A@\x83\xd4\r\xeap\x8b!@'
p762
tp763
bsS'secnames'
p764
S'Cell[2].axon[115]'
p765
sI112
I71
tp766
a(F2.061654261350058
S'Cell[2].dend[52] syn_ = new FastInhib(0.611111111111)'
p767
I2
(dp768
S'seg'
p769
F0.5
sS'hostfrom'
p770
F17.0
sS'gid'
p771
I113
sS'coords'
p772
g7
(g8
(I0
tp773
g10
tp774
Rp775
(I1
(I3
tp776
g14
(S'f8'
p777
I0
I1
tp778
Rp779
(I3
S'<'
p780
NNNI-1
I-1
I0
tp781
bI00
S'\xbd\xa6r\xd5\xf2\xee+@\xackS\xf7\xeaIc\xc0\xd8\x96\xf1\x11\xea4A\xc0'
p782
tp783
bsS'secnames'
p784
S'Cell[2].axon[74]'
p785
sI113
I119
tp786
a(F1.0453134615846202
S'Cell[0].apic[25] syn_ = new ExpSid(0.833333333333)'
p787
I0
(dp788
g769
F0.5
sg770
F17.0
sg771
I113
sg772
g7
(g8
(I0
tp789
g10
tp790
Rp791
(I1
(I3
tp792
g779
I00
S'\x00\x00\x00\xc0\x1e\xf5I@\x00\x00\x000\\\x8fX\xc0\x00\x00\x00`ff(\xc0'
p793
tp794
bsg784
S'Cell[2].axon[125]'
p795
sI113
I23
tp796
a(F0.8590616214674964
S'Cell[2].dend[27] syn_ = new FastInhib(0.5)'
p797
I2
(dp798
g769
F0.8333333333333333
sg770
F17.0
sg771
I113
sg772
g7
(g8
(I0
tp799
g10
tp800
Rp801
(I1
(I3
tp802
g779
I00
S'V*\xcc\x8cl\xd2U@\xe4\xf1\xbb;B0R\xc0\x00\x00\x00\x80\xeb\x91B\xc0'
p803
tp804
bsg784
S'Cell[2].axon[684]'
p805
sI113
I119
tp806
a(F1.6447900702292777
S'Cell[2].dend[45] syn_ = new FastInhib(0.833333333333)'
p807
I2
(dp808
g769
F0.16666666666666666
sg770
F17.0
sg771
I161
sg772
g7
(g8
(I0
tp809
g10
tp810
Rp811
(I1
(I3
tp812
g779
I00
S'\x1c\x84m\xf4~\xe15@\xb9\x14\x89\x93Q\x1eC@\x00\x00\x00\xc0\xf5\xa8&\xc0'
p813
tp814
bsg784
S'Cell[3].axon[120]'
p815
sI161
I119
tp816
a(F2.247592426372336
S'Cell[0].dend[19] syn_ = new ExpSid(0.833333333333)'
p817
I0
(dp818
g769
F0.5
sg770
F17.0
sg771
I161
sg772
g7
(g8
(I0
tp819
g10
tp820
Rp821
(I1
(I3
tp822
g779
I00
S'.GY\x0f\xab@G@\x8cnf\xe1\x9e~b@\xb4\x99\xd9\xc3\xaa\xd2P\xc0'
p823
tp824
bsg784
S'Cell[3].axon[149]'
p825
sI161
I23
tp826
a(F2.134490032942877
S'Cell[3].dend[5] syn_ = new FastInhib(0.5)'
p827
I3
(dp828
g769
F0.5
sg770
F17.0
sg771
I65
sg772
g7
(g8
(I0
tp829
g10
tp830
Rp831
(I1
(I3
tp832
g779
I00
S'\x14\xc1}\xf08,H@\xe9Bck\x15HR\xc0\x85\x8e\x1c\xe2f.$@'
p833
tp834
bsg784
S'Cell[1].axon[19]'
p835
sI65
I167
tp836
a(F2.4967007580551717
S'Cell[1].dend[7] syn_ = new AmpaNmda(0.5)'
p837
I1
(dp838
S'seg'
p839
F0.16666666666666666
sS'hostfrom'
p840
F18.0
sS'gid'
p841
I114
sS'coords'
p842
g7
(g8
(I0
tp843
g10
tp844
Rp845
(I1
(I3
tp846
g14
(S'f8'
p847
I0
I1
tp848
Rp849
(I3
S'<'
p850
NNNI-1
I-1
I0
tp851
bI00
S'\xe7\x8f\xdd\x18\x95\xf4J\xc0d\xae\xefs\xf4l3@\x00\x00\x00\x80\xc2u,\xc0'
p852
tp853
bsS'secnames'
p854
S'Cell[2].axon[48]'
p855
sI114
I71
tp856
a(F1.6315932333656584
S'Cell[3].dend[11] syn_ = new FastInhib(0.166666666667)'
p857
I3
(dp858
g839
F0.5
sg840
F18.0
sg841
I66
sg842
g7
(g8
(I0
tp859
g10
tp860
Rp861
(I1
(I3
tp862
g849
I00
S'\x00\x00\x00\x00\x00\x805@\x00\x00\x00 \x85\x0bP\xc0\x00\x00\x00pff\xe6\xbf'
p863
tp864
bsg854
S'Cell[1].axon[1]'
p865
sI66
I167
tp866
a(F2.4258642656345617
S'Cell[2].dend[7] syn_ = new FastInhib(0.1)'
p867
I2
(dp868
g839
F0.8333333333333333
sg840
F18.0
sg841
I162
sg842
g7
(g8
(I0
tp869
g10
tp870
Rp871
(I1
(I3
tp872
g849
I00
S'\x16l\x14\xbaG\xc7\x10@8\x9f\x8a\xd2\x91*:@\xe5\xd0\xa0o\t\xc11@'
p873
tp874
bsg854
S'Cell[3].axon[181]'
p875
sI162
I119
tp876
a(F1.4233581761521548
S'Cell[1].dend[23] syn_ = new AmpaNmda(0.5)'
p877
I1
(dp878
g839
F0.16666666666666666
sg840
F18.0
sg841
I162
sg842
g7
(g8
(I0
tp879
g10
tp880
Rp881
(I1
(I3
tp882
g849
I00
S'+\x855\xe5\xa5\xfc\x10\xc0+\xe0oF~\x15A@\x0c\xdc\xdas/\xda9@'
p883
tp884
bsg854
S'Cell[3].axon[185]'
p885
sI162
I71
tp886
a(F0.8635688747510233
S'Cell[2].dend[14] syn_ = new FastInhib(0.5)'
p887
I2
(dp888
g839
F0.2777777777777778
sg840
F18.0
sg841
I162
sg842
g7
(g8
(I0
tp889
g10
tp890
Rp891
(I1
(I3
tp892
g849
I00
S'w\xfbD\x11\xc4\x16<@\xeb\x9d\xcfiDW"\xc0\xb3\xd8?\xc9RI2\xc0'
p893
tp894
bsg854
S'Cell[3].axon[203]'
p895
sI162
I119
tp896
a(F2.4100220237205447
S'Cell[0].dend[36] syn_ = new ExpSid(0.5)'
p897
I0
(dp898
S'seg'
p899
F0.16666666666666666
sS'hostfrom'
p900
F19.0
sS'gid'
p901
I115
sS'coords'
p902
g7
(g8
(I0
tp903
g10
tp904
Rp905
(I1
(I3
tp906
g14
(S'f8'
p907
I0
I1
tp908
Rp909
(I3
S'<'
p910
NNNI-1
I-1
I0
tp911
bI00
S'\xb4[\xef\x12\x1c\xc3*@\xf5\xc07\x8f\x01\xf8^@\xe2\xcdn\x117\xf96@'
p912
tp913
bsS'secnames'
p914
S'Cell[2].axon[172]'
p915
sI115
I23
tp916
a(F1.1951601820741047
S'Cell[0].dend[26] syn_ = new ExpSid(0.833333333333)'
p917
I0
(dp918
g899
F0.5
sg900
F19.0
sg901
I115
sg902
g7
(g8
(I0
tp919
g10
tp920
Rp921
(I1
(I3
tp922
g909
I00
S'\x95\xe6\xa3\xf2\x068A\xc0\x81K\xe9\x0c\x82\x1a\\@\x83\x11\xb9\xa8,\xcb\t\xc0'
p923
tp924
bsg914
S'Cell[2].axon[247]'
p925
sI115
I23
tp926
a(F1.8861734258790894
S'Cell[0].apic[30] syn_ = new ExpSid(0.833333333333)'
p927
I0
(dp928
g899
F0.16666666666666666
sg900
F19.0
sg901
I67
sg902
g7
(g8
(I0
tp929
g10
tp930
Rp931
(I1
(I3
tp932
g909
I00
S'f\xdaQ\x9a7y;@\x14}\xd9\xd5Q0c\xc0\x00\x00\x00`ff*\xc0'
p933
tp934
bsg914
S'Cell[1].axon[27]'
p935
sI67
I23
tp936
a(F1.6756895640810088
S'Cell[2].dend[63] syn_ = new FastInhib(0.214285714286)'
p937
I2
(dp938
g899
F0.16666666666666666
sg900
F19.0
sg901
I163
sg902
g7
(g8
(I0
tp939
g10
tp940
Rp941
(I1
(I3
tp942
g909
I00
S'\x16\xffA\x1e)=D\xc0\x8c\x11\xa87-GW\xc0\xad\xe0\x04\xe8\x02\x94\x1e@'
p943
tp944
bsg914
S'Cell[3].axon[8]'
p945
sI163
I119
tp946
a(F2.4610856353469255
S'Cell[2].dend[9] syn_ = new FastInhib(0.833333333333)'
p947
I2
(dp948
S'seg'
p949
F0.8333333333333333
sS'hostfrom'
p950
F20.0
sS'gid'
p951
I68
sS'coords'
p952
g7
(g8
(I0
tp953
g10
tp954
Rp955
(I1
(I3
tp956
g14
(S'f8'
p957
I0
I1
tp958
Rp959
(I3
S'<'
p960
NNNI-1
I-1
I0
tp961
bI00
S'"Z\xcc\xfd\xaf\xf8D@\xf63\x0c\xdf\x1e\x0c9@o\x11K\x17\x10J2@'
p962
tp963
bsS'secnames'
p964
S'Cell[1].axon[3]'
p965
sI68
I119
tp966
a(F2.488703365947423
S'Cell[3].dend[11] syn_ = new FastInhib(0.166666666667)'
p967
I3
(dp968
g949
F0.5
sg950
F20.0
sg951
I68
sg952
g7
(g8
(I0
tp969
g10
tp970
Rp971
(I1
(I3
tp972
g959
I00
S'\x1ft\xdeA#\x926@\xa8y\x03\x1a\xe6\x0fP\xc0\x00\x00\x00\xa0\x99\x99\xb9?'
p973
tp974
bsg964
S'Cell[1].axon[38]'
p975
sI68
I167
tp976
a(F0.9480724029496601
S'Cell[0].apic[12] syn_ = new ExpSid(0.833333333333)'
p977
I0
(dp978
S'seg'
p979
F0.16666666666666666
sS'hostfrom'
p980
F21.0
sS'gid'
p981
I165
sS'coords'
p982
g7
(g8
(I0
tp983
g10
tp984
Rp985
(I1
(I3
tp986
g14
(S'f8'
p987
I0
I1
tp988
Rp989
(I3
S'<'
p990
NNNI-1
I-1
I0
tp991
bI00
S'\xf2\x08\x16o\xf3VS@\x18\x1d`\x8a\x06\x922\xc0\x9dW+\xadJ\xe7\x11\xc0'
p992
tp993
bsS'secnames'
p994
S'Cell[3].axon[12]'
p995
sI165
I23
tp996
a(F1.5523689647961414
S'Cell[0].apic[9] syn_ = new ExpSid(0.5)'
p997
I0
(dp998
g979
F0.5
sg980
F21.0
sg981
I117
sg982
g7
(g8
(I0
tp999
g10
tp1000
Rp1001
(I1
(I3
tp1002
g989
I00
S'\xf2\xce\xee\x84\xd1\xf7M@bg\xe3%\xb4x9@\xccj\xaf\xe4\x94\xd30\xc0'
p1003
tp1004
bsg994
S'Cell[2].axon[24]'
p1005
sI117
I23
tp1006
a(F1.7562525290736721
S'Cell[0].dend[25] syn_ = new ExpSid(0.166666666667)'
p1007
I0
(dp1008
g979
F0.5
sg980
F21.0
sg981
I117
sg982
g7
(g8
(I0
tp1009
g10
tp1010
Rp1011
(I1
(I3
tp1012
g989
I00
S'^7\x11\x1b\xd4D1@J\\\x11z\x0eH`@\x00\x00\x00\x80\xc2u9\xc0'
p1013
tp1014
bsg994
S'Cell[2].axon[246]'
p1015
sI117
I23
tp1016
a(F2.212753606387978
S'Cell[1].dend[9] syn_ = new ExpSid(0.5)'
p1017
I1
(dp1018
g979
F0.5
sg980
F21.0
sg981
I117
sg982
g7
(g8
(I0
tp1019
g10
tp1020
Rp1021
(I1
(I3
tp1022
g989
I00
S'k\xed\xd4lV\xd91\xc0\x0e\x895W\x08\x8fE@\x00\x00\x00\x80\xc2u9\xc0'
p1023
tp1024
bsg994
S'Cell[2].axon[271]'
p1025
sI117
I71
tp1026
a(F2.2354512057425917
S'Cell[2].dend[39] syn_ = new FastInhib(0.3)'
p1027
I2
(dp1028
g979
F0.5
sg980
F21.0
sg981
I117
sg982
g7
(g8
(I0
tp1029
g10
tp1030
Rp1031
(I1
(I3
tp1032
g989
I00
S'\xef)}\xff\xa0qS@\x93\x06\xf9\xb1\x9b|\x19@\x00\x00\x00\x80\xc2u9\xc0'
p1033
tp1034
bsg994
S'Cell[2].axon[407]'
p1035
sI117
I119
tp1036
a(F0.7301786149316936
S'Cell[2].dend[20] syn_ = new FastInhib(0.642857142857)'
p1037
I2
(dp1038
g979
F0.3571428571428571
sg980
F21.0
sg981
I69
sg982
g7
(g8
(I0
tp1039
g10
tp1040
Rp1041
(I1
(I3
tp1042
g989
I00
S'\xe8\xbc\xbbL\xf9\xf5N@\xd4\x90W\xe7\xa0\x9a[\xc0W;\xdfr\x96HA@'
p1043
tp1044
bsg994
S'Cell[1].axon[25]'
p1045
sI69
I119
tp1046
a(F1.6558381438154277
S'Cell[3].dend[37] syn_ = new FastInhib(0.5)'
p1047
I3
(dp1048
S'seg'
p1049
F0.5
sS'hostfrom'
p1050
F22.0
sS'gid'
p1051
I70
sS'coords'
p1052
g7
(g8
(I0
tp1053
g10
tp1054
Rp1055
(I1
(I3
tp1056
g14
(S'f8'
p1057
I0
I1
tp1058
Rp1059
(I3
S'<'
p1060
NNNI-1
I-1
I0
tp1061
bI00
S'3b\xfe\x8b&\xaa0\xc0\xc5Z\xecX\x81##@\xc9f\x97\x1d$\xfa\x01\xc0'
p1062
tp1063
bsS'secnames'
p1064
S'Cell[1].axon[0]'
p1065
sI70
I167
tp1066
a(F2.204765949249066
S'Cell[2].dend[61] syn_ = new FastInhib(0.0714285714286)'
p1067
I2
(dp1068
S'seg'
p1069
F0.05555555555555555
sS'hostfrom'
p1070
F23.0
sS'gid'
p1071
I167
sS'coords'
p1072
g7
(g8
(I0
tp1073
g10
tp1074
Rp1075
(I1
(I3
tp1076
g14
(S'f8'
p1077
I0
I1
tp1078
Rp1079
(I3
S'<'
p1080
NNNI-1
I-1
I0
tp1081
bI00
S'Fj\x00]e\x9e?\xc0\x16\xa9\x06\xac\xf7\xafC\xc0\xd4x\x0e\xae\x05\xe5$@'
p1082
tp1083
bsS'secnames'
p1084
S'Cell[3].axon[1]'
p1085
sI167
I119
tp1086
a(F2.361125742653281
S'Cell[0].apic[14] syn_ = new AmpaNmda(0.5)'
p1087
I0
(dp1088
S'seg'
p1089
F0.30000000000000004
sS'hostfrom'
p1090
F24.0
sS'gid'
p1091
I72
sS'coords'
p1092
g7
(g8
(I0
tp1093
g10
tp1094
Rp1095
(I1
(I3
tp1096
g14
(S'f8'
p1097
I0
I1
tp1098
Rp1099
(I3
S'<'
p1100
NNNI-1
I-1
I0
tp1101
bI00
S'\xdb\x08\x856y\x8bQ@JZ\xb2\r\x9d\xedS\xc0\x10\xe5\xed{_\xb35\xc0'
p1102
tp1103
bsS'secnames'
p1104
S'Cell[1].axon[35]'
p1105
sI72
I23
tp1106
a(F1.704104525452403
S'Cell[1].apic[16] syn_ = new AmpaNmda(0.5)'
p1107
I1
(dp1108
g1089
F0.5
sg1090
F24.0
sg1091
I168
sg1092
g7
(g8
(I0
tp1109
g10
tp1110
Rp1111
(I1
(I3
tp1112
g1099
I00
S'\xe0f\x0b\xed\xb2\xb8I\xc0gJWn\xce\x93U@\x00\x00\x00\xc0\xcc\xdcQ\xc0'
p1113
tp1114
bsg1104
S'Cell[3].axon[307]'
p1115
sI168
I71
tp1116
a(F1.324115741020671
S'Cell[0].apic[28] syn_ = new AmpaNmda(0.166666666667)'
p1117
I0
(dp1118
g1089
F0.5
sg1090
F24.0
sg1091
I120
sg1092
g7
(g8
(I0
tp1119
g10
tp1120
Rp1121
(I1
(I3
tp1122
g1099
I00
S'\xceU\xad\x83^\tH@\x9c\x17\xd5\xdfzX]\xc0\x00\x00\x00\xa0G\xe1\xe2\xbf'
p1123
tp1124
bsg1104
S'Cell[2].axon[37]'
p1125
sI120
I23
tp1126
a(F2.4498362814612094
S'Cell[3].dend[6] syn_ = new FastInhib(0.5)'
p1127
I3
(dp1128
g1089
F0.5
sg1090
F24.0
sg1091
I120
sg1092
g7
(g8
(I0
tp1129
g10
tp1130
Rp1131
(I1
(I3
tp1132
g1099
I00
S'\x81\xd2\rC\xb0\x1cD@\x91X\xc0\x0b\xe4\xa9S\xc0\x00\x00\x00 \x85k&\xc0'
p1133
tp1134
bsg1104
S'Cell[2].axon[81]'
p1135
sI120
I167
tp1136
a(F1.9659286126579465
S'Cell[3].dend[12] syn_ = new FastInhib(0.7)'
p1137
I3
(dp1138
g1089
F0.07142857142857142
sg1090
F24.0
sg1091
I120
sg1092
g7
(g8
(I0
tp1139
g10
tp1140
Rp1141
(I1
(I3
tp1142
g1099
I00
S'd\nM77Z;\xc0w\xc4\x88\x01\x95\x84d\xc0\x1a\x8d~\xdfeo0\xc0'
p1143
tp1144
bsg1104
S'Cell[2].axon[160]'
p1145
sI120
I167
tp1146
a(F2.4504964259918345
S'Cell[2].dend[52] syn_ = new FastInhib(0.722222222222)'
p1147
I2
(dp1148
g1089
F0.7
sg1090
F24.0
sg1091
I120
sg1092
g7
(g8
(I0
tp1149
g10
tp1150
Rp1151
(I1
(I3
tp1152
g1099
I00
S'\x18\x0eq\xbe/\x17)@W\xabH#\xfc\x8ef\xc0X\x03c\xce\xba6A\xc0'
p1153
tp1154
bsg1104
S'Cell[2].axon[204]'
p1155
sI120
I119
tp1156
a(F1.2565119307606925
S'Cell[2].dend[63] syn_ = new FastInhib(0.0714285714286)'
p1157
I2
(dp1158
S'seg'
p1159
F0.5
sS'hostfrom'
p1160
F25.0
sS'gid'
p1161
I169
sS'coords'
p1162
g7
(g8
(I0
tp1163
g10
tp1164
Rp1165
(I1
(I3
tp1166
g14
(S'f8'
p1167
I0
I1
tp1168
Rp1169
(I3
S'<'
p1170
NNNI-1
I-1
I0
tp1171
bI00
S'\xeeuK\xe5\xe1\xd6@\xc0,\xe7\x82\x12]\xf1O\xc0\xe6j\x7fg\xd9\xbc @'
p1172
tp1173
bsS'secnames'
p1174
S'Cell[3].axon[176]'
p1175
sI169
I119
tp1176
a(F1.8609912725514266
S'Cell[2].dend[63] syn_ = new FastInhib(0.0714285714286)'
p1177
I2
(dp1178
g1159
F0.8333333333333333
sg1160
F25.0
sg1161
I169
sg1162
g7
(g8
(I0
tp1179
g10
tp1180
Rp1181
(I1
(I3
tp1182
g1169
I00
S'\xd1\x81ZA\xfd@A\xc0\x91[q\xb4pMO\xc0J\xa9.\xe2\xd0\xca%@'
p1183
tp1184
bsg1174
S'Cell[3].axon[244]'
p1185
sI169
I119
tp1186
a(F0.7118128731136474
S'Cell[3].dend[35] syn_ = new FastInhib(0.5)'
p1187
I3
(dp1188
S'seg'
p1189
F0.16666666666666666
sS'hostfrom'
p1190
F27.0
sS'gid'
p1191
I27
sS'coords'
p1192
g7
(g8
(I0
tp1193
g10
tp1194
Rp1195
(I1
(I3
tp1196
g14
(S'f8'
p1197
I0
I1
tp1198
Rp1199
(I3
S'<'
p1200
NNNI-1
I-1
I0
tp1201
bI00
S'\x02]\xedr~\xda&\xc0\xfc\x1f\x0f\xb4\x9b\xca\xf9\xbf7 \xa8w\xff\xd4\x01\xc0'
p1202
tp1203
bsS'secnames'
p1204
S'Cell[0].axon[6]'
p1205
sI27
I167
tp1206
a(F1.9428243128699039
S'Cell[0].apic[14] syn_ = new AmpaNmda(0.833333333333)'
p1207
I0
(dp1208
S'seg'
p1209
F0.5
sS'hostfrom'
p1210
F28.0
sS'gid'
p1211
I76
sS'coords'
p1212
g7
(g8
(I0
tp1213
g10
tp1214
Rp1215
(I1
(I3
tp1216
g14
(S'f8'
p1217
I0
I1
tp1218
Rp1219
(I3
S'<'
p1220
NNNI-1
I-1
I0
tp1221
bI00
S'@\xe2\xd4\xd2\x03\xabR@BY4\xdb\x9c\xbaW\xc0T\xe29hA\x8f:\xc0'
p1222
tp1223
bsS'secnames'
p1224
S'Cell[1].axon[21]'
p1225
sI76
I23
tp1226
a(F1.331072931347734
S'Cell[0].apic[13] syn_ = new AmpaNmda(0.166666666667)'
p1227
I0
(dp1228
g1209
F0.5
sg1210
F28.0
sg1211
I172
sg1212
g7
(g8
(I0
tp1229
g10
tp1230
Rp1231
(I1
(I3
tp1232
g1219
I00
S'\x00\x14p\xe9D\x98N@\xe6E\xbb5%\xe4\x18\xc0\x84\xee\x8e\xb4\xdb\x8d,\xc0'
p1233
tp1234
bsg1224
S'Cell[3].axon[95]'
p1235
sI172
I23
tp1236
a(F2.3759113057987484
S'Cell[0].dend[21] syn_ = new AmpaNmda(0.5)'
p1237
I0
(dp1238
S'seg'
p1239
F0.5
sS'hostfrom'
p1240
F30.0
sS'gid'
p1241
I126
sS'coords'
p1242
g7
(g8
(I0
tp1243
g10
tp1244
Rp1245
(I1
(I3
tp1246
g14
(S'f8'
p1247
I0
I1
tp1248
Rp1249
(I3
S'<'
p1250
NNNI-1
I-1
I0
tp1251
bI00
S"o[\x81\x02\xea%&\xc0\xffm\xca*8'a@O\xcdvL\xea+Q\xc0"
p1252
tp1253
bsS'secnames'
p1254
S'Cell[2].axon[105]'
p1255
sI126
I23
tp1256
a(F1.570629105433362
S'Cell[2].dend[19] syn_ = new FastInhib(0.0555555555556)'
p1257
I2
(dp1258
g1239
F0.7
sg1240
F30.0
sg1241
I78
sg1242
g7
(g8
(I0
tp1259
g10
tp1260
Rp1261
(I1
(I3
tp1262
g1249
I00
S'd\x17\xc9\x8b\x1d\xe4;@\xbey\xa8r\xed\x07Z\xc0\x06\xb7\xf7W\xb6-\xf4\xbf'
p1263
tp1264
bsg1254
S'Cell[1].axon[0]'
p1265
sI78
I119
tp1266
a(F2.2256921571584316
S'Cell[2].dend[12] syn_ = new FastInhib(0.5)'
p1267
I2
(dp1268
g1239
F0.5
sg1240
F30.0
sg1241
I78
sg1242
g7
(g8
(I0
tp1269
g10
tp1270
Rp1271
(I1
(I3
tp1272
g1249
I00
S"k\x1dK\xb3\x11O?@\x91\xa7s\x13'Ii\xc0\xaeDE\x03{\xda\r\xc0"
p1273
tp1274
bsg1254
S'Cell[1].axon[2]'
p1275
sI78
I119
tp1276
a(F2.434893747781067
S'Cell[2].dend[52] syn_ = new FastInhib(0.388888888889)'
p1277
I2
(dp1278
g1239
F0.8333333333333333
sg1240
F30.0
sg1241
I174
sg1242
g7
(g8
(I0
tp1279
g10
tp1280
Rp1281
(I1
(I3
tp1282
g1249
I00
S'"[`\xc7R\xe37@C]M+\xdfh\\\xc0*_K\x0b>14\xc0'
p1283
tp1284
bsg1254
S'Cell[3].axon[135]'
p1285
sI174
I119
tp1286
a(F2.073526605803435
S'Cell[2].dend[55] syn_ = new FastInhib(0.357142857143)'
p1287
I2
(dp1288
g1239
F0.5
sg1240
F30.0
sg1241
I174
sg1242
g7
(g8
(I0
tp1289
g10
tp1290
Rp1291
(I1
(I3
tp1292
g1249
I00
S'B\xb2n\xdc\xb6\xdbT\xc0\x02\xc0\xa1y}\xc8j\xc0\xb2xBt\x8cZ:\xc0'
p1293
tp1294
bsg1254
S'Cell[3].axon[233]'
p1295
sI174
I119
tp1296
a(F0.5541041048923427
S'Cell[3].dend[38] syn_ = new FastInhib(0.5)'
p1297
I3
(dp1298
g1239
F0.16666666666666666
sg1240
F30.0
sg1241
I174
sg1242
g7
(g8
(I0
tp1299
g10
tp1300
Rp1301
(I1
(I3
tp1302
g1249
I00
S'\x13v=]\x1d_M\xc0?\x97B\x91\xb3\xc3&@q\x04\xc6\xd5\xfc\xba4@'
p1303
tp1304
bsg1254
S'Cell[3].axon[241]'
p1305
sI174
I167
tp1306
a(F2.234333480708631
S'Cell[3].dend[39] syn_ = new FastInhib(0.5)'
p1307
I3
(dp1308
g1239
F0.5
sg1240
F30.0
sg1241
I174
sg1242
g7
(g8
(I0
tp1309
g10
tp1310
Rp1311
(I1
(I3
tp1312
g1249
I00
S'\xa3\xe3\x13QZ\n7\xc0 \xfff\x89\x97\xad2@c\xae\xcex\x7fG"\xc0'
p1313
tp1314
bsg1254
S'Cell[3].axon[373]'
p1315
sI174
I167
tp1316
a(F2.1026505565406626
S'Cell[3].dend[8] syn_ = new FastInhib(0.5)'
p1317
I3
(dp1318
S'seg'
p1319
F0.7857142857142856
sS'hostfrom'
p1320
F31.0
sS'gid'
p1321
I127
sS'coords'
p1322
g7
(g8
(I0
tp1323
g10
tp1324
Rp1325
(I1
(I3
tp1326
g14
(S'f8'
p1327
I0
I1
tp1328
Rp1329
(I3
S'<'
p1330
NNNI-1
I-1
I0
tp1331
bI00
S'R\x97G\x86lWF@\x85(\x1f\x15\x177Y\xc0\x13\xfb\x17f+\x9e1\xc0'
p1332
tp1333
bsS'secnames'
p1334
S'Cell[2].axon[16]'
p1335
sI127
I167
tp1336
a(F2.252865392298052
S'Cell[3].dend[12] syn_ = new FastInhib(0.5)'
p1337
I3
(dp1338
g1319
F0.8333333333333333
sg1320
F31.0
sg1321
I127
sg1322
g7
(g8
(I0
tp1339
g10
tp1340
Rp1341
(I1
(I3
tp1342
g1329
I00
S'\xb1A\xa2\xfc@\x8c8\xc0\x14\xc4U\x99 @a\xc0\xfa_\xfa\xf6k`)\xc0'
p1343
tp1344
bsg1334
S'Cell[2].axon[19]'
p1345
sI127
I167
tp1346
a(F2.4063865188593043
S'Cell[2].dend[19] syn_ = new FastInhib(0.277777777778)'
p1347
I2
(dp1348
g1319
F0.8333333333333333
sg1320
F31.0
sg1321
I175
sg1322
g7
(g8
(I0
tp1349
g10
tp1350
Rp1351
(I1
(I3
tp1352
g1329
I00
S'\xf6\xc0iNT\x8f>@x\xacF\x8a\x9fZb\xc0\x00\x00\x00\x00\x00\x00\x1c\xc0'
p1353
tp1354
bsg1334
S'Cell[3].axon[366]'
p1355
sI175
I119
tp1356
a(F1.833000855928941
S'Cell[1].dend[30] syn_ = new ExpSid(0.5)'
p1357
I1
(dp1358
S'seg'
p1359
F0.8333333333333333
sS'hostfrom'
p1360
F33.0
sS'gid'
p1361
I177
sS'coords'
p1362
g7
(g8
(I0
tp1363
g10
tp1364
Rp1365
(I1
(I3
tp1366
g14
(S'f8'
p1367
I0
I1
tp1368
Rp1369
(I3
S'<'
p1370
NNNI-1
I-1
I0
tp1371
bI00
S'Q\xdb\xd4\xef\x93s?@L\xe4M\xd8:\xd2H@\xd8\xde\x19.j\x08\x1d@'
p1372
tp1373
bsS'secnames'
p1374
S'Cell[3].axon[0]'
p1375
sI177
I71
tp1376
a(F1.3617542125948066
S'Cell[2].dend[7] syn_ = new FastInhib(0.5)'
p1377
I2
(dp1378
g1359
F0.5
sg1360
F33.0
sg1361
I177
sg1362
g7
(g8
(I0
tp1379
g10
tp1380
Rp1381
(I1
(I3
tp1382
g1369
I00
S'\xaf\xcd!\x1e\xa5=3\xc0P\xb7\xfc\x8e7\x83P@\x90\xac\x02_\x0f}\x15\xc0'
p1383
tp1384
bsg1374
S'Cell[3].axon[52]'
p1385
sI177
I119
tp1386
a(F2.2819071449647184
S'Cell[0].apic[14] syn_ = new ExpSid(0.833333333333)'
p1387
I0
(dp1388
g1359
F0.7857142857142856
sg1360
F33.0
sg1361
I81
sg1362
g7
(g8
(I0
tp1389
g10
tp1390
Rp1391
(I1
(I3
tp1392
g1369
I00
S'.\xea\x0ewywS@0;\xb8\xf8\x15@W\xc0\x86\xf6\xbd\x80\xa2J9\xc0'
p1393
tp1394
bsg1374
S'Cell[1].axon[4]'
p1395
sI81
I23
tp1396
a(F2.169808958450907
S'Cell[0].dend[23] syn_ = new AmpaNmda(0.5)'
p1397
I0
(dp1398
S'seg'
p1399
F0.5
sS'hostfrom'
p1400
F34.0
sS'gid'
p1401
I178
sS'coords'
p1402
g7
(g8
(I0
tp1403
g10
tp1404
Rp1405
(I1
(I3
tp1406
g14
(S'f8'
p1407
I0
I1
tp1408
Rp1409
(I3
S'<'
p1410
NNNI-1
I-1
I0
tp1411
bI00
S'0M\x0e\x98\x9ey:@\xea\xc6\x0f\xa8L\x91]@k\xafS\x8a=^@\xc0'
p1412
tp1413
bsS'secnames'
p1414
S'Cell[3].axon[44]'
p1415
sI178
I23
tp1416
a(F1.8980418380297412
S'Cell[3].dend[20] syn_ = new FastInhib(0.833333333333)'
p1417
I3
(dp1418
S'seg'
p1419
F0.07142857142857142
sS'hostfrom'
p1420
F35.0
sS'gid'
p1421
I83
sS'coords'
p1422
g7
(g8
(I0
tp1423
g10
tp1424
Rp1425
(I1
(I3
tp1426
g14
(S'f8'
p1427
I0
I1
tp1428
Rp1429
(I3
S'<'
p1430
NNNI-1
I-1
I0
tp1431
bI00
S'\xc8\x1d\x80tNE=\xc0QYA\x87\x16\xfe_\xc0\x12\xc8<Z^*&@'
p1432
tp1433
bsS'secnames'
p1434
S'Cell[1].axon[11]'
p1435
sI83
I167
tp1436
a(F1.8257275092813658
S'Cell[2].dend[20] syn_ = new FastInhib(0.214285714286)'
p1437
I2
(dp1438
g1419
F0.5
sg1420
F35.0
sg1421
I83
sg1422
g7
(g8
(I0
tp1439
g10
tp1440
Rp1441
(I1
(I3
tp1442
g1429
I00
S'\xbe\x97\x8e[r7K@2c?\xc56\xa6N\xc0\x9atO\xc8\x13\xc9\x0f@'
p1443
tp1444
bsg1434
S'Cell[1].axon[160]'
p1445
sI83
I119
tp1446
a(F1.491671302443055
S'Cell[1].dend[22] syn_ = new ExpSid(0.5)'
p1447
I1
(dp1448
g1419
F0.8333333333333333
sg1420
F35.0
sg1421
I83
sg1422
g7
(g8
(I0
tp1449
g10
tp1450
Rp1451
(I1
(I3
tp1452
g1429
I00
S'l\x85\xd3\xfe\x0e54@\xec$S\x8c\xc0z\x19\xc0!\xc9I\x7f\xfc\xe97@'
p1453
tp1454
bsg1434
S'Cell[1].axon[203]'
p1455
sI83
I71
tp1456
a(F1.7495226225832796
S'Cell[3].dend[39] syn_ = new FastInhib(0.5)'
p1457
I3
(dp1458
S'seg'
p1459
F0.8999999999999999
sS'hostfrom'
p1460
F36.0
sS'gid'
p1461
I84
sS'coords'
p1462
g7
(g8
(I0
tp1463
g10
tp1464
Rp1465
(I1
(I3
tp1466
g14
(S'f8'
p1467
I0
I1
tp1468
Rp1469
(I3
S'<'
p1470
NNNI-1
I-1
I0
tp1471
bI00
S'>\x0fV]j\xf05\xc0\x12\xba\xba\x96\xca\xd00@`\xc1\x9f\xd4\x96\xcf\x1d\xc0'
p1472
tp1473
bsS'secnames'
p1474
S'Cell[1].axon[269]'
p1475
sI84
I167
tp1476
a(F1.81915253298682
S'Cell[3].dend[4] syn_ = new FastInhib(0.5)'
p1477
I3
(dp1478
g1459
F0.6111111111111112
sg1460
F36.0
sg1461
I132
sg1462
g7
(g8
(I0
tp1479
g10
tp1480
Rp1481
(I1
(I3
tp1482
g1469
I00
S',\xe3S\xd5\xdd\x1e8@\x9cqp< \x1fP\xc0\xa4\xa8P;\xack\xf5?'
p1483
tp1484
bsg1474
S'Cell[2].axon[35]'
p1485
sI132
I167
tp1486
a(F2.4175427502299986
S'Cell[3].dend[36] syn_ = new FastInhib(0.7)'
p1487
I3
(dp1488
g1459
F0.5
sg1460
F36.0
sg1461
I132
sg1462
g7
(g8
(I0
tp1489
g10
tp1490
Rp1491
(I1
(I3
tp1492
g1469
I00
S"\xa4'\xdf\xcb\x90OG@ \xaf\x87\xee\x027S@\xca\x95k\x83\xde\x9e\xd3\xbf"
p1493
tp1494
bsg1474
S'Cell[2].axon[62]'
p1495
sI132
I167
tp1496
a(F2.391017715148701
S'Cell[0].apic[8] syn_ = new AmpaNmda(0.5)'
p1497
I0
(dp1498
g1459
F0.5
sg1460
F36.0
sg1461
I132
sg1462
g7
(g8
(I0
tp1499
g10
tp1500
Rp1501
(I1
(I3
tp1502
g1469
I00
S'\x82/OS\x87gM@\xd7\xd0\xa7\xf3\x9bUI@|\xf6\xd9"\t\xf68\xc0'
p1503
tp1504
bsg1474
S'Cell[2].axon[153]'
p1505
sI132
I23
tp1506
a(F1.7318401206028846
S'Cell[2].dend[17] syn_ = new FastInhib(0.166666666667)'
p1507
I2
(dp1508
g1459
F0.16666666666666666
sg1460
F36.0
sg1461
I132
sg1462
g7
(g8
(I0
tp1509
g10
tp1510
Rp1511
(I1
(I3
tp1512
g1469
I00
S'mp2W\x1a\x1bC@\xd4\xe5%\xc3\xa2\xf1J\xc0\x00\x00\x00@\xe1z\x1c\xc0'
p1513
tp1514
bsg1474
S'Cell[2].axon[189]'
p1515
sI132
I119
tp1516
a(F2.253117749971275
S'Cell[3].dend[6] syn_ = new FastInhib(0.5)'
p1517
I3
(dp1518
g1459
F0.5
sg1460
F36.0
sg1461
I132
sg1462
g7
(g8
(I0
tp1519
g10
tp1520
Rp1521
(I1
(I3
tp1522
g1469
I00
S'\x8d\xf6)\t\xc6\xb3C@\xa2S/\xf0@oS\xc0\x00\x00\x00\x80\x14\xae\x1d\xc0'
p1523
tp1524
bsg1474
S'Cell[2].axon[189]'
p1525
sI132
I167
tp1526
a(F2.110472487835264
S'Cell[3].dend[4] syn_ = new FastInhib(0.5)'
p1527
I3
(dp1528
g1459
F0.8333333333333333
sg1460
F36.0
sg1461
I132
sg1462
g7
(g8
(I0
tp1529
g10
tp1530
Rp1531
(I1
(I3
tp1532
g1469
I00
S'\xfc\xf4\x91\xe0|\xb48@#\xd8\x0f\xe4\r\x98O\xc0\xab\xa8kZ\xc4\x8e\xf2\xbf'
p1533
tp1534
bsg1474
S'Cell[2].axon[203]'
p1535
sI132
I167
tp1536
a(F2.1418765169686407
S'Cell[3].dend[3] syn_ = new FastInhib(0.5)'
p1537
I3
(dp1538
g1459
F0.07142857142857142
sg1460
F36.0
sg1461
I180
sg1462
g7
(g8
(I0
tp1539
g10
tp1540
Rp1541
(I1
(I3
tp1542
g1469
I00
S'\xe3\xdf\xefG\x84\x99\xec?>D\xcb\x01\x13\x0fQ\xc0N\x08tW\x93A\x1c@'
p1543
tp1544
bsg1474
S'Cell[3].axon[73]'
p1545
sI180
I167
tp1546
a(F2.2482910322278324
S'Cell[1].dend[31] syn_ = new AmpaNmda(0.1)'
p1547
I1
(dp1548
g1459
F0.1
sg1460
F36.0
sg1461
I180
sg1462
g7
(g8
(I0
tp1549
g10
tp1550
Rp1551
(I1
(I3
tp1552
g1469
I00
S'\xb8\x96\x96\xee\xd7\x99C@d\xdc\xd7\xc4\xdfVH@\x00\x00\x00\xa0\x99\x19)@'
p1553
tp1554
bsg1474
S'Cell[3].axon[213]'
p1555
sI180
I71
tp1556
a(F1.8557657547399564
S'Cell[2].dend[49] syn_ = new FastInhib(0.388888888889)'
p1557
I2
(dp1558
g1459
F0.8333333333333333
sg1460
F36.0
sg1461
I180
sg1462
g7
(g8
(I0
tp1559
g10
tp1560
Rp1561
(I1
(I3
tp1562
g1469
I00
S'}\x7f\xafI;\x98@@@\x99yV\xa3\x82h\xc0e5D\xbc\x01\x124@'
p1563
tp1564
bsg1474
S'Cell[3].axon[222]'
p1565
sI180
I119
tp1566
a(F2.124759186888991
S'Cell[3].dend[4] syn_ = new FastInhib(0.5)'
p1567
I3
(dp1568
g1459
F0.5
sg1460
F36.0
sg1461
I180
sg1462
g7
(g8
(I0
tp1569
g10
tp1570
Rp1571
(I1
(I3
tp1572
g1469
I00
S'6\x8f\xa0\x002&9@D!\xd6w\xebVP\xc0r9@\xbb\xfa\x15\x00\xc0'
p1573
tp1574
bsg1474
S'Cell[3].axon[269]'
p1575
sI180
I167
tp1576
a(F0.7285115296228417
S'Cell[0].dend[33] syn_ = new ExpSid(0.833333333333)'
p1577
I0
(dp1578
S'seg'
p1579
F0.5
sS'hostfrom'
p1580
F37.0
sS'gid'
p1581
I133
sS'coords'
p1582
g7
(g8
(I0
tp1583
g10
tp1584
Rp1585
(I1
(I3
tp1586
g14
(S'f8'
p1587
I0
I1
tp1588
Rp1589
(I3
S'<'
p1590
NNNI-1
I-1
I0
tp1591
bI00
S'\x0b\xaaH\xc8\x88@1\xc0m\xaa\x1b\xdbi~a@\x1e\xcc\xac\n\x9bV\x1e@'
p1592
tp1593
bsS'secnames'
p1594
S'Cell[2].axon[6]'
p1595
sI133
I23
tp1596
a(F0.5081028457035135
S'Cell[3].dend[41] syn_ = new FastInhib(0.5)'
p1597
I3
(dp1598
g1579
F0.05555555555555555
sg1580
F37.0
sg1581
I133
sg1582
g7
(g8
(I0
tp1599
g10
tp1600
Rp1601
(I1
(I3
tp1602
g1589
I00
S"\\w`\x8dj\t9\xc0xg\xb6\xf5'\xcb6@\x1a\xa00\x8f\x99~ \xc0"
p1603
tp1604
bsg1594
S'Cell[2].axon[70]'
p1605
sI133
I167
tp1606
a(F2.0717532635785685
S'Cell[3].dend[11] syn_ = new FastInhib(0.833333333333)'
p1607
I3
(dp1608
g1579
F0.5
sg1580
F37.0
sg1581
I133
sg1582
g7
(g8
(I0
tp1609
g10
tp1610
Rp1611
(I1
(I3
tp1612
g1589
I00
S'6\x9a\x98\x1e11<@t>\x11ff65\xc0\xe2\xf1\xe0\xec\xa5V\x0f\xc0'
p1613
tp1614
bsg1594
S'Cell[2].axon[89]'
p1615
sI133
I167
tp1616
a(F1.5318184276727818
S'Cell[1].dend[1] syn_ = new ExpSid(0.5)'
p1617
I1
(dp1618
g1579
F0.8999999999999999
sg1580
F37.0
sg1581
I133
sg1582
g7
(g8
(I0
tp1619
g10
tp1620
Rp1621
(I1
(I3
tp1622
g1589
I00
S'\xa4\x80z\xf6\x10\\"\xc0\xc2\x98\xa7\x86\xd9(A@\x9bm;5\xe3+\x1d\xc0'
p1623
tp1624
bsg1594
S'Cell[2].axon[105]'
p1625
sI133
I71
tp1626
a(F1.942609322476395
S'Cell[3].dend[25] syn_ = new FastInhib(0.5)'
p1627
I3
(dp1628
g1579
F0.7
sg1580
F37.0
sg1581
I133
sg1582
g7
(g8
(I0
tp1629
g10
tp1630
Rp1631
(I1
(I3
tp1632
g1589
I00
S'\xf4\xfb\xa3\x93k\xec@\xc0\xc0B5\xe2\xda\x98?\xc0V\x1a\xd9\xdak\x00\x07\xc0'
p1633
tp1634
bsg1594
S'Cell[2].axon[119]'
p1635
sI133
I167
tp1636
a(F1.3906670816092739
S'Cell[2].dend[44] syn_ = new FastInhib(0.1)'
p1637
I2
(dp1638
S'seg'
p1639
F0.5
sS'hostfrom'
p1640
F38.0
sS'gid'
p1641
I182
sS'coords'
p1642
g7
(g8
(I0
tp1643
g10
tp1644
Rp1645
(I1
(I3
tp1646
g14
(S'f8'
p1647
I0
I1
tp1648
Rp1649
(I3
S'<'
p1650
NNNI-1
I-1
I0
tp1651
bI00
S'\x0c\xeb\xdc6Y\x84E@\xb5\x1e\x11\x1c$`G@\xd6\x0e\x00\x91E\xfd9\xc0'
p1652
tp1653
bsS'secnames'
p1654
S'Cell[3].axon[22]'
p1655
sI182
I119
tp1656
a(F2.0079211507891688
S'Cell[2].dend[52] syn_ = new FastInhib(0.833333333333)'
p1657
I2
(dp1658
g1639
F0.5
sg1640
F38.0
sg1641
I182
sg1642
g7
(g8
(I0
tp1659
g10
tp1660
Rp1661
(I1
(I3
tp1662
g1649
I00
S';!\xce\xc9\x84= @L\xf2Q\xd6\x97\xadi\xc0\x00\x00\x00\x80\xeb\xb1F\xc0'
p1663
tp1664
bsg1654
S'Cell[3].axon[322]'
p1665
sI182
I119
tp1666
a(F2.09775722367371
S'Cell[0].apic[25] syn_ = new AmpaNmda(0.166666666667)'
p1667
I0
(dp1668
g1639
F0.5
sg1640
F38.0
sg1641
I182
sg1642
g7
(g8
(I0
tp1669
g10
tp1670
Rp1671
(I1
(I3
tp1672
g1649
I00
S'"\xae\xa8\xe9\xa04L@\x91b*\xa0\xb4wQ\xc0\x06\x96;\x0c\xdf\xe78\xc0'
p1673
tp1674
bsg1654
S'Cell[3].axon[407]'
p1675
sI182
I23
tp1676
a(F2.3680992898472164
S'Cell[2].dend[22] syn_ = new FastInhib(0.0714285714286)'
p1677
I2
(dp1678
g1639
F0.16666666666666666
sg1640
F38.0
sg1641
I86
sg1642
g7
(g8
(I0
tp1679
g10
tp1680
Rp1681
(I1
(I3
tp1682
g1649
I00
S'\xd4\xb1\xcd\xd7d"P@<\x14\x83\x8f\xb16I\xc01G\x9d\xfechG\xc0'
p1683
tp1684
bsg1654
S'Cell[1].axon[22]'
p1685
sI86
I119
tp1686
a(F2.3866074129009247
S'Cell[2].dend[25] syn_ = new FastInhib(0.166666666667)'
p1687
I2
g1678
I86
I119
tp1688
a(F1.684989716618158
S'Cell[2].dend[19] syn_ = new FastInhib(0.611111111111)'
p1689
I2
(dp1690
g1639
F0.16666666666666666
sg1640
F38.0
sg1641
I134
sg1642
g7
(g8
(I0
tp1691
g10
tp1692
Rp1693
(I1
(I3
tp1694
g1649
I00
S'\xf1|}\x82\xaej<@\x93OC\n\x83\xeei\xc0\xd7l\xefZ[\xd7-\xc0'
p1695
tp1696
bsg1654
S'Cell[2].axon[71]'
p1697
sI134
I119
tp1698
a(F2.453801536162935
S'Cell[3].dend[21] syn_ = new FastInhib(0.166666666667)'
p1699
I3
(dp1700
g1639
F0.22727272727272727
sg1640
F38.0
sg1641
I134
sg1642
g7
(g8
(I0
tp1701
g10
tp1702
Rp1703
(I1
(I3
tp1704
g1649
I00
S'\xea,\xb3\xcf4\x973\xc0\x10\xe5I\xacv\xb2a\xc0E\xdcC\x91k\x8c,@'
p1705
tp1706
bsg1654
S'Cell[2].axon[86]'
p1707
sI134
I167
tp1708
a(F2.4045056486574556
S'Cell[0].dend[29] syn_ = new ExpSid(0.5)'
p1709
I0
(dp1710
S'seg'
p1711
F0.5
sS'hostfrom'
p1712
F39.0
sS'gid'
p1713
I135
sS'coords'
p1714
g7
(g8
(I0
tp1715
g10
tp1716
Rp1717
(I1
(I3
tp1718
g14
(S'f8'
p1719
I0
I1
tp1720
Rp1721
(I3
S'<'
p1722
NNNI-1
I-1
I0
tp1723
bI00
S'Um\xe9D+\xe2B@\xa1\xbb\xd8\xaa5!Z@\xcfH\xf6\xfe\x90%\xf4\xbf'
p1724
tp1725
bsS'secnames'
p1726
S'Cell[2].axon[84]'
p1727
sI135
I23
tp1728
a(F0.6947977018304282
S'Cell[2].dend[3] syn_ = new FastInhib(0.3)'
p1729
I2
(dp1730
g1711
F0.16666666666666666
sg1712
F39.0
sg1713
I183
sg1714
g7
(g8
(I0
tp1731
g10
tp1732
Rp1733
(I1
(I3
tp1734
g1721
I00
S'\xcd\xf5\x1e\x8a\xaeN\x00\xc0G\xea\n\xf0\xcf\x0eP@\x02fs\x9e\x11\x8f0@'
p1735
tp1736
bsg1726
S'Cell[3].axon[30]'
p1737
sI183
I119
tp1738
a(F2.3835108119177426
S'Cell[2].dend[3] syn_ = new FastInhib(0.5)'
p1739
I2
(dp1740
g1711
F0.05555555555555555
sg1712
F39.0
sg1713
I183
sg1714
g7
(g8
(I0
tp1741
g10
tp1742
Rp1743
(I1
(I3
tp1744
g1721
I00
S'\xa3\xd4\xb8\xa0\xfa\xef\x19\xc0Te\x90\xa2\xf1\xc7T@\xa7r\x84\xfah\xab\x1c@'
p1745
tp1746
bsg1726
S'Cell[3].axon[50]'
p1747
sI183
I119
tp1748
a(F1.944311624647728
S'Cell[3].dend[0] syn_ = new FastInhib(0.5)'
p1749
I3
(dp1750
S'seg'
p1751
F0.8333333333333333
sS'hostfrom'
p1752
F40.0
sS'gid'
p1753
I88
sS'coords'
p1754
g7
(g8
(I0
tp1755
g10
tp1756
Rp1757
(I1
(I3
tp1758
g14
(S'f8'
p1759
I0
I1
tp1760
Rp1761
(I3
S'<'
p1762
NNNI-1
I-1
I0
tp1763
bI00
S'c\x8co\x93<)6\xc0T\x1d\xb2\x8e\xa8\x8bH\xc0@\x0f4\x97\\L\xc6\xbf'
p1764
tp1765
bsS'secnames'
p1766
S'Cell[1].axon[76]'
p1767
sI88
I167
tp1768
a(F1.4987875944018838
S'Cell[0].apic[13] syn_ = new AmpaNmda(0.166666666667)'
p1769
I0
(dp1770
g1751
F0.5
sg1752
F40.0
sg1753
I88
sg1754
g7
(g8
(I0
tp1771
g10
tp1772
Rp1773
(I1
(I3
tp1774
g1761
I00
S'\xfb\x99\x17\x1dx\x84N@\xbb\x01\xec\xf4\x8e\x94\x16\xc0\x19T\x1c\x18uK+\xc0'
p1775
tp1776
bsg1766
S'Cell[1].axon[151]'
p1777
sI88
I23
tp1778
a(F2.3925922785385527
S'Cell[2].dend[14] syn_ = new FastInhib(0.5)'
p1779
I2
(dp1780
g1751
F0.16666666666666666
sg1752
F40.0
sg1753
I88
sg1754
g7
(g8
(I0
tp1781
g10
tp1782
Rp1783
(I1
(I3
tp1784
g1761
I00
S'+\rn\xc5\xd9\x80;@\x0eZ:X\xfel"\xc0\x00\x00\x00@\xe1\xfa3\xc0'
p1785
tp1786
bsg1766
S'Cell[1].axon[156]'
p1787
sI88
I119
tp1788
a(F2.1348795258132536
S'Cell[1].dend[4] syn_ = new AmpaNmda(0.5)'
p1789
I1
(dp1790
g1751
F0.1
sg1752
F40.0
sg1753
I88
sg1754
g7
(g8
(I0
tp1791
g10
tp1792
Rp1793
(I1
(I3
tp1794
g1761
I00
S"\xfft\x9b\xc45\xd5%\xc0\x8e#\xb37E'C@\x8d!\x0e\xe75\x02\x11\xc0"
p1795
tp1796
bsg1766
S'Cell[1].axon[290]'
p1797
sI88
I71
tp1798
a(F2.215877769992825
S'Cell[2].dend[32] syn_ = new FastInhib(0.5)'
p1799
I2
(dp1800
g1751
F0.9285714285714284
sg1752
F40.0
sg1753
I88
sg1754
g7
(g8
(I0
tp1801
g10
tp1802
Rp1803
(I1
(I3
tp1804
g1761
I00
S'\x98\x1bL\xf7\xe2\xf3X@#\xeb\x941`wY\xc0\xf63\xd4\xd2\xa5\xd6L\xc0'
p1805
tp1806
bsg1766
S'Cell[1].axon[309]'
p1807
sI88
I119
tp1808
a(F1.4253678588376546
S'Cell[2].dend[42] syn_ = new FastInhib(0.5)'
p1809
I2
(dp1810
g1751
F0.5
sg1752
F40.0
sg1753
I88
sg1754
g7
(g8
(I0
tp1811
g10
tp1812
Rp1813
(I1
(I3
tp1814
g1761
I00
S'>r\xaa\x92>\xb5B@j\x8e\xc5\x06\xba\xeb0@V4|cK\xf76\xc0'
p1815
tp1816
bsg1766
S'Cell[1].axon[344]'
p1817
sI88
I119
tp1818
a(F1.626626366833364
S'Cell[2].dend[39] syn_ = new FastInhib(0.5)'
p1819
I2
(dp1820
g1751
F0.5
sg1752
F40.0
sg1753
I184
sg1754
g7
(g8
(I0
tp1821
g10
tp1822
Rp1823
(I1
(I3
tp1824
g1761
I00
S'I\xbee?]\xa3X@\xc3r\x05Eo)*@\x90\xe2\x81\xdd>B1\xc0'
p1825
tp1826
bsg1766
S'Cell[3].axon[93]'
p1827
sI184
I119
tp1828
a(F1.2927931986300294
S'Cell[2].dend[47] syn_ = new FastInhib(0.5)'
p1829
I2
(dp1830
S'seg'
p1831
F0.5
sS'hostfrom'
p1832
F41.0
sS'gid'
p1833
I41
sS'coords'
p1834
g7
(g8
(I0
tp1835
g10
tp1836
Rp1837
(I1
(I3
tp1838
g14
(S'f8'
p1839
I0
I1
tp1840
Rp1841
(I3
S'<'
p1842
NNNI-1
I-1
I0
tp1843
bI00
S'\xf4L\xeeN\x07\xfe\x00@f\x8b^\xfbH\xcc>\xc0o5\xb5\xc6f\xf9\xf1?'
p1844
tp1845
bsS'secnames'
p1846
S'Cell[0].axon[48]'
p1847
sI41
I119
tp1848
a(F2.443680817964191
S'Cell[3].dend[44] syn_ = new FastInhib(0.5)'
p1849
I3
(dp1850
g1831
F0.5
sg1832
F41.0
sg1833
I185
sg1834
g7
(g8
(I0
tp1851
g10
tp1852
Rp1853
(I1
(I3
tp1854
g1841
I00
S'\x00\x00\x00\x10\x85k\x1f\xc0\x00\x00\x00\x00\x00\x00\x08\xc0\x00\x00\x00\x00R\xf8/\xc0'
p1855
tp1856
bsg1846
S'Cell[3].axon[5]'
p1857
sI185
I167
tp1858
a(F2.177674876249761
S'Cell[0].apic[7] syn_ = new ExpSid(0.1)'
p1859
I0
(dp1860
g1831
F0.8333333333333333
sg1832
F41.0
sg1833
I185
sg1834
g7
(g8
(I0
tp1861
g10
tp1862
Rp1863
(I1
(I3
tp1864
g1841
I00
S'\xcaR\xe5\x8d\x0eyU@<f\xd1_e\x1cP@\x13\x87?\x00\x918G\xc0'
p1865
tp1866
bsg1846
S'Cell[3].axon[37]'
p1867
sI185
I23
tp1868
a(F1.7997573877530344
S'Cell[2].dend[15] syn_ = new FastInhib(0.5)'
p1869
I2
(dp1870
g1831
F0.038461538461538464
sg1832
F41.0
sg1833
I185
sg1834
g7
(g8
(I0
tp1871
g10
tp1872
Rp1873
(I1
(I3
tp1874
g1841
I00
S'9\xe1$\x8cS\xee@@~\xc6\xe7\xfd2\xe3+\xc0\x00\x00\x00\x00\x00\x803\xc0'
p1875
tp1876
bsg1846
S'Cell[3].axon[212]'
p1877
sI185
I119
tp1878
a(F2.0610354381605114
S'Cell[2].dend[14] syn_ = new FastInhib(0.5)'
p1879
I2
(dp1880
g1831
F0.05555555555555555
sg1832
F41.0
sg1833
I89
sg1834
g7
(g8
(I0
tp1881
g10
tp1882
Rp1883
(I1
(I3
tp1884
g1841
I00
S'f\xf9SK\xe6@>@\xdf\xa5\xeaj3\xf3%\xc0\xeb\xf7\x16\x85C`2\xc0'
p1885
tp1886
bsg1846
S'Cell[1].axon[186]'
p1887
sI89
I119
tp1888
a(F2.45257202363125
S'Cell[3].dend[5] syn_ = new FastInhib(0.166666666667)'
p1889
I3
(dp1890
S'seg'
p1891
F0.5
sS'hostfrom'
p1892
F42.0
sS'gid'
p1893
I42
sS'coords'
p1894
g7
(g8
(I0
tp1895
g10
tp1896
Rp1897
(I1
(I3
tp1898
g14
(S'f8'
p1899
I0
I1
tp1900
Rp1901
(I3
S'<'
p1902
NNNI-1
I-1
I0
tp1903
bI00
S'\xe7|\xadj\x8drC@\xefq\xa3\x82A\x93Q\xc0\xb9\xac\x1e\xe3Cq\x11\xc0'
p1904
tp1905
bsS'secnames'
p1906
S'Cell[0].axon[2]'
p1907
sI42
I167
tp1908
a(F1.450688144281796
S'Cell[2].dend[3] syn_ = new FastInhib(0.5)'
p1909
I2
(dp1910
g1891
F0.8333333333333333
sg1892
F42.0
sg1893
I138
sg1894
g7
(g8
(I0
tp1911
g10
tp1912
Rp1913
(I1
(I3
tp1914
g1901
I00
S'\xa41\x91@\x9f\x81\x14\xc0\xbc\xf93\xb9\x00\xc8T@\xf0\xbb?~;\x06\x1e@'
p1915
tp1916
bsg1906
S'Cell[2].axon[155]'
p1917
sI138
I119
tp1918
a(F1.5968166138284168
S'Cell[3].dend[26] syn_ = new FastInhib(0.5)'
p1919
I3
(dp1920
g1891
F0.16666666666666666
sg1892
F42.0
sg1893
I186
sg1894
g7
(g8
(I0
tp1921
g10
tp1922
Rp1923
(I1
(I3
tp1924
g1901
I00
S'\xa7p\xd5\xc2\x95\x08K\xc0b\xe9\x1fh]W6\xc0\x9b\xd6\xffp\x12\x8f*\xc0'
p1925
tp1926
bsg1906
S'Cell[3].axon[5]'
p1927
sI186
I167
tp1928
a(F1.7159059524775373
S'Cell[2].dend[48] syn_ = new FastInhib(0.166666666667)'
p1929
I2
(dp1930
g1891
F0.5
sg1892
F42.0
sg1893
I186
sg1894
g7
(g8
(I0
tp1931
g10
tp1932
Rp1933
(I1
(I3
tp1934
g1901
I00
S'\xd6\xe8\x96\xe5\xec\x9d\x00@{\x878\xca\xb1\xd2J\xc0Y\xaf\x89\xb6\xaf\xe1\xe5\xbf'
p1935
tp1936
bsg1906
S'Cell[3].axon[70]'
p1937
sI186
I119
tp1938
a(F2.4659012570766055
S'Cell[3].dend[12] syn_ = new FastInhib(0.1)'
p1939
I3
(dp1940
g1891
F0.21428571428571427
sg1892
F42.0
sg1893
I186
sg1894
g7
(g8
(I0
tp1941
g10
tp1942
Rp1943
(I1
(I3
tp1944
g1901
I00
S'D\xbep\xb7\xd3\xe91\xc0\xfcS\xbb\xab\xce\xa3T\xc0\x00\x00\x00 \xaeG\xd1\xbf'
p1945
tp1946
bsg1906
S'Cell[3].axon[87]'
p1947
sI186
I167
tp1948
a(F2.458365777520209
S'Cell[3].dend[12] syn_ = new FastInhib(0.3)'
p1949
I3
(dp1950
g1891
F0.30000000000000004
sg1892
F42.0
sg1893
I186
sg1894
g7
(g8
(I0
tp1951
g10
tp1952
Rp1953
(I1
(I3
tp1954
g1901
I00
S'\xdc\xa38]X\x877\xc0%\\\xc7\x027\x0b[\xc0\x00\x00\x00\xe0\xa3p\x07\xc0'
p1955
tp1956
bsg1906
S'Cell[3].axon[156]'
p1957
sI186
I167
tp1958
a(F1.9196380683965077
S'Cell[2].dend[10] syn_ = new FastInhib(0.357142857143)'
p1959
I2
(dp1960
S'seg'
p1961
F0.5
sS'hostfrom'
p1962
F43.0
sS'gid'
p1963
I91
sS'coords'
p1964
g7
(g8
(I0
tp1965
g10
tp1966
Rp1967
(I1
(I3
tp1968
g14
(S'f8'
p1969
I0
I1
tp1970
Rp1971
(I3
S'<'
p1972
NNNI-1
I-1
I0
tp1973
bI00
S'\xdd\xc4\x19\xc9^\xa84@=\x92u\xc0\xf8\x81R\xc0\x00\x00\x00\x00\x00\xc05@'
p1974
tp1975
bsS'secnames'
p1976
S'Cell[1].axon[202]'
p1977
sI91
I119
tp1978
a(F2.1405598600002906
S'Cell[2].dend[40] syn_ = new FastInhib(0.7)'
p1979
I2
(dp1980
g1961
F0.16666666666666666
sg1962
F43.0
sg1963
I91
sg1964
g7
(g8
(I0
tp1981
g10
tp1982
Rp1983
(I1
(I3
tp1984
g1971
I00
S'\xfc\xe8\x89\xd1\x08#X@\x02l\x01C\xb2\x90G@\x9eg+\x0c\xe6\x87V\xc0'
p1985
tp1986
bsg1976
S'Cell[1].axon[224]'
p1987
sI91
I119
tp1988
a(F1.2572933833617748
S'Cell[2].dend[15] syn_ = new FastInhib(0.5)'
p1989
I2
(dp1990
g1961
F0.8333333333333333
sg1962
F43.0
sg1963
I91
sg1964
g7
(g8
(I0
tp1991
g10
tp1992
Rp1993
(I1
(I3
tp1994
g1971
I00
S'\x12-2\x17\xa3\x1fA@\xdcR\x92tZ\x93-\xc0Z\xe5\xb7\xddk#3\xc0'
p1995
tp1996
bsg1976
S'Cell[1].axon[380]'
p1997
sI91
I119
tp1998
a(F2.1112410864805073
S'Cell[0].dend[0] syn_ = new ExpSid(0.5)'
p1999
I0
(dp2000
g1961
F0.8333333333333333
sg1962
F43.0
sg1963
I91
sg1964
g7
(g8
(I0
tp2001
g10
tp2002
Rp2003
(I1
(I3
tp2004
g1971
I00
S'\x03\xaa,x\xfa)P@\xb0\xb8K\x00\xea\xe8Z@\x000\xa8\xbe\xee\xb1$\xc0'
p2005
tp2006
bsg1976
S'Cell[1].axon[495]'
p2007
sI91
I23
tp2008
a(F1.7304966990717028
S'Cell[0].apic[11] syn_ = new ExpSid(0.5)'
p2009
I0
(dp2010
g1961
F0.5
sg1962
F43.0
sg1963
I139
sg1964
g7
(g8
(I0
tp2011
g10
tp2012
Rp2013
(I1
(I3
tp2014
g1971
I00
S'\x8ds\xd9]\xaa\xf0N@\xb6B\xdf\x96\x1f\x1e\x15@\x00\x00\x00\x00\x00\x00*\xc0'
p2015
tp2016
bsg1976
S'Cell[2].axon[309]'
p2017
sI139
I23
tp2018
a(F2.2139184912088634
S'Cell[2].dend[25] syn_ = new FastInhib(0.166666666667)'
p2019
I2
(dp2020
g1961
F0.21428571428571427
sg1962
F43.0
sg1963
I139
sg1964
g7
(g8
(I0
tp2021
g10
tp2022
Rp2023
(I1
(I3
tp2024
g1971
I00
S'je\xd3\xcc\xc5\x0bP@\xbb(\xc7\x92]VI\xc0\x00\x00\x00\x80\x14\x0eI\xc0'
p2025
tp2026
bsg1976
S'Cell[2].axon[363]'
p2027
sI139
I119
tp2028
a(F2.070892766791726
S'Cell[2].dend[49] syn_ = new FastInhib(0.611111111111)'
p2029
I2
(dp2030
g1961
F0.3461538461538462
sg1962
F43.0
sg1963
I187
sg1964
g7
(g8
(I0
tp2031
g10
tp2032
Rp2033
(I1
(I3
tp2034
g1971
I00
S'\x0f\xb4\xd1^\xe9A@@L\xf5\x14\x83\xf4\x19o\xc0\x07\x8eF\x83]\xfd\xe6\xbf'
p2035
tp2036
bsg1976
S'Cell[3].axon[20]'
p2037
sI187
I119
tp2038
a(F2.251115361741242
S'Cell[2].dend[45] syn_ = new FastInhib(0.166666666667)'
p2039
I2
(dp2040
g1961
F0.05555555555555555
sg1962
F43.0
sg1963
I187
sg1964
g7
(g8
(I0
tp2041
g10
tp2042
Rp2043
(I1
(I3
tp2044
g1971
I00
S"e\xdd\xdb\xdf\xc5z8@\xf6k]\xb8\xe0\xad\n@\x00\x00\x00\xc0\xf5('\xc0"
p2045
tp2046
bsg1976
S'Cell[3].axon[119]'
p2047
sI187
I119
tp2048
a(F2.1381022695857754
S'Cell[2].dend[20] syn_ = new FastInhib(0.0714285714286)'
p2049
I2
(dp2050
S'seg'
p2051
F0.1
sS'hostfrom'
p2052
F44.0
sS'gid'
p2053
I92
sS'coords'
p2054
g7
(g8
(I0
tp2055
g10
tp2056
Rp2057
(I1
(I3
tp2058
g14
(S'f8'
p2059
I0
I1
tp2060
Rp2061
(I3
S'<'
p2062
NNNI-1
I-1
I0
tp2063
bI00
S'J-U\xaeH\xbfF@\x1a\x85"\xd8\x973L\xc0?|\x95\x84\xd8\xd8\x02\xc0'
p2064
tp2065
bsS'secnames'
p2066
S'Cell[1].axon[103]'
p2067
sI92
I119
tp2068
a(F1.495871497076843
S'Cell[3].dend[6] syn_ = new FastInhib(0.5)'
p2069
I3
(dp2070
g2051
F0.1
sg2052
F44.0
sg2053
I92
sg2054
g7
(g8
(I0
tp2071
g10
tp2072
Rp2073
(I1
(I3
tp2074
g2061
I00
S'\xe8\xd5\xb9\xe1\t=C@\x92\xfb\x92\x02\x8e\nS\xc0\x00\x00\x00@33"\xc0'
p2075
tp2076
bsg2066
S'Cell[1].axon[121]'
p2077
sI92
I167
tp2078
a(F2.4225980082727214
S'Cell[2].dend[3] syn_ = new FastInhib(0.5)'
p2079
I2
(dp2080
g2051
F0.7
sg2052
F44.0
sg2053
I92
sg2054
g7
(g8
(I0
tp2081
g10
tp2082
Rp2083
(I1
(I3
tp2084
g2061
I00
S'\x16=I\xafRz\r\xc0\xce\xf0\xe8\xfc\x88XT@\x91\xb0^h\xac7 @'
p2085
tp2086
bsg2066
S'Cell[1].axon[211]'
p2087
sI92
I119
tp2088
a(F2.0215287923995873
S'Cell[0].apic[27] syn_ = new AmpaNmda(0.5)'
p2089
I0
(dp2090
g2051
F0.16666666666666666
sg2052
F44.0
sg2053
I140
sg2054
g7
(g8
(I0
tp2091
g10
tp2092
Rp2093
(I1
(I3
tp2094
g2061
I00
S'0\xb0+\xc0\xd1<H@n\xe7\xb0\xa0\xeb\xa5\\\xc0\x00\x00\x00\xe0z\x14\xe6\xbf'
p2095
tp2096
bsg2066
S'Cell[2].axon[8]'
p2097
sI140
I23
tp2098
a(F1.3069692254155862
S'Cell[1].apic[22] syn_ = new AmpaNmda(0.5)'
p2099
I1
(dp2100
g2051
F0.5
sg2052
F44.0
sg2053
I188
sg2054
g7
(g8
(I0
tp2101
g10
tp2102
Rp2103
(I1
(I3
tp2104
g2061
I00
S'\xaa\xda\xae\xd8\x18dF\xc0\xc3\xcf\x19\xd9\xdbfN@\x00\x00\x00@\xe1\xba5@'
p2105
tp2106
bsg2066
S'Cell[3].axon[42]'
p2107
sI188
I71
tp2108
a(F2.17212743699866
S'Cell[2].dend[0] syn_ = new FastInhib(0.5)'
p2109
I2
(dp2110
g2051
F0.5
sg2052
F44.0
sg2053
I188
sg2054
g7
(g8
(I0
tp2111
g10
tp2112
Rp2113
(I1
(I3
tp2114
g2061
I00
S'`\xa1\xf2-8\xd8%@da\xa0\xdd\xbf\x8d\x07@\xdb\xca\xb9"\\\x06\x1b@'
p2115
tp2116
bsg2066
S'Cell[3].axon[57]'
p2117
sI188
I119
tp2118
a(F2.0249584072082047
S'Cell[2].dend[49] syn_ = new FastInhib(0.277777777778)'
p2119
I2
(dp2120
g2051
F0.8333333333333333
sg2052
F44.0
sg2053
I44
sg2054
g7
(g8
(I0
tp2121
g10
tp2122
Rp2123
(I1
(I3
tp2124
g2061
I00
S'"\xaa\xc3\xa6g\x13<@\xe8\xa0\xf0\x8c\xc66e\xc0t\x8b\xdfz\xc7\xda<@'
p2125
tp2126
bsg2066
S'Cell[0].axon[27]'
p2127
sI44
I119
tp2128
a(F2.236126669656838
S'Cell[3].dend[45] syn_ = new FastInhib(0.166666666667)'
p2129
I3
(dp2130
S'seg'
p2131
F0.5
sS'hostfrom'
p2132
F45.0
sS'gid'
p2133
I141
sS'coords'
p2134
g7
(g8
(I0
tp2135
g10
tp2136
Rp2137
(I1
(I3
tp2138
g14
(S'f8'
p2139
I0
I1
tp2140
Rp2141
(I3
S'<'
p2142
NNNI-1
I-1
I0
tp2143
bI00
S'*\xf0\xc5\x1d\xe6P\xf6?\r\x00\xd2\xec7\t\x11\xc0\xb7\x84\xe8w\x17a?\xc0'
p2144
tp2145
bsS'secnames'
p2146
S'Cell[2].axon[12]'
p2147
sI141
I167
tp2148
a(F2.307289977380343
S'Cell[2].dend[14] syn_ = new FastInhib(0.5)'
p2149
I2
(dp2150
g2131
F0.16666666666666666
sg2132
F45.0
sg2133
I141
sg2134
g7
(g8
(I0
tp2151
g10
tp2152
Rp2153
(I1
(I3
tp2154
g2141
I00
S'C\xcb\t\x97\x8b\xb3;@\xcb\xd5\xcc\x8b\xa9\xaa$\xc0C#T\xce\x05\xf4/\xc0'
p2155
tp2156
bsg2146
S'Cell[2].axon[48]'
p2157
sI141
I119
tp2158
a(F1.5044724505471945
S'Cell[3].dend[46] syn_ = new FastInhib(0.5)'
p2159
I3
(dp2160
g2131
F0.5
sg2132
F45.0
sg2133
I141
sg2134
g7
(g8
(I0
tp2161
g10
tp2162
Rp2163
(I1
(I3
tp2164
g2141
I00
S'\xc6\xc7\xf6\x98\x1bm\x01\xc0\x18\x05\x13a\x86*\x08@yN\x97k4BC\xc0'
p2165
tp2166
bsg2146
S'Cell[2].axon[134]'
p2167
sI141
I167
tp2168
a(F1.268134511193949
S'Cell[0].apic[12] syn_ = new ExpSid(0.833333333333)'
p2169
I0
(dp2170
g2131
F0.5
sg2132
F45.0
sg2133
I141
sg2134
g7
(g8
(I0
tp2171
g10
tp2172
Rp2173
(I1
(I3
tp2174
g2141
I00
S'\xc5~n\x95K\xe6R@\xb8RhQ`\xce1\xc02~[\xf8\x0e]\x10\xc0'
p2175
tp2176
bsg2146
S'Cell[2].axon[530]'
p2177
sI141
I23
tp2178
a(F1.8922595557236241
S'Cell[3].dend[38] syn_ = new FastInhib(0.1)'
p2179
I3
(dp2180
g2131
F0.5
sg2132
F45.0
sg2133
I189
sg2134
g7
(g8
(I0
tp2181
g10
tp2182
Rp2183
(I1
(I3
tp2184
g2141
I00
S"-\x1c#,\xf0Z;\xc0\xf8\xfb'wm\xd7.@\x1a\x07\xa4$-<\xf4\xbf"
p2185
tp2186
bsg2146
S'Cell[3].axon[5]'
p2187
sI189
I167
tp2188
a(F1.383155154001168
S'Cell[2].dend[43] syn_ = new FastInhib(0.833333333333)'
p2189
I2
(dp2190
g2131
F0.16666666666666666
sg2132
F45.0
sg2133
I93
sg2134
g7
(g8
(I0
tp2191
g10
tp2192
Rp2193
(I1
(I3
tp2194
g2141
I00
S'`\xb0\x85\xd2D\xeaT@\x1a8Fi\xf8\x01T@\x00\x00\x00 \xaeG9\xc0'
p2195
tp2196
bsg2146
S'Cell[1].axon[239]'
p2197
sI93
I119
tp2198
a(F1.3426657054965203
S'Cell[3].dend[5] syn_ = new FastInhib(0.166666666667)'
p2199
I3
(dp2200
S'seg'
p2201
F0.5
sS'hostfrom'
p2202
F46.0
sS'gid'
p2203
I94
sS'coords'
p2204
g7
(g8
(I0
tp2205
g10
tp2206
Rp2207
(I1
(I3
tp2208
g14
(S'f8'
p2209
I0
I1
tp2210
Rp2211
(I3
S'<'
p2212
NNNI-1
I-1
I0
tp2213
bI00
S'8\xe4\xe4\xb8z$D@\xe0#\x98\x08p\x88Q\xc0t#\xf3\x81\x84\xef\x05\xc0'
p2214
tp2215
bsS'secnames'
p2216
S'Cell[1].axon[102]'
p2217
sI94
I167
tp2218
a(F1.6717573514909472
S'Cell[1].dend[3] syn_ = new AmpaNmda(0.1)'
p2219
I1
(dp2220
g2201
F0.16666666666666666
sg2202
F46.0
sg2203
I94
sg2204
g7
(g8
(I0
tp2221
g10
tp2222
Rp2223
(I1
(I3
tp2224
g2211
I00
S'\x18#\xf0\x96aj5\xc0\x9b\x1b\x05v\x8cR9@\xbf\x15q\x08\xeb (\xc0'
p2225
tp2226
bsg2216
S'Cell[1].axon[307]'
p2227
sI94
I71
tp2228
a(F1.7769898810244353
S'Cell[1].dend[2] syn_ = new AmpaNmda(0.1)'
p2229
I1
(dp2230
g2201
F0.5
sg2202
F46.0
sg2203
I94
sg2204
g7
(g8
(I0
tp2231
g10
tp2232
Rp2233
(I1
(I3
tp2234
g2211
I00
S'\x01\x8b\xac\x9c\xba\x1d9\xc0i\x1b#\x1d\x11U8@\x04\x08\x8f\x82\xfd\xbe\x11\xc0'
p2235
tp2236
bsg2216
S'Cell[1].axon[307]'
p2237
sI94
I71
tp2238
a(F2.4619772646293647
S'Cell[1].apic[14] syn_ = new AmpaNmda(0.166666666667)'
p2239
I1
(dp2240
g2201
F0.16666666666666666
sg2202
F46.0
sg2203
I94
sg2204
g7
(g8
(I0
tp2241
g10
tp2242
Rp2243
(I1
(I3
tp2244
g2211
I00
S'2u\xe7\xdfT\x816\xc0\xc0\x94\xe5[\x85\xe8S@\x17\x17\x1d\x1e\xf691\xc0'
p2245
tp2246
bsg2216
S'Cell[1].axon[331]'
p2247
sI94
I71
tp2248
a(F2.293444112269691
S'Cell[2].dend[52] syn_ = new FastInhib(0.5)'
p2249
I2
(dp2250
g2201
F0.5
sg2202
F46.0
sg2203
I142
sg2204
g7
(g8
(I0
tp2251
g10
tp2252
Rp2253
(I1
(I3
tp2254
g2211
I00
S"\xa4\xa3\xc3\xcby\x965@\r\xf0\xe2\x0e\xd5\xf6`\xc0\xdc'\x80\xd6\xc9\xa44\xc0"
p2255
tp2256
bsg2216
S'Cell[2].axon[1]'
p2257
sI142
I119
tp2258
a(F2.2070053237216753
S'Cell[2].dend[3] syn_ = new FastInhib(0.5)'
p2259
I2
(dp2260
g2201
F0.7
sg2202
F46.0
sg2203
I142
sg2204
g7
(g8
(I0
tp2261
g10
tp2262
Rp2263
(I1
(I3
tp2264
g2211
I00
S"\x11-\x15\x1e-\xda\x13\xc0'\x8c\x0f\t\xb1\xf5T@\xf0\x0e;\x1f8\x1c\x1b@"
p2265
tp2266
bsg2216
S'Cell[2].axon[28]'
p2267
sI142
I119
tp2268
a(F1.3205738686644422
S'Cell[2].dend[10] syn_ = new FastInhib(0.785714285714)'
p2269
I2
(dp2270
g2201
F0.30000000000000004
sg2202
F46.0
sg2203
I142
sg2204
g7
(g8
(I0
tp2271
g10
tp2272
Rp2273
(I1
(I3
tp2274
g2211
I00
S'\x02\xb9\x171\xbau;@-\x85\x95\xca\xfb\x05c\xc0\xf5\xdd\xcex\xf8L\x15@'
p2275
tp2276
bsg2216
S'Cell[2].axon[43]'
p2277
sI142
I119
tp2278
a(F2.381712888679413
S'Cell[0].apic[7] syn_ = new ExpSid(0.3)'
p2279
I0
(dp2280
S'seg'
p2281
F0.16666666666666666
sS'hostfrom'
p2282
F47.0
sS'gid'
p2283
I95
sS'coords'
p2284
g7
(g8
(I0
tp2285
g10
tp2286
Rp2287
(I1
(I3
tp2288
g14
(S'f8'
p2289
I0
I1
tp2290
Rp2291
(I3
S'<'
p2292
NNNI-1
I-1
I0
tp2293
bI00
S'\xdb\xe4\xe7|j\xb2V@\xdc\xdb#\x8b[\xfeQ@\xb2\xab\x886\x1d\xedM\xc0'
p2294
tp2295
bsS'secnames'
p2296
S'Cell[1].axon[55]'
p2297
sI95
I23
tp2298
a(F0.9447048288776674
S'Cell[1].apic[0] syn_ = new ExpSid(0.5)'
p2299
I1
(dp2300
g2281
F0.1
sg2282
F47.0
sg2283
I143
sg2284
g7
(g8
(I0
tp2301
g10
tp2302
Rp2303
(I1
(I3
tp2304
g2291
I00
S'\x17\x8by\xef\xd4\xd9)\xc0\xd1\xe9\x0c!\xa9\x84M@\xad\xe9\xa3Q\x05\x82 @'
p2305
tp2306
bsg2296
S'Cell[2].axon[107]'
p2307
sI143
I71
tp2308
a(F2.4588027782173882
S'Cell[2].dend[15] syn_ = new FastInhib(0.5)'
p2309
I2
(dp2310
g2281
F0.8999999999999999
sg2282
F47.0
sg2283
I143
sg2284
g7
(g8
(I0
tp2311
g10
tp2312
Rp2313
(I1
(I3
tp2314
g2291
I00
S"F^$\xb60\xbaA@{L'I[\x12-\xc0~}\x07CF`3\xc0"
p2315
tp2316
bsg2296
S'Cell[2].axon[230]'
p2317
sI143
I119
tp2318
a(F2.231082557287434
S'Cell[3].dend[1] syn_ = new FastInhib(0.5)'
p2319
I3
(dp2320
g2281
F0.5
sg2282
F47.0
sg2283
I47
sg2284
g7
(g8
(I0
tp2321
g10
tp2322
Rp2323
(I1
(I3
tp2324
g2291
I00
S'!=\xf4\xf47\xc40\xc0\x15\x9c1\x90=\xbeL\xc0v\xd0V\x12`>\x03\xc0'
p2325
tp2326
bsg2296
S'Cell[0].axon[42]'
p2327
sI47
I167
tp2328
a.