(lp0
(F1.9347320798452072
S'Cell[2].dend[16] syn_ = new FastInhib(0.166666666667)'
p1
I2
(dp2
S'seg'
p3
F0.5
sS'hostfrom'
p4
F1.0
sS'gid'
p5
I97
sS'coords'
p6
cnumpy.core.multiarray
_reconstruct
p7
(cnumpy
ndarray
p8
(I0
tp9
S'b'
p10
tp11
Rp12
(I1
(I3
tp13
cnumpy
dtype
p14
(S'f8'
p15
I0
I1
tp16
Rp17
(I3
S'<'
p18
NNNI-1
I-1
I0
tp19
bI00
S'\x19\xd5\x19\x01\xbdb0\xc0\x8c(\xbe\x8a9\xef%\xc0<\x02}\x11\x8a\x1a\xef\xbf'
p20
tp21
bsS'secnames'
p22
S'Cell[2].axon[162]'
p23
sI97
I104
tp24
a(F2.401341852225909
S'Cell[3].dend[57] syn_ = new FastInhib(0.5)'
p25
I3
(dp26
g3
F0.5
sg4
F1.0
sg5
I97
sg6
g7
(g8
(I0
tp27
g10
tp28
Rp29
(I1
(I3
tp30
g17
I00
S'n.%!\xce\xb05@B\x04\t\x98\xdf\x07K@1XT\x07\x10\xfa$@'
p31
tp32
bsg22
S'Cell[2].axon[222]'
p33
sI97
I152
tp34
a(F1.8317123223511391
S'Cell[2].dend[1] syn_ = new FastInhib(0.5)'
p35
I2
(dp36
S'seg'
p37
F0.16666666666666666
sS'hostfrom'
p38
F2.0
sS'gid'
p39
I98
sS'coords'
p40
g7
(g8
(I0
tp41
g10
tp42
Rp43
(I1
(I3
tp44
g14
(S'f8'
p45
I0
I1
tp46
Rp47
(I3
S'<'
p48
NNNI-1
I-1
I0
tp49
bI00
S'\x9a\x81f0B\x83\x08@|O\xccT>Q@@\xadT\xbb]\x10\xdc%\xc0'
p50
tp51
bsS'secnames'
p52
S'Cell[2].axon[301]'
p53
sI98
I104
tp54
a(F1.5357197359907684
S'Cell[1].apic[6] syn_ = new AmpaNmda(0.277777777778)'
p55
I1
(dp56
g37
F0.5
sg38
F2.0
sg39
I98
sg40
g7
(g8
(I0
tp57
g10
tp58
Rp59
(I1
(I3
tp60
g47
I00
S'\x16 0%+\x8fA\xc0\xb1\xeap\xf8\x82xO@\xba\x1c#\xf1\x16wC\xc0'
p61
tp62
bsg52
S'Cell[2].axon[308]'
p63
sI98
I56
tp64
a(F1.633657860822699
S'Cell[3].dend[58] syn_ = new FastInhib(0.357142857143)'
p65
I3
(dp66
g37
F0.16666666666666666
sg38
F2.0
sg39
I98
sg40
g7
(g8
(I0
tp67
g10
tp68
Rp69
(I1
(I3
tp70
g47
I00
S'\xd8\x17a\x10\xea&7\xc0W\xec\xaeC\x02\x00T@2\xe0\xb6\xdf\xc8i \xc0'
p71
tp72
bsg52
S'Cell[2].axon[385]'
p73
sI98
I152
tp74
a(F2.0203995222202833
S'Cell[0].dend[82] syn_ = new AmpaNmda(0.166666666667)'
p75
I0
(dp76
g37
F0.8333333333333333
sg38
F2.0
sg39
I98
sg40
g7
(g8
(I0
tp77
g10
tp78
Rp79
(I1
(I3
tp80
g47
I00
S'r\xbcJ\xfa^i/\xc0\x1c[\x13D\xc3\xaaH\xc0\x9eB=\xa0\xd1\xcf9@'
p81
tp82
bsg52
S'Cell[2].axon[452]'
p83
sI98
I8
tp84
a(F1.5337707251966033
S'Cell[1].dend[23] syn_ = new AmpaNmda(0.5)'
p85
I1
g76
I98
I56
tp86
a(F2.2654356703055774
S'Cell[2].dend[14] syn_ = new FastInhib(0.5)'
p87
I2
(dp88
g37
F0.5
sg38
F2.0
sg39
I146
sg40
g7
(g8
(I0
tp89
g10
tp90
Rp91
(I1
(I3
tp92
g47
I00
S'\x01\x00\x00\xd0\xa3\xf0.\xc0\x00\x00\x00`ff\x17@\x00\x00\x00\xa0G\xe1\x00\xc0'
p93
tp94
bsg52
S'Cell[3].soma[0]'
p95
sI146
I104
tp96
a(F2.1337948227374897
S'Cell[3].dend[2] syn_ = new FastInhib(0.5)'
p97
I3
(dp98
g37
F0.16666666666666666
sg38
F2.0
sg39
I146
sg40
g7
(g8
(I0
tp99
g10
tp100
Rp101
(I1
(I3
tp102
g47
I00
S'\xb2Yc\xa5)\xcd?\xc0\xcd\x85\xb4\x01=CL\xc0\x1b=\x98s&\xbe#@'
p103
tp104
bsg52
S'Cell[3].axon[28]'
p105
sI146
I152
tp106
a(F2.4750035765578926
S'Cell[0].dend[72] syn_ = new AmpaNmda(0.5)'
p107
I0
(dp108
g37
F0.1
sg38
F2.0
sg39
I146
sg40
g7
(g8
(I0
tp109
g10
tp110
Rp111
(I1
(I3
tp112
g47
I00
S"\xc1D\x85<'\xb3\x19\xc0\x100pU\xd3\x07I\xc0\xb2\xb4C\xe8\xe8\xe00@"
p113
tp114
bsg52
S'Cell[3].axon[117]'
p115
sI146
I8
tp116
a(F2.032315141518553
S'Cell[3].dend[48] syn_ = new FastInhib(0.833333333333)'
p117
I3
(dp118
g37
F0.5
sg38
F2.0
sg39
I146
sg40
g7
(g8
(I0
tp119
g10
tp120
Rp121
(I1
(I3
tp122
g47
I00
S'99?\xcef\xfd\x00@\xb7e\xc8\xdc\xcb$[@\x00\x00\x00@\n\x975\xc0'
p123
tp124
bsg52
S'Cell[3].axon[203]'
p125
sI146
I152
tp126
a(F1.8317123223511391
S'Cell[2].dend[1] syn_ = new FastInhib(0.5)'
p127
I2
(dp128
S'seg'
p129
F0.16666666666666666
sS'hostfrom'
p130
F3.0
sS'gid'
p131
I99
sS'coords'
p132
g7
(g8
(I0
tp133
g10
tp134
Rp135
(I1
(I3
tp136
g14
(S'f8'
p137
I0
I1
tp138
Rp139
(I3
S'<'
p140
NNNI-1
I-1
I0
tp141
bI00
S'\x9a\x81f0B\x83\x08@|O\xccT>Q@@\xadT\xbb]\x10\xdc%\xc0'
p142
tp143
bsS'secnames'
p144
S'Cell[2].axon[301]'
p145
sI99
I104
tp146
a(F1.5357197359907684
S'Cell[1].apic[6] syn_ = new ExpSid(0.277777777778)'
p147
I1
(dp148
g129
F0.5
sg130
F3.0
sg131
I99
sg132
g7
(g8
(I0
tp149
g10
tp150
Rp151
(I1
(I3
tp152
g139
I00
S'\x16 0%+\x8fA\xc0\xb1\xeap\xf8\x82xO@\xba\x1c#\xf1\x16wC\xc0'
p153
tp154
bsg144
S'Cell[2].axon[308]'
p155
sI99
I56
tp156
a(F1.633657860822699
S'Cell[3].dend[58] syn_ = new FastInhib(0.357142857143)'
p157
I3
(dp158
g129
F0.16666666666666666
sg130
F3.0
sg131
I99
sg132
g7
(g8
(I0
tp159
g10
tp160
Rp161
(I1
(I3
tp162
g139
I00
S'\xd8\x17a\x10\xea&7\xc0W\xec\xaeC\x02\x00T@2\xe0\xb6\xdf\xc8i \xc0'
p163
tp164
bsg144
S'Cell[2].axon[385]'
p165
sI99
I152
tp166
a(F2.0203995222202833
S'Cell[0].dend[82] syn_ = new ExpSid(0.166666666667)'
p167
I0
(dp168
g129
F0.8333333333333333
sg130
F3.0
sg131
I99
sg132
g7
(g8
(I0
tp169
g10
tp170
Rp171
(I1
(I3
tp172
g139
I00
S'r\xbcJ\xfa^i/\xc0\x1c[\x13D\xc3\xaaH\xc0\x9eB=\xa0\xd1\xcf9@'
p173
tp174
bsg144
S'Cell[2].axon[452]'
p175
sI99
I8
tp176
a(F1.5337707251966033
S'Cell[1].dend[23] syn_ = new ExpSid(0.5)'
p177
I1
g168
I99
I56
tp178
a(F2.1161303644290346
S'Cell[0].apic[9] syn_ = new ExpSid(0.5)'
p179
I0
(dp180
g129
F0.5
sg130
F3.0
sg131
I147
sg132
g7
(g8
(I0
tp181
g10
tp182
Rp183
(I1
(I3
tp184
g139
I00
S'\xde\xf3@LK\xe5\x1a@\x85\xacP\x8dn\xe5D@?\x1c\xbdU\x08\xf7\xf5?'
p185
tp186
bsg144
S'Cell[3].axon[1]'
p187
sI147
I8
tp188
a(F2.3564911308783105
S'Cell[0].dend[48] syn_ = new AmpaNmda(0.5)'
p189
I0
(dp190
S'seg'
p191
F0.6111111111111112
sS'hostfrom'
p192
F4.0
sS'gid'
p193
I100
sS'coords'
p194
g7
(g8
(I0
tp195
g10
tp196
Rp197
(I1
(I3
tp198
g14
(S'f8'
p199
I0
I1
tp200
Rp201
(I3
S'<'
p202
NNNI-1
I-1
I0
tp203
bI00
S'\x14\xde\x19\xa3\xf3D5@J\x97\x97w\xbb\nS\xc0\xb9\xb5\xf7\x16\x14\xcd\xea?'
p204
tp205
bsS'secnames'
p206
S'Cell[2].axon[10]'
p207
sI100
I8
tp208
a(F2.2829333039335684
S'Cell[1].dend[2] syn_ = new AmpaNmda(0.833333333333)'
p209
I1
(dp210
g191
F0.7
sg192
F4.0
sg193
I100
sg194
g7
(g8
(I0
tp211
g10
tp212
Rp213
(I1
(I3
tp214
g201
I00
S'R\x06\n\x85\x0f\x07T\xc0|\x10\xc4\xce6\x18T\xc0H\x01\x83~\x0e\xfbE\xc0'
p215
tp216
bsg206
S'Cell[2].axon[118]'
p217
sI100
I56
tp218
a(F2.169296014938364
S'Cell[3].dend[35] syn_ = new FastInhib(0.5)'
p219
I3
(dp220
S'seg'
p221
F0.5
sS'hostfrom'
p222
F5.0
sS'gid'
p223
I149
sS'coords'
p224
g7
(g8
(I0
tp225
g10
tp226
Rp227
(I1
(I3
tp228
g14
(S'f8'
p229
I0
I1
tp230
Rp231
(I3
S'<'
p232
NNNI-1
I-1
I0
tp233
bI00
S"\xd8]\x15A\xf6\xfd\x05@\xdd\xba]\x8ei\xb6A@=\xda*\xcb\xadt'@"
p234
tp235
bsS'secnames'
p236
S'Cell[3].axon[12]'
p237
sI149
I152
tp238
a(F2.3157024396569126
S'Cell[0].apic[0] syn_ = new ExpSid(0.5)'
p239
I0
(dp240
g221
F0.5
sg222
F5.0
sg223
I149
sg224
g7
(g8
(I0
tp241
g10
tp242
Rp243
(I1
(I3
tp244
g231
I00
S'\xfea\xad\xdc\x91\x011@~\xd6\x8e\x89\x89b\xf4?\xe48H\x0buW\r@'
p245
tp246
bsg236
S'Cell[3].axon[24]'
p247
sI149
I8
tp248
a(F2.247057190102368
S'Cell[3].dend[33] syn_ = new FastInhib(0.5)'
p249
I3
(dp250
g221
F0.7
sg222
F5.0
sg223
I149
sg224
g7
(g8
(I0
tp251
g10
tp252
Rp253
(I1
(I3
tp254
g231
I00
S'\xdb\x1e7\xe3\x95\t<@[E\xb2\x1b\xfe\xf6+@\xe9o\x9c(\xbf\xaa\x17@'
p255
tp256
bsg236
S'Cell[3].axon[24]'
p257
sI149
I152
tp258
a(F1.3351804683873965
S'Cell[0].apic[3] syn_ = new ExpSid(0.1)'
p259
I0
(dp260
g221
F0.5
sg222
F5.0
sg223
I149
sg224
g7
(g8
(I0
tp261
g10
tp262
Rp263
(I1
(I3
tp264
g231
I00
S'\x035\xcdP\x12\x95F@\x01p\x8c\x17?\xdb@@\x00\x00\x00`ff*@'
p265
tp266
bsg236
S'Cell[3].axon[25]'
p267
sI149
I8
tp268
a(F2.3652604083632824
S'Cell[1].dend[24] syn_ = new AmpaNmda(0.5)'
p269
I1
(dp270
S'seg'
p271
F0.8333333333333333
sS'hostfrom'
p272
F6.0
sS'gid'
p273
I150
sS'coords'
p274
g7
(g8
(I0
tp275
g10
tp276
Rp277
(I1
(I3
tp278
g14
(S'f8'
p279
I0
I1
tp280
Rp281
(I3
S'<'
p282
NNNI-1
I-1
I0
tp283
bI00
S'\x9a\x9e\xff\ne18\xc0\x90g\xc8\xc5\nu@\xc0\x00\x00\x00\x80\x14\xee>\xc0'
p284
tp285
bsS'secnames'
p286
S'Cell[3].axon[111]'
p287
sI150
I56
tp288
a(F0.8183153208302748
S'Cell[1].dend[30] syn_ = new AmpaNmda(0.166666666667)'
p289
I1
(dp290
g271
F0.5
sg272
F6.0
sg273
I150
sg274
g7
(g8
(I0
tp291
g10
tp292
Rp293
(I1
(I3
tp294
g281
I00
S'\x9d!\x13\xab\t\xe1)@}\x91zg\x144&\xc0\x00\x00\x00\x80\x14\xee>\xc0'
p295
tp296
bsg286
S'Cell[3].axon[179]'
p297
sI150
I56
tp298
a(F2.277457129454544
S'Cell[1].dend[31] syn_ = new AmpaNmda(0.1)'
p299
I1
(dp300
g271
F0.5
sg272
F6.0
sg273
I150
sg274
g7
(g8
(I0
tp301
g10
tp302
Rp303
(I1
(I3
tp304
g281
I00
S'd\xa2\xb7\xe5J\xa6,@B\xed\xc9Q\x1dL9\xc0\x00\x00\x00\x80\x14\xee>\xc0'
p305
tp306
bsg286
S'Cell[3].axon[197]'
p307
sI150
I56
tp308
a(F1.4841656151909401
S'Cell[3].dend[41] syn_ = new FastInhib(0.5)'
p309
I3
(dp310
S'seg'
p311
F0.5
sS'hostfrom'
p312
F7.0
sS'gid'
p313
I103
sS'coords'
p314
g7
(g8
(I0
tp315
g10
tp316
Rp317
(I1
(I3
tp318
g14
(S'f8'
p319
I0
I1
tp320
Rp321
(I3
S'<'
p322
NNNI-1
I-1
I0
tp323
bI00
S'O\xcf\x8b.D\nG@\xf0\xf6\x87\xbc\xd5\x97>@\x00\x00\x00@\xe1\xfa&\xc0'
p324
tp325
bsS'secnames'
p326
S'Cell[2].axon[223]'
p327
sI103
I152
tp328
a(F2.0811987462183903
S'Cell[2].dend[19] syn_ = new FastInhib(0.5)'
p329
I2
(dp330
g311
F0.8333333333333333
sg312
F7.0
sg313
I103
sg314
g7
(g8
(I0
tp331
g10
tp332
Rp333
(I1
(I3
tp334
g321
I00
S'.\xc3\xed\xa4\xb7a7\xc0\xc4@O(\\).\xc0\xe4\x87\xad\\uL\xdb?'
p335
tp336
bsg326
S'Cell[2].axon[444]'
p337
sI103
I104
tp338
a(F2.294381829627852
S'Cell[1].dend[5] syn_ = new ExpSid(0.5)'
p339
I1
(dp340
g311
F0.8333333333333333
sg312
F7.0
sg313
I151
sg314
g7
(g8
(I0
tp341
g10
tp342
Rp343
(I1
(I3
tp344
g321
I00
S'\x13\xfe&\xfc\x0b\xb8C\xc0;\xd3fV\x07aB\xc0\xd7A\xe2\xb9Zz$\xc0'
p345
tp346
bsg326
S'Cell[3].axon[12]'
p347
sI151
I56
tp348
a(F1.6062742973948139
S'Cell[2].dend[2] syn_ = new FastInhib(0.785714285714)'
p349
I2
(dp350
S'seg'
p351
F0.5
sS'hostfrom'
p352
F8.0
sS'gid'
p353
I152
sS'coords'
p354
g7
(g8
(I0
tp355
g10
tp356
Rp357
(I1
(I3
tp358
g14
(S'f8'
p359
I0
I1
tp360
Rp361
(I3
S'<'
p362
NNNI-1
I-1
I0
tp363
bI00
S'V\xcb\x9d\xa9\x16\x19Z@\xa4\xafML\xbb^[@LC4\xecf\x997\xc0'
p364
tp365
bsS'secnames'
p366
S'Cell[3].axon[447]'
p367
sI152
I104
tp368
a(F1.9500238788722217
S'Cell[0].dend[86] syn_ = new AmpaNmda(0.166666666667)'
p369
I0
(dp370
g351
F0.7
sg352
F8.0
sg353
I152
sg354
g7
(g8
(I0
tp371
g10
tp372
Rp373
(I1
(I3
tp374
g361
I00
S'V\xc9\xe9vx\x07:@R\xb0\xc8\xc5\xff\xa83\xc0\x08\x85\x8a@\xe9\x00\x1f\xc0'
p375
tp376
bsg366
S'Cell[3].axon[523]'
p377
sI152
I8
tp378
a(F2.475465022856032
S'Cell[0].dend[42] syn_ = new AmpaNmda(0.5)'
p379
I0
(dp380
g351
F0.16666666666666666
sg352
F8.0
sg353
I104
sg354
g7
(g8
(I0
tp381
g10
tp382
Rp383
(I1
(I3
tp384
g361
I00
S'\xde/f\x1fe\x0b2@!\xc3\x9b\xfc.\xa0P\xc0V\x0c\xbb:\tn\xe4?'
p385
tp386
bsg366
S'Cell[2].axon[120]'
p387
sI104
I8
tp388
a(F2.321424982746273
S'Cell[0].apic[25] syn_ = new AmpaNmda(0.5)'
p389
I0
(dp390
g351
F0.5
sg352
F8.0
sg353
I104
sg354
g7
(g8
(I0
tp391
g10
tp392
Rp393
(I1
(I3
tp394
g361
I00
S'\xbf\x88@A4\x8bF@\xe1\x0f\xd3\x8e\x11\xa7Z@\x00\x00\x00\xa0\x99\xd95@'
p395
tp396
bsg366
S'Cell[2].axon[276]'
p397
sI104
I8
tp398
a(F2.208599448998073
S'Cell[0].apic[1] syn_ = new AmpaNmda(0.5)'
p399
I0
(dp400
g351
F0.5
sg352
F8.0
sg353
I104
sg354
g7
(g8
(I0
tp401
g10
tp402
Rp403
(I1
(I3
tp404
g361
I00
S"b\xb1'f%\xc4Z@Z\x88\xc6\x85\xcd\x7f3\xc0\xad\x00G\xfe5\xd8(@"
p405
tp406
bsg366
S'Cell[2].axon[331]'
p407
sI104
I8
tp408
a(F1.5776752177691764
S'Cell[3].dend[45] syn_ = new FastInhib(0.5)'
p409
I3
(dp410
g351
F0.5
sg352
F8.0
sg353
I104
sg354
g7
(g8
(I0
tp411
g10
tp412
Rp413
(I1
(I3
tp414
g361
I00
S'\xa7\x16VB;\x87@@\xf0\xcdvL\xdc7Q@\xa4\x8eG\xdef\xe0H\xc0'
p415
tp416
bsg366
S'Cell[2].axon[356]'
p417
sI104
I152
tp418
a(F1.3743112700741265
S'Cell[3].dend[56] syn_ = new FastInhib(0.5)'
p419
I3
(dp420
S'seg'
p421
F0.5
sS'hostfrom'
p422
F9.0
sS'gid'
p423
I105
sS'coords'
p424
g7
(g8
(I0
tp425
g10
tp426
Rp427
(I1
(I3
tp428
g14
(S'f8'
p429
I0
I1
tp430
Rp431
(I3
S'<'
p432
NNNI-1
I-1
I0
tp433
bI00
S'\x0eb\xa1`\ry*\xc0g8\x99\xf5\x95.W@6\x8f\xe1No\xf2\xf2\xbf'
p434
tp435
bsS'secnames'
p436
S'Cell[2].axon[47]'
p437
sI105
I152
tp438
a(F2.4224092281141236
S'Cell[0].dend[2] syn_ = new ExpSid(0.1)'
p439
I0
(dp440
g421
F0.5
sg422
F9.0
sg423
I57
sg424
g7
(g8
(I0
tp441
g10
tp442
Rp443
(I1
(I3
tp444
g431
I00
S'\x00\x00\x00\xe0z\xd4D@\x00\x00\x00\x80\x14\x0eP\xc0\x00\x00\x00\xc0\xf5(\xcc?'
p445
tp446
bsg436
S'Cell[1].soma[0]'
p447
sI57
I8
tp448
a(F1.6461139713175121
S'Cell[0].dend[58] syn_ = new ExpSid(0.5)'
p449
I0
(dp450
g421
F0.1
sg422
F9.0
sg423
I57
sg424
g7
(g8
(I0
tp451
g10
tp452
Rp453
(I1
(I3
tp454
g431
I00
S'\x08\x12\x96\xe2\xae\xf63@{0\x1b\x0b\xeb\xa1^\xc0\xf6\x8f]0\xb2C!@'
p455
tp456
bsg436
S'Cell[1].axon[6]'
p457
sI57
I8
tp458
a(F2.4677934453779984
S'Cell[2].dend[3] syn_ = new FastInhib(0.166666666667)'
p459
I2
(dp460
S'seg'
p461
F0.5
sS'hostfrom'
p462
F10.0
sS'gid'
p463
I10
sS'coords'
p464
g7
(g8
(I0
tp465
g10
tp466
Rp467
(I1
(I3
tp468
g14
(S'f8'
p469
I0
I1
tp470
Rp471
(I3
S'<'
p472
NNNI-1
I-1
I0
tp473
bI00
S'8?\x1f \x07R\x02\xc0m\xb9R(\xc8\x146@\x13s\xf3\x8f\x12u#@'
p474
tp475
bsS'secnames'
p476
S'Cell[0].axon[4]'
p477
sI10
I104
tp478
a(F1.9707712466211493
S'Cell[1].dend[29] syn_ = new AmpaNmda(0.5)'
p479
I1
(dp480
g461
F0.5
sg462
F10.0
sg463
I106
sg464
g7
(g8
(I0
tp481
g10
tp482
Rp483
(I1
(I3
tp484
g471
I00
S'\xe1\x01\xec\x93X\xfc"\xc0\xc3\x86\xf8\xe3\xa3\xda3\xc0\x00\x00\x00\x00)\\.\xc0'
p485
tp486
bsg476
S'Cell[2].axon[122]'
p487
sI106
I56
tp488
a(F1.780905540435933
S'Cell[0].apic[20] syn_ = new AmpaNmda(0.5)'
p489
I0
(dp490
g461
F0.8333333333333333
sg462
F10.0
sg463
I106
sg464
g7
(g8
(I0
tp491
g10
tp492
Rp493
(I1
(I3
tp494
g471
I00
S'\xb9\x0f\x9f\xcf+<#@\xc5;\xeb\xee\tE]@\x00\x00\x00@3\xb33@'
p495
tp496
bsg476
S'Cell[2].axon[197]'
p497
sI106
I8
tp498
a(F1.0008040004334184
S'Cell[2].dend[27] syn_ = new FastInhib(0.863636363636)'
p499
I2
(dp500
g461
F0.6111111111111112
sg462
F10.0
sg463
I106
sg464
g7
(g8
(I0
tp501
g10
tp502
Rp503
(I1
(I3
tp504
g471
I00
S'`{\xe1\xb9\xa3\x078\xc0\x00\xd1GZ\x98\xfbh\xc0\xbf1\x0f\xa4;\x01_\xc0'
p505
tp506
bsg476
S'Cell[2].axon[216]'
p507
sI106
I104
tp508
a(F1.276311914111632
S'Cell[3].dend[34] syn_ = new FastInhib(0.1)'
p509
I3
(dp510
g461
F0.16666666666666666
sg462
F10.0
sg463
I106
sg464
g7
(g8
(I0
tp511
g10
tp512
Rp513
(I1
(I3
tp514
g471
I00
S'\xa3\x8f\x90W\x90K\x16@\xe68\xc9)\x9a\xe51@\x00\x00\x00\xc0\xf5(\x1c\xc0'
p515
tp516
bsg476
S'Cell[2].axon[223]'
p517
sI106
I152
tp518
a(F2.4966357197605342
S'Cell[3].dend[58] syn_ = new FastInhib(0.0714285714286)'
p519
I3
(dp520
g461
F0.8333333333333333
sg462
F10.0
sg463
I106
sg464
g7
(g8
(I0
tp521
g10
tp522
Rp523
(I1
(I3
tp524
g471
I00
S'\n\x1f]\xdd9n\x05@m\x0f\x88\x82x\xd3O@\xbc\xa5\xba\xd9\xf2\xec\x19@'
p525
tp526
bsg476
S'Cell[2].axon[224]'
p527
sI106
I152
tp528
a(F1.8306991775355625
S'Cell[3].dend[59] syn_ = new FastInhib(0.1)'
p529
I3
g520
I106
I152
tp530
a(F2.263354053238464
S'Cell[3].dend[50] syn_ = new FastInhib(0.5)'
p531
I3
(dp532
g461
F0.5
sg462
F10.0
sg463
I154
sg464
g7
(g8
(I0
tp533
g10
tp534
Rp535
(I1
(I3
tp536
g471
I00
S'\xe0\xac\x18\xc3`\x1cD@\x00\xd4\xd7MX\xb5=@P\xa82\x01!\xb5-@'
p537
tp538
bsg476
S'Cell[3].axon[10]'
p539
sI154
I152
tp540
a(F2.49979211103818
S'Cell[0].dend[32] syn_ = new ExpSid(0.5)'
p541
I0
(dp542
S'seg'
p543
F0.5
sS'hostfrom'
p544
F11.0
sS'gid'
p545
I59
sS'coords'
p546
g7
(g8
(I0
tp547
g10
tp548
Rp549
(I1
(I3
tp550
g14
(S'f8'
p551
I0
I1
tp552
Rp553
(I3
S'<'
p554
NNNI-1
I-1
I0
tp555
bI00
S'\xe8\r\x98\xb6:\xdf+@4\xb6\xdc\x9a4\xf5R\xc0(E j9H,@'
p556
tp557
bsS'secnames'
p558
S'Cell[1].axon[8]'
p559
sI59
I8
tp560
a(F1.3507914074501006
S'Cell[0].dend[10] syn_ = new ExpSid(0.9)'
p561
I0
(dp562
g543
F0.26
sg544
F11.0
sg545
I11
sg546
g7
(g8
(I0
tp563
g10
tp564
Rp565
(I1
(I3
tp566
g553
I00
S'\x17\xb2\xcd\xc0q\x81^@\xf4+\xf1\xb7i\xbda\xc0\xe2\xf0\xd1*\xab\xe62@'
p567
tp568
bsg558
S'Cell[0].axon[21]'
p569
sI11
I8
tp570
a(F2.323596204347105
S'Cell[0].dend[81] syn_ = new ExpSid(0.5)'
p571
I0
(dp572
g543
F0.5
sg544
F11.0
sg545
I155
sg546
g7
(g8
(I0
tp573
g10
tp574
Rp575
(I1
(I3
tp576
g553
I00
S"*\x106\r\xe3\xb66\xc0\xf5G1\xc3CsB\xc0\x81\xde\xea\x9d'\x91/@"
p577
tp578
bsg558
S'Cell[3].axon[19]'
p579
sI155
I8
tp580
a(F1.576919187503801
S'Cell[1].dend[6] syn_ = new ExpSid(0.5)'
p581
I1
(dp582
g543
F0.5
sg544
F11.0
sg545
I155
sg546
g7
(g8
(I0
tp583
g10
tp584
Rp585
(I1
(I3
tp586
g553
I00
S'\xfa\xc6\xda\x01\xeb2P\xc0%\xa0F\xacotG\xc0 g\xbf\xd6S\xbf$@'
p587
tp588
bsg558
S'Cell[3].axon[31]'
p589
sI155
I56
tp590
a(F2.2778488763465576
S'Cell[1].dend[6] syn_ = new ExpSid(0.166666666667)'
p591
I1
(dp592
g543
F0.8333333333333333
sg544
F11.0
sg545
I155
sg546
g7
(g8
(I0
tp593
g10
tp594
Rp595
(I1
(I3
tp596
g553
I00
S'.v1x\x85DL\xc0\x96\x83[\x1d\x00\x16F\xc0+\xbe7k\x8a\x92\xfe?'
p597
tp598
bsg558
S'Cell[3].axon[31]'
p599
sI155
I56
tp600
a(F0.6213438172306247
S'Cell[3].dend[7] syn_ = new FastInhib(0.9)'
p601
I3
(dp602
g543
F0.5
sg544
F11.0
sg545
I155
sg546
g7
(g8
(I0
tp603
g10
tp604
Rp605
(I1
(I3
tp606
g553
I00
S'\xaf\xb5\x98.\xed<T\xc0\x7f$B\xfd[\xf9>\xc0\x00\x00\x00\x80\xc2\xf5\x02@'
p607
tp608
bsg558
S'Cell[3].axon[272]'
p609
sI155
I152
tp610
a(F1.5643430286648161
S'Cell[1].dend[13] syn_ = new AmpaNmda(0.5)'
p611
I1
(dp612
S'seg'
p613
F0.8333333333333333
sS'hostfrom'
p614
F12.0
sS'gid'
p615
I156
sS'coords'
p616
g7
(g8
(I0
tp617
g10
tp618
Rp619
(I1
(I3
tp620
g14
(S'f8'
p621
I0
I1
tp622
Rp623
(I3
S'<'
p624
NNNI-1
I-1
I0
tp625
bI00
S'5\x94\x1a\xff\\\x87\xfa\xbf\xc6\r5\x1a\x81SW\xc0\x03T\xf6\x96l\x859\xc0'
p626
tp627
bsS'secnames'
p628
S'Cell[3].axon[579]'
p629
sI156
I56
tp630
a(F1.3353585358424016
S'Cell[0].dend[10] syn_ = new AmpaNmda(0.9)'
p631
I0
(dp632
g613
F0.26
sg614
F12.0
sg615
I12
sg616
g7
(g8
(I0
tp633
g10
tp634
Rp635
(I1
(I3
tp636
g623
I00
S'\xd0\xfa+\x83\xdb\x81^@\xbai!]j\xbda\xc0\xed\xc8\x9f\x82l\xdf2@'
p637
tp638
bsg628
S'Cell[0].axon[43]'
p639
sI12
I8
tp640
a(F1.6196294791256005
S'Cell[3].dend[50] syn_ = new FastInhib(0.5)'
p641
I3
(dp642
S'seg'
p643
F0.16666666666666666
sS'hostfrom'
p644
F13.0
sS'gid'
p645
I109
sS'coords'
p646
g7
(g8
(I0
tp647
g10
tp648
Rp649
(I1
(I3
tp650
g14
(S'f8'
p651
I0
I1
tp652
Rp653
(I3
S'<'
p654
NNNI-1
I-1
I0
tp655
bI00
S'\x00\x00\x00 \x85\xcbC@\n~\xf4\x80\xe5\x89;@\xe9\xf6\xc8\xb0\x99\x070@'
p656
tp657
bsS'secnames'
p658
S'Cell[2].axon[99]'
p659
sI109
I152
tp660
a(F1.6124810544581198
S'Cell[0].apic[1] syn_ = new ExpSid(0.1)'
p661
I0
(dp662
g643
F0.5
sg644
F13.0
sg645
I109
sg646
g7
(g8
(I0
tp663
g10
tp664
Rp665
(I1
(I3
tp666
g653
I00
S'\xb1\xe7\xecm\x04\x87E@ Fg\x90\xb99.@\x1aXl\x1c\xef\xb9"@'
p667
tp668
bsg658
S'Cell[2].axon[99]'
p669
sI109
I8
tp670
a(F1.001136201455545
S'Cell[0].dend[10] syn_ = new ExpSid(0.1)'
p671
I0
(dp672
g643
F0.7
sg644
F13.0
sg645
I109
sg646
g7
(g8
(I0
tp673
g10
tp674
Rp675
(I1
(I3
tp676
g653
I00
S'\xfa\x96,\xc8\xce$J@\xbc\x86\xb8\xeb\x0b\x90M\xc0\xbcT\x8b_\x0f\x9e(@'
p677
tp678
bsg658
S'Cell[2].axon[100]'
p679
sI109
I8
tp680
a(F2.443272431626006
S'Cell[3].dend[14] syn_ = new FastInhib(0.7)'
p681
I3
(dp682
g643
F0.8333333333333333
sg644
F13.0
sg645
I109
sg646
g7
(g8
(I0
tp683
g10
tp684
Rp685
(I1
(I3
tp686
g653
I00
S'\x9c\n\xdb\xf8o5V@\x16e\xf2T\xe8\xc9P\xc0\xe0\x04<\xad%\xe5\x1d@'
p687
tp688
bsg658
S'Cell[2].axon[135]'
p689
sI109
I152
tp690
a(F2.373882898055195
S'Cell[1].dend[30] syn_ = new ExpSid(0.166666666667)'
p691
I1
(dp692
g643
F0.5
sg644
F13.0
sg645
I109
sg646
g7
(g8
(I0
tp693
g10
tp694
Rp695
(I1
(I3
tp696
g653
I00
S'~\xe4\tZ40.@\x08Q\x04\xd4N\x80$\xc0oX\xd0\xcd~]>\xc0'
p697
tp698
bsg658
S'Cell[2].axon[242]'
p699
sI109
I56
tp700
a(F2.3180679084124782
S'Cell[1].dend[31] syn_ = new AmpaNmda(0.5)'
p701
I1
(dp702
S'seg'
p703
F0.8333333333333333
sS'hostfrom'
p704
F14.0
sS'gid'
p705
I110
sS'coords'
p706
g7
(g8
(I0
tp707
g10
tp708
Rp709
(I1
(I3
tp710
g14
(S'f8'
p711
I0
I1
tp712
Rp713
(I3
S'<'
p714
NNNI-1
I-1
I0
tp715
bI00
S'1\x03\x0e\xb8!nE@8\x00\xbe@\x8dv>\xc0\xe0]\x952f\xdbI\xc0'
p716
tp717
bsS'secnames'
p718
S'Cell[2].axon[49]'
p719
sI110
I56
tp720
a(F2.153783182700174
S'Cell[3].dend[41] syn_ = new FastInhib(0.5)'
p721
I3
(dp722
g703
F0.16666666666666666
sg704
F14.0
sg705
I110
sg706
g7
(g8
(I0
tp723
g10
tp724
Rp725
(I1
(I3
tp726
g713
I00
S'\xdd\xb2\x8f\x98\x19\xc1F@,\t\xec\x1e\xe7\xf7<@\xe5i\xbb6v\xfb)\xc0'
p727
tp728
bsg718
S'Cell[2].axon[72]'
p729
sI110
I152
tp730
a(F0.9394695587605386
S'Cell[3].dend[0] syn_ = new FastInhib(0.5)'
p731
I3
(dp732
g703
F0.16666666666666666
sg704
F14.0
sg705
I110
sg706
g7
(g8
(I0
tp733
g10
tp734
Rp735
(I1
(I3
tp736
g713
I00
S'\xdc9\xe3\xee\x9c)C@X\x02\xca(\x87#2\xc0\x0e\x98\x1fJ/\xcd0@'
p737
tp738
bsg718
S'Cell[2].axon[80]'
p739
sI110
I152
tp740
a(F1.2484655605781414
S'Cell[2].dend[17] syn_ = new FastInhib(0.833333333333)'
p741
I2
(dp742
g703
F0.16666666666666666
sg704
F14.0
sg705
I110
sg706
g7
(g8
(I0
tp743
g10
tp744
Rp745
(I1
(I3
tp746
g713
I00
S'\x064d\xce%{H@k\xbd\x13Q\xbd^?\xc0/\xd2\xbc\xa4\x99\xe8\x1c@'
p747
tp748
bsg718
S'Cell[2].axon[132]'
p749
sI110
I104
tp750
a(F1.1692175156545794
S'Cell[3].dend[16] syn_ = new FastInhib(0.5)'
p751
I3
(dp752
S'seg'
p753
F0.16666666666666666
sS'hostfrom'
p754
F16.0
sS'gid'
p755
I112
sS'coords'
p756
g7
(g8
(I0
tp757
g10
tp758
Rp759
(I1
(I3
tp760
g14
(S'f8'
p761
I0
I1
tp762
Rp763
(I3
S'<'
p764
NNNI-1
I-1
I0
tp765
bI00
S'o\x9d\x11L!wM@\\\xc26Z\x83i2@>\xe1k\x96\xda\r#@'
p766
tp767
bsS'secnames'
p768
S'Cell[2].axon[93]'
p769
sI112
I152
tp770
a(F1.7639230603088243
S'Cell[0].dend[43] syn_ = new ExpSid(0.5)'
p771
I0
(dp772
S'seg'
p773
F0.5
sS'hostfrom'
p774
F17.0
sS'gid'
p775
I113
sS'coords'
p776
g7
(g8
(I0
tp777
g10
tp778
Rp779
(I1
(I3
tp780
g14
(S'f8'
p781
I0
I1
tp782
Rp783
(I3
S'<'
p784
NNNI-1
I-1
I0
tp785
bI00
S'p\xee\x02\xec\xfc\xc7=@~\x0bB\xc2\xfe\xd2R\xc0P\xf4\xc0X\xce\x18\xd2?'
p786
tp787
bsS'secnames'
p788
S'Cell[2].axon[604]'
p789
sI113
I8
tp790
a(F2.3861807115714173
S'Cell[2].dend[6] syn_ = new FastInhib(0.5)'
p791
I2
(dp792
g773
F0.5
sg774
F17.0
sg775
I161
sg776
g7
(g8
(I0
tp793
g10
tp794
Rp795
(I1
(I3
tp796
g783
I00
S'\xd1\xde2\x1c\r\xd8!\xc08\xdf\x00Z+\xda3\xc0\x00\x00\x00\xe0z4K\xc0'
p797
tp798
bsg788
S'Cell[3].axon[237]'
p799
sI161
I104
tp800
a(F1.9029511249294158
S'Cell[3].dend[40] syn_ = new FastInhib(0.5)'
p801
I3
(dp802
g773
F0.5
sg774
F17.0
sg775
I65
sg776
g7
(g8
(I0
tp803
g10
tp804
Rp805
(I1
(I3
tp806
g783
I00
S's?\xba\xf6G\x8bC@\xe3\xafk\xb4bn&@\x00\x00\x00\xe0Q\xb8\x17@'
p807
tp808
bsg788
S'Cell[1].axon[3]'
p809
sI65
I152
tp810
a(F2.313269924290729
S'Cell[0].dend[11] syn_ = new ExpSid(0.5)'
p811
I0
(dp812
g773
F0.5
sg774
F17.0
sg775
I65
sg776
g7
(g8
(I0
tp813
g10
tp814
Rp815
(I1
(I3
tp816
g783
I00
S'\xdbh\xd9`4\x19H@\xfa\xff4WI\xe0J\xc0\x00\x00\x00\xc0\xf5h4@'
p817
tp818
bsg788
S'Cell[1].axon[15]'
p819
sI65
I8
tp820
a(F0.9201628572523102
S'Cell[2].dend[31] syn_ = new FastInhib(0.0555555555556)'
p821
I2
(dp822
S'seg'
p823
F0.16666666666666666
sS'hostfrom'
p824
F18.0
sS'gid'
p825
I114
sS'coords'
p826
g7
(g8
(I0
tp827
g10
tp828
Rp829
(I1
(I3
tp830
g14
(S'f8'
p831
I0
I1
tp832
Rp833
(I3
S'<'
p834
NNNI-1
I-1
I0
tp835
bI00
S'\xd6\xe8\xf1\xf1b\xd8J\xc0@z\xc9\xe7c\x0c\x04@\x00\x00\x00\xe0Q\xb82\xc0'
p836
tp837
bsS'secnames'
p838
S'Cell[2].axon[38]'
p839
sI114
I104
tp840
a(F2.1774205711046366
S'Cell[2].dend[16] syn_ = new FastInhib(0.5)'
p841
I2
(dp842
g823
F0.1
sg824
F18.0
sg825
I114
sg826
g7
(g8
(I0
tp843
g10
tp844
Rp845
(I1
(I3
tp846
g833
I00
S'V\xe9\x14)\x9a=,\xc0\x1a\xa7\xc2*e=?\xc0\x02:\xdf\xf7g\xe8\x1a@'
p847
tp848
bsg838
S'Cell[2].axon[79]'
p849
sI114
I104
tp850
a(F1.1618632952404746
S'Cell[0].dend[57] syn_ = new AmpaNmda(0.7)'
p851
I0
(dp852
g823
F0.05555555555555555
sg824
F18.0
sg825
I162
sg826
g7
(g8
(I0
tp853
g10
tp854
Rp855
(I1
(I3
tp856
g833
I00
S'\x0b\x9a\xef\x1dn\xd8\xe8?\x93F\xa3o\x87\x04o\xc0\xfbI\xfa\xd7\xde\xdd%@'
p857
tp858
bsg838
S'Cell[3].axon[11]'
p859
sI162
I8
tp860
a(F1.5971334862604003
S'Cell[2].dend[2] syn_ = new FastInhib(0.5)'
p861
I2
(dp862
g823
F0.07142857142857142
sg824
F18.0
sg825
I162
sg826
g7
(g8
(I0
tp863
g10
tp864
Rp865
(I1
(I3
tp866
g833
I00
S'\xe0\xd9\xb2\xd2\x7f\xd9P@\xd1\xf8\xc73T\xb0Q@\x89\x0c\x1a\x87b4-\xc0'
p867
tp868
bsg838
S'Cell[3].axon[221]'
p869
sI162
I104
tp870
a(F1.0405402852383026
S'Cell[0].apic[21] syn_ = new ExpSid(0.5)'
p871
I0
(dp872
S'seg'
p873
F0.5
sS'hostfrom'
p874
F19.0
sS'gid'
p875
I115
sS'coords'
p876
g7
(g8
(I0
tp877
g10
tp878
Rp879
(I1
(I3
tp880
g14
(S'f8'
p881
I0
I1
tp882
Rp883
(I3
S'<'
p884
NNNI-1
I-1
I0
tp885
bI00
S'E\x0b\xcb>\x04\xc3 @JLI\xa5\xf1\x8e\\@\x05df\xe2;\xe27@'
p886
tp887
bsS'secnames'
p888
S'Cell[2].axon[172]'
p889
sI115
I8
tp890
a(F1.8220932805735333
S'Cell[3].dend[56] syn_ = new FastInhib(0.7)'
p891
I3
(dp892
g873
F0.5
sg874
F19.0
sg875
I115
sg876
g7
(g8
(I0
tp893
g10
tp894
Rp895
(I1
(I3
tp896
g883
I00
S'\x95\xe6\xa3\xf2\x068A\xc0\x81K\xe9\x0c\x82\x1a\\@\x83\x11\xb9\xa8,\xcb\t\xc0'
p897
tp898
bsg888
S'Cell[2].axon[247]'
p899
sI115
I152
tp900
a(F2.4952452349466925
S'Cell[0].dend[12] syn_ = new AmpaNmda(0.5)'
p901
I0
(dp902
S'seg'
p903
F0.16666666666666666
sS'hostfrom'
p904
F20.0
sS'gid'
p905
I68
sS'coords'
p906
g7
(g8
(I0
tp907
g10
tp908
Rp909
(I1
(I3
tp910
g14
(S'f8'
p911
I0
I1
tp912
Rp913
(I3
S'<'
p914
NNNI-1
I-1
I0
tp915
bI00
S'\xd0\x84?\xd2\x1f\x86<@R\xcc\x8fU3\xfdP\xc0*\t\xec\xc2\x84\xc5\x13@'
p916
tp917
bsS'secnames'
p918
S'Cell[1].axon[39]'
p919
sI68
I8
tp920
a(F0.9285159903961345
S'Cell[3].dend[10] syn_ = new FastInhib(0.5)'
p921
I3
(dp922
S'seg'
p923
F0.5
sS'hostfrom'
p924
F21.0
sS'gid'
p925
I69
sS'coords'
p926
g7
(g8
(I0
tp927
g10
tp928
Rp929
(I1
(I3
tp930
g14
(S'f8'
p931
I0
I1
tp932
Rp933
(I3
S'<'
p934
NNNI-1
I-1
I0
tp935
bI00
S'\x02p\x90\xbeM\xd7\xfc?\xfb\xa9^\xcd"\xdfO\xc0\xd9\x1f\xd52;\xa0C@'
p936
tp937
bsS'secnames'
p938
S'Cell[1].axon[14]'
p939
sI69
I152
tp940
a(F2.2071525005283132
S'Cell[3].dend[13] syn_ = new FastInhib(0.833333333333)'
p941
I3
(dp942
S'seg'
p943
F0.5
sS'hostfrom'
p944
F22.0
sS'gid'
p945
I118
sS'coords'
p946
g7
(g8
(I0
tp947
g10
tp948
Rp949
(I1
(I3
tp950
g14
(S'f8'
p951
I0
I1
tp952
Rp953
(I3
S'<'
p954
NNNI-1
I-1
I0
tp955
bI00
S'vK\xeb\xd4naQ@l\x8b54\nAQ\xc0>O\xd9\xa5}\x874@'
p956
tp957
bsS'secnames'
p958
S'Cell[2].axon[22]'
p959
sI118
I152
tp960
a(F1.5110264914833909
S'Cell[0].apic[9] syn_ = new AmpaNmda(0.833333333333)'
p961
I0
(dp962
g943
F0.16666666666666666
sg944
F22.0
sg945
I166
sg946
g7
(g8
(I0
tp963
g10
tp964
Rp965
(I1
(I3
tp966
g953
I00
S'\xb5\xcd\xa3\x16ZK1\xc0\xbc>\x15?;\xbeM@\xa0?\xe5+?Y\x1d\xc0'
p967
tp968
bsg958
S'Cell[3].axon[201]'
p969
sI166
I8
tp970
a(F2.2351708618945496
S'Cell[0].apic[3] syn_ = new AmpaNmda(0.3)'
p971
I0
(dp972
g943
F0.5
sg944
F22.0
sg945
I166
sg946
g7
(g8
(I0
tp973
g10
tp974
Rp975
(I1
(I3
tp976
g953
I00
S'\x119\x16)\xf5eT@\x9c\xd4\xa2\xb9\xa0|9@A\xb2\x9d\xd7\x84\xa6 @'
p977
tp978
bsg958
S'Cell[3].axon[268]'
p979
sI166
I8
tp980
a(F1.6964063060139951
S'Cell[0].dend[64] syn_ = new ExpSid(0.5)'
p981
I0
(dp982
S'seg'
p983
F0.5
sS'hostfrom'
p984
F23.0
sS'gid'
p985
I167
sS'coords'
p986
g7
(g8
(I0
tp987
g10
tp988
Rp989
(I1
(I3
tp990
g14
(S'f8'
p991
I0
I1
tp992
Rp993
(I3
S'<'
p994
NNNI-1
I-1
I0
tp995
bI00
S'\xf9\xf5#\x95 -9\xc06\xc1%?\xf0\xc0C\xc0\xf6g\xa0\x8f\xe8\x81\xd4\xbf'
p996
tp997
bsS'secnames'
p998
S'Cell[3].axon[156]'
p999
sI167
I8
tp1000
a(F2.2128935010187836
S'Cell[2].dend[4] syn_ = new FastInhib(0.5)'
p1001
I2
(dp1002
g983
F0.5
sg984
F23.0
sg985
I167
sg986
g7
(g8
(I0
tp1003
g10
tp1004
Rp1005
(I1
(I3
tp1006
g993
I00
S"\x14BR\xad\xcc\x00+\xc0\x1c$'t\x8bH,@J\xe1\xd5U7\xda'\xc0"
p1007
tp1008
bsg998
S'Cell[3].axon[164]'
p1009
sI167
I104
tp1010
a(F2.307328236538246
S'Cell[0].dend[77] syn_ = new AmpaNmda(0.5)'
p1011
I0
(dp1012
S'seg'
p1013
F0.30000000000000004
sS'hostfrom'
p1014
F24.0
sS'gid'
p1015
I72
sS'coords'
p1016
g7
(g8
(I0
tp1017
g10
tp1018
Rp1019
(I1
(I3
tp1020
g14
(S'f8'
p1021
I0
I1
tp1022
Rp1023
(I3
S'<'
p1024
NNNI-1
I-1
I0
tp1025
bI00
S'\xa8t\x12\xbb\xc9-0\xc0]\xdcQ\xec?\x8c5\xc0\xaaG\xef\xf6\xf3\xb3 @'
p1026
tp1027
bsS'secnames'
p1028
S'Cell[1].axon[65]'
p1029
sI72
I8
tp1030
a(F1.9481194771470078
S'Cell[2].dend[6] syn_ = new FastInhib(0.7)'
p1031
I2
(dp1032
g1013
F0.5
sg1014
F24.0
sg1015
I120
sg1016
g7
(g8
(I0
tp1033
g10
tp1034
Rp1035
(I1
(I3
tp1036
g1023
I00
S"\x97\xd0]Q:\x94-\xc0\xdb\xd9\x88\xf0\x15\xb1B\xc0'^\x84\xa7\xda&S\xc0"
p1037
tp1038
bsg1028
S'Cell[2].axon[85]'
p1039
sI120
I104
tp1040
a(F1.368874194724693
S'Cell[1].dend[30] syn_ = new ExpSid(0.833333333333)'
p1041
I1
(dp1042
S'seg'
p1043
F0.1
sS'hostfrom'
p1044
F25.0
sS'gid'
p1045
I121
sS'coords'
p1046
g7
(g8
(I0
tp1047
g10
tp1048
Rp1049
(I1
(I3
tp1050
g14
(S'f8'
p1051
I0
I1
tp1052
Rp1053
(I3
S'<'
p1054
NNNI-1
I-1
I0
tp1055
bI00
S'\xa0\xbc\xcf%\xadt>@B?1\xcf\xc6\x9b=@\xce3\xf6\xfej*H\xc0'
p1056
tp1057
bsS'secnames'
p1058
S'Cell[2].axon[18]'
p1059
sI121
I56
tp1060
a(F1.810484811734926
S'Cell[0].dend[33] syn_ = new ExpSid(0.166666666667)'
p1061
I0
(dp1062
g1043
F0.5
sg1044
F25.0
sg1045
I169
sg1046
g7
(g8
(I0
tp1063
g10
tp1064
Rp1065
(I1
(I3
tp1066
g1053
I00
S'\x98E\xb5\r\x93\xce"@\xef\xf2\xda-\x86\xf1U\xc0\x00\x00\x00\xc0\x1e\x85 @'
p1067
tp1068
bsg1058
S'Cell[3].axon[209]'
p1069
sI169
I8
tp1070
a(F2.1850996719891445
S'Cell[2].dend[21] syn_ = new FastInhib(0.5)'
p1071
I2
(dp1072
g1043
F0.5
sg1044
F25.0
sg1045
I169
sg1046
g7
(g8
(I0
tp1073
g10
tp1074
Rp1075
(I1
(I3
tp1076
g1053
I00
S'\x86\xcd\xeaX\xa1U8\xc0\xa8\xaa$!\x9fcN\xc0_\x08\x89l\xf7X4@'
p1077
tp1078
bsg1058
S'Cell[3].axon[226]'
p1079
sI169
I104
tp1080
a(F2.3545321604110687
S'Cell[0].dend[33] syn_ = new AmpaNmda(0.833333333333)'
p1081
I0
(dp1082
S'seg'
p1083
F0.5
sS'hostfrom'
p1084
F26.0
sS'gid'
p1085
I26
sS'coords'
p1086
g7
(g8
(I0
tp1087
g10
tp1088
Rp1089
(I1
(I3
tp1090
g14
(S'f8'
p1091
I0
I1
tp1092
Rp1093
(I3
S'<'
p1094
NNNI-1
I-1
I0
tp1095
bI00
S'\xaf\xd8\xeaFt~0\xc0o=+\x81\x10\xf5b\xc0\x00\x00\x00\x00\x00\x00\x1e@'
p1096
tp1097
bsS'secnames'
p1098
S'Cell[0].axon[37]'
p1099
sI26
I8
tp1100
a(F1.1241800581048624
S'Cell[1].dend[22] syn_ = new AmpaNmda(0.5)'
p1101
I1
(dp1102
g1083
F0.16666666666666666
sg1084
F26.0
sg1085
I74
sg1086
g7
(g8
(I0
tp1103
g10
tp1104
Rp1105
(I1
(I3
tp1106
g1093
I00
S'B~\xe0\xb2\t\xf66\xc0F\x86\xfd\xf3\x1c\x10N\xc0&\x01\xad\xfa?\xdf.@'
p1107
tp1108
bsg1098
S'Cell[1].axon[3]'
p1109
sI74
I56
tp1110
a(F1.2260507249430528
S'Cell[0].apic[22] syn_ = new ExpSid(0.5)'
p1111
I0
(dp1112
S'seg'
p1113
F0.5
sS'hostfrom'
p1114
F27.0
sS'gid'
p1115
I171
sS'coords'
p1116
g7
(g8
(I0
tp1117
g10
tp1118
Rp1119
(I1
(I3
tp1120
g14
(S'f8'
p1121
I0
I1
tp1122
Rp1123
(I3
S'<'
p1124
NNNI-1
I-1
I0
tp1125
bI00
S'\n\x96\x98:jx>@\xc7\xbf\xa6"J\xb9V@\x00\x00\x00@33)@'
p1126
tp1127
bsS'secnames'
p1128
S'Cell[3].axon[52]'
p1129
sI171
I8
tp1130
a(F2.049176393897594
S'Cell[0].dend[25] syn_ = new ExpSid(0.166666666667)'
p1131
I0
(dp1132
S'seg'
p1133
F0.30000000000000004
sS'hostfrom'
p1134
F29.0
sS'gid'
p1135
I77
sS'coords'
p1136
g7
(g8
(I0
tp1137
g10
tp1138
Rp1139
(I1
(I3
tp1140
g14
(S'f8'
p1141
I0
I1
tp1142
Rp1143
(I3
S'<'
p1144
NNNI-1
I-1
I0
tp1145
bI00
S'6\x99\x816+\xbeQ@\xb3\xdam\xdeU\xd4[\xc0\xfb\xe94\x93\x11\xa0"@'
p1146
tp1147
bsS'secnames'
p1148
S'Cell[1].axon[52]'
p1149
sI77
I8
tp1150
a(F2.4171814152121076
S'Cell[3].dend[21] syn_ = new FastInhib(0.5)'
p1151
I3
(dp1152
g1133
F0.3888888888888889
sg1134
F29.0
sg1135
I77
sg1136
g7
(g8
(I0
tp1153
g10
tp1154
Rp1155
(I1
(I3
tp1156
g1143
I00
S'.\xa1\xe0\x80L\rR@\xd0\x17?\xb6@\xd6<@g@gli{8@'
p1157
tp1158
bsg1148
S'Cell[1].axon[57]'
p1159
sI77
I152
tp1160
a(F2.056772376367433
S'Cell[3].dend[45] syn_ = new FastInhib(0.1)'
p1161
I3
(dp1162
S'seg'
p1163
F0.21428571428571427
sS'hostfrom'
p1164
F30.0
sS'gid'
p1165
I126
sS'coords'
p1166
g7
(g8
(I0
tp1167
g10
tp1168
Rp1169
(I1
(I3
tp1170
g14
(S'f8'
p1171
I0
I1
tp1172
Rp1173
(I3
S'<'
p1174
NNNI-1
I-1
I0
tp1175
bI00
S'\xba\xaaKSf\x84B@Fs}\x86\xa1\xd3A@\xc4\xdd\x9f\xee\xe0\xa7?\xc0'
p1176
tp1177
bsS'secnames'
p1178
S'Cell[2].axon[31]'
p1179
sI126
I152
tp1180
a(F1.8980325669199105
S'Cell[1].apic[0] syn_ = new AmpaNmda(0.5)'
p1181
I1
(dp1182
g1163
F0.9285714285714284
sg1164
F30.0
sg1165
I174
sg1166
g7
(g8
(I0
tp1183
g10
tp1184
Rp1185
(I1
(I3
tp1186
g1173
I00
S'\x0b\xa7\xa7\x0b;\xec>\xc0\xb9w\xb6B\xd2/5\xc0\xf4\xe3R<\xa2\xe56\xc0'
p1187
tp1188
bsg1178
S'Cell[3].axon[82]'
p1189
sI174
I56
tp1190
a(F2.1390713252391973
S'Cell[2].dend[32] syn_ = new FastInhib(0.1)'
p1191
I2
(dp1192
g1163
F0.5
sg1164
F30.0
sg1165
I174
sg1166
g7
(g8
(I0
tp1193
g10
tp1194
Rp1195
(I1
(I3
tp1196
g1173
I00
S'\xf1v\xf9\x983\x82K\xc00\xc5\xcb \x97%\x10@\xf8>-\xa6\x82\x8a(\xc0'
p1197
tp1198
bsg1178
S'Cell[3].axon[153]'
p1199
sI174
I104
tp1200
a(F2.2557752198834553
S'Cell[1].dend[0] syn_ = new AmpaNmda(0.5)'
p1201
I1
(dp1202
g1163
F0.16666666666666666
sg1164
F30.0
sg1165
I174
sg1166
g7
(g8
(I0
tp1203
g10
tp1204
Rp1205
(I1
(I3
tp1206
g1173
I00
S'\x04P.\xacd\x01A\xc0n\x9d\x0fi#oB\xc0\x7f>H\x96@^9\xc0'
p1207
tp1208
bsg1178
S'Cell[3].axon[306]'
p1209
sI174
I56
tp1210
a(F1.566394550185523
S'Cell[0].apic[9] syn_ = new ExpSid(0.833333333333)'
p1211
I0
(dp1212
S'seg'
p1213
F0.2692307692307693
sS'hostfrom'
p1214
F31.0
sS'gid'
p1215
I175
sS'coords'
p1216
g7
(g8
(I0
tp1217
g10
tp1218
Rp1219
(I1
(I3
tp1220
g14
(S'f8'
p1221
I0
I1
tp1222
Rp1223
(I3
S'<'
p1224
NNNI-1
I-1
I0
tp1225
bI00
S'\x19NA\x9bG\xa61\xc0}*\x98\xde\x12\xd1M@Ox\x89xE\x0b\x15\xc0'
p1226
tp1227
bsS'secnames'
p1228
S'Cell[3].axon[201]'
p1229
sI175
I8
tp1230
a(F1.2369487031769995
S'Cell[3].dend[4] syn_ = new FastInhib(0.5)'
p1231
I3
(dp1232
S'seg'
p1233
F0.8333333333333333
sS'hostfrom'
p1234
F32.0
sS'gid'
p1235
I176
sS'coords'
p1236
g7
(g8
(I0
tp1237
g10
tp1238
Rp1239
(I1
(I3
tp1240
g14
(S'f8'
p1241
I0
I1
tp1242
Rp1243
(I3
S'<'
p1244
NNNI-1
I-1
I0
tp1245
bI00
S'\xdc\x10\xff\x1de$\xce\xbf\x81\xd9\x8a\x7fk\x137\xc0\x8f\x9f[X\x81}\x14@'
p1246
tp1247
bsS'secnames'
p1248
S'Cell[3].axon[12]'
p1249
sI176
I152
tp1250
a(F2.471937518401107
S'Cell[2].dend[1] syn_ = new FastInhib(0.833333333333)'
p1251
I2
(dp1252
S'seg'
p1253
F0.16666666666666666
sS'hostfrom'
p1254
F33.0
sS'gid'
p1255
I129
sS'coords'
p1256
g7
(g8
(I0
tp1257
g10
tp1258
Rp1259
(I1
(I3
tp1260
g14
(S'f8'
p1261
I0
I1
tp1262
Rp1263
(I3
S'<'
p1264
NNNI-1
I-1
I0
tp1265
bI00
S'\xa2\xa2\x8d\x9b\x98B%@46\x1b\x8d\xe6pC@K\xd99h\x11\x82"\xc0'
p1266
tp1267
bsS'secnames'
p1268
S'Cell[2].axon[1]'
p1269
sI129
I104
tp1270
a(F1.2090755989643693
S'Cell[1].dend[9] syn_ = new ExpSid(0.166666666667)'
p1271
I1
(dp1272
g1253
F0.8333333333333333
sg1254
F33.0
sg1255
I81
sg1256
g7
(g8
(I0
tp1273
g10
tp1274
Rp1275
(I1
(I3
tp1276
g1263
I00
S'\xac\x02\xaf\x0c\xbbCO\xc0\x00\x00\x00\xe0\xa3\xf0H\xc0\x00\x00\x00@33\xfb\xbf'
p1277
tp1278
bsg1268
S'Cell[1].axon[90]'
p1279
sI81
I56
tp1280
a(F2.3054386742656843
S'Cell[0].dend[33] syn_ = new ExpSid(0.166666666667)'
p1281
I0
(dp1282
S'seg'
p1283
F0.16666666666666666
sS'hostfrom'
p1284
F35.0
sS'gid'
p1285
I83
sS'coords'
p1286
g7
(g8
(I0
tp1287
g10
tp1288
Rp1289
(I1
(I3
tp1290
g14
(S'f8'
p1291
I0
I1
tp1292
Rp1293
(I3
S'<'
p1294
NNNI-1
I-1
I0
tp1295
bI00
S'\xca\xaa|)\rO)@vn\xec\xdf\x9cVV\xc0\xfb\r\x11\xe2\x9e\xfa"@'
p1296
tp1297
bsS'secnames'
p1298
S'Cell[1].axon[53]'
p1299
sI83
I8
tp1300
a(F2.224228656349473
S'Cell[0].dend[29] syn_ = new ExpSid(0.5)'
p1301
I0
(dp1302
g1283
F0.1
sg1284
F35.0
sg1285
I83
sg1286
g7
(g8
(I0
tp1303
g10
tp1304
Rp1305
(I1
(I3
tp1306
g1293
I00
S'\x96\x8f\xd2<\xa7\x85L@<\x01\xd1\x8c\x1e\xafW\xc0\xfa\xe7SY\xc7\x9d)@'
p1307
tp1308
bsg1298
S'Cell[1].axon[143]'
p1309
sI83
I8
tp1310
a(F2.0532381768482373
S'Cell[0].dend[42] syn_ = new ExpSid(0.5)'
p1311
I0
(dp1312
g1283
F0.5
sg1284
F35.0
sg1285
I35
sg1286
g7
(g8
(I0
tp1313
g10
tp1314
Rp1315
(I1
(I3
tp1316
g1293
I00
S'u\xb5\x8c\x829\xf00@\xf7j\xf44\x99XQ\xc0\xa8\xdd\xee\x1b\xde~\xd7\xbf'
p1317
tp1318
bsg1298
S'Cell[0].axon[5]'
p1319
sI35
I8
tp1320
a(F1.7592012861641646
S'Cell[1].dend[0] syn_ = new ExpSid(0.5)'
p1321
I1
(dp1322
g1283
F0.5
sg1284
F35.0
sg1285
I179
sg1286
g7
(g8
(I0
tp1323
g10
tp1324
Rp1325
(I1
(I3
tp1326
g1293
I00
S'Z\x95\xcc\x19Z\xc8@\xc0\xb8\x92\x82QY\x98A\xc0\x00\x00\x00\x80\xeb\xd18\xc0'
p1327
tp1328
bsg1298
S'Cell[3].axon[175]'
p1329
sI179
I56
tp1330
a(F2.4803005513849476
S'Cell[0].apic[1] syn_ = new AmpaNmda(0.1)'
p1331
I0
(dp1332
S'seg'
p1333
F0.5
sS'hostfrom'
p1334
F36.0
sS'gid'
p1335
I132
sS'coords'
p1336
g7
(g8
(I0
tp1337
g10
tp1338
Rp1339
(I1
(I3
tp1340
g14
(S'f8'
p1341
I0
I1
tp1342
Rp1343
(I3
S'<'
p1344
NNNI-1
I-1
I0
tp1345
bI00
S'\x96\xd1\xc1\x10\xc5\x99D@F/\x16\xaf6~+@RV\x92.Q\xe7\x19@'
p1346
tp1347
bsS'secnames'
p1348
S'Cell[2].axon[162]'
p1349
sI132
I8
tp1350
a(F2.3453575176862764
S'Cell[3].dend[40] syn_ = new FastInhib(0.5)'
p1351
I3
g1332
I132
I152
tp1352
a(F2.4825413953523565
S'Cell[0].dend[20] syn_ = new AmpaNmda(0.5)'
p1353
I0
(dp1354
g1333
F0.11538461538461539
sg1334
F36.0
sg1335
I132
sg1336
g7
(g8
(I0
tp1355
g10
tp1356
Rp1357
(I1
(I3
tp1358
g1343
I00
S'\xbaM$^Q\xc1P@V\x83(X\x17\\T\xc0\x8a\xd2\xe9\x8e\x1f\x99%@'
p1359
tp1360
bsg1348
S'Cell[2].axon[171]'
p1361
sI132
I8
tp1362
a(F1.6186066698413415
S'Cell[1].dend[28] syn_ = new AmpaNmda(0.833333333333)'
p1363
I1
(dp1364
g1333
F0.7
sg1334
F36.0
sg1335
I180
sg1336
g7
(g8
(I0
tp1365
g10
tp1366
Rp1367
(I1
(I3
tp1368
g1343
I00
S'\x1bT\x1bR\\\xc5\t\xc04\xf5`\x17V](@\x00\x00\x00@\xe1\xcaT\xc0'
p1369
tp1370
bsg1348
S'Cell[3].axon[28]'
p1371
sI180
I56
tp1372
a(F2.432862376302161
S'Cell[0].dend[62] syn_ = new AmpaNmda(0.5)'
p1373
I0
(dp1374
g1333
F0.16666666666666666
sg1334
F36.0
sg1335
I180
sg1336
g7
(g8
(I0
tp1375
g10
tp1376
Rp1377
(I1
(I3
tp1378
g1343
I00
S'\x02 \x8e \xeah\x0e\xc0&J=\x8e\xd8\x1cM\xc0\x05\xb3T \x1d\\\xe7?'
p1379
tp1380
bsg1348
S'Cell[3].axon[72]'
p1381
sI180
I8
tp1382
a(F2.2752425620448498
S'Cell[3].dend[40] syn_ = new FastInhib(0.5)'
p1383
I3
(dp1384
g1333
F0.5
sg1334
F36.0
sg1335
I180
sg1336
g7
(g8
(I0
tp1385
g10
tp1386
Rp1387
(I1
(I3
tp1388
g1343
I00
S'*q\xfe\xdb\x95\xa4B@LM\xb4\xdd\x9c\xf4)@\x1a\xb7!\xf5\x99\xb5\x16@'
p1389
tp1390
bsg1348
S'Cell[3].axon[133]'
p1391
sI180
I152
tp1392
a(F2.0134578369605864
S'Cell[3].dend[14] syn_ = new FastInhib(0.3)'
p1393
I3
(dp1394
g1333
F0.16666666666666666
sg1334
F36.0
sg1335
I180
sg1336
g7
(g8
(I0
tp1395
g10
tp1396
Rp1397
(I1
(I3
tp1398
g1343
I00
S'\x12\xbb\x8d\xe4\xf5\x89N@\xec\x83"p\x91PG\xc0\xa6~rw\xaac<@'
p1399
tp1400
bsg1348
S'Cell[3].axon[320]'
p1401
sI180
I152
tp1402
a(F1.7815520559209803
S'Cell[0].dend[57] syn_ = new AmpaNmda(0.1)'
p1403
I0
(dp1404
g1333
F0.8333333333333333
sg1334
F36.0
sg1335
I36
sg1336
g7
(g8
(I0
tp1405
g10
tp1406
Rp1407
(I1
(I3
tp1408
g1343
I00
S'C!\x8e\x96xq4@\xba\x0b\xe6\x1eJe`\xc0!\x18<\x18\x90\x02\x13@'
p1409
tp1410
bsg1348
S'Cell[0].axon[0]'
p1411
sI36
I8
tp1412
a(F1.4194806738006827
S'Cell[0].dend[16] syn_ = new AmpaNmda(0.166666666667)'
p1413
I0
(dp1414
g1333
F0.14705882352941174
sg1334
F36.0
sg1335
I36
sg1336
g7
(g8
(I0
tp1415
g10
tp1416
Rp1417
(I1
(I3
tp1418
g1343
I00
S'\xe6!\xcd\x15\r\rP@\xd9\x1a\xfe1W+S\xc0|9=\x85\n\xf3&@'
p1419
tp1420
bsg1348
S'Cell[0].axon[14]'
p1421
sI36
I8
tp1422
a(F2.007285677105758
S'Cell[0].apic[23] syn_ = new ExpSid(0.5)'
p1423
I0
(dp1424
S'seg'
p1425
F0.16666666666666666
sS'hostfrom'
p1426
F37.0
sS'gid'
p1427
I133
sS'coords'
p1428
g7
(g8
(I0
tp1429
g10
tp1430
Rp1431
(I1
(I3
tp1432
g14
(S'f8'
p1433
I0
I1
tp1434
Rp1435
(I3
S'<'
p1436
NNNI-1
I-1
I0
tp1437
bI00
S'\xae\x81\xcaO\xa6MD@\x0b\x8b\xdbv\xae\x88X@\x00\x00\x00@\xe1\xfa(@'
p1438
tp1439
bsS'secnames'
p1440
S'Cell[2].axon[77]'
p1441
sI133
I8
tp1442
a(F2.3962355445995382
S'Cell[3].dend[59] syn_ = new FastInhib(0.3)'
p1443
I3
(dp1444
g1425
F0.16666666666666666
sg1426
F37.0
sg1427
I133
sg1428
g7
(g8
(I0
tp1445
g10
tp1446
Rp1447
(I1
(I3
tp1448
g1435
I00
S'\xee\x16\xc1thA.\xc0\x03\xc9O{\xf7\xfcS@\x10Fs\x99\x83\x18\n@'
p1449
tp1450
bsg1440
S'Cell[2].axon[109]'
p1451
sI133
I152
tp1452
a(F2.3035646063148403
S'Cell[3].dend[63] syn_ = new FastInhib(0.7)'
p1453
I3
(dp1454
g1425
F0.5
sg1426
F37.0
sg1427
I181
sg1428
g7
(g8
(I0
tp1455
g10
tp1456
Rp1457
(I1
(I3
tp1458
g1435
I00
S'\x88\xfaX?\xa4\xb5P@\n\x97W\xf1\x95\x0bc@\xbf\xa9\xdf\x9a\x94I%\xc0'
p1459
tp1460
bsg1440
S'Cell[3].axon[275]'
p1461
sI181
I152
tp1462
a(F2.345910744750167
S'Cell[0].apic[27] syn_ = new ExpSid(0.5)'
p1463
I0
(dp1464
g1425
F0.5
sg1426
F37.0
sg1427
I85
sg1428
g7
(g8
(I0
tp1465
g10
tp1466
Rp1467
(I1
(I3
tp1468
g1435
I00
S'\x00\x00\x00`\xf5\xe8^@\x00\x00\x00\x00\x00\x04`@\x00\x00\x00@\xe1:1@'
p1469
tp1470
bsg1440
S'Cell[1].axon[51]'
p1471
sI85
I8
tp1472
a(F2.436874523159977
S'Cell[1].dend[12] syn_ = new AmpaNmda(0.5)'
p1473
I1
(dp1474
S'seg'
p1475
F0.5
sS'hostfrom'
p1476
F38.0
sS'gid'
p1477
I182
sS'coords'
p1478
g7
(g8
(I0
tp1479
g10
tp1480
Rp1481
(I1
(I3
tp1482
g14
(S'f8'
p1483
I0
I1
tp1484
Rp1485
(I3
S'<'
p1486
NNNI-1
I-1
I0
tp1487
bI00
S'7\x9d\xf5\x06\xff{@\xc0#N\x93R\xbf\xacC\xc0\x00\x00\x00 \x85\x8bB\xc0'
p1488
tp1489
bsS'secnames'
p1490
S'Cell[3].axon[33]'
p1491
sI182
I56
tp1492
a(F1.3299218604775247
S'Cell[2].dend[11] syn_ = new FastInhib(0.3)'
p1493
I2
(dp1494
g1475
F0.13636363636363635
sg1476
F38.0
sg1477
I182
sg1478
g7
(g8
(I0
tp1495
g10
tp1496
Rp1497
(I1
(I3
tp1498
g1485
I00
S'\x8ccv\xbf4\xa1R\xc0%\xb4\xe8|\x00"Q@\xd2\xa1}\xa7\xd9\xa8 \xc0'
p1499
tp1500
bsg1490
S'Cell[3].axon[143]'
p1501
sI182
I104
tp1502
a(F2.073713246926091
S'Cell[3].dend[56] syn_ = new FastInhib(0.3)'
p1503
I3
(dp1504
g1475
F0.30000000000000004
sg1476
F38.0
sg1477
I182
sg1478
g7
(g8
(I0
tp1505
g10
tp1506
Rp1507
(I1
(I3
tp1508
g1485
I00
S'\xf8\xf6q\x19H\xd8\x14@\xce\x12\xc1\xfb9~S@\x14\x0b\xd2\xed6< @'
p1509
tp1510
bsg1490
S'Cell[3].axon[303]'
p1511
sI182
I152
tp1512
a(F1.123428433139982
S'Cell[0].dend[7] syn_ = new AmpaNmda(0.5)'
p1513
I0
(dp1514
g1475
F0.5
sg1476
F38.0
sg1477
I38
sg1478
g7
(g8
(I0
tp1515
g10
tp1516
Rp1517
(I1
(I3
tp1518
g1485
I00
S"\x1a^-\xb4\x1b\xe7I@}\xe9,\x96}\xc3B\xc0\x08g\xa0\xbd\xf9.'@"
p1519
tp1520
bsg1490
S'Cell[0].axon[1]'
p1521
sI38
I8
tp1522
a(F1.170098054543212
S'Cell[0].apic[1] syn_ = new ExpSid(0.1)'
p1523
I0
(dp1524
S'seg'
p1525
F0.5
sS'hostfrom'
p1526
F39.0
sS'gid'
p1527
I87
sS'coords'
p1528
g7
(g8
(I0
tp1529
g10
tp1530
Rp1531
(I1
(I3
tp1532
g14
(S'f8'
p1533
I0
I1
tp1534
Rp1535
(I3
S'<'
p1536
NNNI-1
I-1
I0
tp1537
bI00
S'\x00\x00\x00\xc0\xf5\xf8D@\x00\x00\x00@\n\xd7+@\x00\x00\x00 \x85\xeb#@'
p1538
tp1539
bsS'secnames'
p1540
S'Cell[1].axon[81]'
p1541
sI87
I8
tp1542
a(F2.446526545086213
S'Cell[3].dend[61] syn_ = new FastInhib(0.5)'
p1543
I3
(dp1544
g1525
F0.8333333333333333
sg1526
F39.0
sg1527
I87
sg1528
g7
(g8
(I0
tp1545
g10
tp1546
Rp1547
(I1
(I3
tp1548
g1535
I00
S'K\x13\x12\x07\xf4|N@f\xb4\xac\xa7#\xc5J@\x82\xe8$G\x87\xe8\x1b@'
p1549
tp1550
bsg1540
S'Cell[1].axon[86]'
p1551
sI87
I152
tp1552
a(F1.255317261619828
S'Cell[3].dend[34] syn_ = new FastInhib(0.3)'
p1553
I3
(dp1554
g1525
F0.1
sg1526
F39.0
sg1527
I87
sg1528
g7
(g8
(I0
tp1555
g10
tp1556
Rp1557
(I1
(I3
tp1558
g1535
I00
S'\xa21\x13\x92J9\x17\xc0\xba\xf3\x9e]2H*@\x00\x00\x00\x00\xd7c0\xc0'
p1559
tp1560
bsg1540
S'Cell[1].axon[106]'
p1561
sI87
I152
tp1562
a(F1.4167782882117792
S'Cell[3].dend[56] syn_ = new FastInhib(0.1)'
p1563
I3
(dp1564
g1525
F0.5
sg1526
F39.0
sg1527
I183
sg1528
g7
(g8
(I0
tp1565
g10
tp1566
Rp1567
(I1
(I3
tp1568
g1535
I00
S'\x8f\xb4L\xd4z\x16+@\x98\x8a\xcf\x9azqO@\xb2\xcf~\xf8<\xd0"@'
p1569
tp1570
bsg1540
S'Cell[3].axon[189]'
p1571
sI183
I152
tp1572
a(F1.4294706877715906
S'Cell[3].dend[48] syn_ = new FastInhib(0.833333333333)'
p1573
I3
(dp1574
S'seg'
p1575
F0.5
sS'hostfrom'
p1576
F40.0
sS'gid'
p1577
I88
sS'coords'
p1578
g7
(g8
(I0
tp1579
g10
tp1580
Rp1581
(I1
(I3
tp1582
g14
(S'f8'
p1583
I0
I1
tp1584
Rp1585
(I3
S'<'
p1586
NNNI-1
I-1
I0
tp1587
bI00
S'l!\x7f\xf2\xac\x01\x07@T\xfb6\xda\x92\x17[@\x9e5A\xf4\xf944\xc0'
p1588
tp1589
bsS'secnames'
p1590
S'Cell[1].axon[71]'
p1591
sI88
I152
tp1592
a(F2.3493229512018274
S'Cell[0].dend[65] syn_ = new AmpaNmda(0.5)'
p1593
I0
(dp1594
g1575
F0.16666666666666666
sg1576
F40.0
sg1577
I88
sg1578
g7
(g8
(I0
tp1595
g10
tp1596
Rp1597
(I1
(I3
tp1598
g1585
I00
S'\x00\x00\x00\x80\xf7(2\xc0\x8a\xda\xdb^\xf0\xe3O\xc0jo4\xf0}t\xda?'
p1599
tp1600
bsg1590
S'Cell[1].axon[77]'
p1601
sI88
I8
tp1602
a(F1.7314132880328779
S'Cell[0].dend[3] syn_ = new AmpaNmda(0.5)'
p1603
I0
(dp1604
g1575
F0.5
sg1576
F40.0
sg1577
I88
sg1578
g7
(g8
(I0
tp1605
g10
tp1606
Rp1607
(I1
(I3
tp1608
g1585
I00
S'\xc6H\xe3\x8c\xa7\xef@@\xa1\x8a\x85\xc1Z\xc1I\xc0\x86\xa4A,\x1e\x9e#@'
p1609
tp1610
bsg1590
S'Cell[1].axon[340]'
p1611
sI88
I8
tp1612
a(F2.022451250110451
S'Cell[2].dend[5] syn_ = new FastInhib(0.5)'
p1613
I2
(dp1614
g1575
F0.1
sg1576
F40.0
sg1577
I184
sg1578
g7
(g8
(I0
tp1615
g10
tp1616
Rp1617
(I1
(I3
tp1618
g1585
I00
S'i\x95u\xd0\xae\'O@\x04\xccE"q}U@\xf6\x86Jw&<0\xc0'
p1619
tp1620
bsg1590
S'Cell[3].axon[111]'
p1621
sI184
I104
tp1622
a(F2.429597426342606
S'Cell[2].dend[11] syn_ = new FastInhib(0.1)'
p1623
I2
(dp1624
S'seg'
p1625
F0.16666666666666666
sS'hostfrom'
p1626
F41.0
sS'gid'
p1627
I185
sS'coords'
p1628
g7
(g8
(I0
tp1629
g10
tp1630
Rp1631
(I1
(I3
tp1632
g14
(S'f8'
p1633
I0
I1
tp1634
Rp1635
(I3
S'<'
p1636
NNNI-1
I-1
I0
tp1637
bI00
S'9\x11\xff\xba\xf1xH\xc0\x10\x1fgt\xed9L@\x00\x00\x00`\x8f\xc2\xc5?'
p1638
tp1639
bsS'secnames'
p1640
S'Cell[3].axon[86]'
p1641
sI185
I104
tp1642
a(F2.4527851025922662
S'Cell[2].dend[6] syn_ = new FastInhib(0.1)'
p1643
I2
(dp1644
g1625
F0.16666666666666666
sg1626
F41.0
sg1627
I185
sg1628
g7
(g8
(I0
tp1645
g10
tp1646
Rp1647
(I1
(I3
tp1648
g1635
I00
S'\xb5\xfa\xca\x98\xb5\xc5$\xc0b\xfc\xff~^\xb6)@, \x8b\x04\x9bu0\xc0'
p1649
tp1650
bsg1640
S'Cell[3].axon[89]'
p1651
sI185
I104
tp1652
a(F1.7244544055102913
S'Cell[2].dend[24] syn_ = new FastInhib(0.5)'
p1653
I2
(dp1654
g1625
F0.5
sg1626
F41.0
sg1627
I185
sg1628
g7
(g8
(I0
tp1655
g10
tp1656
Rp1657
(I1
(I3
tp1658
g1635
I00
S"x\x90\x98\x0cRJ8\xc0\xaf\x06IA\xc3\x08q\xc0\x00\x00\x00\xa0p\xbd'\xc0"
p1659
tp1660
bsg1640
S'Cell[3].axon[244]'
p1661
sI185
I104
tp1662
a(F2.051664908350046
S'Cell[2].dend[5] syn_ = new FastInhib(0.5)'
p1663
I2
(dp1664
g1625
F0.10869565217391304
sg1626
F41.0
sg1627
I185
sg1628
g7
(g8
(I0
tp1665
g10
tp1666
Rp1667
(I1
(I3
tp1668
g1635
I00
S'\x96\xcf\x14O\xa0\xb7M@\xec\x0f\x08\xcdt\xaeU@\x00\x00\x00\x00\x00\x801\xc0'
p1669
tp1670
bsg1640
S'Cell[3].axon[276]'
p1671
sI185
I104
tp1672
a(F2.4970390390372597
S'Cell[3].dend[48] syn_ = new FastInhib(0.166666666667)'
p1673
I3
(dp1674
g1625
F0.7
sg1626
F41.0
sg1627
I185
sg1628
g7
(g8
(I0
tp1675
g10
tp1676
Rp1677
(I1
(I3
tp1678
g1635
I00
S"uk\x85':f2@\xefEc>\x80\xddO@\xcf\xfenF\xb3\xe2\x1e\xc0"
p1679
tp1680
bsg1640
S'Cell[3].axon[281]'
p1681
sI185
I152
tp1682
a(F2.1884044659530213
S'Cell[0].dend[77] syn_ = new ExpSid(0.5)'
p1683
I0
(dp1684
g1625
F0.16666666666666666
sg1626
F41.0
sg1627
I185
sg1628
g7
(g8
(I0
tp1685
g10
tp1686
Rp1687
(I1
(I3
tp1688
g1635
I00
S'\x84%N\x89z\xbf0\xc0<c\xb7\x8c\x84\xd85\xc0\x1f\xe5\xea\xc4e\xd5(@'
p1689
tp1690
bsg1640
S'Cell[3].axon[290]'
p1691
sI185
I8
tp1692
a(F2.2272690052497697
S'Cell[2].dend[23] syn_ = new FastInhib(0.5)'
p1693
I2
(dp1694
g1625
F0.7105263157894735
sg1626
F41.0
sg1627
I89
sg1628
g7
(g8
(I0
tp1695
g10
tp1696
Rp1697
(I1
(I3
tp1698
g1635
I00
S'e\x97\xb8\xe4\xe2\xc1I\xc0\xcc)\x06\xc9\xc6\xa5p\xc0`\xd1\xc5\x879<\x1d\xc0'
p1699
tp1700
bsg1640
S'Cell[1].axon[184]'
p1701
sI89
I104
tp1702
a(F2.1854631465720207
S'Cell[1].dend[23] syn_ = new AmpaNmda(0.166666666667)'
p1703
I1
(dp1704
S'seg'
p1705
F0.16666666666666666
sS'hostfrom'
p1706
F42.0
sS'gid'
p1707
I90
sS'coords'
p1708
g7
(g8
(I0
tp1709
g10
tp1710
Rp1711
(I1
(I3
tp1712
g14
(S'f8'
p1713
I0
I1
tp1714
Rp1715
(I3
S'<'
p1716
NNNI-1
I-1
I0
tp1717
bI00
S'ZHEA\xfdm6\xc0Y\x01\x97\x87\x08LG\xc0\xaeG\x05\x9d\xcd\xe3)@'
p1718
tp1719
bsS'secnames'
p1720
S'Cell[1].axon[23]'
p1721
sI90
I56
tp1722
a(F2.3276513538186867
S'Cell[1].dend[23] syn_ = new AmpaNmda(0.166666666667)'
p1723
I1
(dp1724
g1705
F0.9285714285714284
sg1706
F42.0
sg1707
I90
sg1708
g7
(g8
(I0
tp1725
g10
tp1726
Rp1727
(I1
(I3
tp1728
g1715
I00
S'\xb2\xf5GQ\xf5J6\xc0\xb9E\xd6\xc0\xf8\xa2F\xc0\xde\xe6\xc8>\xa7q,@'
p1729
tp1730
bsg1720
S'Cell[1].axon[146]'
p1731
sI90
I56
tp1732
a(F1.4882035714076074
S'Cell[0].dend[85] syn_ = new AmpaNmda(0.166666666667)'
p1733
I0
(dp1734
g1705
F0.1
sg1706
F42.0
sg1707
I90
sg1708
g7
(g8
(I0
tp1735
g10
tp1736
Rp1737
(I1
(I3
tp1738
g1715
I00
S'\xe7\r\t`y\xb8 \xc0\xef\xaf\x92\xf1\x14&K\xc0\x96:w\xb6\x15\xb50@'
p1739
tp1740
bsg1720
S'Cell[1].axon[147]'
p1741
sI90
I8
tp1742
a(F2.1402847390358803
S'Cell[2].dend[16] syn_ = new FastInhib(0.5)'
p1743
I2
(dp1744
g1705
F0.8333333333333333
sg1706
F42.0
sg1707
I138
sg1708
g7
(g8
(I0
tp1745
g10
tp1746
Rp1747
(I1
(I3
tp1748
g1715
I00
S'\x00\x00\x00\xe0z\x14*\xc0\xab\xaa\xaa\xaa\rd@\xc0TUUU\xa7\x8d\x13@'
p1749
tp1750
bsg1720
S'Cell[2].axon[70]'
p1751
sI138
I104
tp1752
a(F2.417366827665388
S'Cell[0].apic[25] syn_ = new AmpaNmda(0.5)'
p1753
I0
(dp1754
g1705
F0.16666666666666666
sg1706
F42.0
sg1707
I138
sg1708
g7
(g8
(I0
tp1755
g10
tp1756
Rp1757
(I1
(I3
tp1758
g1715
I00
S'\xc1\xcc\xa2e\x99\xcbE@\x80\xcb\xa8\xed;\xceZ@\xe6E\x9b\xc2\x1bT2@'
p1759
tp1760
bsg1720
S'Cell[2].axon[98]'
p1761
sI138
I8
tp1762
a(F2.198140418197615
S'Cell[3].dend[59] syn_ = new FastInhib(0.3)'
p1763
I3
(dp1764
g1705
F0.5
sg1706
F42.0
sg1707
I138
sg1708
g7
(g8
(I0
tp1765
g10
tp1766
Rp1767
(I1
(I3
tp1768
g1715
I00
S'^\xf1\xc0\xeeg\xf1/\xc0z?\xb5\xde\x105S@\xceRJv\xf4\x80\xff?'
p1769
tp1770
bsg1720
S'Cell[2].axon[102]'
p1771
sI138
I152
tp1772
a(F2.4291956407632926
S'Cell[1].dend[20] syn_ = new ExpSid(0.5)'
p1773
I1
(dp1774
S'seg'
p1775
F0.5
sS'hostfrom'
p1776
F43.0
sS'gid'
p1777
I187
sS'coords'
p1778
g7
(g8
(I0
tp1779
g10
tp1780
Rp1781
(I1
(I3
tp1782
g14
(S'f8'
p1783
I0
I1
tp1784
Rp1785
(I3
S'<'
p1786
NNNI-1
I-1
I0
tp1787
bI00
S'[\xa3G\x0f\xa0\xed\x15@M\xc0*\x84\x11\t`\xc0\xd4\xe4\xe6\xc1\xc0&L\xc0'
p1788
tp1789
bsS'secnames'
p1790
S'Cell[3].axon[42]'
p1791
sI187
I56
tp1792
a(F1.8936785413904835
S'Cell[3].dend[62] syn_ = new FastInhib(0.5)'
p1793
I3
(dp1794
g1775
F0.5
sg1776
F43.0
sg1777
I187
sg1778
g7
(g8
(I0
tp1795
g10
tp1796
Rp1797
(I1
(I3
tp1798
g1785
I00
S'B\xb6\xa9\xb5\\@Y@\x10I1\xbc\x99\xd6R@.\xc1(\xa7.\xb7<\xc0'
p1799
tp1800
bsg1790
S'Cell[3].axon[87]'
p1801
sI187
I152
tp1802
a(F1.2950279130985036
S'Cell[0].dend[10] syn_ = new AmpaNmda(0.3)'
p1803
I0
(dp1804
S'seg'
p1805
F0.7
sS'hostfrom'
p1806
F44.0
sS'gid'
p1807
I92
sS'coords'
p1808
g7
(g8
(I0
tp1809
g10
tp1810
Rp1811
(I1
(I3
tp1812
g14
(S'f8'
p1813
I0
I1
tp1814
Rp1815
(I3
S'<'
p1816
NNNI-1
I-1
I0
tp1817
bI00
S"W\tJn\xc5\xeeO@b{G\x86#\x11U\xc0|,\x1a'`%+@"
p1818
tp1819
bsS'secnames'
p1820
S'Cell[1].axon[26]'
p1821
sI92
I8
tp1822
a(F0.7792999983693848
S'Cell[0].dend[50] syn_ = new AmpaNmda(0.9)'
p1823
I0
(dp1824
g1805
F0.5
sg1806
F44.0
sg1807
I92
sg1808
g7
(g8
(I0
tp1825
g10
tp1826
Rp1827
(I1
(I3
tp1828
g1815
I00
S'\xfa\xab\xfb\xa9\xad?e@\x16\x99\x1b7"Q_\xc0\xad\xdd"\x80\xd9\xe4!@'
p1829
tp1830
bsg1820
S'Cell[1].axon[61]'
p1831
sI92
I8
tp1832
a(F2.345821394215879
S'Cell[1].dend[22] syn_ = new AmpaNmda(0.833333333333)'
p1833
I1
(dp1834
g1805
F0.5
sg1806
F44.0
sg1807
I92
sg1808
g7
(g8
(I0
tp1835
g10
tp1836
Rp1837
(I1
(I3
tp1838
g1815
I00
S'\xdfrG\xad\xad|4\xc0dJ\x0e\xa8q%R\xc0\xc1\x01\x81_-\xe34@'
p1839
tp1840
bsg1820
S'Cell[1].axon[119]'
p1841
sI92
I56
tp1842
a(F1.7521517013296855
S'Cell[0].dend[73] syn_ = new AmpaNmda(0.5)'
p1843
I0
(dp1844
g1805
F0.49999999999999994
sg1806
F44.0
sg1807
I188
sg1808
g7
(g8
(I0
tp1845
g10
tp1846
Rp1847
(I1
(I3
tp1848
g1815
I00
S'W/t,3:%\xc0\x00\xfe3<8\xc9D\xc0G\x07\xb8\xe3\x7fE2@'
p1849
tp1850
bsg1820
S'Cell[3].axon[21]'
p1851
sI188
I8
tp1852
a(F1.776377548761751
S'Cell[2].dend[22] syn_ = new FastInhib(0.166666666667)'
p1853
I2
(dp1854
g1805
F0.5
sg1806
F44.0
sg1807
I188
sg1808
g7
(g8
(I0
tp1855
g10
tp1856
Rp1857
(I1
(I3
tp1858
g1815
I00
S'\xc5\xb2\ne\xed\x8cD\xc0\xaf(\xd3\xb7\xd8tQ\xc0\x13\xc1\x939\xbb\x1f\x06@'
p1859
tp1860
bsg1820
S'Cell[3].axon[39]'
p1861
sI188
I104
tp1862
a(F1.750803696774684
S'Cell[0].apic[9] syn_ = new AmpaNmda(0.5)'
p1863
I0
(dp1864
g1805
F0.8333333333333333
sg1806
F44.0
sg1807
I188
sg1808
g7
(g8
(I0
tp1865
g10
tp1866
Rp1867
(I1
(I3
tp1868
g1815
I00
S'\x0f\xbep\xbf>E\x18@\xb4\x8556y\xcfE@\xef\x9d(\xc8\xcd\xc2\xf2?'
p1869
tp1870
bsg1820
S'Cell[3].axon[46]'
p1871
sI188
I8
tp1872
a(F2.350799300891574
S'Cell[0].dend[65] syn_ = new AmpaNmda(0.5)'
p1873
I0
(dp1874
g1805
F0.5
sg1806
F44.0
sg1807
I44
sg1808
g7
(g8
(I0
tp1875
g10
tp1876
Rp1877
(I1
(I3
tp1878
g1815
I00
S'Z\xce\xfd\xb2\xd6F4\xc0\x1a{\x1c\x86\x91pN\xc0\xdb\x9c{\xdb3\xe3\xf1\xbf'
p1879
tp1880
bsg1820
S'Cell[0].axon[1]'
p1881
sI44
I8
tp1882
a(F2.476671706263256
S'Cell[2].dend[1] syn_ = new FastInhib(0.166666666667)'
p1883
I2
(dp1884
g1805
F0.05555555555555555
sg1806
F44.0
sg1807
I44
sg1808
g7
(g8
(I0
tp1885
g10
tp1886
Rp1887
(I1
(I3
tp1888
g1815
I00
S'\x99\xa3G\xf2\xbaf)\xc0\xb9\x80\xabJe>7@p\xaa\x8a\x0f\xdeE!\xc0'
p1889
tp1890
bsg1820
S'Cell[0].axon[18]'
p1891
sI44
I104
tp1892
a(F1.6582990980933439
S'Cell[1].apic[3] syn_ = new ExpSid(0.1)'
p1893
I1
(dp1894
S'seg'
p1895
F0.5
sS'hostfrom'
p1896
F45.0
sS'gid'
p1897
I141
sS'coords'
p1898
g7
(g8
(I0
tp1899
g10
tp1900
Rp1901
(I1
(I3
tp1902
g14
(S'f8'
p1903
I0
I1
tp1904
Rp1905
(I3
S'<'
p1906
NNNI-1
I-1
I0
tp1907
bI00
S'\xf1\xc6\x11\xd1\x7f\x99J\xc0\xccyf\xd8\x0e.\x15\xc0\x00\x00\x00\x00\x00\x80A\xc0'
p1908
tp1909
bsS'secnames'
p1910
S'Cell[2].axon[16]'
p1911
sI141
I56
tp1912
a(F2.3932086965358352
S'Cell[3].dend[34] syn_ = new FastInhib(0.5)'
p1913
I3
(dp1914
g1895
F0.8333333333333333
sg1896
F45.0
sg1897
I141
sg1898
g7
(g8
(I0
tp1915
g10
tp1916
Rp1917
(I1
(I3
tp1918
g1905
I00
S'.\x93md\xeb\xaa1\xc0\xc6\x07#\x0b\xe5\x97$@\x00\x00\x00 \xaeG1\xc0'
p1919
tp1920
bsg1910
S'Cell[2].axon[75]'
p1921
sI141
I152
tp1922
a(F1.5168284132635235
S'Cell[3].dend[13] syn_ = new FastInhib(0.833333333333)'
p1923
I3
(dp1924
g1895
F0.9285714285714284
sg1896
F45.0
sg1897
I141
sg1898
g7
(g8
(I0
tp1925
g10
tp1926
Rp1927
(I1
(I3
tp1928
g1905
I00
S'l\xfc\xa6> \xe6Q@\x02\x10 \xa0\xfe\xd9P\xc0\x9c@o"\x87\x892@'
p1929
tp1930
bsg1910
S'Cell[2].axon[147]'
p1931
sI141
I152
tp1932
a(F1.4776833802574152
S'Cell[0].dend[29] syn_ = new ExpSid(0.5)'
p1933
I0
(dp1934
g1895
F0.5
sg1896
F45.0
sg1897
I141
sg1898
g7
(g8
(I0
tp1935
g10
tp1936
Rp1937
(I1
(I3
tp1938
g1905
I00
S'\x98T\xadj<yM@cL\xd2\x90\xffUW\xc0u<D\x9d\xc2c.@'
p1939
tp1940
bsg1910
S'Cell[2].axon[179]'
p1941
sI141
I8
tp1942
a(F2.2201439999994066
S'Cell[2].dend[6] syn_ = new FastInhib(0.3)'
p1943
I2
(dp1944
g1895
F0.5
sg1896
F45.0
sg1897
I141
sg1898
g7
(g8
(I0
tp1945
g10
tp1946
Rp1947
(I1
(I3
tp1948
g1905
I00
S'[|\x9e\xf8;\xa5\x08\xc0PB}\xd2\xe4K\x01\xc0\xc1o\x01\xc38\xb1B\xc0'
p1949
tp1950
bsg1910
S'Cell[2].axon[210]'
p1951
sI141
I104
tp1952
a(F2.288486823603947
S'Cell[3].dend[13] syn_ = new FastInhib(0.833333333333)'
p1953
I3
(dp1954
g1895
F0.5
sg1896
F45.0
sg1897
I141
sg1898
g7
(g8
(I0
tp1955
g10
tp1956
Rp1957
(I1
(I3
tp1958
g1905
I00
S'\x00\x00\x00p=\xb2Q@\x00\x00\x00\xe0\xa3PQ\xc0\x00\x00\x00\x80\xc2\x954@'
p1959
tp1960
bsg1910
S'Cell[2].axon[481]'
p1961
sI141
I152
tp1962
a(F2.0881880172341853
S'Cell[3].dend[19] syn_ = new FastInhib(0.5)'
p1963
I3
(dp1964
S'seg'
p1965
F0.5
sS'hostfrom'
p1966
F46.0
sS'gid'
p1967
I94
sS'coords'
p1968
g7
(g8
(I0
tp1969
g10
tp1970
Rp1971
(I1
(I3
tp1972
g14
(S'f8'
p1973
I0
I1
tp1974
Rp1975
(I3
S'<'
p1976
NNNI-1
I-1
I0
tp1977
bI00
S'\x16\xb2x\x81z\xf2K@f5\xc1\x82\x7f\x138@\x1c\xb9t4\xb9!/@'
p1978
tp1979
bsS'secnames'
p1980
S'Cell[1].axon[186]'
p1981
sI94
I152
tp1982
a(F2.417581012879744
S'Cell[2].dend[2] syn_ = new FastInhib(0.357142857143)'
p1983
I2
(dp1984
S'seg'
p1985
F0.5
sS'hostfrom'
p1986
F47.0
sS'gid'
p1987
I95
sS'coords'
p1988
g7
(g8
(I0
tp1989
g10
tp1990
Rp1991
(I1
(I3
tp1992
g14
(S'f8'
p1993
I0
I1
tp1994
Rp1995
(I3
S'<'
p1996
NNNI-1
I-1
I0
tp1997
bI00
S'jV\xb6\xbe\x9c`G@T\xe7\xd0\xb5\xe2\xf4J@`\x1eR\xc1\xbb]$\xc0'
p1998
tp1999
bsS'secnames'
p2000
S'Cell[1].axon[175]'
p2001
sI95
I104
tp2002
a(F2.338812347502825
S'Cell[0].apic[19] syn_ = new ExpSid(0.5)'
p2003
I0
(dp2004
g1985
F0.16666666666666666
sg1986
F47.0
sg1987
I95
sg1988
g7
(g8
(I0
tp2005
g10
tp2006
Rp2007
(I1
(I3
tp2008
g1995
I00
S'\xce\xe0\xe4f\x9b\x940@\x170`\x820\x06Y@\x00\x00\x00\xc0\x1e\x85#@'
p2009
tp2010
bsg2000
S'Cell[1].axon[186]'
p2011
sI95
I8
tp2012
a(F1.8144423696082486
S'Cell[3].dend[7] syn_ = new FastInhib(0.5)'
p2013
I3
(dp2014
g1985
F0.5
sg1986
F47.0
sg1987
I143
sg1988
g7
(g8
(I0
tp2015
g10
tp2016
Rp2017
(I1
(I3
tp2018
g1995
I00
S',x\x9a\x02\xef\xb8F\xc0\x82\x87\x17h\x9cpB\xc0\x9d\xf8\x12\x8b \xc7\x11\xc0'
p2019
tp2020
bsg2000
S'Cell[2].axon[77]'
p2021
sI143
I152
tp2022
a(F1.0975281138528146
S'Cell[3].dend[62] syn_ = new FastInhib(0.1)'
p2023
I3
(dp2024
g1985
F0.07142857142857142
sg1986
F47.0
sg1987
I143
sg1988
g7
(g8
(I0
tp2025
g10
tp2026
Rp2027
(I1
(I3
tp2028
g1995
I00
S'\xc7n\xe0`;\xb3Q@\xcb2\xf1\x8a\x1fDN@\x00\x00\x00\xe0\xa3p\x07@'
p2029
tp2030
bsg2000
S'Cell[2].axon[178]'
p2031
sI143
I152
tp2032
a(F2.061826132845514
S'Cell[0].apic[31] syn_ = new ExpSid(0.5)'
p2033
I0
(dp2034
g1985
F0.16666666666666666
sg1986
F47.0
sg1987
I143
sg1988
g7
(g8
(I0
tp2035
g10
tp2036
Rp2037
(I1
(I3
tp2038
g1995
I00
S'\xd7\xef#\nYDA@_\x95!\xef,\xb1a@\x0e\xdd[\x1a\xdc\x91&@'
p2039
tp2040
bsg2000
S'Cell[2].axon[209]'
p2041
sI143
I8
tp2042
a.