(lp0
(F1.5977641325601408
S'Cell[3].dend[44] syn_ = new FastInhib(0.5)'
p1
I3
(dp2
S'seg'
p3
F0.8333333333333333
sS'hostfrom'
p4
F1.0
sS'gid'
p5
I97
sS'coords'
p6
cnumpy.core.multiarray
_reconstruct
p7
(cnumpy
ndarray
p8
(I0
tp9
S'b'
p10
tp11
Rp12
(I1
(I3
tp13
cnumpy
dtype
p14
(S'f8'
p15
I0
I1
tp16
Rp17
(I3
S'<'
p18
NNNI-1
I-1
I0
tp19
bI00
S'\x0c\xf6e\xd9\x1e\xbc(@\xc5S5\xf1\xc6\x14G\xc0\x1f\xa4\x11W\xfa\xad\x1d\xc0'
p20
tp21
bsS'secnames'
p22
S'Cell[2].axon[27]'
p23
sI97
I166
tp24
a(F2.312435252312193
S'Cell[3].dend[76] syn_ = new FastInhib(0.166666666667)'
p25
I3
(dp26
g3
F0.1
sg4
F1.0
sg5
I97
sg6
g7
(g8
(I0
tp27
g10
tp28
Rp29
(I1
(I3
tp30
g17
I00
S'\x1b\xe6\x99\xfa\x0e\xe34@4IU\x96J\x88\x14\xc0a}\x19\x92\xb1W\x1d\xc0'
p31
tp32
bsg22
S'Cell[2].axon[70]'
p33
sI97
I166
tp34
a(F2.181529303082648
S'Cell[1].dend[26] syn_ = new AmpaNmda(0.166666666667)'
p35
I1
(dp36
S'seg'
p37
F0.5
sS'hostfrom'
p38
F2.0
sS'gid'
p39
I98
sS'coords'
p40
g7
(g8
(I0
tp41
g10
tp42
Rp43
(I1
(I3
tp44
g14
(S'f8'
p45
I0
I1
tp46
Rp47
(I3
S'<'
p48
NNNI-1
I-1
I0
tp49
bI00
S'\xa3\x85\xf2K\xe9\xcd!@\xcfM"*\xe1\xffE@\x00\x00\x00\x80\x14\xae\x1b@'
p50
tp51
bsS'secnames'
p52
S'Cell[2].axon[4]'
p53
sI98
I70
tp54
a(F2.424905264522228
S'Cell[3].dend[67] syn_ = new FastInhib(0.5)'
p55
I3
(dp56
g37
F0.8333333333333333
sg38
F2.0
sg39
I98
sg40
g7
(g8
(I0
tp57
g10
tp58
Rp59
(I1
(I3
tp60
g47
I00
S'\xc83-\xa4\xaec[@\x88Db\x12\xeb\xa6P@\rD\x1a[\x94\xdaL\xc0'
p61
tp62
bsg52
S'Cell[2].axon[177]'
p63
sI98
I166
tp64
a(F1.8481027754456025
S'Cell[2].dend[48] syn_ = new FastInhib(0.5)'
p65
I2
(dp66
g37
F0.5
sg38
F2.0
sg39
I98
sg40
g7
(g8
(I0
tp67
g10
tp68
Rp69
(I1
(I3
tp70
g47
I00
S"\x00\x00\x00\x00\xd7\x13T@\x00\x00\x00p\x14\xee/@\x00\x00\x00p=J'\xc0"
p71
tp72
bsg52
S'Cell[2].axon[185]'
p73
sI98
I118
tp74
a(F1.763182188646567
S'Cell[1].dend[5] syn_ = new AmpaNmda(0.833333333333)'
p75
I1
(dp76
g37
F0.16666666666666666
sg38
F2.0
sg39
I146
sg40
g7
(g8
(I0
tp77
g10
tp78
Rp79
(I1
(I3
tp80
g47
I00
S'\x90\xaa\xb6\x88\xd1\xa5W\xc0.\x86\x9d\xfb\xee\x90O@\x11\xb3u%\xcd\xc3\x1a\xc0'
p81
tp82
bsg52
S'Cell[3].axon[246]'
p83
sI146
I70
tp84
a(F2.181529303082648
S'Cell[1].dend[26] syn_ = new ExpSid(0.166666666667)'
p85
I1
(dp86
S'seg'
p87
F0.5
sS'hostfrom'
p88
F3.0
sS'gid'
p89
I99
sS'coords'
p90
g7
(g8
(I0
tp91
g10
tp92
Rp93
(I1
(I3
tp94
g14
(S'f8'
p95
I0
I1
tp96
Rp97
(I3
S'<'
p98
NNNI-1
I-1
I0
tp99
bI00
S'\xa3\x85\xf2K\xe9\xcd!@\xcfM"*\xe1\xffE@\x00\x00\x00\x80\x14\xae\x1b@'
p100
tp101
bsS'secnames'
p102
S'Cell[2].axon[4]'
p103
sI99
I70
tp104
a(F2.424905264522228
S'Cell[3].dend[67] syn_ = new FastInhib(0.5)'
p105
I3
(dp106
g87
F0.8333333333333333
sg88
F3.0
sg89
I99
sg90
g7
(g8
(I0
tp107
g10
tp108
Rp109
(I1
(I3
tp110
g97
I00
S'\xc83-\xa4\xaec[@\x88Db\x12\xeb\xa6P@\rD\x1a[\x94\xdaL\xc0'
p111
tp112
bsg102
S'Cell[2].axon[177]'
p113
sI99
I166
tp114
a(F1.8481027754456025
S'Cell[2].dend[48] syn_ = new FastInhib(0.5)'
p115
I2
(dp116
g87
F0.5
sg88
F3.0
sg89
I99
sg90
g7
(g8
(I0
tp117
g10
tp118
Rp119
(I1
(I3
tp120
g97
I00
S"\x00\x00\x00\x00\xd7\x13T@\x00\x00\x00p\x14\xee/@\x00\x00\x00p=J'\xc0"
p121
tp122
bsg102
S'Cell[2].axon[185]'
p123
sI99
I118
tp124
a(F1.8926892521922443
S'Cell[3].dend[22] syn_ = new FastInhib(0.9)'
p125
I3
(dp126
S'seg'
p127
F0.7
sS'hostfrom'
p128
F4.0
sS'gid'
p129
I148
sS'coords'
p130
g7
(g8
(I0
tp131
g10
tp132
Rp133
(I1
(I3
tp134
g14
(S'f8'
p135
I0
I1
tp136
Rp137
(I3
S'<'
p138
NNNI-1
I-1
I0
tp139
bI00
S'\xba (\x7f\xff\x1c[@~1b\xc0\xd8\x0b\xf3\xbfX@\r\xe0\xd3aL\xc0'
p140
tp141
bsS'secnames'
p142
S'Cell[3].axon[3]'
p143
sI148
I166
tp144
a(F1.7678004919748083
S'Cell[3].dend[51] syn_ = new FastInhib(0.5)'
p145
I3
(dp146
g127
F0.5
sg128
F4.0
sg129
I148
sg130
g7
(g8
(I0
tp147
g10
tp148
Rp149
(I1
(I3
tp150
g137
I00
S'ol\xa1\xa9\x08tL@\x85}C\xdc\xf5\xaaO@\xceG\xb5\xfbr\x05P\xc0'
p151
tp152
bsg142
S'Cell[3].axon[224]'
p153
sI148
I166
tp154
a(F1.6901550012082183
S'Cell[0].dend[2] syn_ = new AmpaNmda(0.166666666667)'
p155
I0
(dp156
g127
F0.7
sg128
F4.0
sg129
I148
sg130
g7
(g8
(I0
tp157
g10
tp158
Rp159
(I1
(I3
tp160
g137
I00
S'\x82\xbc<\xc8y\x9f:@\xc9\xf6c\xef\x0fO&@\x14\ty\xca\xd8Q<\xc0'
p161
tp162
bsg142
S'Cell[3].axon[338]'
p163
sI148
I22
tp164
a(F2.0942329696406436
S'Cell[3].dend[23] syn_ = new FastInhib(0.5)'
p165
I3
(dp166
g127
F0.05555555555555555
sg128
F4.0
sg129
I100
sg130
g7
(g8
(I0
tp167
g10
tp168
Rp169
(I1
(I3
tp170
g137
I00
S'\xe0bz\xa7\xa0I\n\xc0f\xf9\xdd\x10\xd1\xb7F\xc0\xbe+\x82;:m1\xc0'
p171
tp172
bsg142
S'Cell[2].axon[87]'
p173
sI100
I166
tp174
a(F1.5636456327776145
S'Cell[2].dend[12] syn_ = new FastInhib(0.7)'
p175
I2
(dp176
S'seg'
p177
F0.30000000000000004
sS'hostfrom'
p178
F5.0
sS'gid'
p179
I149
sS'coords'
p180
g7
(g8
(I0
tp181
g10
tp182
Rp183
(I1
(I3
tp184
g14
(S'f8'
p185
I0
I1
tp186
Rp187
(I3
S'<'
p188
NNNI-1
I-1
I0
tp189
bI00
S'$\xdd\x9b\x9b8G\x14\xc0\x0e\xd0\x80V\x83\n;\xc0z\x82l\x16\xd0j$\xc0'
p190
tp191
bsS'secnames'
p192
S'Cell[3].axon[11]'
p193
sI149
I118
tp194
a(F1.79226159776822
S'Cell[3].dend[61] syn_ = new FastInhib(0.166666666667)'
p195
I3
(dp196
g177
F0.5
sg178
F5.0
sg179
I149
sg180
g7
(g8
(I0
tp197
g10
tp198
Rp199
(I1
(I3
tp200
g187
I00
S'\xce\xa9r\xed\x81:,@\xff!\x0f\xad\xceG\x05@\xc6\xe8\x9dD\xdd\xfa\x0e\xc0'
p201
tp202
bsg192
S'Cell[3].axon[39]'
p203
sI149
I166
tp204
a(F1.856912511594121
S'Cell[0].dend[21] syn_ = new AmpaNmda(0.5)'
p205
I0
(dp206
S'seg'
p207
F0.5
sS'hostfrom'
p208
F6.0
sS'gid'
p209
I102
sS'coords'
p210
g7
(g8
(I0
tp211
g10
tp212
Rp213
(I1
(I3
tp214
g14
(S'f8'
p215
I0
I1
tp216
Rp217
(I3
S'<'
p218
NNNI-1
I-1
I0
tp219
bI00
S'\x00\x00\x00\x18\xae\xc7&\xc0\x00\x00\x00\x80=J3@\x00\x00\x00@\xe1z\x15@'
p220
tp221
bsS'secnames'
p222
S'Cell[2].soma[0]'
p223
sI102
I22
tp224
a(F1.3557519552053376
S'Cell[0].apic[15] syn_ = new AmpaNmda(0.5)'
p225
I0
(dp226
g207
F0.8333333333333333
sg208
F6.0
sg209
I102
sg210
g7
(g8
(I0
tp227
g10
tp228
Rp229
(I1
(I3
tp230
g217
I00
S'\x11\xcdI/\x8a\xd2.\xc0\xc6\xa6W\xb7\x82\xd8[\xc0cB\n\x19vN6\xc0'
p231
tp232
bsg222
S'Cell[2].axon[40]'
p233
sI102
I22
tp234
a(F2.496419383183982
S'Cell[0].apic[18] syn_ = new AmpaNmda(0.9)'
p235
I0
(dp236
g207
F0.5
sg208
F6.0
sg209
I102
sg210
g7
(g8
(I0
tp237
g10
tp238
Rp239
(I1
(I3
tp240
g217
I00
S'\xbf\xd5Nh*\xb6Q\xc0@\x0f\x89\x96\xe6\xcfQ\xc0\x08\xd64W\xe0;\x15@'
p241
tp242
bsg222
S'Cell[2].axon[92]'
p243
sI102
I22
tp244
a(F2.271582082422675
S'Cell[0].dend[16] syn_ = new AmpaNmda(0.5)'
p245
I0
(dp246
g207
F0.30000000000000004
sg208
F6.0
sg209
I150
sg210
g7
(g8
(I0
tp247
g10
tp248
Rp249
(I1
(I3
tp250
g217
I00
S'W\x89\xe3\xfc,\xa9\x15\xc0\xab.m\xca\x86:1@\x00\x00\x00@3\x13@\xc0'
p251
tp252
bsg222
S'Cell[3].axon[104]'
p253
sI150
I22
tp254
a(F1.906502257802707
S'Cell[3].dend[35] syn_ = new FastInhib(0.5)'
p255
I3
(dp256
S'seg'
p257
F0.16666666666666666
sS'hostfrom'
p258
F7.0
sS'gid'
p259
I103
sS'coords'
p260
g7
(g8
(I0
tp261
g10
tp262
Rp263
(I1
(I3
tp264
g14
(S'f8'
p265
I0
I1
tp266
Rp267
(I3
S'<'
p268
NNNI-1
I-1
I0
tp269
bI00
S'\x95\xfd1\x97/-!\xc0z\x89w6\x94YI\xc0\xab\x8f\xe3\x87\xee\xe30\xc0'
p270
tp271
bsS'secnames'
p272
S'Cell[2].axon[135]'
p273
sI103
I166
tp274
a(F2.3964059439418395
S'Cell[1].dend[41] syn_ = new ExpSid(0.166666666667)'
p275
I1
(dp276
g257
F0.49999999999999994
sg258
F7.0
sg259
I103
sg260
g7
(g8
(I0
tp277
g10
tp278
Rp279
(I1
(I3
tp280
g267
I00
S'\xb9\x12\xe4Ax\x1c1@\xa0(\xa0n\x0f#G@\x00\x00\x00\xe0z\xd4H\xc0'
p281
tp282
bsg272
S'Cell[2].axon[160]'
p283
sI103
I70
tp284
a(F2.0972928555248513
S'Cell[2].dend[47] syn_ = new FastInhib(0.5)'
p285
I2
(dp286
g257
F0.7
sg258
F7.0
sg259
I103
sg260
g7
(g8
(I0
tp287
g10
tp288
Rp289
(I1
(I3
tp290
g267
I00
S'EUU20qT@m\xb1\xa980A\x12@!\xa6\xf3~\xb9\xa3%\xc0'
p291
tp292
bsg272
S'Cell[2].axon[348]'
p293
sI103
I118
tp294
a(F2.1559695818966738
S'Cell[1].dend[36] syn_ = new ExpSid(0.5)'
p295
I1
(dp296
g257
F0.30000000000000004
sg258
F7.0
sg259
I103
sg260
g7
(g8
(I0
tp297
g10
tp298
Rp299
(I1
(I3
tp300
g267
I00
S'\xe0\x04\x85\x81Y\x03Q@\xc0"\x19n\xbf\x14C@:8ky\xe3Z\x1f\xc0'
p301
tp302
bsg272
S'Cell[2].axon[371]'
p303
sI103
I70
tp304
a(F2.4861404576496766
S'Cell[3].dend[44] syn_ = new FastInhib(0.5)'
p305
I3
(dp306
g257
F0.5
sg258
F7.0
sg259
I151
sg260
g7
(g8
(I0
tp307
g10
tp308
Rp309
(I1
(I3
tp310
g267
I00
S'\xaa0J\x18)\xaf&@\x84\xb5adW$H\xc0\x00\x00\x00@33 \xc0'
p311
tp312
bsg272
S'Cell[3].axon[118]'
p313
sI151
I166
tp314
a(F1.2010139067641024
S'Cell[1].dend[0] syn_ = new ExpSid(0.5)'
p315
I1
(dp316
g257
F0.16666666666666666
sg258
F7.0
sg259
I151
sg260
g7
(g8
(I0
tp317
g10
tp318
Rp319
(I1
(I3
tp320
g267
I00
S'\xa1J;\x95\x1a\xb39\xc0\x1f\xe5\xc5\xd1\x13YI@e\xd7\x10\x0e\xdbk2\xc0'
p321
tp322
bsg272
S'Cell[3].axon[137]'
p323
sI151
I70
tp324
a(F1.8413014116253286
S'Cell[3].dend[60] syn_ = new FastInhib(0.5)'
p325
I3
(dp326
g257
F0.16666666666666666
sg258
F7.0
sg259
I151
sg260
g7
(g8
(I0
tp327
g10
tp328
Rp329
(I1
(I3
tp330
g267
I00
S'\x00p>y%\xfc%\xbf\xb2\x85\xaa\xcb\xec5\x19\xc0|\tFf\xd5V\x1d\xc0'
p331
tp332
bsg272
S'Cell[3].axon[218]'
p333
sI151
I166
tp334
a(F1.8798454204703172
S'Cell[0].apic[3] syn_ = new ExpSid(0.166666666667)'
p335
I0
(dp336
g257
F0.5
sg258
F7.0
sg259
I151
sg260
g7
(g8
(I0
tp337
g10
tp338
Rp339
(I1
(I3
tp340
g267
I00
S'\x9e\xed\xc7\xd4\xd8$(\xc0|\xdc\xc49X=O\xc0\xeb\xe8\x19\xf5\r\x163\xc0'
p341
tp342
bsg272
S'Cell[3].axon[256]'
p343
sI151
I22
tp344
a(F2.2318935523011953
S'Cell[0].apic[3] syn_ = new ExpSid(0.166666666667)'
p345
I0
(dp346
g257
F0.5
sg258
F7.0
sg259
I151
sg260
g7
(g8
(I0
tp347
g10
tp348
Rp349
(I1
(I3
tp350
g267
I00
S'\x1a,\n\x97\x99\x90-\xc0\xb2^\x94%i3O\xc0\xd8\xddm\x82\x85<2\xc0'
p351
tp352
bsg272
S'Cell[3].axon[285]'
p353
sI151
I22
tp354
a(F2.4839438886955714
S'Cell[0].apic[6] syn_ = new ExpSid(0.833333333333)'
p355
I0
(dp356
g257
F0.5
sg258
F7.0
sg259
I151
sg260
g7
(g8
(I0
tp357
g10
tp358
Rp359
(I1
(I3
tp360
g267
I00
S'\xe3\xa0\xa8#\x85BI\xc0\xb1\x0e\xc0E\xff\x9c`\xc0\x16\xd5\xc8G\x90vA\xc0'
p361
tp362
bsg272
S'Cell[3].axon[289]'
p363
sI151
I22
tp364
a(F1.9490953202382433
S'Cell[0].apic[10] syn_ = new AmpaNmda(0.5)'
p365
I0
(dp366
S'seg'
p367
F0.5
sS'hostfrom'
p368
F8.0
sS'gid'
p369
I56
sS'coords'
p370
g7
(g8
(I0
tp371
g10
tp372
Rp373
(I1
(I3
tp374
g14
(S'f8'
p375
I0
I1
tp376
Rp377
(I3
S'<'
p378
NNNI-1
I-1
I0
tp379
bI00
S'J\x15\x91P\x96_=\xc0\xa6O@\x7f\x81\xa4\\\xc0r\xf7\xe0\xc6\x1a\x9d%\xc0'
p380
tp381
bsS'secnames'
p382
S'Cell[1].axon[8]'
p383
sI56
I22
tp384
a(F2.295813421377342
S'Cell[3].dend[61] syn_ = new FastInhib(0.5)'
p385
I3
(dp386
g367
F0.5
sg368
F8.0
sg369
I152
sg370
g7
(g8
(I0
tp387
g10
tp388
Rp389
(I1
(I3
tp390
g377
I00
S'\x15\xd0g\x1f#\xd2?@\xd8\t\xdd9\r\xf6\x1e@\x00\x00\x00\xa0\x99\x99\x03@'
p391
tp392
bsg382
S'Cell[3].axon[337]'
p393
sI152
I166
tp394
a(F1.763992507598529
S'Cell[2].dend[50] syn_ = new FastInhib(0.5)'
p395
I2
(dp396
g367
F0.5
sg368
F8.0
sg369
I152
sg370
g7
(g8
(I0
tp397
g10
tp398
Rp399
(I1
(I3
tp400
g377
I00
S'a=%W\xc4\xc6\\@\x90\x83\x0b\x93\xee\x02G@\xa6\xd7\xcbj\x06\xff\x0f@'
p401
tp402
bsg382
S'Cell[3].axon[458]'
p403
sI152
I118
tp404
a(F1.633253689493487
S'Cell[1].dend[3] syn_ = new AmpaNmda(0.166666666667)'
p405
I1
(dp406
g367
F0.5
sg368
F8.0
sg369
I152
sg370
g7
(g8
(I0
tp407
g10
tp408
Rp409
(I1
(I3
tp410
g377
I00
S'\x00\x00\x00\xa0p\xfdK\xc0\x00\x00\x00`\x8f"<@\x00\x00\x00\x00\x00@"\xc0'
p411
tp412
bsg382
S'Cell[3].axon[564]'
p413
sI152
I70
tp414
a(F2.1747562894133203
S'Cell[3].dend[21] syn_ = new FastInhib(0.166666666667)'
p415
I3
(dp416
g367
F0.5
sg368
F8.0
sg369
I152
sg370
g7
(g8
(I0
tp417
g10
tp418
Rp419
(I1
(I3
tp420
g377
I00
S'\x00\x00\x00\xa0p=6@\x00\x00\x00\x10\x00\x00\x1e@\x00\x00\x00`f\x9eT\xc0'
p421
tp422
bsg382
S'Cell[3].axon[613]'
p423
sI152
I166
tp424
a(F1.9012336383898627
S'Cell[3].dend[9] syn_ = new FastInhib(0.5)'
p425
I3
(dp426
g367
F0.5
sg368
F8.0
sg369
I104
sg370
g7
(g8
(I0
tp427
g10
tp428
Rp429
(I1
(I3
tp430
g377
I00
S'V\x8a\xa8\xeb-\xaab\xc0\xe2\x07kL<\xbe3\xc0{G\x1cd\x8e\xc3`\xc0'
p431
tp432
bsg382
S'Cell[2].axon[75]'
p433
sI104
I166
tp434
a(F0.491554883706802
S'Cell[1].dend[12] syn_ = new AmpaNmda(0.833333333333)'
p435
I1
(dp436
g367
F0.7857142857142856
sg368
F8.0
sg369
I104
sg370
g7
(g8
(I0
tp437
g10
tp438
Rp439
(I1
(I3
tp440
g377
I00
S"\xfa}\x85\xb8C\xfcX\xc0Lw\x15:as9@P\x95p\xd9='3@"
p441
tp442
bsg382
S'Cell[2].axon[187]'
p443
sI104
I70
tp444
a(F2.328259948707845
S'Cell[2].dend[54] syn_ = new FastInhib(0.3)'
p445
I2
(dp446
g367
F0.5
sg368
F8.0
sg369
I104
sg370
g7
(g8
(I0
tp447
g10
tp448
Rp449
(I1
(I3
tp450
g377
I00
S"\xc2VK'\xcf\xaeY@\x10t\x8d\x92\xbaj\n\xc0$u}j\xfd\xa9\x11\xc0"
p451
tp452
bsg382
S'Cell[2].axon[255]'
p453
sI104
I118
tp454
a(F2.3029309360791097
S'Cell[1].dend[36] syn_ = new AmpaNmda(0.166666666667)'
p455
I1
(dp456
g367
F0.5
sg368
F8.0
sg369
I104
sg370
g7
(g8
(I0
tp457
g10
tp458
Rp459
(I1
(I3
tp460
g377
I00
S"\x00\x00\x00\x90\x99\xf9=@\x00\x00\x00\x10\xae'E@\x00\x00\x00\x80\xebQ*\xc0"
p461
tp462
bsg382
S'Cell[2].axon[345]'
p463
sI104
I70
tp464
a(F2.3354006078191967
S'Cell[1].dend[7] syn_ = new AmpaNmda(0.1)'
p465
I1
(dp466
g367
F0.5
sg368
F8.0
sg369
I104
sg370
g7
(g8
(I0
tp467
g10
tp468
Rp469
(I1
(I3
tp470
g377
I00
S'pIV.\xc5\xdaB\xc0]4\xd0\x01b\xbdJ@\xbc\x00XH\xf28F\xc0'
p471
tp472
bsg382
S'Cell[2].axon[376]'
p473
sI104
I70
tp474
a(F1.3734180380006822
S'Cell[1].apic[24] syn_ = new AmpaNmda(0.1)'
p475
I1
(dp476
g367
F0.07142857142857142
sg368
F8.0
sg369
I104
sg370
g7
(g8
(I0
tp477
g10
tp478
Rp479
(I1
(I3
tp480
g377
I00
S'\xcf\x8f]\x08\xeb\xa3@\xc0\xa2=9\xe3\x98\xf2k@d\x87$\\\x1f:0\xc0'
p481
tp482
bsg382
S'Cell[2].axon[398]'
p483
sI104
I70
tp484
a(F2.132433285911036
S'Cell[3].dend[75] syn_ = new FastInhib(0.5)'
p485
I3
(dp486
S'seg'
p487
F0.49999999999999994
sS'hostfrom'
p488
F9.0
sS'gid'
p489
I153
sS'coords'
p490
g7
(g8
(I0
tp491
g10
tp492
Rp493
(I1
(I3
tp494
g14
(S'f8'
p495
I0
I1
tp496
Rp497
(I3
S'<'
p498
NNNI-1
I-1
I0
tp499
bI00
S'\xe3Gw\xe4R\x17Y@\xce6\x1f\x90]\xa2J@\x7fV@\xa7\xe7\xbd#@'
p500
tp501
bsS'secnames'
p502
S'Cell[3].axon[135]'
p503
sI153
I166
tp504
a(F2.2682354427180766
S'Cell[0].apic[13] syn_ = new ExpSid(0.5)'
p505
I0
(dp506
g487
F0.5
sg488
F9.0
sg489
I105
sg490
g7
(g8
(I0
tp507
g10
tp508
Rp509
(I1
(I3
tp510
g497
I00
S'\x0e/\x97\xe4\x9b3=\xc0\xdf\x07F\n=#`\xc0\xd2\xc7d\xb6)\xc6\r@'
p511
tp512
bsg502
S'Cell[2].axon[209]'
p513
sI105
I22
tp514
a(F1.457700905029164
S'Cell[0].dend[13] syn_ = new AmpaNmda(0.5)'
p515
I0
(dp516
S'seg'
p517
F0.16666666666666666
sS'hostfrom'
p518
F10.0
sS'gid'
p519
I106
sS'coords'
p520
g7
(g8
(I0
tp521
g10
tp522
Rp523
(I1
(I3
tp524
g14
(S'f8'
p525
I0
I1
tp526
Rp527
(I3
S'<'
p528
NNNI-1
I-1
I0
tp529
bI00
S'\x1f\xdf\xa5 \x03\xf1)\xc0\xaa^t*\xaf\xb4@@\x94\xa8\xdaG\xb0Q*\xc0'
p530
tp531
bsS'secnames'
p532
S'Cell[2].axon[13]'
p533
sI106
I22
tp534
a(F2.080299428591913
S'Cell[3].dend[43] syn_ = new FastInhib(0.9)'
p535
I3
(dp536
g517
F0.16666666666666666
sg518
F10.0
sg519
I106
sg520
g7
(g8
(I0
tp537
g10
tp538
Rp539
(I1
(I3
tp540
g527
I00
S'\x86M\xc2Z:\x00(@\x93\xdc\xcf\xec/\xf4e\xc0\x00\x00\x00\xc0\x1eED\xc0'
p541
tp542
bsg532
S'Cell[2].axon[41]'
p543
sI106
I166
tp544
a(F2.2221326574547153
S'Cell[0].dend[2] syn_ = new AmpaNmda(0.166666666667)'
p545
I0
(dp546
g517
F0.8333333333333333
sg518
F10.0
sg519
I106
sg520
g7
(g8
(I0
tp547
g10
tp548
Rp549
(I1
(I3
tp550
g527
I00
S'a\x1c\x98\x1a\xaf{:@\xfb$\xdcy\xb3\x00%@\xae\x0ff\x9e\xc809\xc0'
p551
tp552
bsg532
S'Cell[2].axon[48]'
p553
sI106
I22
tp554
a(F1.7706717211195768
S'Cell[1].dend[25] syn_ = new AmpaNmda(0.5)'
p555
I1
(dp556
g517
F0.5
sg518
F10.0
sg519
I106
sg520
g7
(g8
(I0
tp557
g10
tp558
Rp559
(I1
(I3
tp560
g527
I00
S'\x14\x19Si\xfb\xb9\x11\xc0\xcf5\xd6\x91\xa6<G@\x83\xbf\xdc\xdd\x88\xa6\x16@'
p561
tp562
bsg532
S'Cell[2].axon[78]'
p563
sI106
I70
tp564
a(F1.0458338321728826
S'Cell[3].dend[40] syn_ = new FastInhib(0.7)'
p565
I3
(dp566
g517
F0.5
sg518
F10.0
sg519
I106
sg520
g7
(g8
(I0
tp567
g10
tp568
Rp569
(I1
(I3
tp570
g527
I00
S'\xdf\x97N\xbc\xdbwK@\xcc\x0e75\x9f\x8bG\xc0\xd9\xc2\xd5V\xe6\x93U\xc0'
p571
tp572
bsg532
S'Cell[2].axon[205]'
p573
sI106
I166
tp574
a(F0.8106034506171825
S'Cell[0].apic[15] syn_ = new AmpaNmda(0.5)'
p575
I0
(dp576
g517
F0.8333333333333333
sg518
F10.0
sg519
I106
sg520
g7
(g8
(I0
tp577
g10
tp578
Rp579
(I1
(I3
tp580
g527
I00
S'\xd6\xf2\xc4\xd8\xd8 1\xc0\xdc\x0f\xa7\x04g\xf7[\xc0\xcc\xa7\xf1j\xe2\xf16\xc0'
p581
tp582
bsg532
S'Cell[2].axon[244]'
p583
sI106
I22
tp584
a(F1.2811220352530184
S'Cell[3].dend[50] syn_ = new FastInhib(0.5)'
p585
I3
(dp586
g517
F0.5
sg518
F10.0
sg519
I106
sg520
g7
(g8
(I0
tp587
g10
tp588
Rp589
(I1
(I3
tp590
g527
I00
S'\xd1q\xd8koO7@/\x859O\xfc$2\xc0\xec\x0b_\x94m\x14@\xc0'
p591
tp592
bsg532
S'Cell[2].axon[281]'
p593
sI106
I166
tp594
a(F2.394897612885227
S'Cell[0].dend[6] syn_ = new ExpSid(0.3)'
p595
I0
(dp596
S'seg'
p597
F0.5
sS'hostfrom'
p598
F11.0
sS'gid'
p599
I155
sS'coords'
p600
g7
(g8
(I0
tp601
g10
tp602
Rp603
(I1
(I3
tp604
g14
(S'f8'
p605
I0
I1
tp606
Rp607
(I3
S'<'
p608
NNNI-1
I-1
I0
tp609
bI00
S'\xd0IK\x9e\x9e\xbc-@%\x11 \x14\xf5\x8cC@\x00\x00\x00\xc0\xf5(\x1c@'
p610
tp611
bsS'secnames'
p612
S'Cell[3].axon[181]'
p613
sI155
I22
tp614
a(F1.1817753517037164
S'Cell[3].dend[31] syn_ = new FastInhib(0.3)'
p615
I3
(dp616
g597
F0.5
sg598
F11.0
sg599
I155
sg600
g7
(g8
(I0
tp617
g10
tp618
Rp619
(I1
(I3
tp620
g607
I00
S'\xfaf#\xd5\xd7`U\xc0\x9e=I\xb2\xdc\x9dR\xc02\xf9\x9f\x93\x98\xff @'
p621
tp622
bsg612
S'Cell[3].axon[217]'
p623
sI155
I166
tp624
a(F2.330640157952432
S'Cell[0].apic[18] syn_ = new ExpSid(0.9)'
p625
I0
(dp626
g597
F0.5
sg598
F11.0
sg599
I155
sg600
g7
(g8
(I0
tp627
g10
tp628
Rp629
(I1
(I3
tp630
g607
I00
S'\xd3\x8f>\x0cwqQ\xc0\x1a\xae\xa1\xe2\xf2\x0bR\xc0(\xeeMW\x9a\xfe\xf6?'
p631
tp632
bsg612
S'Cell[3].axon[218]'
p633
sI155
I22
tp634
a(F1.9849077874887446
S'Cell[1].dend[49] syn_ = new AmpaNmda(0.833333333333)'
p635
I1
(dp636
S'seg'
p637
F0.7857142857142856
sS'hostfrom'
p638
F12.0
sS'gid'
p639
I156
sS'coords'
p640
g7
(g8
(I0
tp641
g10
tp642
Rp643
(I1
(I3
tp644
g14
(S'f8'
p645
I0
I1
tp646
Rp647
(I3
S'<'
p648
NNNI-1
I-1
I0
tp649
bI00
S'ZN\xc5\xe4\xd4\x85N@{L6\x7f5\xb8V@\xc6{\xf1?\x91\xfeG\xc0'
p650
tp651
bsS'secnames'
p652
S'Cell[3].axon[543]'
p653
sI156
I70
tp654
a(F1.7122702520720778
S'Cell[2].dend[9] syn_ = new FastInhib(0.5)'
p655
I2
(dp656
S'seg'
p657
F0.5
sS'hostfrom'
p658
F13.0
sS'gid'
p659
I109
sS'coords'
p660
g7
(g8
(I0
tp661
g10
tp662
Rp663
(I1
(I3
tp664
g14
(S'f8'
p665
I0
I1
tp666
Rp667
(I3
S'<'
p668
NNNI-1
I-1
I0
tp669
bI00
S'\xe6\xa3\x9cO\xd9\x04J@\xc5\xb5\xb0\x13\xffIE\xc0\x18\xe2\x10\x16\xb5^(@'
p670
tp671
bsS'secnames'
p672
S'Cell[2].axon[100]'
p673
sI109
I118
tp674
a(F2.4403532111324777
S'Cell[3].dend[62] syn_ = new FastInhib(0.833333333333)'
p675
I3
(dp676
g657
F0.16666666666666666
sg658
F13.0
sg659
I109
sg660
g7
(g8
(I0
tp677
g10
tp678
Rp679
(I1
(I3
tp680
g667
I00
S'h\xb7)Z\xe7\xb1W@H\xba\xf0\x06\xd4JI@\xb2\xbc\xe2x\x1b\xa8=\xc0'
p681
tp682
bsg672
S'Cell[2].axon[114]'
p683
sI109
I166
tp684
a(F2.092604849324421
S'Cell[1].dend[28] syn_ = new AmpaNmda(0.166666666667)'
p685
I1
(dp686
S'seg'
p687
F0.5
sS'hostfrom'
p688
F14.0
sS'gid'
p689
I110
sS'coords'
p690
g7
(g8
(I0
tp691
g10
tp692
Rp693
(I1
(I3
tp694
g14
(S'f8'
p695
I0
I1
tp696
Rp697
(I3
S'<'
p698
NNNI-1
I-1
I0
tp699
bI00
S'Nm\x806\xb3\xb1Q@\xecK\x9e\x14w@8@\xbc\x04\x15B\xa7\x0b6@'
p700
tp701
bsS'secnames'
p702
S'Cell[2].axon[93]'
p703
sI110
I70
tp704
a(F1.730360365050413
S'Cell[2].dend[61] syn_ = new FastInhib(0.166666666667)'
p705
I2
(dp706
S'seg'
p707
F0.5
sS'hostfrom'
p708
F16.0
sS'gid'
p709
I160
sS'coords'
p710
g7
(g8
(I0
tp711
g10
tp712
Rp713
(I1
(I3
tp714
g14
(S'f8'
p715
I0
I1
tp716
Rp717
(I3
S'<'
p718
NNNI-1
I-1
I0
tp719
bI00
S't\xaa\xbf\xaf1PG@\x9fs\xa3\x90\xb2"`@\xad\x99\xf1\xbe\x82\xe0;\xc0'
p720
tp721
bsS'secnames'
p722
S'Cell[3].axon[22]'
p723
sI160
I118
tp724
a(F2.4193241522148945
S'Cell[2].dend[46] syn_ = new FastInhib(0.3)'
p725
I2
(dp726
g707
F0.30000000000000004
sg708
F16.0
sg709
I112
sg710
g7
(g8
(I0
tp727
g10
tp728
Rp729
(I1
(I3
tp730
g717
I00
S'\xe3b\xf6\x88<]R@0_\xf7\xa9\xc9\x05C@1D^\xeci\xf9I\xc0'
p731
tp732
bsg722
S'Cell[2].axon[85]'
p733
sI112
I118
tp734
a(F1.5319288033418672
S'Cell[1].dend[30] syn_ = new AmpaNmda(0.166666666667)'
p735
I1
(dp736
g707
F0.30000000000000004
sg708
F16.0
sg709
I112
sg710
g7
(g8
(I0
tp737
g10
tp738
Rp739
(I1
(I3
tp740
g717
I00
S'\xd6\x80Z\x15o\x83\xf7\xbf\xa6j\xdaR\xc1\xfc@@7\x88Qm\xc5,1@'
p741
tp742
bsg722
S'Cell[2].axon[105]'
p743
sI112
I70
tp744
a(F2.4732835017343766
S'Cell[0].dend[13] syn_ = new AmpaNmda(0.5)'
p745
I0
(dp746
g707
F0.07142857142857142
sg708
F16.0
sg709
I112
sg710
g7
(g8
(I0
tp747
g10
tp748
Rp749
(I1
(I3
tp750
g717
I00
S"\x14\xda\x96o\xf2\xac-\xc0]\x04\xf5\x8cp\xd7A@\x87\x9a\x8ddNM'\xc0"
p751
tp752
bsg722
S'Cell[2].axon[207]'
p753
sI112
I22
tp754
a(F2.3075836639053278
S'Cell[3].dend[43] syn_ = new FastInhib(0.5)'
p755
I3
(dp756
S'seg'
p757
F0.16666666666666666
sS'hostfrom'
p758
F17.0
sS'gid'
p759
I113
sS'coords'
p760
g7
(g8
(I0
tp761
g10
tp762
Rp763
(I1
(I3
tp764
g14
(S'f8'
p765
I0
I1
tp766
Rp767
(I3
S'<'
p768
NNNI-1
I-1
I0
tp769
bI00
S'\xf8\x05Ay\x12$\x10\xc0\xa65\x99\xe5\xd4\xf4`\xc0\x18\x00Q\xda\xb6cD\xc0'
p770
tp771
bsS'secnames'
p772
S'Cell[2].axon[31]'
p773
sI113
I166
tp774
a(F1.8576465576983998
S'Cell[3].dend[48] syn_ = new FastInhib(0.7)'
p775
I3
(dp776
g757
F0.5
sg758
F17.0
sg759
I113
sg760
g7
(g8
(I0
tp777
g10
tp778
Rp779
(I1
(I3
tp780
g767
I00
S'\xde$\x823Y@J@\x88n\xbc)\x1b\xfc\\\xc0\x00\x00\x00 \xaeG\x17\xc0'
p781
tp782
bsg772
S'Cell[2].axon[91]'
p783
sI113
I166
tp784
a(F2.2102356705596873
S'Cell[3].dend[54] syn_ = new FastInhib(0.5)'
p785
I3
(dp786
g757
F0.5
sg758
F17.0
sg759
I113
sg760
g7
(g8
(I0
tp787
g10
tp788
Rp789
(I1
(I3
tp790
g767
I00
S'\xccy\x0f\x11.\x98\xb6\xbf\xe09\xb5\xd5\xb2\xe51\xc0\x00\x00\x00@\n\xd7\x1c\xc0'
p791
tp792
bsg772
S'Cell[2].axon[509]'
p793
sI113
I166
tp794
a(F2.0819104120919625
S'Cell[3].dend[24] syn_ = new FastInhib(0.5)'
p795
I3
(dp796
g757
F0.5
sg758
F17.0
sg759
I113
sg760
g7
(g8
(I0
tp797
g10
tp798
Rp799
(I1
(I3
tp800
g767
I00
S'47\x06\x11C\xe9)\xc0p%\xbb\\~\xd0H\xc0\xcb\nM\xd3\xa2\xc1,\xc0'
p801
tp802
bsg772
S'Cell[2].axon[611]'
p803
sI113
I166
tp804
a(F2.434610481569357
S'Cell[3].dend[26] syn_ = new FastInhib(0.166666666667)'
p805
I3
(dp806
g757
F0.5
sg758
F17.0
sg759
I113
sg760
g7
(g8
(I0
tp807
g10
tp808
Rp809
(I1
(I3
tp810
g767
I00
S'\xe9\xa7W\xd2\xc5<Q\xc0`\xc1m\x8f\xb0\x98F\xc0\x001\x0b\x19\xf38+\xc0'
p811
tp812
bsg772
S'Cell[2].axon[653]'
p813
sI113
I166
tp814
a(F1.6185291779156972
S'Cell[1].dend[34] syn_ = new ExpSid(0.5)'
p815
I1
(dp816
g757
F0.16666666666666666
sg758
F17.0
sg759
I161
sg760
g7
(g8
(I0
tp817
g10
tp818
Rp819
(I1
(I3
tp820
g767
I00
S'\xbd\x08`m\x91\xf5\xfa?!\x0cW,\x10PK@\x8aT\n\x1e\xd9g-\xc0'
p821
tp822
bsg772
S'Cell[3].axon[4]'
p823
sI161
I70
tp824
a(F2.2078479323765134
S'Cell[0].dend[11] syn_ = new ExpSid(0.5)'
p825
I0
(dp826
g757
F0.16666666666666666
sg758
F17.0
sg759
I161
sg760
g7
(g8
(I0
tp827
g10
tp828
Rp829
(I1
(I3
tp830
g767
I00
S'&\xc3\x9e/k\xfeF\xc0Z\xeb\x94p?\x0fD@\xa0\x8f\x02\xb4\x11\xae:\xc0'
p831
tp832
bsg772
S'Cell[3].axon[52]'
p833
sI161
I22
tp834
a(F2.4950955770001126
S'Cell[2].dend[12] syn_ = new FastInhib(0.1)'
p835
I2
(dp836
g757
F0.5
sg758
F17.0
sg759
I65
sg760
g7
(g8
(I0
tp837
g10
tp838
Rp839
(I1
(I3
tp840
g767
I00
S'\xe3P4\t!CG@\xbb\xc14\xbdI ?\xc0\xffB\x10\xf5\x97\x030@'
p841
tp842
bsg772
S'Cell[1].axon[14]'
p843
sI65
I118
tp844
a(F2.4755058996688857
S'Cell[2].dend[12] syn_ = new FastInhib(0.7)'
p845
I2
(dp846
S'seg'
p847
F0.21428571428571427
sS'hostfrom'
p848
F18.0
sS'gid'
p849
I66
sS'coords'
p850
g7
(g8
(I0
tp851
g10
tp852
Rp853
(I1
(I3
tp854
g14
(S'f8'
p855
I0
I1
tp856
Rp857
(I3
S'<'
p858
NNNI-1
I-1
I0
tp859
bI00
S'\xbb\x18\x90\x86KA\x1b\xc0\xc2\xb7\x87W\x13\x92=\xc0\xc4I\x01f\x9c!)\xc0'
p860
tp861
bsS'secnames'
p862
S'Cell[1].axon[10]'
p863
sI66
I118
tp864
a(F1.5161961781510622
S'Cell[0].apic[1] syn_ = new AmpaNmda(0.5)'
p865
I0
g846
I66
I22
tp866
a(F2.3385400517652863
S'Cell[2].dend[49] syn_ = new FastInhib(0.5)'
p867
I2
(dp868
g847
F0.5
sg848
F18.0
sg849
I162
sg850
g7
(g8
(I0
tp869
g10
tp870
Rp871
(I1
(I3
tp872
g857
I00
S'I\x08\xe1\xf2\xb4\xa6R@\x8f\x03|k\xf2\xc9Y@\xc4\xa3\x87y\xd5DR\xc0'
p873
tp874
bsg862
S'Cell[3].axon[128]'
p875
sI162
I118
tp876
a(F1.9767863430182622
S'Cell[1].apic[40] syn_ = new ExpSid(0.166666666667)'
p877
I1
(dp878
S'seg'
p879
F0.5
sS'hostfrom'
p880
F19.0
sS'gid'
p881
I115
sS'coords'
p882
g7
(g8
(I0
tp883
g10
tp884
Rp885
(I1
(I3
tp886
g14
(S'f8'
p887
I0
I1
tp888
Rp889
(I3
S'<'
p890
NNNI-1
I-1
I0
tp891
bI00
S'\x88\x12\x16\xcb\xf8\x9b<@H8\xd0\t%\xe5R@~\xed\x1a\xe2\xa9\x048@'
p892
tp893
bsS'secnames'
p894
S'Cell[2].axon[249]'
p895
sI115
I70
tp896
a(F2.3159978438190816
S'Cell[0].apic[12] syn_ = new ExpSid(0.5)'
p897
I0
(dp898
g879
F0.5
sg880
F19.0
sg881
I163
sg882
g7
(g8
(I0
tp899
g10
tp900
Rp901
(I1
(I3
tp902
g889
I00
S'\x00\x00\x00P\xb8.P\xc0\x00\x00\x00\x90\xebYb\xc0\x00\x00\x00\x80ff\x04@'
p903
tp904
bsg894
S'Cell[3].axon[37]'
p905
sI163
I22
tp906
a(F1.0297145654031001
S'Cell[3].dend[56] syn_ = new FastInhib(0.5)'
p907
I3
(dp908
S'seg'
p909
F0.16666666666666666
sS'hostfrom'
p910
F20.0
sS'gid'
p911
I116
sS'coords'
p912
g7
(g8
(I0
tp913
g10
tp914
Rp915
(I1
(I3
tp916
g14
(S'f8'
p917
I0
I1
tp918
Rp919
(I3
S'<'
p920
NNNI-1
I-1
I0
tp921
bI00
S'61\xd0!\x0f\xf36\xc0\x91\xd9\xf9-\x9b0J@\xb9=:$\xe8)G\xc0'
p922
tp923
bsS'secnames'
p924
S'Cell[2].axon[147]'
p925
sI116
I166
tp926
a(F1.5137838609815701
S'Cell[3].dend[55] syn_ = new FastInhib(0.5)'
p927
I3
(dp928
S'seg'
p929
F0.5
sS'hostfrom'
p930
F21.0
sS'gid'
p931
I165
sS'coords'
p932
g7
(g8
(I0
tp933
g10
tp934
Rp935
(I1
(I3
tp936
g14
(S'f8'
p937
I0
I1
tp938
Rp939
(I3
S'<'
p940
NNNI-1
I-1
I0
tp941
bI00
S'Q\xcb\x11\xf0\x8c\xa0;\xc0."pU\x05\x89\x0b@\x04\x18h\x08\x8d\x92\x06\xc0'
p942
tp943
bsS'secnames'
p944
S'Cell[3].axon[99]'
p945
sI165
I166
tp946
a(F2.1332274150477906
S'Cell[0].dend[10] syn_ = new ExpSid(0.5)'
p947
I0
(dp948
g929
F0.8333333333333333
sg930
F21.0
sg931
I117
sg932
g7
(g8
(I0
tp949
g10
tp950
Rp951
(I1
(I3
tp952
g939
I00
S'\x87\xb7\xff\x10\xca\xfe1\xc0\xcd\x8b"\x96\x0b\xb9A@3G\x07\x0b\xb9B3\xc0'
p953
tp954
bsg944
S'Cell[2].axon[14]'
p955
sI117
I22
tp956
a(F1.7034026178878021
S'Cell[2].dend[49] syn_ = new FastInhib(0.0714285714286)'
p957
I2
(dp958
g929
F0.16666666666666666
sg930
F21.0
sg931
I117
sg932
g7
(g8
(I0
tp959
g10
tp960
Rp961
(I1
(I3
tp962
g939
I00
S'\xb6\x0e\x95D\xab\xdbT@\xa2\xef\xc2\xa5\rVA@\x83\x86\xc2\x00\x8a(-\xc0'
p963
tp964
bsg944
S'Cell[2].axon[414]'
p965
sI117
I118
tp966
a(F1.4535230048643033
S'Cell[2].dend[58] syn_ = new FastInhib(0.5)'
p967
I2
(dp968
g929
F0.5
sg930
F21.0
sg931
I117
sg932
g7
(g8
(I0
tp969
g10
tp970
Rp971
(I1
(I3
tp972
g939
I00
S'\x00\x00\x00\x00\x00@6@\x00\x00\x00`\x8frc@\x00\x00\x00\x80\xc2u9\xc0'
p973
tp974
bsg944
S'Cell[2].axon[495]'
p975
sI117
I118
tp976
a(F1.9149462205452883
S'Cell[2].dend[54] syn_ = new FastInhib(0.3)'
p977
I2
(dp978
g929
F0.029411764705882353
sg930
F21.0
sg931
I21
sg932
g7
(g8
(I0
tp979
g10
tp980
Rp981
(I1
(I3
tp982
g939
I00
S'\x104\xd9\xfe\x00)Z@\xbf\x13\xfc<n9\x15\xc0,.\xbe\xe2\xf8\x92\x10\xc0'
p983
tp984
bsg944
S'Cell[0].axon[7]'
p985
sI21
I118
tp986
a(F1.9960591758862467
S'Cell[3].dend[28] syn_ = new FastInhib(0.166666666667)'
p987
I3
(dp988
S'seg'
p989
F0.16666666666666666
sS'hostfrom'
p990
F23.0
sS'gid'
p991
I167
sS'coords'
p992
g7
(g8
(I0
tp993
g10
tp994
Rp995
(I1
(I3
tp996
g14
(S'f8'
p997
I0
I1
tp998
Rp999
(I3
S'<'
p1000
NNNI-1
I-1
I0
tp1001
bI00
S'\xf8@b\xaf\xd7\xd32\xc0\xdaUGzd\xbdM\xc0\xa2\xc8R\x88+\xd0\x1d\xc0'
p1002
tp1003
bsS'secnames'
p1004
S'Cell[3].axon[21]'
p1005
sI167
I166
tp1006
a(F2.1457574474032777
S'Cell[1].apic[39] syn_ = new AmpaNmda(0.166666666667)'
p1007
I1
(dp1008
S'seg'
p1009
F0.16666666666666669
sS'hostfrom'
p1010
F24.0
sS'gid'
p1011
I72
sS'coords'
p1012
g7
(g8
(I0
tp1013
g10
tp1014
Rp1015
(I1
(I3
tp1016
g14
(S'f8'
p1017
I0
I1
tp1018
Rp1019
(I3
S'<'
p1020
NNNI-1
I-1
I0
tp1021
bI00
S'\x1a;\xafC\xa6H@@\x80\x99D/ulU@3C{P\xbdN5@'
p1022
tp1023
bsS'secnames'
p1024
S'Cell[1].axon[3]'
p1025
sI72
I70
tp1026
a(F1.7342647155153146
S'Cell[1].dend[14] syn_ = new AmpaNmda(0.9)'
p1027
I1
(dp1028
g1009
F0.5
sg1010
F24.0
sg1011
I168
sg1012
g7
(g8
(I0
tp1029
g10
tp1030
Rp1031
(I1
(I3
tp1032
g1019
I00
S'N\xa9R\xadOUX\xc0\x07\x8b\xe4\x02pp\x01@\x00\x00\x00\xc0\xcc\xdcQ\xc0'
p1033
tp1034
bsg1024
S'Cell[3].axon[557]'
p1035
sI168
I70
tp1036
a(F1.57591568529262
S'Cell[3].dend[25] syn_ = new FastInhib(0.166666666667)'
p1037
I3
(dp1038
g1009
F0.16666666666666666
sg1010
F24.0
sg1011
I120
sg1012
g7
(g8
(I0
tp1039
g10
tp1040
Rp1041
(I1
(I3
tp1042
g1019
I00
S'H]\xcb\x11]\xce5\xc0\x98\xf2U\xeb\xa2RI\xc0(\xbc\x93K#\x02\x13\xc0'
p1043
tp1044
bsg1024
S'Cell[2].axon[125]'
p1045
sI120
I166
tp1046
a(F1.9795402495766026
S'Cell[3].dend[24] syn_ = new FastInhib(0.5)'
p1047
I3
(dp1048
g1009
F0.5
sg1010
F24.0
sg1011
I120
sg1012
g7
(g8
(I0
tp1049
g10
tp1050
Rp1051
(I1
(I3
tp1052
g1019
I00
S'\x00\x00\x00P\xcd\x8c$\xc0\x00\x00\x00\x80\xebQI\xc0\x00\x00\x00\x10\xd7\xe3*\xc0'
p1053
tp1054
bsg1024
S'Cell[2].axon[128]'
p1055
sI120
I166
tp1056
a(F1.690340092382723
S'Cell[3].dend[3] syn_ = new FastInhib(0.166666666667)'
p1057
I3
(dp1058
g1009
F0.49999999999999994
sg1010
F24.0
sg1011
I120
sg1012
g7
(g8
(I0
tp1059
g10
tp1060
Rp1061
(I1
(I3
tp1062
g1019
I00
S':\x88\xddMl\x9dE\xc0\xdd8-<\xeb\x1f1\xc0\x00\x00\x00\x80\x14\xbeR\xc0'
p1063
tp1064
bsg1024
S'Cell[2].axon[156]'
p1065
sI120
I166
tp1066
a(F2.420607592769709
S'Cell[1].dend[36] syn_ = new ExpSid(0.166666666667)'
p1067
I1
(dp1068
S'seg'
p1069
F0.7
sS'hostfrom'
p1070
F25.0
sS'gid'
p1071
I121
sS'coords'
p1072
g7
(g8
(I0
tp1073
g10
tp1074
Rp1075
(I1
(I3
tp1076
g14
(S'f8'
p1077
I0
I1
tp1078
Rp1079
(I3
S'<'
p1080
NNNI-1
I-1
I0
tp1081
bI00
S'\\\x05|\xaf^\xce?@\x15\x84/^\x9cHE@\x00\x00\x00`ff,\xc0'
p1082
tp1083
bsS'secnames'
p1084
S'Cell[2].axon[189]'
p1085
sI121
I70
tp1086
a(F2.3451766327980765
S'Cell[1].apic[35] syn_ = new AmpaNmda(0.166666666667)'
p1087
I1
(dp1088
S'seg'
p1089
F0.5
sS'hostfrom'
p1090
F26.0
sS'gid'
p1091
I26
sS'coords'
p1092
g7
(g8
(I0
tp1093
g10
tp1094
Rp1095
(I1
(I3
tp1096
g14
(S'f8'
p1097
I0
I1
tp1098
Rp1099
(I3
S'<'
p1100
NNNI-1
I-1
I0
tp1101
bI00
S"T\xfb\xce\xb1<'7\xc0\xc8\x08\x01\x01\x1a\xeb_@D\x85\xf3&/,P\xc0"
p1102
tp1103
bsS'secnames'
p1104
S'Cell[0].axon[64]'
p1105
sI26
I70
tp1106
a(F1.1834305297312937
S'Cell[1].dend[31] syn_ = new AmpaNmda(0.166666666667)'
p1107
I1
(dp1108
g1089
F0.8333333333333333
sg1090
F26.0
sg1091
I170
sg1092
g7
(g8
(I0
tp1109
g10
tp1110
Rp1111
(I1
(I3
tp1112
g1099
I00
S'\xddy\xc8P\x0e\xce\xf7?\x0bfn|\xaa\x91C@R\x8c\x98`\x9a\x156@'
p1113
tp1114
bsg1104
S'Cell[3].axon[495]'
p1115
sI170
I70
tp1116
a(F1.8954918218421353
S'Cell[1].dend[5] syn_ = new AmpaNmda(0.166666666667)'
p1117
I1
(dp1118
g1089
F0.5
sg1090
F26.0
sg1091
I170
sg1092
g7
(g8
(I0
tp1119
g10
tp1120
Rp1121
(I1
(I3
tp1122
g1099
I00
S'\xa0s\tV\x93NI\xc0mi\x87\xdc>\xc1G@r\xa5F\xc4es\xeb\xbf'
p1123
tp1124
bsg1104
S'Cell[3].axon[508]'
p1125
sI170
I70
tp1126
a(F0.782248057670889
S'Cell[0].dend[21] syn_ = new ExpSid(0.5)'
p1127
I0
(dp1128
S'seg'
p1129
F0.5
sS'hostfrom'
p1130
F27.0
sS'gid'
p1131
I27
sS'coords'
p1132
g7
(g8
(I0
tp1133
g10
tp1134
Rp1135
(I1
(I3
tp1136
g14
(S'f8'
p1137
I0
I1
tp1138
Rp1139
(I3
S'<'
p1140
NNNI-1
I-1
I0
tp1141
bI00
S'\x0c\x00\x00p\x14.#\xc0\x00\x00\x00\x00\x00\x004@\x00\x00\x00`\x8f\xc2\x12@'
p1142
tp1143
bsS'secnames'
p1144
S'Cell[0].soma[0]'
p1145
sI27
I22
tp1146
a(F1.0502542928750913
S'Cell[1].dend[0] syn_ = new ExpSid(0.5)'
p1147
I1
(dp1148
g1129
F0.5
sg1130
F27.0
sg1131
I171
sg1132
g7
(g8
(I0
tp1149
g10
tp1150
Rp1151
(I1
(I3
tp1152
g1139
I00
S'\xf8\xab\x17\x15\xa3\xc48\xc0\xf4dE\x0c9\xb2H@\x80\x87&N(\xfe3\xc0'
p1153
tp1154
bsg1144
S'Cell[3].axon[45]'
p1155
sI171
I70
tp1156
a(F2.349757183256751
S'Cell[3].dend[0] syn_ = new FastInhib(0.5)'
p1157
I3
(dp1158
S'seg'
p1159
F0.07142857142857142
sS'hostfrom'
p1160
F29.0
sS'gid'
p1161
I77
sS'coords'
p1162
g7
(g8
(I0
tp1163
g10
tp1164
Rp1165
(I1
(I3
tp1166
g14
(S'f8'
p1167
I0
I1
tp1168
Rp1169
(I3
S'<'
p1170
NNNI-1
I-1
I0
tp1171
bI00
S',\x08\x1b\xf81\xb7\xed?!\xf9\x84\xa4\xc4i3\xc0/\x8b\x00n\x97oB\xc0'
p1172
tp1173
bsS'secnames'
p1174
S'Cell[1].axon[9]'
p1175
sI77
I166
tp1176
a(F1.2814158968716405
S'Cell[0].dend[23] syn_ = new AmpaNmda(0.833333333333)'
p1177
I0
(dp1178
S'seg'
p1179
F0.8333333333333333
sS'hostfrom'
p1180
F30.0
sS'gid'
p1181
I126
sS'coords'
p1182
g7
(g8
(I0
tp1183
g10
tp1184
Rp1185
(I1
(I3
tp1186
g14
(S'f8'
p1187
I0
I1
tp1188
Rp1189
(I3
S'<'
p1190
NNNI-1
I-1
I0
tp1191
bI00
S"\xe5\xa1\xdd\xbcZ\xcb5\xc0\x0c\x0f\xee\x95\xc0\xb6G@\xe8\xef\xee$5y'@"
p1192
tp1193
bsS'secnames'
p1194
S'Cell[2].axon[33]'
p1195
sI126
I22
tp1196
a(F2.1671900558273824
S'Cell[1].dend[41] syn_ = new AmpaNmda(0.833333333333)'
p1197
I1
(dp1198
g1179
F0.5
sg1180
F30.0
sg1181
I126
sg1182
g7
(g8
(I0
tp1199
g10
tp1200
Rp1201
(I1
(I3
tp1202
g1189
I00
S'\xae\x87=(U\x9d<@%fT\xea\x92\xc7H@\xa2X\xb8V\x08\xadV\xc0'
p1203
tp1204
bsg1194
S'Cell[2].axon[127]'
p1205
sI126
I70
tp1206
a(F2.317237286265894
S'Cell[0].apic[9] syn_ = new AmpaNmda(0.5)'
p1207
I0
(dp1208
g1179
F0.16666666666666666
sg1180
F30.0
sg1181
I174
sg1182
g7
(g8
(I0
tp1209
g10
tp1210
Rp1211
(I1
(I3
tp1212
g1189
I00
S'\xf1I5\x02-\xed8\xc0\x0e\xe1tC\xa9\xc5]\xc0\xd1\x84\xadd\xb0\xb58\xc0'
p1213
tp1214
bsg1194
S'Cell[3].axon[130]'
p1215
sI174
I22
tp1216
a(F2.293450794189495
S'Cell[1].dend[14] syn_ = new AmpaNmda(0.5)'
p1217
I1
(dp1218
g1179
F0.5
sg1180
F30.0
sg1181
I174
sg1182
g7
(g8
(I0
tp1219
g10
tp1220
Rp1221
(I1
(I3
tp1222
g1189
I00
S'\xe0\xc0)\xe12QQ\xc0\xc3*\xa5\x0e\xe3\xd1)@\xb4]\xfb\x9fUdD\xc0'
p1223
tp1224
bsg1194
S'Cell[3].axon[167]'
p1225
sI174
I70
tp1226
a(F1.2296650883481817
S'Cell[3].dend[28] syn_ = new FastInhib(0.833333333333)'
p1227
I3
(dp1228
g1179
F0.16666666666666666
sg1180
F30.0
sg1181
I174
sg1182
g7
(g8
(I0
tp1229
g10
tp1230
Rp1231
(I1
(I3
tp1232
g1189
I00
S'\xa3\xa0\x109\x96\xebH\xc0an\xa2\x00`oP\xc0\xd7Do\x97\x1c\xbb\x03\xc0'
p1233
tp1234
bsg1194
S'Cell[3].axon[277]'
p1235
sI174
I166
tp1236
a(F1.9000101234049265
S'Cell[1].apic[35] syn_ = new ExpSid(0.833333333333)'
p1237
I1
(dp1238
S'seg'
p1239
F0.5
sS'hostfrom'
p1240
F31.0
sS'gid'
p1241
I175
sS'coords'
p1242
g7
(g8
(I0
tp1243
g10
tp1244
Rp1245
(I1
(I3
tp1246
g14
(S'f8'
p1247
I0
I1
tp1248
Rp1249
(I3
S'<'
p1250
NNNI-1
I-1
I0
tp1251
bI00
S'\xec\r\x1a\xc3:\xfb?\xc0\x1ex\xcd\xfb\xf4D`@\x00\x00\x00@\xe1*Z\xc0'
p1252
tp1253
bsS'secnames'
p1254
S'Cell[3].axon[99]'
p1255
sI175
I70
tp1256
a(F1.688548812233223
S'Cell[3].dend[34] syn_ = new FastInhib(0.166666666667)'
p1257
I3
(dp1258
g1239
F0.16666666666666666
sg1240
F31.0
sg1241
I175
sg1242
g7
(g8
(I0
tp1259
g10
tp1260
Rp1261
(I1
(I3
tp1262
g1249
I00
S',\x12Z\xde\xa4RO\xc0\xfc\x01\xef\xc6\x8d}S\xc0\x0cm|\x14.\xe4 \xc0'
p1263
tp1264
bsg1254
S'Cell[3].axon[125]'
p1265
sI175
I166
tp1266
a(F2.470859568653524
S'Cell[3].dend[48] syn_ = new FastInhib(0.9)'
p1267
I3
(dp1268
g1239
F0.5
sg1240
F31.0
sg1241
I175
sg1242
g7
(g8
(I0
tp1269
g10
tp1270
Rp1271
(I1
(I3
tp1272
g1249
I00
S'\x00\x00\x00\xb0GqN@\x00\x00\x00P\xe1.`\xc0\x00\x00\x00`ff\x1b\xc0'
p1273
tp1274
bsg1254
S'Cell[3].axon[270]'
p1275
sI175
I166
tp1276
a(F2.2772147831208858
S'Cell[0].dend[22] syn_ = new AmpaNmda(0.5)'
p1277
I0
(dp1278
S'seg'
p1279
F0.7
sS'hostfrom'
p1280
F32.0
sS'gid'
p1281
I176
sS'coords'
p1282
g7
(g8
(I0
tp1283
g10
tp1284
Rp1285
(I1
(I3
tp1286
g14
(S'f8'
p1287
I0
I1
tp1288
Rp1289
(I3
S'<'
p1290
NNNI-1
I-1
I0
tp1291
bI00
S".\xf9\xaciw\xc34\xc0\x8a\x8b\xcc@X\xe55@\xb0B\x05H\x16b'@"
p1292
tp1293
bsS'secnames'
p1294
S'Cell[3].axon[13]'
p1295
sI176
I22
tp1296
a(F2.305374332422246
S'Cell[3].dend[62] syn_ = new FastInhib(0.833333333333)'
p1297
I3
(dp1298
S'seg'
p1299
F0.8333333333333333
sS'hostfrom'
p1300
F33.0
sS'gid'
p1301
I129
sS'coords'
p1302
g7
(g8
(I0
tp1303
g10
tp1304
Rp1305
(I1
(I3
tp1306
g14
(S'f8'
p1307
I0
I1
tp1308
Rp1309
(I3
S'<'
p1310
NNNI-1
I-1
I0
tp1311
bI00
S'\xc2Cw\xb3t$W@J\xdd\x8eE@nI@\xdf\xbf\xfb\xcdg\xa9?\xc0'
p1312
tp1313
bsS'secnames'
p1314
S'Cell[2].axon[34]'
p1315
sI129
I166
tp1316
a(F1.8858222949123387
S'Cell[1].apic[13] syn_ = new ExpSid(0.5)'
p1317
I1
(dp1318
g1299
F0.8999999999999999
sg1300
F33.0
sg1301
I177
sg1302
g7
(g8
(I0
tp1319
g10
tp1320
Rp1321
(I1
(I3
tp1322
g1309
I00
S'\x86\x1b\x80`\xba\xae;@mq\xe9m\x9f_q@\x98L\xdc&\x991N\xc0'
p1323
tp1324
bsg1314
S'Cell[3].axon[92]'
p1325
sI177
I70
tp1326
a(F0.8762606326793047
S'Cell[3].dend[42] syn_ = new FastInhib(0.166666666667)'
p1327
I3
(dp1328
g1299
F0.5
sg1300
F33.0
sg1301
I81
sg1302
g7
(g8
(I0
tp1329
g10
tp1330
Rp1331
(I1
(I3
tp1332
g1309
I00
S'\xc2?\xee \xcd|<\xc0\xc2g\xc4j\x0e\xa9U\xc0\x1aXUD\xa9pA\xc0'
p1333
tp1334
bsg1314
S'Cell[1].axon[11]'
p1335
sI81
I166
tp1336
a(F2.392562314368987
S'Cell[1].apic[3] syn_ = new AmpaNmda(0.5)'
p1337
I1
(dp1338
S'seg'
p1339
F0.16666666666666666
sS'hostfrom'
p1340
F34.0
sS'gid'
p1341
I82
sS'coords'
p1342
g7
(g8
(I0
tp1343
g10
tp1344
Rp1345
(I1
(I3
tp1346
g14
(S'f8'
p1347
I0
I1
tp1348
Rp1349
(I3
S'<'
p1350
NNNI-1
I-1
I0
tp1351
bI00
S'\x05$\xc8:\xc4^1\xc0\x8c\xa4\xb1_\x8f\xb3Y@\xac\xbd\x91\xc5\xf4Z\x11@'
p1352
tp1353
bsS'secnames'
p1354
S'Cell[1].axon[52]'
p1355
sI82
I70
tp1356
a(F2.0876850301498386
S'Cell[0].apic[12] syn_ = new AmpaNmda(0.9)'
p1357
I0
(dp1358
g1339
F0.8333333333333333
sg1340
F34.0
sg1341
I82
sg1342
g7
(g8
(I0
tp1359
g10
tp1360
Rp1361
(I1
(I3
tp1362
g1349
I00
S'\x91R.o4,W\xc0\xd3\x1e\x1a\x04\x831e\xc0\xa6D\x8b/\x08\xcf\xe0?'
p1363
tp1364
bsg1354
S'Cell[1].axon[70]'
p1365
sI82
I22
tp1366
a(F1.4118545688663655
S'Cell[1].dend[3] syn_ = new AmpaNmda(0.5)'
p1367
I1
(dp1368
g1339
F0.16666666666666666
sg1340
F34.0
sg1341
I82
sg1342
g7
(g8
(I0
tp1369
g10
tp1370
Rp1371
(I1
(I3
tp1372
g1349
I00
S'\xb5\x8f\xd5.\x7flN\xc0g\x9b\x1c2\xe1a!@\x00\x00\x00@33$@'
p1373
tp1374
bsg1354
S'Cell[1].axon[132]'
p1375
sI82
I70
tp1376
a(F2.141500576577884
S'Cell[1].apic[6] syn_ = new AmpaNmda(0.166666666667)'
p1377
I1
(dp1378
g1339
F0.16666666666666666
sg1340
F34.0
sg1341
I82
sg1342
g7
(g8
(I0
tp1379
g10
tp1380
Rp1381
(I1
(I3
tp1382
g1349
I00
S'\xf0Z\xb8\xea\xa8\x08/\xc0\x85\xaf_\x85\x15ef@\\cA\xf6\xd3\xfb(\xc0'
p1383
tp1384
bsg1354
S'Cell[1].axon[197]'
p1385
sI82
I70
tp1386
a(F2.450497767728983
S'Cell[1].apic[33] syn_ = new AmpaNmda(0.5)'
p1387
I1
(dp1388
g1339
F0.1
sg1340
F34.0
sg1341
I178
sg1342
g7
(g8
(I0
tp1389
g10
tp1390
Rp1391
(I1
(I3
tp1392
g1349
I00
S'p\xde\xb5\x07 k-\xc0\x88\xa7\xb2k\xa2\x15]@q(\xe5\\\x1d\xf06\xc0'
p1393
tp1394
bsg1354
S'Cell[3].axon[348]'
p1395
sI178
I70
tp1396
a(F0.39423255185405115
S'Cell[3].dend[41] syn_ = new FastInhib(0.5)'
p1397
I3
(dp1398
S'seg'
p1399
F0.5
sS'hostfrom'
p1400
F35.0
sS'gid'
p1401
I83
sS'coords'
p1402
g7
(g8
(I0
tp1403
g10
tp1404
Rp1405
(I1
(I3
tp1406
g14
(S'f8'
p1407
I0
I1
tp1408
Rp1409
(I3
S'<'
p1410
NNNI-1
I-1
I0
tp1411
bI00
S'\x00\x00\x00HP\xd80\xc0\x00\x00\x00\xc0\x1eER\xc0\x00\x00\x00\xe0\xa3p>\xc0'
p1412
tp1413
bsS'secnames'
p1414
S'Cell[1].axon[256]'
p1415
sI83
I166
tp1416
a(F1.3177947034602113
S'Cell[3].dend[74] syn_ = new FastInhib(0.5)'
p1417
I3
(dp1418
g1399
F0.16666666666666666
sg1400
F35.0
sg1401
I179
sg1402
g7
(g8
(I0
tp1419
g10
tp1420
Rp1421
(I1
(I3
tp1422
g1409
I00
S'\x10\x00\xb0\xe5\x9a\x9fV@X\xb00\x9c\x90\rF@Ap\x01\x94\xba\xa0$@'
p1423
tp1424
bsg1414
S'Cell[3].axon[163]'
p1425
sI179
I166
tp1426
a(F1.9083229121246525
S'Cell[1].apic[6] syn_ = new AmpaNmda(0.5)'
p1427
I1
(dp1428
S'seg'
p1429
F0.30000000000000004
sS'hostfrom'
p1430
F36.0
sS'gid'
p1431
I84
sS'coords'
p1432
g7
(g8
(I0
tp1433
g10
tp1434
Rp1435
(I1
(I3
tp1436
g14
(S'f8'
p1437
I0
I1
tp1438
Rp1439
(I3
S'<'
p1440
NNNI-1
I-1
I0
tp1441
bI00
S'\xcc\xb8\xd1\xf1f\xfc\x15\xc0\x85\x9f\x07)\xcc;g@\x0e\xbe|\x9f\xc0\x87=\xc0'
p1442
tp1443
bsS'secnames'
p1444
S'Cell[1].axon[60]'
p1445
sI84
I70
tp1446
a(F0.6128666202869169
S'Cell[0].dend[2] syn_ = new AmpaNmda(0.166666666667)'
p1447
I0
(dp1448
g1429
F0.16666666666666666
sg1430
F36.0
sg1431
I84
sg1432
g7
(g8
(I0
tp1449
g10
tp1450
Rp1451
(I1
(I3
tp1452
g1439
I00
S"G\x08\xa8\x87\x02\x00;@\xbbU\xec\xa4\xadC'@\x1a\xb6!\xcf\xcfH;\xc0"
p1453
tp1454
bsg1444
S'Cell[1].axon[228]'
p1455
sI84
I22
tp1456
a(F1.1456396664574136
S'Cell[3].dend[16] syn_ = new FastInhib(0.5)'
p1457
I3
(dp1458
g1429
F0.5
sg1430
F36.0
sg1431
I84
sg1432
g7
(g8
(I0
tp1459
g10
tp1460
Rp1461
(I1
(I3
tp1462
g1439
I00
S'\xc0\xed\xf8B\x82\x82(@\x83\xa3H\x17\xaf\x9f&\xc0\x00\x00\x00\x00\x00\xa0M\xc0'
p1463
tp1464
bsg1444
S'Cell[1].axon[278]'
p1465
sI84
I166
tp1466
a(F1.315291192786802
S'Cell[1].dend[28] syn_ = new AmpaNmda(0.5)'
p1467
I1
(dp1468
g1429
F0.5
sg1430
F36.0
sg1431
I84
sg1432
g7
(g8
(I0
tp1469
g10
tp1470
Rp1471
(I1
(I3
tp1472
g1439
I00
S'\x05\xff\xcc\x0b\x9a\x92T@_Tdw\x85\xa44@z#\xf3V\x1d\x91(@'
p1473
tp1474
bsg1444
S'Cell[1].axon[501]'
p1475
sI84
I70
tp1476
a(F1.9786701617188258
S'Cell[3].dend[21] syn_ = new FastInhib(0.166666666667)'
p1477
I3
(dp1478
g1429
F0.5
sg1430
F36.0
sg1431
I84
sg1432
g7
(g8
(I0
tp1479
g10
tp1480
Rp1481
(I1
(I3
tp1482
g1439
I00
S'\xd1\xd6\x00q\x8d;8@\x8a\xe7+*H\x80\x1a@\xa0\xc9\x11:\x93$U\xc0'
p1483
tp1484
bsg1444
S'Cell[1].axon[568]'
p1485
sI84
I166
tp1486
a(F1.9197269947305893
S'Cell[3].dend[37] syn_ = new FastInhib(0.5)'
p1487
I3
(dp1488
g1429
F0.8333333333333333
sg1430
F36.0
sg1431
I180
sg1432
g7
(g8
(I0
tp1489
g10
tp1490
Rp1491
(I1
(I3
tp1492
g1439
I00
S'\xfe(\xc6D4\xde \xc0\x8a\xfa\x82\xa7\x8b\xedM\xc0\x8c\xe3Ts<\xf87\xc0'
p1493
tp1494
bsg1444
S'Cell[3].axon[14]'
p1495
sI180
I166
tp1496
a(F2.057606025441443
S'Cell[3].dend[55] syn_ = new FastInhib(0.5)'
p1497
I3
(dp1498
g1429
F0.11538461538461539
sg1430
F36.0
sg1431
I180
sg1432
g7
(g8
(I0
tp1499
g10
tp1500
Rp1501
(I1
(I3
tp1502
g1439
I00
S'\xfc\x1f\xd4\xf0\x10E8\xc0\xcb]\x1e\xca\xa5\xe0\x0b@\xee\xeb\xd9}\x00\x9d\x01\xc0'
p1503
tp1504
bsg1444
S'Cell[3].axon[69]'
p1505
sI180
I166
tp1506
a(F2.1453174419376784
S'Cell[0].apic[9] syn_ = new AmpaNmda(0.5)'
p1507
I0
(dp1508
g1429
F0.029411764705882353
sg1430
F36.0
sg1431
I36
sg1432
g7
(g8
(I0
tp1509
g10
tp1510
Rp1511
(I1
(I3
tp1512
g1439
I00
S'\x08C\x0c\xedG\xd66\xc0?c\xdd\xcb\xa7!^\xc0(6\x9e\xd5\xc449\xc0'
p1513
tp1514
bsg1444
S'Cell[0].axon[33]'
p1515
sI36
I22
tp1516
a(F2.3721485553052903
S'Cell[1].apic[4] syn_ = new ExpSid(0.166666666667)'
p1517
I1
(dp1518
S'seg'
p1519
F0.5
sS'hostfrom'
p1520
F37.0
sS'gid'
p1521
I133
sS'coords'
p1522
g7
(g8
(I0
tp1523
g10
tp1524
Rp1525
(I1
(I3
tp1526
g14
(S'f8'
p1527
I0
I1
tp1528
Rp1529
(I3
S'<'
p1530
NNNI-1
I-1
I0
tp1531
bI00
S'\xce\x88/P|\xbf1\xc0cx}D\x9e\xdd^@D\xae\xd6\x0e\xe2\xe9\x16@'
p1532
tp1533
bsS'secnames'
p1534
S'Cell[2].axon[5]'
p1535
sI133
I70
tp1536
a(F1.2885464328085636
S'Cell[1].apic[8] syn_ = new ExpSid(0.5)'
p1537
I1
(dp1538
g1519
F0.5
sg1520
F37.0
sg1521
I181
sg1522
g7
(g8
(I0
tp1539
g10
tp1540
Rp1541
(I1
(I3
tp1542
g1529
I00
S'\x116\xe6v\x03KF@)\x0b[\xa6+|p@\x18\xbdF\x16\x0f\xe1E\xc0'
p1543
tp1544
bsg1534
S'Cell[3].axon[189]'
p1545
sI181
I70
tp1546
a(F1.7283384318114305
S'Cell[0].dend[4] syn_ = new ExpSid(0.166666666667)'
p1547
I0
(dp1548
g1519
F0.6111111111111112
sg1520
F37.0
sg1521
I37
sg1522
g7
(g8
(I0
tp1549
g10
tp1550
Rp1551
(I1
(I3
tp1552
g1529
I00
S'(\xf4\xf8\x9c\xcf\x87#@\x04\xf5\xc5hk5B@\x10]\xce\x8a\x95o?\xc0'
p1553
tp1554
bsg1534
S'Cell[0].axon[3]'
p1555
sI37
I22
tp1556
a(F2.042567097059256
S'Cell[1].dend[5] syn_ = new AmpaNmda(0.166666666667)'
p1557
I1
(dp1558
S'seg'
p1559
F0.5
sS'hostfrom'
p1560
F38.0
sS'gid'
p1561
I182
sS'coords'
p1562
g7
(g8
(I0
tp1563
g10
tp1564
Rp1565
(I1
(I3
tp1566
g14
(S'f8'
p1567
I0
I1
tp1568
Rp1569
(I3
S'<'
p1570
NNNI-1
I-1
I0
tp1571
bI00
S'tC\x99\xf4\x91\x16J\xc04WF5s<H@\x1c\xcaH\xff\xb2i\x10\xc0'
p1572
tp1573
bsS'secnames'
p1574
S'Cell[3].axon[154]'
p1575
sI182
I70
tp1576
a(F2.4209842082624724
S'Cell[3].dend[76] syn_ = new FastInhib(0.166666666667)'
p1577
I3
(dp1578
g1559
F0.16666666666666666
sg1560
F38.0
sg1561
I182
sg1562
g7
(g8
(I0
tp1579
g10
tp1580
Rp1581
(I1
(I3
tp1582
g1569
I00
S'n\xb7\xae9j*7@\xdf\x19<\xbdD\x02"\xc0\x8d\x98\x02\x0e\xbc\x0c \xc0'
p1583
tp1584
bsg1574
S'Cell[3].axon[217]'
p1585
sI182
I166
tp1586
a(F1.6586121257334345
S'Cell[1].dend[26] syn_ = new AmpaNmda(0.166666666667)'
p1587
I1
(dp1588
g1559
F0.8333333333333333
sg1560
F38.0
sg1561
I182
sg1562
g7
(g8
(I0
tp1589
g10
tp1590
Rp1591
(I1
(I3
tp1592
g1569
I00
S',\x8bZ,\x80i @\x9f\xb5evO\x1fF@Y9a\xec\x87\xba\x17@'
p1593
tp1594
bsg1574
S'Cell[3].axon[293]'
p1595
sI182
I70
tp1596
a(F1.9419059024162255
S'Cell[2].dend[5] syn_ = new FastInhib(0.3)'
p1597
I2
(dp1598
g1559
F0.16666666666666666
sg1560
F38.0
sg1561
I182
sg1562
g7
(g8
(I0
tp1599
g10
tp1600
Rp1601
(I1
(I3
tp1602
g1569
I00
S's\xad\x9f%\xf2\xfb1@\xfa\xf7\x9c\xf7\x00\x96B\xc0N\xe9sI\xf0\xa7)\xc0'
p1603
tp1604
bsg1574
S'Cell[3].axon[434]'
p1605
sI182
I118
tp1606
a(F1.4600268733918196
S'Cell[3].dend[45] syn_ = new FastInhib(0.5)'
p1607
I3
(dp1608
g1559
F0.5
sg1560
F38.0
sg1561
I86
sg1562
g7
(g8
(I0
tp1609
g10
tp1610
Rp1611
(I1
(I3
tp1612
g1569
I00
S"\xda\xb1\x8d\x1a\xb5\x154@\x9c\\\xaeU\xb2\xa3J\xc0\xc2nl'\xc3\x12\n\xc0"
p1613
tp1614
bsg1574
S'Cell[1].axon[104]'
p1615
sI86
I166
tp1616
a(F2.1016973796495115
S'Cell[0].apic[0] syn_ = new AmpaNmda(0.5)'
p1617
I0
(dp1618
g1559
F0.5
sg1560
F38.0
sg1561
I134
sg1562
g7
(g8
(I0
tp1619
g10
tp1620
Rp1621
(I1
(I3
tp1622
g1569
I00
S'\x00\x00\x00\xc0\x1e\x85\x18\xc0\x00\x00\x00\x80\x14\xae#\xc0\x00\x00\x00@\n\xd7\x1e\xc0'
p1623
tp1624
bsg1574
S'Cell[2].soma[0]'
p1625
sI134
I22
tp1626
a(F1.4109897152743294
S'Cell[1].apic[1] syn_ = new ExpSid(0.5)'
p1627
I1
(dp1628
S'seg'
p1629
F0.1
sS'hostfrom'
p1630
F39.0
sS'gid'
p1631
I183
sS'coords'
p1632
g7
(g8
(I0
tp1633
g10
tp1634
Rp1635
(I1
(I3
tp1636
g14
(S'f8'
p1637
I0
I1
tp1638
Rp1639
(I3
S'<'
p1640
NNNI-1
I-1
I0
tp1641
bI00
S'\xbdHr\xea\xa6\xec%\xc0\x82\xd0\xa8\xecw\x07U@\xac\xba\x8e\xdf\xd5\x1f+@'
p1642
tp1643
bsS'secnames'
p1644
S'Cell[3].axon[37]'
p1645
sI183
I70
tp1646
a(F2.2578895358730557
S'Cell[1].dend[41] syn_ = new ExpSid(0.166666666667)'
p1647
I1
(dp1648
g1629
F0.7
sg1630
F39.0
sg1631
I183
sg1632
g7
(g8
(I0
tp1649
g10
tp1650
Rp1651
(I1
(I3
tp1652
g1639
I00
S"I '\x9b\xd9\x020@\xd3\x8d\xa0Q\xd46G@\xd8\xd9\\ )\xa9G\xc0"
p1653
tp1654
bsg1644
S'Cell[3].axon[115]'
p1655
sI183
I70
tp1656
a(F2.3052527055326313
S'Cell[1].dend[24] syn_ = new ExpSid(0.5)'
p1657
I1
(dp1658
g1629
F0.5
sg1630
F39.0
sg1631
I183
sg1632
g7
(g8
(I0
tp1659
g10
tp1660
Rp1661
(I1
(I3
tp1662
g1639
I00
S'\x00\x00\x00 \xae\x17A@\x00\x00\x00`\x8f\xb2@@\x00\x00\x00\xa0\x99\xd9H@'
p1663
tp1664
bsg1644
S'Cell[3].axon[192]'
p1665
sI183
I70
tp1666
a(F2.2675224492148933
S'Cell[3].dend[26] syn_ = new FastInhib(0.5)'
p1667
I3
(dp1668
S'seg'
p1669
F0.8333333333333333
sS'hostfrom'
p1670
F40.0
sS'gid'
p1671
I88
sS'coords'
p1672
g7
(g8
(I0
tp1673
g10
tp1674
Rp1675
(I1
(I3
tp1676
g14
(S'f8'
p1677
I0
I1
tp1678
Rp1679
(I3
S'<'
p1680
NNNI-1
I-1
I0
tp1681
bI00
S'@\x83\xb5bp\xadS\xc0\xf1\r\xd0x\xa9C?\xc0\xc4\xf1[V\xd5\x85?\xc0'
p1682
tp1683
bsS'secnames'
p1684
S'Cell[1].axon[18]'
p1685
sI88
I166
tp1686
a(F2.0686529861291927
S'Cell[3].dend[38] syn_ = new FastInhib(0.5)'
p1687
I3
(dp1688
g1669
F0.7
sg1670
F40.0
sg1671
I88
sg1672
g7
(g8
(I0
tp1689
g10
tp1690
Rp1691
(I1
(I3
tp1692
g1679
I00
S'>\xc2\xcf\xb2\xdc\x83&\xc0\xd5\xe6\xc3\tc\x8dP\xc0\xc2CsK\xa0VE\xc0'
p1693
tp1694
bsg1684
S'Cell[1].axon[23]'
p1695
sI88
I166
tp1696
a(F2.477756012300883
S'Cell[0].dend[11] syn_ = new AmpaNmda(0.166666666667)'
p1697
I0
(dp1698
g1669
F0.5
sg1670
F40.0
sg1671
I88
sg1672
g7
(g8
(I0
tp1699
g10
tp1700
Rp1701
(I1
(I3
tp1702
g1679
I00
S'\xba\xdd2\x96\x9fD=\xc0\x80H\xd4\xa6j\xb2@@\xff\xff\xff?\n\x179\xc0'
p1703
tp1704
bsg1684
S'Cell[1].axon[100]'
p1705
sI88
I22
tp1706
a(F2.1580683964883334
S'Cell[3].dend[56] syn_ = new FastInhib(0.166666666667)'
p1707
I3
(dp1708
g1669
F0.30000000000000004
sg1670
F40.0
sg1671
I88
sg1672
g7
(g8
(I0
tp1709
g10
tp1710
Rp1711
(I1
(I3
tp1712
g1679
I00
S'n&W\x82\x12\xdeC\xc0-\xa2\xa9\xcb\xcf\xc8@@\xdea\xea(\xd7\x17B\xc0'
p1713
tp1714
bsg1684
S'Cell[1].axon[223]'
p1715
sI88
I166
tp1716
a(F1.3660764170032034
S'Cell[2].dend[5] syn_ = new FastInhib(0.7)'
p1717
I2
(dp1718
g1669
F0.16666666666666666
sg1670
F40.0
sg1671
I88
sg1672
g7
(g8
(I0
tp1719
g10
tp1720
Rp1721
(I1
(I3
tp1722
g1679
I00
S'\x81(\xa9\x8b\xcd\x920\xc0V\x93\xd7\xd0\x1c\xecH\xc0\xd5\xb7.Uo\xf5J\xc0'
p1723
tp1724
bsg1684
S'Cell[1].axon[240]'
p1725
sI88
I118
tp1726
a(F2.033109287720549
S'Cell[1].apic[2] syn_ = new AmpaNmda(0.5)'
p1727
I1
(dp1728
g1669
F0.30000000000000004
sg1670
F40.0
sg1671
I88
sg1672
g7
(g8
(I0
tp1729
g10
tp1730
Rp1731
(I1
(I3
tp1732
g1679
I00
S"\xeb\x10\xa6\xbd\x8d\xb6#\xc0\x95\xaeC$\xeb\xa6V@\x0e\x8d\x8b>I\xc0'@"
p1733
tp1734
bsg1684
S'Cell[1].axon[325]'
p1735
sI88
I70
tp1736
a(F1.403999014341174
S'Cell[3].dend[53] syn_ = new FastInhib(0.166666666667)'
p1737
I3
(dp1738
g1669
F0.8333333333333333
sg1670
F40.0
sg1671
I88
sg1672
g7
(g8
(I0
tp1739
g10
tp1740
Rp1741
(I1
(I3
tp1742
g1679
I00
S'\xb3\xacj\xdd\x89_A@\x0ez\r\x1f}:3\xc0\xb1\xfc\x99YnW2\xc0'
p1743
tp1744
bsg1684
S'Cell[1].axon[345]'
p1745
sI88
I166
tp1746
a(F1.886611190675065
S'Cell[0].dend[2] syn_ = new AmpaNmda(0.833333333333)'
p1747
I0
(dp1748
g1669
F0.16666666666666666
sg1670
F40.0
sg1671
I88
sg1672
g7
(g8
(I0
tp1749
g10
tp1750
Rp1751
(I1
(I3
tp1752
g1679
I00
S'\xae\x10\x0fLr3K@l\xbf\x1a\x02\xf9\xcc\xe8?\xfa\xea4\xads\xdb8\xc0'
p1753
tp1754
bsg1684
S'Cell[1].axon[350]'
p1755
sI88
I22
tp1756
a(F2.4193550380746998
S'Cell[3].dend[15] syn_ = new FastInhib(0.166666666667)'
p1757
I3
(dp1758
g1669
F0.8999999999999999
sg1670
F40.0
sg1671
I136
sg1672
g7
(g8
(I0
tp1759
g10
tp1760
Rp1761
(I1
(I3
tp1762
g1679
I00
S'\xb8\xc2X\x01R\x14\xd4?a\x84\xbb\xda\n\xf0"\xc0\x00\x00\x00\x00\xd73P\xc0'
p1763
tp1764
bsg1684
S'Cell[2].axon[3]'
p1765
sI136
I166
tp1766
a(F2.088726894512441
S'Cell[1].dend[47] syn_ = new AmpaNmda(0.166666666667)'
p1767
I1
(dp1768
g1669
F0.1
sg1670
F40.0
sg1671
I184
sg1672
g7
(g8
(I0
tp1769
g10
tp1770
Rp1771
(I1
(I3
tp1772
g1679
I00
S's\tV\xfd\x16\x7f1@\xe6\x08\xe4\xd7FpG@\x17G=\xcf\x03-a\xc0'
p1773
tp1774
bsg1684
S'Cell[3].axon[49]'
p1775
sI184
I70
tp1776
a(F2.0140609769336164
S'Cell[0].dend[15] syn_ = new ExpSid(0.5)'
p1777
I0
(dp1778
S'seg'
p1779
F0.8333333333333333
sS'hostfrom'
p1780
F41.0
sS'gid'
p1781
I185
sS'coords'
p1782
g7
(g8
(I0
tp1783
g10
tp1784
Rp1785
(I1
(I3
tp1786
g14
(S'f8'
p1787
I0
I1
tp1788
Rp1789
(I3
S'<'
p1790
NNNI-1
I-1
I0
tp1791
bI00
S"\x87\x88\x9d\xe9'\x8b1\xc0\xfe\xf3\xc7e\xdd!P@\xd4\xa1k\xce\xa4|\x18\xc0"
p1792
tp1793
bsS'secnames'
p1794
S'Cell[3].axon[0]'
p1795
sI185
I22
tp1796
a(F1.9951562307559711
S'Cell[2].dend[45] syn_ = new FastInhib(0.833333333333)'
p1797
I2
(dp1798
g1779
F0.8333333333333333
sg1780
F41.0
sg1781
I185
sg1782
g7
(g8
(I0
tp1799
g10
tp1800
Rp1801
(I1
(I3
tp1802
g1789
I00
S"e'\xa2\x1c?)V@\xf2u\xcd\xea\xb4hC@~\xf0FP\x16\xfaL\xc0"
p1803
tp1804
bsg1794
S'Cell[3].axon[162]'
p1805
sI185
I118
tp1806
a(F2.190558127386255
S'Cell[1].dend[49] syn_ = new ExpSid(0.5)'
p1807
I1
(dp1808
g1779
F0.16666666666666666
sg1780
F41.0
sg1781
I185
sg1782
g7
(g8
(I0
tp1809
g10
tp1810
Rp1811
(I1
(I3
tp1812
g1789
I00
S'\x04\x9d?\x9b\xfb\nC@\xdc\xe1\xfe\xb6W\xccT@\\\x9f\xac\xf1\xf3\xfaE\xc0'
p1813
tp1814
bsg1794
S'Cell[3].axon[180]'
p1815
sI185
I70
tp1816
a(F0.6870915010799787
S'Cell[2].dend[46] syn_ = new FastInhib(0.9)'
p1817
I2
(dp1818
g1779
F0.5
sg1780
F41.0
sg1781
I89
sg1782
g7
(g8
(I0
tp1819
g10
tp1820
Rp1821
(I1
(I3
tp1822
g1789
I00
S'\xb9\x0e9h$\xc1B@\x0f\x19\xfc@\xc4\x1dS@`\x8a\xf1v@\xe0W\xc0'
p1823
tp1824
bsg1794
S'Cell[1].axon[2]'
p1825
sI89
I118
tp1826
a(F2.363498893612033
S'Cell[0].dend[0] syn_ = new ExpSid(0.5)'
p1827
I0
(dp1828
g1779
F0.5
sg1780
F41.0
sg1781
I89
sg1782
g7
(g8
(I0
tp1829
g10
tp1830
Rp1831
(I1
(I3
tp1832
g1789
I00
S"Um\xcc\x9d\x91\xda'@\xdc!i{\xed\xb7.@\xddM\x1eWR\xf52\xc0"
p1833
tp1834
bsg1794
S'Cell[1].axon[157]'
p1835
sI89
I22
tp1836
a(F2.29606522544982
S'Cell[2].dend[11] syn_ = new FastInhib(0.166666666667)'
p1837
I2
(dp1838
S'seg'
p1839
F0.8333333333333333
sS'hostfrom'
p1840
F42.0
sS'gid'
p1841
I42
sS'coords'
p1842
g7
(g8
(I0
tp1843
g10
tp1844
Rp1845
(I1
(I3
tp1846
g14
(S'f8'
p1847
I0
I1
tp1848
Rp1849
(I3
S'<'
p1850
NNNI-1
I-1
I0
tp1851
bI00
S'\x04C2\xaf\xd7$I@M,b\xbbt;L\xc0\xe6a\xcc]\xce>\xf9\xbf'
p1852
tp1853
bsS'secnames'
p1854
S'Cell[0].axon[10]'
p1855
sI42
I118
tp1856
a(F2.282867826583324
S'Cell[0].apic[12] syn_ = new AmpaNmda(0.1)'
p1857
I0
(dp1858
g1839
F0.16666666666666666
sg1840
F42.0
sg1841
I90
sg1842
g7
(g8
(I0
tp1859
g10
tp1860
Rp1861
(I1
(I3
tp1862
g1849
I00
S'\x00\xfe\x7f\xff\xd0\nB\xc0\xc8\xce4sE\xbf_\xc0\xaf\xc4L6\xfe\x1d\x04\xc0'
p1863
tp1864
bsg1854
S'Cell[1].axon[114]'
p1865
sI90
I22
tp1866
a(F2.4831151578016044
S'Cell[1].dend[17] syn_ = new AmpaNmda(0.5)'
p1867
I1
(dp1868
g1839
F0.5
sg1840
F42.0
sg1841
I90
sg1842
g7
(g8
(I0
tp1869
g10
tp1870
Rp1871
(I1
(I3
tp1872
g1849
I00
S'E-ry\x99\xfc"\xc0\xc7\xe4\xbe@29G@-\x96\x9b\xad\x11\x02=@'
p1873
tp1874
bsg1854
S'Cell[1].axon[208]'
p1875
sI90
I70
tp1876
a(F1.9526979086144733
S'Cell[2].dend[38] syn_ = new FastInhib(0.833333333333)'
p1877
I2
(dp1878
S'seg'
p1879
F0.5
sS'hostfrom'
p1880
F43.0
sS'gid'
p1881
I91
sS'coords'
p1882
g7
(g8
(I0
tp1883
g10
tp1884
Rp1885
(I1
(I3
tp1886
g14
(S'f8'
p1887
I0
I1
tp1888
Rp1889
(I3
S'<'
p1890
NNNI-1
I-1
I0
tp1891
bI00
S'\xa8\xf9\xb3\xd5\xff\xe1d@@\xe1p\xc33\x85O@\x00\x00\x00\xe0\xa3\xd0P\xc0'
p1892
tp1893
bsS'secnames'
p1894
S'Cell[1].axon[111]'
p1895
sI91
I118
tp1896
a(F1.1763758045818808
S'Cell[1].dend[49] syn_ = new ExpSid(0.5)'
p1897
I1
(dp1898
g1879
F0.16666666666666666
sg1880
F43.0
sg1881
I91
sg1882
g7
(g8
(I0
tp1899
g10
tp1900
Rp1901
(I1
(I3
tp1902
g1889
I00
S'\xba\x1a\xcc\xaa\x89XC@\nz\x91\xed\x99uT@\x87S\xb2Q\xad;F\xc0'
p1903
tp1904
bsg1894
S'Cell[1].axon[214]'
p1905
sI91
I70
tp1906
a(F2.445715871221025
S'Cell[2].dend[45] syn_ = new FastInhib(0.166666666667)'
p1907
I2
(dp1908
g1879
F0.5
sg1880
F43.0
sg1881
I91
sg1882
g7
(g8
(I0
tp1909
g10
tp1910
Rp1911
(I1
(I3
tp1912
g1889
I00
S'\xe03\xc7#W)V@\x10\xa0n\xff|\x18;@\x9a\xdf\xce<\x81\nB\xc0'
p1913
tp1914
bsg1894
S'Cell[1].axon[248]'
p1915
sI91
I118
tp1916
a(F2.378872019546579
S'Cell[3].dend[51] syn_ = new FastInhib(0.785714285714)'
p1917
I3
(dp1918
g1879
F0.5
sg1880
F43.0
sg1881
I91
sg1882
g7
(g8
(I0
tp1919
g10
tp1920
Rp1921
(I1
(I3
tp1922
g1889
I00
S'\x8c \xdf\xf1=fP@\xfeiO\x06\xf5kX@^\xf2$\xdf\xe11V\xc0'
p1923
tp1924
bsg1894
S'Cell[1].axon[336]'
p1925
sI91
I166
tp1926
a(F1.9118442599033274
S'Cell[2].dend[61] syn_ = new FastInhib(0.833333333333)'
p1927
I2
(dp1928
g1879
F0.5
sg1880
F43.0
sg1881
I139
sg1882
g7
(g8
(I0
tp1929
g10
tp1930
Rp1931
(I1
(I3
tp1932
g1889
I00
S'\x00\x00\x00\xb0GAN@\x00\x00\x00\xc0\xf5\xd4c@\x00\x00\x00\xa0\x99\x19+@'
p1933
tp1934
bsg1894
S'Cell[2].axon[145]'
p1935
sI139
I118
tp1936
a(F1.7167412202381922
S'Cell[1].apic[5] syn_ = new ExpSid(0.5)'
p1937
I1
(dp1938
g1879
F0.7857142857142856
sg1880
F43.0
sg1881
I139
sg1882
g7
(g8
(I0
tp1939
g10
tp1940
Rp1941
(I1
(I3
tp1942
g1889
I00
S'|\x81G\xaf\xc0\x973\xc0:\xb7-\xb3\xec\xd4d@^\xcc`t\xc0\xbd\x11\xc0'
p1943
tp1944
bsg1894
S'Cell[2].axon[275]'
p1945
sI139
I70
tp1946
a(F2.35794926520301
S'Cell[3].dend[51] syn_ = new FastInhib(0.0714285714286)'
p1947
I3
(dp1948
S'seg'
p1949
F0.16666666666666666
sS'hostfrom'
p1950
F44.0
sS'gid'
p1951
I92
sS'coords'
p1952
g7
(g8
(I0
tp1953
g10
tp1954
Rp1955
(I1
(I3
tp1956
g14
(S'f8'
p1957
I0
I1
tp1958
Rp1959
(I3
S'<'
p1960
NNNI-1
I-1
I0
tp1961
bI00
S'\xb7\xb0\xe8\xa4\xa2$@@.\x97\x06\xda\x0fG\x11\xc0\xcd\xc6Cq\xd6[D\xc0'
p1962
tp1963
bsS'secnames'
p1964
S'Cell[1].axon[236]'
p1965
sI92
I166
tp1966
a(F1.9149557038613592
S'Cell[3].dend[27] syn_ = new FastInhib(0.5)'
p1967
I3
(dp1968
g1949
F0.8999999999999999
sg1950
F44.0
sg1951
I188
sg1952
g7
(g8
(I0
tp1969
g10
tp1970
Rp1971
(I1
(I3
tp1972
g1959
I00
S'\xdc\x02@w9FX\xc0\x1d\x05B\xf6\x9dpH\xc0:\xed\xe7\t\xbc\xc2\x1c@'
p1973
tp1974
bsg1964
S'Cell[3].axon[15]'
p1975
sI188
I166
tp1976
a(F1.9144814146427331
S'Cell[0].dend[2] syn_ = new ExpSid(0.166666666667)'
p1977
I0
(dp1978
S'seg'
p1979
F0.5
sS'hostfrom'
p1980
F45.0
sS'gid'
p1981
I141
sS'coords'
p1982
g7
(g8
(I0
tp1983
g10
tp1984
Rp1985
(I1
(I3
tp1986
g14
(S'f8'
p1987
I0
I1
tp1988
Rp1989
(I3
S'<'
p1990
NNNI-1
I-1
I0
tp1991
bI00
S'pU-E\x1d\x82;@\x8e\xe0\xfa+\x9a\xb2$@\x00\x00\x00\x00\xd7c9\xc0'
p1992
tp1993
bsS'secnames'
p1994
S'Cell[2].axon[44]'
p1995
sI141
I22
tp1996
a(F2.44164921774565
S'Cell[0].apic[17] syn_ = new ExpSid(0.166666666667)'
p1997
I0
(dp1998
g1979
F0.5
sg1980
F45.0
sg1981
I141
sg1982
g7
(g8
(I0
tp1999
g10
tp2000
Rp2001
(I1
(I3
tp2002
g1989
I00
S'\x00\x00\x00P\xb8\x1e\xe1?\x00\x00\x00\x00)\xdc>\xc0\x00\x00\x00\xe0\xa3p6\xc0'
p2003
tp2004
bsg1994
S'Cell[2].axon[145]'
p2005
sI141
I22
tp2006
a(F1.6757551107650852
S'Cell[0].dend[1] syn_ = new ExpSid(0.833333333333)'
p2007
I0
(dp2008
g1979
F0.5
sg1980
F45.0
sg1981
I141
sg1982
g7
(g8
(I0
tp2009
g10
tp2010
Rp2011
(I1
(I3
tp2012
g1989
I00
S'\xa4\xaf]\x05n\xbfL@>0\x96\xbbd~2@J\x8d\x8d%\xe667\xc0'
p2013
tp2014
bsg1994
S'Cell[2].axon[294]'
p2015
sI141
I22
tp2016
a(F1.9610518824207552
S'Cell[3].dend[56] syn_ = new FastInhib(0.166666666667)'
p2017
I3
(dp2018
g1979
F0.5
sg1980
F45.0
sg1981
I141
sg1982
g7
(g8
(I0
tp2019
g10
tp2020
Rp2021
(I1
(I3
tp2022
g1989
I00
S'\x9b\xbf\x9e\xbb\xbb\xc3B\xc0\rl\xf6\x0f\x10\xceA@\x11\xf3\x04\xc4\xec2A\xc0'
p2023
tp2024
bsg1994
S'Cell[2].axon[448]'
p2025
sI141
I166
tp2026
a(F2.4428126539502895
S'Cell[0].dend[17] syn_ = new ExpSid(0.5)'
p2027
I0
(dp2028
g1979
F0.16666666666666666
sg1980
F45.0
sg1981
I141
sg1982
g7
(g8
(I0
tp2029
g10
tp2030
Rp2031
(I1
(I3
tp2032
g1989
I00
S'\xbb\x19-\xa1\x87{3\xc0\x0fZ\x17\xb7Z\xf96@\x9cU\xce\xc0rsF\xc0'
p2033
tp2034
bsg1994
S'Cell[2].axon[450]'
p2035
sI141
I22
tp2036
a(F2.3741595971945735
S'Cell[3].dend[60] syn_ = new FastInhib(0.5)'
p2037
I3
(dp2038
g1979
F0.5
sg1980
F45.0
sg1981
I141
sg1982
g7
(g8
(I0
tp2039
g10
tp2040
Rp2041
(I1
(I3
tp2042
g1989
I00
S'\x10\xc7\xebt\x0c?\x10@\xed\xad\xef\x81)c\x1c\xc0\x9f\x18\xa0\x02?\x91\x1f\xc0'
p2043
tp2044
bsg1994
S'Cell[2].axon[474]'
p2045
sI141
I166
tp2046
a(F2.0949377386441466
S'Cell[2].dend[18] syn_ = new FastInhib(0.5)'
p2047
I2
(dp2048
g1979
F0.30000000000000004
sg1980
F45.0
sg1981
I141
sg1982
g7
(g8
(I0
tp2049
g10
tp2050
Rp2051
(I1
(I3
tp2052
g1989
I00
S'\x98\xc8\xb6\xe5N!N@h\xa9\x00\xb2\xe8\x8dH\xc0\xcb\xea\xf2\x00\x0f\xe3@@'
p2053
tp2054
bsg1994
S'Cell[2].axon[487]'
p2055
sI141
I118
tp2056
a(F2.4473389998269215
S'Cell[1].dend[34] syn_ = new ExpSid(0.5)'
p2057
I1
(dp2058
g1979
F0.5
sg1980
F45.0
sg1981
I189
sg1982
g7
(g8
(I0
tp2059
g10
tp2060
Rp2061
(I1
(I3
tp2062
g1989
I00
S'< \xb4K\xf7\xe2\x00@\x92A\x81k\x9d\xd3L@\xdeJe\xe7\xb3\xaf.\xc0'
p2063
tp2064
bsg1994
S'Cell[3].axon[180]'
p2065
sI189
I70
tp2066
a(F1.5818964361815149
S'Cell[3].dend[66] syn_ = new FastInhib(0.5)'
p2067
I3
(dp2068
g1979
F0.8333333333333333
sg1980
F45.0
sg1981
I93
sg1982
g7
(g8
(I0
tp2069
g10
tp2070
Rp2071
(I1
(I3
tp2072
g1989
I00
S'\xd4\x158u\xa3\xedY@\x81gZ\x90YPM@\xbf\xb0\x99\x93\xb7\xf9C\xc0'
p2073
tp2074
bsg1994
S'Cell[1].axon[104]'
p2075
sI93
I166
tp2076
a(F1.9330478576288017
S'Cell[0].dend[13] syn_ = new ExpSid(0.5)'
p2077
I0
(dp2078
g1979
F0.16666666666666666
sg1980
F45.0
sg1981
I93
sg1982
g7
(g8
(I0
tp2079
g10
tp2080
Rp2081
(I1
(I3
tp2082
g1989
I00
S'\xbc=V\xf9\r\xf7)\xc0EI\xf3\xbd6 B@\x115\n\xc741+\xc0'
p2083
tp2084
bsg1994
S'Cell[1].axon[205]'
p2085
sI93
I22
tp2086
a(F1.6569048088471166
S'Cell[2].dend[54] syn_ = new FastInhib(0.1)'
p2087
I2
(dp2088
S'seg'
p2089
F0.30000000000000004
sS'hostfrom'
p2090
F46.0
sS'gid'
p2091
I94
sS'coords'
p2092
g7
(g8
(I0
tp2093
g10
tp2094
Rp2095
(I1
(I3
tp2096
g14
(S'f8'
p2097
I0
I1
tp2098
Rp2099
(I3
S'<'
p2100
NNNI-1
I-1
I0
tp2101
bI00
S"\x07(\xaf\x8aV'U@6N\x84aM\x9e\x17\xc0=\xacA\xb3]N\x1e\xc0"
p2102
tp2103
bsS'secnames'
p2104
S'Cell[1].axon[89]'
p2105
sI94
I118
tp2106
a(F1.1102733230675326
S'Cell[3].dend[48] syn_ = new FastInhib(0.9)'
p2107
I3
(dp2108
g2089
F0.5
sg2090
F46.0
sg2091
I94
sg2092
g7
(g8
(I0
tp2109
g10
tp2110
Rp2111
(I1
(I3
tp2112
g2099
I00
S'V\xc6\x1b\x90\x9d\xd5N@\xc4\xbc\xfa\xab\x10y`\xc0\xbb7.\x9ab\xec\x1e\xc0'
p2113
tp2114
bsg2104
S'Cell[1].axon[124]'
p2115
sI94
I166
tp2116
a(F1.6317140766523133
S'Cell[2].dend[13] syn_ = new FastInhib(0.5)'
p2117
I2
(dp2118
g2089
F0.5
sg2090
F46.0
sg2091
I94
sg2092
g7
(g8
(I0
tp2119
g10
tp2120
Rp2121
(I1
(I3
tp2122
g2099
I00
S'\x80w_\x80J\x9fB@\xcf]\x01\xd1\xea\xfc;\xc0\x00\x00\x00@\xe1\xfa9@'
p2123
tp2124
bsg2104
S'Cell[1].axon[184]'
p2125
sI94
I118
tp2126
a(F1.5927348966771893
S'Cell[3].dend[22] syn_ = new FastInhib(0.9)'
p2127
I3
(dp2128
g2089
F0.5
sg2090
F46.0
sg2091
I94
sg2092
g7
(g8
(I0
tp2129
g10
tp2130
Rp2131
(I1
(I3
tp2132
g2099
I00
S';\xcc\x1a\xe5\xed\x0b[@\n;\xba7B~\xf1\xbfB\xf6\xb8\xd2\x94\xb3L\xc0'
p2133
tp2134
bsg2104
S'Cell[1].axon[273]'
p2135
sI94
I166
tp2136
a(F2.2709718196568676
S'Cell[0].dend[3] syn_ = new AmpaNmda(0.5)'
p2137
I0
(dp2138
g2089
F0.5
sg2090
F46.0
sg2091
I94
sg2092
g7
(g8
(I0
tp2139
g10
tp2140
Rp2141
(I1
(I3
tp2142
g2099
I00
S'l9R\xa95\x02&@\x0c:\xe8\xcd\xfc\x179@\x95\xe9\x15{\xf8\x989\xc0'
p2143
tp2144
bsg2104
S'Cell[1].axon[301]'
p2145
sI94
I22
tp2146
a(F2.4051724299857336
S'Cell[0].dend[13] syn_ = new AmpaNmda(0.5)'
p2147
I0
(dp2148
g2089
F0.5
sg2090
F46.0
sg2091
I94
sg2092
g7
(g8
(I0
tp2149
g10
tp2150
Rp2151
(I1
(I3
tp2152
g2099
I00
S'\xc4\x9e\xe5\xdc@\xf5+\xc0\xfcp\x80C=\xf6@@h\x00\xfe\x99X\x82&\xc0'
p2153
tp2154
bsg2104
S'Cell[1].axon[312]'
p2155
sI94
I22
tp2156
a(F2.131037392259027
S'Cell[1].dend[0] syn_ = new AmpaNmda(0.5)'
p2157
I1
(dp2158
g2089
F0.5
sg2090
F46.0
sg2091
I94
sg2092
g7
(g8
(I0
tp2159
g10
tp2160
Rp2161
(I1
(I3
tp2162
g2099
I00
S'\x84\x97r\x80\xbc=8\xc0\xc4\x830\x0f\xd2\xaeI@\x07!\x1d\xc3[\xd81\xc0'
p2163
tp2164
bsg2104
S'Cell[1].axon[316]'
p2165
sI94
I70
tp2166
a(F1.1087728712688552
S'Cell[1].dend[14] syn_ = new AmpaNmda(0.1)'
p2167
I1
(dp2168
g2089
F0.16666666666666666
sg2090
F46.0
sg2091
I94
sg2092
g7
(g8
(I0
tp2169
g10
tp2170
Rp2171
(I1
(I3
tp2172
g2099
I00
S'\xea\xb3\xae\x13N\x16F\xc0\x07\x11\t\x86\xed\x8b?@\x00\x00\x00@\n\xd7\x1a\xc0'
p2173
tp2174
bsg2104
S'Cell[1].axon[348]'
p2175
sI94
I70
tp2176
a(F2.011915751415839
S'Cell[0].dend[6] syn_ = new ExpSid(0.9)'
p2177
I0
(dp2178
S'seg'
p2179
F0.5
sS'hostfrom'
p2180
F47.0
sS'gid'
p2181
I95
sS'coords'
p2182
g7
(g8
(I0
tp2183
g10
tp2184
Rp2185
(I1
(I3
tp2186
g14
(S'f8'
p2187
I0
I1
tp2188
Rp2189
(I3
S'<'
p2190
NNNI-1
I-1
I0
tp2191
bI00
S'2\xfb5N\xf5\xcd:@\x10\x8f\x1e\xb0\x90\xf5T@p\xda\xaea\xb2\xe20@'
p2192
tp2193
bsS'secnames'
p2194
S'Cell[1].axon[187]'
p2195
sI95
I22
tp2196
a.