(lp0
(F1.4158964942993684
S'Cell[0].apic[2] syn_ = new ExpSid(0.5)'
p1
I0
(dp2
S'seg'
p3
F0.16666666666666666
sS'hostfrom'
p4
F1.0
sS'gid'
p5
I145
sS'coords'
p6
cnumpy.core.multiarray
_reconstruct
p7
(cnumpy
ndarray
p8
(I0
tp9
S'b'
p10
tp11
Rp12
(I1
(I3
tp13
cnumpy
dtype
p14
(S'f8'
p15
I0
I1
tp16
Rp17
(I3
S'<'
p18
NNNI-1
I-1
I0
tp19
bI00
S'<\x0eHd\x07HP\xc0\xe4\x86\xf2\xec\x81>Z@\xc0"Q$\x06\xed\x1a\xc0'
p20
tp21
bsS'secnames'
p22
S'Cell[3].axon[114]'
p23
sI145
I17
tp24
a(F1.9704055914230332
S'Cell[0].dend[0] syn_ = new ExpSid(0.5)'
p25
I0
(dp26
g3
F0.8333333333333333
sg4
F1.0
sg5
I145
sg6
g7
(g8
(I0
tp27
g10
tp28
Rp29
(I1
(I3
tp30
g17
I00
S'\xe5\xa2\xd7\xa5\xe6\x1ab\xc0\xc3F\xb8\x1c\xd0vE@\xbcZ4!\xc3B\x1e@'
p31
tp32
bsg22
S'Cell[3].axon[167]'
p33
sI145
I17
tp34
a(F1.2430146176098376
S'Cell[2].dend[33] syn_ = new FastInhib(0.3)'
p35
I2
(dp36
g3
F0.5
sg4
F1.0
sg5
I97
sg6
g7
(g8
(I0
tp37
g10
tp38
Rp39
(I1
(I3
tp40
g17
I00
S'\x86\xbaI\xf60\xa5?@?\x99\x9f\xb8b\rP@\x00\x00\x00\xe0Q\xb8\x10\xc0'
p41
tp42
bsg22
S'Cell[2].axon[219]'
p43
sI97
I113
tp44
a(F2.2905979663105462
S'Cell[0].apic[27] syn_ = new AmpaNmda(0.833333333333)'
p45
I0
(dp46
S'seg'
p47
F0.5
sS'hostfrom'
p48
F2.0
sS'gid'
p49
I98
sS'coords'
p50
g7
(g8
(I0
tp51
g10
tp52
Rp53
(I1
(I3
tp54
g14
(S'f8'
p55
I0
I1
tp56
Rp57
(I3
S'<'
p58
NNNI-1
I-1
I0
tp59
bI00
S'\xbf\x95\xf2(?\xab(\xc0r\xbb\xcb[V\x7f]@\xde\xfb\x8d\xcd\xd7h4\xc0'
p60
tp61
bsS'secnames'
p62
S'Cell[2].axon[35]'
p63
sI98
I17
tp64
a(F2.357568238776095
S'Cell[0].dend[11] syn_ = new AmpaNmda(0.5)'
p65
I0
(dp66
g47
F0.5
sg48
F2.0
sg49
I98
sg50
g7
(g8
(I0
tp67
g10
tp68
Rp69
(I1
(I3
tp70
g57
I00
S'67\xc0\x8c\x1d\xf4O\xc0\xd3$uyD\x1eK@;\xf4\xa6\xe7$sG\xc0'
p71
tp72
bsg62
S'Cell[2].axon[314]'
p73
sI98
I17
tp74
a(F0.7622520889068993
S'Cell[0].apic[3] syn_ = new AmpaNmda(0.5)'
p75
I0
(dp76
g47
F0.16666666666666666
sg48
F2.0
sg49
I98
sg50
g7
(g8
(I0
tp77
g10
tp78
Rp79
(I1
(I3
tp80
g57
I00
S'\x8e\x8f\xd5\x0eatO\xc0\x00\x00\x00\xe0\xa3H`@\xe3\xb4\xdaXP\xb7"\xc0'
p81
tp82
bsg62
S'Cell[2].axon[394]'
p83
sI98
I17
tp84
a(F2.2905979663105462
S'Cell[0].apic[27] syn_ = new ExpSid(0.833333333333)'
p85
I0
(dp86
S'seg'
p87
F0.5
sS'hostfrom'
p88
F3.0
sS'gid'
p89
I99
sS'coords'
p90
g7
(g8
(I0
tp91
g10
tp92
Rp93
(I1
(I3
tp94
g14
(S'f8'
p95
I0
I1
tp96
Rp97
(I3
S'<'
p98
NNNI-1
I-1
I0
tp99
bI00
S'\xbf\x95\xf2(?\xab(\xc0r\xbb\xcb[V\x7f]@\xde\xfb\x8d\xcd\xd7h4\xc0'
p100
tp101
bsS'secnames'
p102
S'Cell[2].axon[35]'
p103
sI99
I17
tp104
a(F2.357568238776095
S'Cell[0].dend[11] syn_ = new ExpSid(0.5)'
p105
I0
(dp106
g87
F0.5
sg88
F3.0
sg89
I99
sg90
g7
(g8
(I0
tp107
g10
tp108
Rp109
(I1
(I3
tp110
g97
I00
S'67\xc0\x8c\x1d\xf4O\xc0\xd3$uyD\x1eK@;\xf4\xa6\xe7$sG\xc0'
p111
tp112
bsg102
S'Cell[2].axon[314]'
p113
sI99
I17
tp114
a(F0.7622520889068993
S'Cell[0].apic[3] syn_ = new ExpSid(0.5)'
p115
I0
(dp116
g87
F0.16666666666666666
sg88
F3.0
sg89
I99
sg90
g7
(g8
(I0
tp117
g10
tp118
Rp119
(I1
(I3
tp120
g97
I00
S'\x8e\x8f\xd5\x0eatO\xc0\x00\x00\x00\xe0\xa3H`@\xe3\xb4\xdaXP\xb7"\xc0'
p121
tp122
bsg102
S'Cell[2].axon[394]'
p123
sI99
I17
tp124
a(F1.7617141793274018
S'Cell[2].dend[42] syn_ = new FastInhib(0.1)'
p125
I2
(dp126
g87
F0.07142857142857142
sg88
F3.0
sg89
I147
sg90
g7
(g8
(I0
tp127
g10
tp128
Rp129
(I1
(I3
tp130
g97
I00
S'\xa1\xdd\x0e\xf9\xe6\xdc,@d\xae\x19\xf9\xc5\xc53@\xe8\xa4&\xbf\x14p\xfe?'
p131
tp132
bsg102
S'Cell[3].axon[3]'
p133
sI147
I113
tp134
a(F0.8359663173003599
S'Cell[2].dend[27] syn_ = new FastInhib(0.5)'
p135
I2
(dp136
S'seg'
p137
F0.21428571428571427
sS'hostfrom'
p138
F4.0
sS'gid'
p139
I4
sS'coords'
p140
g7
(g8
(I0
tp141
g10
tp142
Rp143
(I1
(I3
tp144
g14
(S'f8'
p145
I0
I1
tp146
Rp147
(I3
S'<'
p148
NNNI-1
I-1
I0
tp149
bI00
S'\xb6\x9a\xd3\x15\xf4\x1bA@\x1c\xd8\x07l\x02@\x12\xc0BL\xc9\xa2\xe9\xdb\x14\xc0'
p150
tp151
bsS'secnames'
p152
S'Cell[0].axon[25]'
p153
sI4
I113
tp154
a(F2.1739836309534777
S'Cell[2].dend[7] syn_ = new FastInhib(0.9)'
p155
I2
(dp156
S'seg'
p157
F0.8999999999999999
sS'hostfrom'
p158
F7.0
sS'gid'
p159
I103
sS'coords'
p160
g7
(g8
(I0
tp161
g10
tp162
Rp163
(I1
(I3
tp164
g14
(S'f8'
p165
I0
I1
tp166
Rp167
(I3
S'<'
p168
NNNI-1
I-1
I0
tp169
bI00
S'p\xac\\\x96\xe0\x9aa@7\x10\xc1\xe2K,B@\x83\xac\xe2-B\xbe\x1d\xc0'
p170
tp171
bsS'secnames'
p172
S'Cell[2].axon[347]'
p173
sI103
I113
tp174
a(F1.8878431475004565
S'Cell[0].dend[25] syn_ = new ExpSid(0.166666666667)'
p175
I0
(dp176
g157
F0.5
sg158
F7.0
sg159
I151
sg160
g7
(g8
(I0
tp177
g10
tp178
Rp179
(I1
(I3
tp180
g167
I00
S'\x8cYg\xf6yOC\xc0s\xa6\x98I\xe2\x9fO@86\xf4\x1aK\x82\x1d@'
p181
tp182
bsg172
S'Cell[3].axon[38]'
p183
sI151
I17
tp184
a(F1.6810055577555656
S'Cell[0].dend[9] syn_ = new ExpSid(0.5)'
p185
I0
(dp186
g157
F0.5
sg158
F7.0
sg159
I151
sg160
g7
(g8
(I0
tp187
g10
tp188
Rp189
(I1
(I3
tp190
g167
I00
S'\x89\xd838\x9dsQ\xc0C\x00\xfd@M\xadK@d\xbf!\xb8\xdd\x11+\xc0'
p191
tp192
bsg172
S'Cell[3].axon[142]'
p193
sI151
I17
tp194
a(F1.9788917518772176
S'Cell[1].dend[28] syn_ = new AmpaNmda(0.5)'
p195
I1
(dp196
S'seg'
p197
F0.5
sS'hostfrom'
p198
F8.0
sS'gid'
p199
I152
sS'coords'
p200
g7
(g8
(I0
tp201
g10
tp202
Rp203
(I1
(I3
tp204
g14
(S'f8'
p205
I0
I1
tp206
Rp207
(I3
S'<'
p208
NNNI-1
I-1
I0
tp209
bI00
S'bjK0m\xe3C@\x99\xfbjn\xc04Y@\xfc\x87M\x1a\xb7j\x10\xc0'
p210
tp211
bsS'secnames'
p212
S'Cell[3].axon[126]'
p213
sI152
I65
tp214
a(F0.8369672029402623
S'Cell[2].dend[33] syn_ = new FastInhib(0.5)'
p215
I2
(dp216
g197
F0.8333333333333333
sg198
F8.0
sg199
I152
sg200
g7
(g8
(I0
tp217
g10
tp218
Rp219
(I1
(I3
tp220
g207
I00
S'\x90\xcc\x9e+@&A@\x12\x85\xf1\xe3RZU@\xe2uB\x92wi\xf3?'
p221
tp222
bsg212
S'Cell[3].axon[126]'
p223
sI152
I113
tp224
a(F2.317014250702033
S'Cell[2].dend[7] syn_ = new FastInhib(0.7)'
p225
I2
(dp226
g197
F0.5
sg198
F8.0
sg199
I152
sg200
g7
(g8
(I0
tp227
g10
tp228
Rp229
(I1
(I3
tp230
g207
I00
S'\xc0/\x82\xa2\x87G_@\x98\xf7\xe4\x1cQ\x0c1@2\xb1\xd4\xcc\xb5\xb1\x19\xc0'
p231
tp232
bsg212
S'Cell[3].axon[178]'
p233
sI152
I113
tp234
a(F0.8163601706978109
S'Cell[2].dend[30] syn_ = new FastInhib(0.0714285714286)'
p235
I2
(dp236
g197
F0.5
sg198
F8.0
sg199
I152
sg200
g7
(g8
(I0
tp237
g10
tp238
Rp239
(I1
(I3
tp240
g207
I00
S'\xf1\xb4\x848\xf1\x00A@\xa4\xe6\n\x17\x90\xbbE@C+}\x80\xab\xd9#\xc0'
p241
tp242
bsg212
S'Cell[3].axon[336]'
p243
sI152
I113
tp244
a(F2.2568040057767838
S'Cell[0].apic[0] syn_ = new AmpaNmda(0.5)'
p245
I0
(dp246
g197
F0.16666666666666666
sg198
F8.0
sg199
I104
sg200
g7
(g8
(I0
tp247
g10
tp248
Rp249
(I1
(I3
tp250
g207
I00
S'\xc8\x02o\xf3\xfa\xa0P\xc01\x89|U\x0f\x81R@\xa7\x12\x0fW4`\xe7?'
p251
tp252
bsg212
S'Cell[2].axon[218]'
p253
sI104
I17
tp254
a(F2.4568785124729957
S'Cell[1].dend[47] syn_ = new AmpaNmda(0.7)'
p255
I1
(dp256
g197
F0.5
sg198
F8.0
sg199
I104
sg200
g7
(g8
(I0
tp257
g10
tp258
Rp259
(I1
(I3
tp260
g207
I00
S'\xbb\x17\xf8\xca\x8d\xf7Y@\xc2PV\x13\xdax!@\x00\x00\x00 \xaeG\r@'
p261
tp262
bsg212
S'Cell[2].axon[290]'
p263
sI104
I65
tp264
a(F2.373037615898523
S'Cell[1].dend[15] syn_ = new ExpSid(0.928571428571)'
p265
I1
(dp266
S'seg'
p267
F0.16666666666666666
sS'hostfrom'
p268
F9.0
sS'gid'
p269
I105
sS'coords'
p270
g7
(g8
(I0
tp271
g10
tp272
Rp273
(I1
(I3
tp274
g14
(S'f8'
p275
I0
I1
tp276
Rp277
(I3
S'<'
p278
NNNI-1
I-1
I0
tp279
bI00
S'\xab\xbc\n\x9f\t;V\xc0~/\xac\x08\xb4\xe2T@\xa6;\x18k\xa4\x81U\xc0'
p280
tp281
bsS'secnames'
p282
S'Cell[2].axon[33]'
p283
sI105
I65
tp284
a(F2.278573101548067
S'Cell[0].apic[28] syn_ = new AmpaNmda(0.833333333333)'
p285
I0
(dp286
S'seg'
p287
F0.5
sS'hostfrom'
p288
F10.0
sS'gid'
p289
I106
sS'coords'
p290
g7
(g8
(I0
tp291
g10
tp292
Rp293
(I1
(I3
tp294
g14
(S'f8'
p295
I0
I1
tp296
Rp297
(I3
S'<'
p298
NNNI-1
I-1
I0
tp299
bI00
S'\xdd\x06\xba\xe33\xd56@l\xcb\xce?\xf1\x03`@|\xa9\xd0NQ\x8a%\xc0'
p300
tp301
bsS'secnames'
p302
S'Cell[2].axon[68]'
p303
sI106
I17
tp304
a(F0.9726970893540999
S'Cell[2].dend[39] syn_ = new FastInhib(0.5)'
p305
I2
(dp306
g287
F0.8333333333333333
sg288
F10.0
sg289
I58
sg290
g7
(g8
(I0
tp307
g10
tp308
Rp309
(I1
(I3
tp310
g297
I00
S'{\x16\xb2\x95\x9bm5@\xbaQ\xf802\xd5\x19@%\x16\xc6\xd2\x17z\x02\xc0'
p311
tp312
bsg302
S'Cell[1].axon[34]'
p313
sI58
I113
tp314
a(F1.3777545372869227
S'Cell[2].dend[23] syn_ = new FastInhib(0.214285714286)'
p315
I2
(dp316
g287
F0.5
sg288
F10.0
sg289
I154
sg290
g7
(g8
(I0
tp317
g10
tp318
Rp319
(I1
(I3
tp320
g297
I00
S'\x04h\xbd\x7f\xe3\x80Q@P7\x91e2OE\xc0\x9d\xde\xfb\x10;Y/\xc0'
p321
tp322
bsg302
S'Cell[3].axon[5]'
p323
sI154
I113
tp324
a(F2.36761230452038
S'Cell[2].dend[29] syn_ = new FastInhib(0.5)'
p325
I2
(dp326
S'seg'
p327
F0.16666666666666666
sS'hostfrom'
p328
F12.0
sS'gid'
p329
I60
sS'coords'
p330
g7
(g8
(I0
tp331
g10
tp332
Rp333
(I1
(I3
tp334
g14
(S'f8'
p335
I0
I1
tp336
Rp337
(I3
S'<'
p338
NNNI-1
I-1
I0
tp339
bI00
S'\xd4M7\x9b\x9e;A@\x0e3\x89L"t0@\x9d\x03\xceR\xfc\x91\x10\xc0'
p340
tp341
bsS'secnames'
p342
S'Cell[1].axon[0]'
p343
sI60
I113
tp344
a(F2.45488796933768
S'Cell[2].dend[5] syn_ = new FastInhib(0.5)'
p345
I2
(dp346
g327
F0.16666666666666666
sg328
F12.0
sg329
I60
sg330
g7
(g8
(I0
tp347
g10
tp348
Rp349
(I1
(I3
tp350
g337
I00
S'\xe8\x05$\x81n\xfe>@\xe1\xe5+4\xd57F\xc0\xd2\x05\x01[q\xe4\xe5\xbf'
p351
tp352
bsg342
S'Cell[1].axon[1]'
p353
sI60
I113
tp354
a(F1.8820478637834295
S'Cell[2].dend[30] syn_ = new FastInhib(0.214285714286)'
p355
I2
(dp356
S'seg'
p357
F0.16666666666666666
sS'hostfrom'
p358
F13.0
sS'gid'
p359
I109
sS'coords'
p360
g7
(g8
(I0
tp361
g10
tp362
Rp363
(I1
(I3
tp364
g14
(S'f8'
p365
I0
I1
tp366
Rp367
(I3
S'<'
p368
NNNI-1
I-1
I0
tp369
bI00
S'hz\xcf\reoD@\xa5\x97VS\xf5!P@\xc4I\xb0\x16\xa6\x00)\xc0'
p370
tp371
bsS'secnames'
p372
S'Cell[2].axon[146]'
p373
sI109
I113
tp374
a(F0.9075551015869057
S'Cell[2].dend[32] syn_ = new FastInhib(0.5)'
p375
I2
(dp376
g357
F0.5
sg358
F13.0
sg359
I109
sg360
g7
(g8
(I0
tp377
g10
tp378
Rp379
(I1
(I3
tp380
g367
I00
S'\xa8\xf2Er\xad\x94R@\x80\xcc|\xf3\x99zc@\xe0DMM\x12<U\xc0'
p381
tp382
bsg372
S'Cell[2].axon[191]'
p383
sI109
I113
tp384
a(F1.0803753154577218
S'Cell[0].apic[28] syn_ = new ExpSid(0.833333333333)'
p385
I0
(dp386
S'seg'
p387
F0.16666666666666666
sS'hostfrom'
p388
F15.0
sS'gid'
p389
I159
sS'coords'
p390
g7
(g8
(I0
tp391
g10
tp392
Rp393
(I1
(I3
tp394
g14
(S'f8'
p395
I0
I1
tp396
Rp397
(I3
S'<'
p398
NNNI-1
I-1
I0
tp399
bI00
S'"\x99\xe4A{\xec6@\xa3#63JE`@\xc0^\x1a5\t\xcc\'\xc0'
p400
tp401
bsS'secnames'
p402
S'Cell[3].axon[233]'
p403
sI159
I17
tp404
a(F1.3805306430888975
S'Cell[2].dend[38] syn_ = new FastInhib(0.5)'
p405
I2
(dp406
S'seg'
p407
F0.8333333333333333
sS'hostfrom'
p408
F16.0
sS'gid'
p409
I160
sS'coords'
p410
g7
(g8
(I0
tp411
g10
tp412
Rp413
(I1
(I3
tp414
g14
(S'f8'
p415
I0
I1
tp416
Rp417
(I3
S'<'
p418
NNNI-1
I-1
I0
tp419
bI00
S'b\xe1/\xa0I\x16=@\xfc\x87_\x18]:\x04@\x00\x00\x00`ff\n\xc0'
p420
tp421
bsS'secnames'
p422
S'Cell[3].axon[138]'
p423
sI160
I113
tp424
a(F2.486289265742762
S'Cell[0].dend[8] syn_ = new AmpaNmda(0.833333333333)'
p425
I0
(dp426
g407
F0.3571428571428571
sg408
F16.0
sg409
I112
sg410
g7
(g8
(I0
tp427
g10
tp428
Rp429
(I1
(I3
tp430
g417
I00
S'\xd5\x80\xcf\x1e\x0b\xedb\xc0z\xe2p%\xde\xab[@\x86\x06\xdeH\x1b\xc5\xec?'
p431
tp432
bsg422
S'Cell[2].axon[164]'
p433
sI112
I17
tp434
a(F2.397953087912091
S'Cell[1].dend[21] syn_ = new ExpSid(0.5)'
p435
I1
(dp436
S'seg'
p437
F0.5
sS'hostfrom'
p438
F17.0
sS'gid'
p439
I161
sS'coords'
p440
g7
(g8
(I0
tp441
g10
tp442
Rp443
(I1
(I3
tp444
g14
(S'f8'
p445
I0
I1
tp446
Rp447
(I3
S'<'
p448
NNNI-1
I-1
I0
tp449
bI00
S'\x0f\x18\x7f*\n\x11@@b\xf1>\x9aq\x9bR@\x06\xd3\x95\xf4\xdcq2@'
p450
tp451
bsS'secnames'
p452
S'Cell[3].axon[42]'
p453
sI161
I65
tp454
a(F0.7249021287165885
S'Cell[1].dend[12] syn_ = new ExpSid(0.833333333333)'
p455
I1
(dp456
g437
F0.5
sg438
F17.0
sg439
I161
sg440
g7
(g8
(I0
tp457
g10
tp458
Rp459
(I1
(I3
tp460
g447
I00
S'\x06\x81\xf5\x10]\x03#\xc0<\xb3x\xbc\xed\xe5[@H\x86^0\x18\xd06@'
p461
tp462
bsg452
S'Cell[3].axon[202]'
p463
sI161
I65
tp464
a(F1.9384033218495247
S'Cell[2].dend[17] syn_ = new FastInhib(0.3)'
p465
I2
(dp466
S'seg'
p467
F0.8333333333333333
sS'hostfrom'
p468
F18.0
sS'gid'
p469
I18
sS'coords'
p470
g7
(g8
(I0
tp471
g10
tp472
Rp473
(I1
(I3
tp474
g14
(S'f8'
p475
I0
I1
tp476
Rp477
(I3
S'<'
p478
NNNI-1
I-1
I0
tp479
bI00
S'\x9c\xa5R(\xba\xf3>@\x95Fa\xd4\xd0\x1cY\xc0\xc6A\x1f\xb5\x91\xe5\x1e\xc0'
p480
tp481
bsS'secnames'
p482
S'Cell[0].axon[3]'
p483
sI18
I113
tp484
a(F2.0017091162323895
S'Cell[2].dend[43] syn_ = new FastInhib(0.5)'
p485
I2
(dp486
g467
F0.7857142857142856
sg468
F18.0
sg469
I162
sg470
g7
(g8
(I0
tp487
g10
tp488
Rp489
(I1
(I3
tp490
g477
I00
S'\xe5\xd6?\x04\xa9uK\xc0v\xfb\x02\xa6\xf6\x8dR@\x1f\xb0Y\x93\xea\xd7\x1b@'
p491
tp492
bsg482
S'Cell[3].axon[186]'
p493
sI162
I113
tp494
a(F1.1821843720349388
S'Cell[0].dend[5] syn_ = new AmpaNmda(0.833333333333)'
p495
I0
(dp496
g467
F0.7
sg468
F18.0
sg469
I162
sg470
g7
(g8
(I0
tp497
g10
tp498
Rp499
(I1
(I3
tp500
g477
I00
S"m\x13,'R\xacc\xc0iY\xd5\xa0\x11\xb3D@&U\x13KuY\xff?"
p501
tp502
bsg482
S'Cell[3].axon[188]'
p503
sI162
I17
tp504
a(F2.3450079959543118
S'Cell[0].dend[8] syn_ = new ExpSid(0.5)'
p505
I0
(dp506
S'seg'
p507
F0.07142857142857142
sS'hostfrom'
p508
F19.0
sS'gid'
p509
I115
sS'coords'
p510
g7
(g8
(I0
tp511
g10
tp512
Rp513
(I1
(I3
tp514
g14
(S'f8'
p515
I0
I1
tp516
Rp517
(I3
S'<'
p518
NNNI-1
I-1
I0
tp519
bI00
S'\x1d\xcd9~\x91\xb4`\xc0\xd2K\x15\x84YjY@\xee\xbf\x8ah&\xca\x0f@'
p520
tp521
bsS'secnames'
p522
S'Cell[2].axon[6]'
p523
sI115
I17
tp524
a(F2.15494342414578
S'Cell[0].dend[3] syn_ = new ExpSid(0.5)'
p525
I0
(dp526
g507
F0.8333333333333333
sg508
F19.0
sg509
I115
sg510
g7
(g8
(I0
tp527
g10
tp528
Rp529
(I1
(I3
tp530
g517
I00
S'\x94\x1f\x8e\x91\xdf\'_\xc0"\x16\xf47\xe0\xefZ@\xf1q+\xe9a%8@'
p531
tp532
bsg522
S'Cell[2].axon[184]'
p533
sI115
I17
tp534
a(F1.4319076911087876
S'Cell[1].dend[47] syn_ = new ExpSid(0.7)'
p535
I1
(dp536
g507
F0.8333333333333333
sg508
F19.0
sg509
I67
sg510
g7
(g8
(I0
tp537
g10
tp538
Rp539
(I1
(I3
tp540
g517
I00
S"\n8\xc9\x88*\xacY@R\x02\xb6\x16VW'@\x00\x00\x00\x80=\n\x01@"
p541
tp542
bsg522
S'Cell[1].axon[26]'
p543
sI67
I65
tp544
a(F1.7613793394357862
S'Cell[0].dend[14] syn_ = new AmpaNmda(0.3)'
p545
I0
(dp546
S'seg'
p547
F0.5
sS'hostfrom'
p548
F20.0
sS'gid'
p549
I116
sS'coords'
p550
g7
(g8
(I0
tp551
g10
tp552
Rp553
(I1
(I3
tp554
g14
(S'f8'
p555
I0
I1
tp556
Rp557
(I3
S'<'
p558
NNNI-1
I-1
I0
tp559
bI00
S'\xe6\xbd|\x01\xe4"R\xc0\x92\xad\xdb`\x87QD@\xb2<\xcef\xf2\xdbP\xc0'
p560
tp561
bsS'secnames'
p562
S'Cell[2].axon[88]'
p563
sI116
I17
tp564
a(F1.8969244902264246
S'Cell[0].apic[26] syn_ = new ExpSid(0.5)'
p565
I0
(dp566
S'seg'
p567
F0.8333333333333333
sS'hostfrom'
p568
F21.0
sS'gid'
p569
I117
sS'coords'
p570
g7
(g8
(I0
tp571
g10
tp572
Rp573
(I1
(I3
tp574
g14
(S'f8'
p575
I0
I1
tp576
Rp577
(I3
S'<'
p578
NNNI-1
I-1
I0
tp579
bI00
S'\x02\x15x\xe6U\xc9\xf7\xbf\xea\x82\x10\x02\x87%b@\x00\x00\x00\x80\xc2u9\xc0'
p580
tp581
bsS'secnames'
p582
S'Cell[2].axon[246]'
p583
sI117
I17
tp584
a(F2.405111708757804
S'Cell[2].dend[7] syn_ = new FastInhib(0.5)'
p585
I2
(dp586
g567
F0.1
sg568
F21.0
sg569
I21
sg570
g7
(g8
(I0
tp587
g10
tp588
Rp589
(I1
(I3
tp590
g577
I00
S'<HF\xf5\xbcC[@v\x0c<\xec\xa4\x9b#\xc0\xe4\x9a\xeb\xdb\xd7\x06\x16\xc0'
p591
tp592
bsg582
S'Cell[0].axon[4]'
p593
sI21
I113
tp594
a(F0.5495555470923558
S'Cell[1].dend[57] syn_ = new AmpaNmda(0.5)'
p595
I1
(dp596
S'seg'
p597
F0.16666666666666666
sS'hostfrom'
p598
F22.0
sS'gid'
p599
I118
sS'coords'
p600
g7
(g8
(I0
tp601
g10
tp602
Rp603
(I1
(I3
tp604
g14
(S'f8'
p605
I0
I1
tp606
Rp607
(I3
S'<'
p608
NNNI-1
I-1
I0
tp609
bI00
S'T\xd3\x99\x88\x93Dh@\x0c-\xc6z\xd6\xcdN\xc0\xbe\xa15\xeb\xf3f\x10\xc0'
p610
tp611
bsS'secnames'
p612
S'Cell[2].axon[316]'
p613
sI118
I65
tp614
a(F1.4326953667520497
S'Cell[1].dend[14] syn_ = new ExpSid(0.5)'
p615
I1
(dp616
S'seg'
p617
F0.30000000000000004
sS'hostfrom'
p618
F23.0
sS'gid'
p619
I119
sS'coords'
p620
g7
(g8
(I0
tp621
g10
tp622
Rp623
(I1
(I3
tp624
g14
(S'f8'
p625
I0
I1
tp626
Rp627
(I3
S'<'
p628
NNNI-1
I-1
I0
tp629
bI00
S'\xab\x0fH\xcc\xdc\xe65@\x8c6\xf0\xc4\xaa9X@\x86\xa5\x16\xa5\x84\x960@'
p630
tp631
bsS'secnames'
p632
S'Cell[2].axon[114]'
p633
sI119
I65
tp634
a(F2.0155411353908343
S'Cell[2].dend[3] syn_ = new FastInhib(0.5)'
p635
I2
(dp636
g617
F0.5
sg618
F23.0
sg619
I71
sg620
g7
(g8
(I0
tp637
g10
tp638
Rp639
(I1
(I3
tp640
g627
I00
S'I\xb5\x04Mp\xf9\xd8\xbf\x00jn\x05\xa6lS\xc0\x00\x00\x00\x00\x00\x00\xf4?'
p641
tp642
bsg632
S'Cell[1].axon[3]'
p643
sI71
I113
tp644
a(F1.4630310460895022
S'Cell[1].apic[4] syn_ = new ExpSid(0.833333333333)'
p645
I1
(dp646
g617
F0.8333333333333333
sg618
F23.0
sg619
I23
sg620
g7
(g8
(I0
tp647
g10
tp648
Rp649
(I1
(I3
tp650
g627
I00
S'\n%l7n"N@\x08\xcadJ\xefKe@\xf8-\xb1\xbf\xe2\x8c2@'
p651
tp652
bsg632
S'Cell[0].axon[23]'
p653
sI23
I65
tp654
a(F1.105243336512971
S'Cell[0].dend[14] syn_ = new AmpaNmda(0.1)'
p655
I0
(dp656
S'seg'
p657
F0.8333333333333333
sS'hostfrom'
p658
F24.0
sS'gid'
p659
I168
sS'coords'
p660
g7
(g8
(I0
tp661
g10
tp662
Rp663
(I1
(I3
tp664
g14
(S'f8'
p665
I0
I1
tp666
Rp667
(I3
S'<'
p668
NNNI-1
I-1
I0
tp669
bI00
S'\x9a\xdb\xb6\xfd\x93\xf6P\xc0\xa4\x0bE\x85\x93\xf0H@\xea\xcd\xd2\x07\xc0?F\xc0'
p670
tp671
bsS'secnames'
p672
S'Cell[3].axon[349]'
p673
sI168
I17
tp674
a(F2.194558082456854
S'Cell[2].dend[25] syn_ = new FastInhib(0.166666666667)'
p675
I2
(dp676
g657
F0.1
sg658
F24.0
sg659
I120
sg660
g7
(g8
(I0
tp677
g10
tp678
Rp679
(I1
(I3
tp680
g667
I00
S'|\x90\x9b \xa1@N@?\x8d\x92\xa0_:D\xc0;*x\xd9>\x02\xf6\xbf'
p681
tp682
bsg672
S'Cell[2].axon[61]'
p683
sI120
I113
tp684
a(F1.8711629420673008
S'Cell[0].apic[15] syn_ = new AmpaNmda(0.5)'
p685
I0
(dp686
S'seg'
p687
F0.5
sS'hostfrom'
p688
F26.0
sS'gid'
p689
I170
sS'coords'
p690
g7
(g8
(I0
tp691
g10
tp692
Rp693
(I1
(I3
tp694
g14
(S'f8'
p695
I0
I1
tp696
Rp697
(I3
S'<'
p698
NNNI-1
I-1
I0
tp699
bI00
S'\x00\x00\x00@\n\xd7L\xc0\x00\x00\x00\x10\xd7/l@\x00\x00\x00@33/\xc0'
p700
tp701
bsS'secnames'
p702
S'Cell[3].axon[399]'
p703
sI170
I17
tp704
a(F1.8053965898126954
S'Cell[0].apic[3] syn_ = new AmpaNmda(0.5)'
p705
I0
(dp706
g687
F0.5
sg688
F26.0
sg689
I170
sg690
g7
(g8
(I0
tp707
g10
tp708
Rp709
(I1
(I3
tp710
g697
I00
S'\xa2\x10\xb2c\x01\x9bO\xc0\xae\xa1\xd8~\xee+`@\xe1\x80]\xec,k%\xc0'
p711
tp712
bsg702
S'Cell[3].axon[415]'
p713
sI170
I17
tp714
a(F2.36205811999239
S'Cell[1].dend[47] syn_ = new AmpaNmda(0.9)'
p715
I1
(dp716
S'seg'
p717
F0.16666666666666666
sS'hostfrom'
p718
F28.0
sS'gid'
p719
I172
sS'coords'
p720
g7
(g8
(I0
tp721
g10
tp722
Rp723
(I1
(I3
tp724
g14
(S'f8'
p725
I0
I1
tp726
Rp727
(I3
S'<'
p728
NNNI-1
I-1
I0
tp729
bI00
S'\xcd(\xd0\x888\xb5U@\xa6b4\x9fW\xfa\xf6\xbf\x01\x00\x00@\n\xd7!@'
p730
tp731
bsS'secnames'
p732
S'Cell[3].axon[98]'
p733
sI172
I65
tp734
a(F2.077135235530476
S'Cell[0].dend[12] syn_ = new AmpaNmda(0.1)'
p735
I0
(dp736
S'seg'
p737
F0.16666666666666666
sS'hostfrom'
p738
F30.0
sS'gid'
p739
I174
sS'coords'
p740
g7
(g8
(I0
tp741
g10
tp742
Rp743
(I1
(I3
tp744
g14
(S'f8'
p745
I0
I1
tp746
Rp747
(I3
S'<'
p748
NNNI-1
I-1
I0
tp749
bI00
S'\xa1\xa6\xbdG:9K\xc0\xbd\xcd\x1b\xc1\xf9\x89I@#\xdb\xc1|\xf5<Q\xc0'
p750
tp751
bsS'secnames'
p752
S'Cell[3].axon[62]'
p753
sI174
I17
tp754
a(F2.422100495836618
S'Cell[0].dend[8] syn_ = new ExpSid(0.5)'
p755
I0
(dp756
S'seg'
p757
F0.7
sS'hostfrom'
p758
F33.0
sS'gid'
p759
I129
sS'coords'
p760
g7
(g8
(I0
tp761
g10
tp762
Rp763
(I1
(I3
tp764
g14
(S'f8'
p765
I0
I1
tp766
Rp767
(I3
S'<'
p768
NNNI-1
I-1
I0
tp769
bI00
S'\x04XH\xa9\xcax`\xc0\xcb\x9e\x0c\xc0f`Y@\x00\x00\x00\x00\x00\x00\x1a@'
p770
tp771
bsS'secnames'
p772
S'Cell[2].axon[73]'
p773
sI129
I17
tp774
a(F2.488609002967908
S'Cell[1].dend[9] syn_ = new ExpSid(0.5)'
p775
I1
(dp776
g757
F0.5
sg758
F33.0
sg759
I129
sg760
g7
(g8
(I0
tp777
g10
tp778
Rp779
(I1
(I3
tp780
g767
I00
S'\x00\x00\x00\x10\xae\xf7@@\x00\x00\x00P\xe1\x9aV@\x00\x00\x00\x00\xd7\xe36@'
p781
tp782
bsg772
S'Cell[2].axon[76]'
p783
sI129
I65
tp784
a(F2.2053747288216736
S'Cell[1].apic[4] syn_ = new ExpSid(0.5)'
p785
I1
(dp786
g757
F0.5
sg758
F33.0
sg759
I129
sg760
g7
(g8
(I0
tp787
g10
tp788
Rp789
(I1
(I3
tp790
g767
I00
S"\xd8\xb3\xf6\xb1npP@T\xdc'\x8a\x15\xceb@\x00\x00\x00@\n\x174@"
p791
tp792
bsg772
S'Cell[2].axon[85]'
p793
sI129
I65
tp794
a(F1.7292110744698792
S'Cell[1].dend[28] syn_ = new ExpSid(0.166666666667)'
p795
I1
(dp796
g757
F0.5
sg758
F33.0
sg759
I177
sg760
g7
(g8
(I0
tp797
g10
tp798
Rp799
(I1
(I3
tp800
g767
I00
S'\\F%\xfe\x9a\xaeF@\x95\x07\ng\x17\xccX@h\x93j\x058\xa1\x1a@'
p801
tp802
bsg772
S'Cell[3].axon[6]'
p803
sI177
I65
tp804
a(F1.9861458434468973
S'Cell[2].dend[28] syn_ = new FastInhib(0.0714285714286)'
p805
I2
(dp806
g757
F0.1
sg758
F33.0
sg759
I177
sg760
g7
(g8
(I0
tp807
g10
tp808
Rp809
(I1
(I3
tp810
g767
I00
S'\x83Hu6\x8d\xf7D@\xee\xfcn\xbf!\xfc @H\xdd\rez\xce \xc0'
p811
tp812
bsg772
S'Cell[3].axon[37]'
p813
sI177
I113
tp814
a(F1.914008505656314
S'Cell[2].dend[42] syn_ = new FastInhib(0.5)'
p815
I2
(dp816
g757
F0.5
sg758
F33.0
sg759
I177
sg760
g7
(g8
(I0
tp817
g10
tp818
Rp819
(I1
(I3
tp820
g767
I00
S'2\xb6\xd5U\x9e\x18"\xc0\x0b\xa6\xa4\xa5\xcc\x88I@\x00\x00\x00`\x8f\xc2\xc5\xbf'
p821
tp822
bsg772
S'Cell[3].axon[43]'
p823
sI177
I113
tp824
a(F2.2386223346330563
S'Cell[1].dend[18] syn_ = new ExpSid(0.357142857143)'
p825
I1
(dp826
g757
F0.5
sg758
F33.0
sg759
I177
sg760
g7
(g8
(I0
tp827
g10
tp828
Rp829
(I1
(I3
tp830
g767
I00
S'\n\x13\x1a\xb6\x1c\x84O\xc0\x10\xc1\x9e\xd1+tV@\xb8\xe4_\xdc\x86\xe5$\xc0'
p831
tp832
bsg772
S'Cell[3].axon[183]'
p833
sI177
I65
tp834
a(F1.551636321775298
S'Cell[0].dend[16] syn_ = new AmpaNmda(0.3)'
p835
I0
(dp836
S'seg'
p837
F0.5
sS'hostfrom'
p838
F34.0
sS'gid'
p839
I82
sS'coords'
p840
g7
(g8
(I0
tp841
g10
tp842
Rp843
(I1
(I3
tp844
g14
(S'f8'
p845
I0
I1
tp846
Rp847
(I3
S'<'
p848
NNNI-1
I-1
I0
tp849
bI00
S'\xc3\xd00\x07\x8f^T\xc0\x08\xaf4\xadM\x12<@\x84\xd0\xc2\x9f\xa1\xf18\xc0'
p850
tp851
bsS'secnames'
p852
S'Cell[1].axon[199]'
p853
sI82
I17
tp854
a(F2.4975156460049077
S'Cell[1].dend[28] syn_ = new AmpaNmda(0.833333333333)'
p855
I1
(dp856
g837
F0.5
sg838
F34.0
sg839
I178
sg840
g7
(g8
(I0
tp857
g10
tp858
Rp859
(I1
(I3
tp860
g847
I00
S'\x00\x00\x00\xb0G\x11@@\x00\x00\x00P\xe1\xaaY@\x00\x00\x00\xe0Q\xb8-\xc0'
p861
tp862
bsg852
S'Cell[3].axon[43]'
p863
sI178
I65
tp864
a(F1.24849267077707
S'Cell[1].dend[18] syn_ = new AmpaNmda(0.642857142857)'
p865
I1
(dp866
S'seg'
p867
F0.16666666666666666
sS'hostfrom'
p868
F36.0
sS'gid'
p869
I84
sS'coords'
p870
g7
(g8
(I0
tp871
g10
tp872
Rp873
(I1
(I3
tp874
g14
(S'f8'
p875
I0
I1
tp876
Rp877
(I3
S'<'
p878
NNNI-1
I-1
I0
tp879
bI00
S"\x7f2['\x8b\xfe]\xc0\x8a\xb6>\xa8\x14\xa1V@\xcf\xeb\xb3\xcbg\x1a)\xc0"
p880
tp881
bsS'secnames'
p882
S'Cell[1].axon[304]'
p883
sI84
I65
tp884
a(F2.499791526308857
S'Cell[2].dend[33] syn_ = new FastInhib(0.3)'
p885
I2
(dp886
g867
F0.5
sg868
F36.0
sg869
I132
sg870
g7
(g8
(I0
tp887
g10
tp888
Rp889
(I1
(I3
tp890
g877
I00
S'\x00\x00\x00\x00)\x8c@@\x00\x00\x00\x80\xeb\x99P@\x00\x00\x00\xe0z\x14\x15\xc0'
p891
tp892
bsg882
S'Cell[2].axon[150]'
p893
sI132
I113
tp894
a(F2.003400892047265
S'Cell[2].dend[28] syn_ = new FastInhib(0.5)'
p895
I2
(dp896
g867
F0.5
sg868
F36.0
sg869
I132
sg870
g7
(g8
(I0
tp897
g10
tp898
Rp899
(I1
(I3
tp900
g877
I00
S'@-\x04\\h\xcbB@\xb0]\x0bI\x15\xb6T@\x00\x00\x00\x00)\x1cA\xc0'
p901
tp902
bsg882
S'Cell[2].axon[155]'
p903
sI132
I113
tp904
a(F1.81117619447634
S'Cell[2].dend[33] syn_ = new FastInhib(0.9)'
p905
I2
(dp906
g867
F0.5
sg868
F36.0
sg869
I132
sg870
g7
(g8
(I0
tp907
g10
tp908
Rp909
(I1
(I3
tp910
g877
I00
S'\xaa\x80\x92\xa8\x8cCC@S\xe2\x13,M\x12^@G\x80\x16\xb4\x156\x08\xc0'
p911
tp912
bsg882
S'Cell[2].axon[181]'
p913
sI132
I113
tp914
a(F2.249825623744889
S'Cell[2].dend[35] syn_ = new FastInhib(0.5)'
p915
I2
(dp916
g867
F0.5
sg868
F36.0
sg869
I132
sg870
g7
(g8
(I0
tp917
g10
tp918
Rp919
(I1
(I3
tp920
g877
I00
S'\n\xf6!\xa9\x88:?@\x88\x96\xc9\xbf~!\x01@\xd12Os\xb3\xdd\x08\xc0'
p921
tp922
bsg882
S'Cell[2].axon[187]'
p923
sI132
I113
tp924
a(F1.2477704409003751
S'Cell[2].dend[2] syn_ = new FastInhib(0.5)'
p925
I2
(dp926
g867
F0.8333333333333333
sg868
F36.0
sg869
I180
sg870
g7
(g8
(I0
tp927
g10
tp928
Rp929
(I1
(I3
tp930
g877
I00
S'\x1cPk\xd2\xf3\xf14@\xc7GP6\xa9/L\xc0\x87\xeb\xd6s#f"\xc0'
p931
tp932
bsg882
S'Cell[3].axon[269]'
p933
sI180
I113
tp934
a(F1.781022116469325
S'Cell[0].apic[32] syn_ = new ExpSid(0.0714285714286)'
p935
I0
(dp936
S'seg'
p937
F0.5
sS'hostfrom'
p938
F37.0
sS'gid'
p939
I133
sS'coords'
p940
g7
(g8
(I0
tp941
g10
tp942
Rp943
(I1
(I3
tp944
g14
(S'f8'
p945
I0
I1
tp946
Rp947
(I3
S'<'
p948
NNNI-1
I-1
I0
tp949
bI00
S"'\xe6\xf7<\xf4\x85N\xc0\xc6\xe7v\xafl\x9cS@\x8e\t|\nLO'\xc0"
p950
tp951
bsS'secnames'
p952
S'Cell[2].axon[83]'
p953
sI133
I17
tp954
a(F2.141892992706655
S'Cell[1].dend[28] syn_ = new ExpSid(0.166666666667)'
p955
I1
(dp956
g937
F0.8333333333333333
sg938
F37.0
sg939
I181
sg940
g7
(g8
(I0
tp957
g10
tp958
Rp959
(I1
(I3
tp960
g947
I00
S'\xa2w\xde\xef\x12\x8aF@d\xff\xb6\xde$VX@L\xc4\xcd_\xb8\xa7!@'
p961
tp962
bsg952
S'Cell[3].axon[203]'
p963
sI181
I65
tp964
a(F2.0851184916049177
S'Cell[1].dend[12] syn_ = new AmpaNmda(0.833333333333)'
p965
I1
(dp966
S'seg'
p967
F0.5
sS'hostfrom'
p968
F38.0
sS'gid'
p969
I182
sS'coords'
p970
g7
(g8
(I0
tp971
g10
tp972
Rp973
(I1
(I3
tp974
g14
(S'f8'
p975
I0
I1
tp976
Rp977
(I3
S'<'
p978
NNNI-1
I-1
I0
tp979
bI00
S'B\xca\xfbU\xf8\xf6!\xc0\xaaN\xb99k\xb3[@\x00\x00\x00\xa0p\xfd4@'
p980
tp981
bsS'secnames'
p982
S'Cell[3].axon[157]'
p983
sI182
I65
tp984
a(F1.861409382416656
S'Cell[2].dend[39] syn_ = new FastInhib(0.5)'
p985
I2
(dp986
g967
F0.5
sg968
F38.0
sg969
I182
sg970
g7
(g8
(I0
tp987
g10
tp988
Rp989
(I1
(I3
tp990
g977
I00
S'\x19\x13\xca\x1d\x08\x965@\xd0\x1e\xcb\xd4\xd5x\x17@\xd0Psh\x89b\xd2?'
p991
tp992
bsg982
S'Cell[3].axon[216]'
p993
sI182
I113
tp994
a(F1.5227992040584168
S'Cell[2].dend[2] syn_ = new FastInhib(0.833333333333)'
p995
I2
(dp996
g967
F0.5
sg968
F38.0
sg969
I182
sg970
g7
(g8
(I0
tp997
g10
tp998
Rp999
(I1
(I3
tp1000
g977
I00
S'\xfc\xb9j\xa8\xea\xd4.@Yy:\xfbD\xafQ\xc0\x00\x00\x00\x00\x00\x00"\xc0'
p1001
tp1002
bsg982
S'Cell[3].axon[369]'
p1003
sI182
I113
tp1004
a(F2.4282585661592915
S'Cell[2].dend[11] syn_ = new FastInhib(0.5)'
p1005
I2
(dp1006
S'seg'
p1007
F0.5
sS'hostfrom'
p1008
F39.0
sS'gid'
p1009
I87
sS'coords'
p1010
g7
(g8
(I0
tp1011
g10
tp1012
Rp1013
(I1
(I3
tp1014
g14
(S'f8'
p1015
I0
I1
tp1016
Rp1017
(I3
S'<'
p1018
NNNI-1
I-1
I0
tp1019
bI00
S'\x82\xf1\xe4e7\xe1@@+\xe8X\xea\x07(P\xc00Q\xa2(t3)\xc0'
p1020
tp1021
bsS'secnames'
p1022
S'Cell[1].axon[145]'
p1023
sI87
I113
tp1024
a(F2.248512859784375
S'Cell[2].dend[4] syn_ = new FastInhib(0.5)'
p1025
I2
(dp1026
g1007
F0.07142857142857142
sg1008
F39.0
sg1009
I39
sg1010
g7
(g8
(I0
tp1027
g10
tp1028
Rp1029
(I1
(I3
tp1030
g1017
I00
S"V\xd9\x87\xe5\xca\x15'\xc02\x05\xc6\xd7\x8b\n[\xc0\x00\xea\x1e\x19#[\x18\xc0"
p1031
tp1032
bsg1022
S'Cell[0].axon[2]'
p1033
sI39
I113
tp1034
a(F2.158939956440965
S'Cell[0].apic[3] syn_ = new AmpaNmda(0.166666666667)'
p1035
I0
(dp1036
S'seg'
p1037
F0.49999999999999994
sS'hostfrom'
p1038
F40.0
sS'gid'
p1039
I88
sS'coords'
p1040
g7
(g8
(I0
tp1041
g10
tp1042
Rp1043
(I1
(I3
tp1044
g14
(S'f8'
p1045
I0
I1
tp1046
Rp1047
(I3
S'<'
p1048
NNNI-1
I-1
I0
tp1049
bI00
S'\xb8.\x0e\x14_^P\xc0\xc0\xedD"\xbbh]@\xb3\xa3\xfew\x95\xc7\x1c\xc0'
p1050
tp1051
bsS'secnames'
p1052
S'Cell[1].axon[60]'
p1053
sI88
I17
tp1054
a(F1.7007028091033265
S'Cell[1].dend[15] syn_ = new AmpaNmda(0.357142857143)'
p1055
I1
(dp1056
g1037
F0.7
sg1038
F40.0
sg1039
I88
sg1040
g7
(g8
(I0
tp1057
g10
tp1058
Rp1059
(I1
(I3
tp1060
g1047
I00
S'V+\xf1\x18\x1c @\xc0\xa2\xa6`A\xab\x01V@~E\xf28\xb8\xc06\xc0'
p1061
tp1062
bsg1052
S'Cell[1].axon[252]'
p1063
sI88
I65
tp1064
a(F2.4561919033201542
S'Cell[1].dend[15] syn_ = new AmpaNmda(0.357142857143)'
p1065
I1
(dp1066
g1037
F0.16666666666666666
sg1038
F40.0
sg1039
I184
sg1040
g7
(g8
(I0
tp1067
g10
tp1068
Rp1069
(I1
(I3
tp1070
g1047
I00
S"z\xe5\xf9?_\x07?\xc0\xae\xf4\xfd'\x17%V@_\xa6\x06\xde,\xb59\xc0"
p1071
tp1072
bsg1052
S'Cell[3].axon[2]'
p1073
sI184
I65
tp1074
a(F2.401396103297817
S'Cell[2].dend[4] syn_ = new FastInhib(0.166666666667)'
p1075
I2
(dp1076
g1037
F0.8333333333333333
sg1038
F40.0
sg1039
I184
sg1040
g7
(g8
(I0
tp1077
g10
tp1078
Rp1079
(I1
(I3
tp1080
g1047
I00
S'\xbc\xfa*T\xd8\xc4\xb0\xbf\\\x83\xc8\x84\x96\xdfU\xc0\xd8\xea\x93iX\x9b\x13\xc0'
p1081
tp1082
bsg1052
S'Cell[3].axon[64]'
p1083
sI184
I113
tp1084
a(F0.9410989700836011
S'Cell[1].dend[15] syn_ = new AmpaNmda(0.0714285714286)'
p1085
I1
(dp1086
g1037
F0.5
sg1038
F40.0
sg1039
I184
sg1040
g7
(g8
(I0
tp1087
g10
tp1088
Rp1089
(I1
(I3
tp1090
g1047
I00
S'~mG\xfcY\x07\x15@\xf39W\x8c EW@=e\x14=\xa2\xc7\xf3?'
p1091
tp1092
bsg1052
S'Cell[3].axon[70]'
p1093
sI184
I65
tp1094
a(F1.6466616452987155
S'Cell[1].dend[27] syn_ = new ExpSid(0.833333333333)'
p1095
I1
(dp1096
S'seg'
p1097
F0.8999999999999999
sS'hostfrom'
p1098
F41.0
sS'gid'
p1099
I185
sS'coords'
p1100
g7
(g8
(I0
tp1101
g10
tp1102
Rp1103
(I1
(I3
tp1104
g14
(S'f8'
p1105
I0
I1
tp1106
Rp1107
(I3
S'<'
p1108
NNNI-1
I-1
I0
tp1109
bI00
S'\x10\xb98\x95yjR@aj9`\x82\x1a5\xc0t\xaa\x05\x81\x80\x8d5\xc0'
p1110
tp1111
bsS'secnames'
p1112
S'Cell[3].axon[100]'
p1113
sI185
I65
tp1114
a(F0.6652511448343263
S'Cell[1].dend[17] syn_ = new ExpSid(0.3)'
p1115
I1
(dp1116
g1097
F0.5
sg1098
F41.0
sg1099
I185
sg1100
g7
(g8
(I0
tp1117
g10
tp1118
Rp1119
(I1
(I3
tp1120
g1107
I00
S"\x1a\xc5\x99\x07\xff\xe0@\xc01'U+\n\xdeY@\x00\x00\x00@\xe1z)\xc0"
p1121
tp1122
bsg1112
S'Cell[3].axon[117]'
p1123
sI185
I65
tp1124
a(F1.9132203209763714
S'Cell[2].dend[30] syn_ = new FastInhib(0.214285714286)'
p1125
I2
(dp1126
g1097
F0.8333333333333333
sg1098
F41.0
sg1099
I185
sg1100
g7
(g8
(I0
tp1127
g10
tp1128
Rp1129
(I1
(I3
tp1130
g1107
I00
S'*\x00]\xb1:\x86C@F\n\xe9=\xda\xa0P@\x00\x00\x00 \x85\xeb#\xc0'
p1131
tp1132
bsg1112
S'Cell[3].axon[217]'
p1133
sI185
I113
tp1134
a(F1.826597242103691
S'Cell[2].dend[36] syn_ = new FastInhib(0.1)'
p1135
I2
(dp1136
g1097
F0.8333333333333333
sg1098
F41.0
sg1099
I89
sg1100
g7
(g8
(I0
tp1137
g10
tp1138
Rp1139
(I1
(I3
tp1140
g1107
I00
S"\x00\x00\x00\xc0\xcc\x0cE@l\x8a\xc4' E'@\x9d'\xc3\xd9R\x96\x15\xc0"
p1141
tp1142
bsg1112
S'Cell[1].axon[183]'
p1143
sI89
I113
tp1144
a(F1.2407755734304367
S'Cell[1].dend[30] syn_ = new AmpaNmda(0.5)'
p1145
I1
(dp1146
S'seg'
p1147
F0.1
sS'hostfrom'
p1148
F42.0
sS'gid'
p1149
I138
sS'coords'
p1150
g7
(g8
(I0
tp1151
g10
tp1152
Rp1153
(I1
(I3
tp1154
g14
(S'f8'
p1155
I0
I1
tp1156
Rp1157
(I3
S'<'
p1158
NNNI-1
I-1
I0
tp1159
bI00
S'\x19;\xf8\x8a\x0e\x11\r@B\x8d\x1cBS(X@\x00\x00\x00\xa0p=\n@'
p1160
tp1161
bsS'secnames'
p1162
S'Cell[2].axon[201]'
p1163
sI138
I65
tp1164
a(F2.3679507994990727
S'Cell[1].apic[8] syn_ = new AmpaNmda(0.166666666667)'
p1165
I1
(dp1166
g1147
F0.5
sg1148
F42.0
sg1149
I138
sg1150
g7
(g8
(I0
tp1167
g10
tp1168
Rp1169
(I1
(I3
tp1170
g1157
I00
S'\x9a\x16\xc7\xb9e*P@\xc4\x8e\r7G\xc5k@\xfeO\x05Et\xe34@'
p1171
tp1172
bsg1162
S'Cell[2].axon[262]'
p1173
sI138
I65
tp1174
a(F2.2342772477394712
S'Cell[2].dend[28] syn_ = new FastInhib(0.785714285714)'
p1175
I2
(dp1176
S'seg'
p1177
F0.5
sS'hostfrom'
p1178
F43.0
sS'gid'
p1179
I91
sS'coords'
p1180
g7
(g8
(I0
tp1181
g10
tp1182
Rp1183
(I1
(I3
tp1184
g14
(S'f8'
p1185
I0
I1
tp1186
Rp1187
(I3
S'<'
p1188
NNNI-1
I-1
I0
tp1189
bI00
S'\x834xUd\xc9@@8(\x15\xa8~\x93`@\xdeJAM\xfa6C\xc0'
p1190
tp1191
bsS'secnames'
p1192
S'Cell[1].axon[193]'
p1193
sI91
I113
tp1194
a(F1.6181187767203828
S'Cell[0].apic[28] syn_ = new ExpSid(0.5)'
p1195
I0
(dp1196
g1177
F0.3571428571428571
sg1178
F43.0
sg1179
I139
sg1180
g7
(g8
(I0
tp1197
g10
tp1198
Rp1199
(I1
(I3
tp1200
g1187
I00
S'zp\x90\xa0\xdfA&@\xe2\xcd\x8e=\x87\x9e_@\x92\xa26b\xba?0\xc0'
p1201
tp1202
bsg1192
S'Cell[2].axon[275]'
p1203
sI139
I17
tp1204
a(F1.2704314845762852
S'Cell[3].dend[1] syn_ = new FastInhib(0.5)'
p1205
I3
(dp1206
g1177
F0.5
sg1178
F43.0
sg1179
I139
sg1180
g7
(g8
(I0
tp1207
g10
tp1208
Rp1209
(I1
(I3
tp1210
g1187
I00
S'\x00\x00\x00`\x8f\xc28@\x00\x00\x00\xa0G\xc19@\x00\x00\x00\xf0QxH\xc0'
p1211
tp1212
bsg1192
S'Cell[2].axon[372]'
p1213
sI139
I161
tp1214
a(F2.476189904260209
S'Cell[3].dend[1] syn_ = new FastInhib(0.5)'
p1215
I3
(dp1216
g1177
F0.5
sg1178
F43.0
sg1179
I139
sg1180
g7
(g8
(I0
tp1217
g10
tp1218
Rp1219
(I1
(I3
tp1220
g1187
I00
S'\x00\x00\x00\x10\xd7\xa35@\x00\x00\x00\xe0Q\xd88@\x00\x00\x00\xa0p\rH\xc0'
p1221
tp1222
bsg1192
S'Cell[2].axon[373]'
p1223
sI139
I161
tp1224
a(F2.438399407507437
S'Cell[0].dend[5] syn_ = new ExpSid(0.166666666667)'
p1225
I0
(dp1226
g1177
F0.5
sg1178
F43.0
sg1179
I139
sg1180
g7
(g8
(I0
tp1227
g10
tp1228
Rp1229
(I1
(I3
tp1230
g1187
I00
S'\x00\x00\x00\xb0GQ]\xc0\x00\x00\x00\xf0QpP@\x00\x00\x00P\xb8\x1e\x03@'
p1231
tp1232
bsg1192
S'Cell[2].axon[381]'
p1233
sI139
I17
tp1234
a(F2.1744254060455646
S'Cell[0].dend[6] syn_ = new ExpSid(0.5)'
p1235
I0
(dp1236
g1177
F0.5
sg1178
F43.0
sg1179
I139
sg1180
g7
(g8
(I0
tp1237
g10
tp1238
Rp1239
(I1
(I3
tp1240
g1187
I00
S')\xbf\x86g\xeb1\\\xc0o]\xcd\xb5Q\xafQ@\x00\x00\x00\xe0\xa3p\x10@'
p1241
tp1242
bsg1192
S'Cell[2].axon[389]'
p1243
sI139
I17
tp1244
a(F2.3033228649090627
S'Cell[2].dend[17] syn_ = new FastInhib(0.1)'
p1245
I2
(dp1246
g1177
F0.8333333333333333
sg1178
F43.0
sg1179
I187
sg1180
g7
(g8
(I0
tp1247
g10
tp1248
Rp1249
(I1
(I3
tp1250
g1187
I00
S'\x969{\xbfBU;@\xfds>\xdb\xe5\xdeS\xc0r\xe0w\x1b{\xd8\x1f\xc0'
p1251
tp1252
bsg1192
S'Cell[3].axon[3]'
p1253
sI187
I113
tp1254
a(F2.4038814794499612
S'Cell[0].dend[23] syn_ = new ExpSid(0.5)'
p1255
I0
(dp1256
g1177
F0.5
sg1178
F43.0
sg1179
I187
sg1180
g7
(g8
(I0
tp1257
g10
tp1258
Rp1259
(I1
(I3
tp1260
g1187
I00
S'\xf2S\xcf\xf1GfU\xc0\x08\xcb*\xb6\xbf\x82E@\xe0\xack\x0c\xde\xc0"\xc0'
p1261
tp1262
bsg1192
S'Cell[3].axon[194]'
p1263
sI187
I17
tp1264
a(F2.2336192844017995
S'Cell[2].dend[34] syn_ = new FastInhib(0.5)'
p1265
I2
(dp1266
S'seg'
p1267
F0.8333333333333333
sS'hostfrom'
p1268
F44.0
sS'gid'
p1269
I92
sS'coords'
p1270
g7
(g8
(I0
tp1271
g10
tp1272
Rp1273
(I1
(I3
tp1274
g14
(S'f8'
p1275
I0
I1
tp1276
Rp1277
(I3
S'<'
p1278
NNNI-1
I-1
I0
tp1279
bI00
S"'\xe7\x16q\xdfY?@\xc9\xe7A\x84V\xe5\t\xc0\x00 .e\xa3#\n\xc0"
p1280
tp1281
bsS'secnames'
p1282
S'Cell[1].axon[236]'
p1283
sI92
I113
tp1284
a(F1.9450404935770673
S'Cell[2].dend[4] syn_ = new FastInhib(0.833333333333)'
p1285
I2
(dp1286
g1267
F0.8333333333333333
sg1268
F44.0
sg1269
I44
sg1270
g7
(g8
(I0
tp1287
g10
tp1288
Rp1289
(I1
(I3
tp1290
g1277
I00
S'r8`I\xf3\xab5\xc0+\x15\x84#\xcd@`\xc0 D\x14\xa8\x0e/\xde\xbf'
p1291
tp1292
bsg1282
S'Cell[0].axon[34]'
p1293
sI44
I113
tp1294
a(F2.3974033893232143
S'Cell[0].dend[2] syn_ = new AmpaNmda(0.166666666667)'
p1295
I0
(dp1296
g1267
F0.5
sg1268
F44.0
sg1269
I44
sg1270
g7
(g8
(I0
tp1297
g10
tp1298
Rp1299
(I1
(I3
tp1300
g1277
I00
S'"W\xa5\xcb\xbb\x14a\xc0\xd6\xbd\x1eg\xb0\xb9Z@\x00\x05\xe2[{\xd06@'
p1301
tp1302
bsg1282
S'Cell[0].axon[43]'
p1303
sI44
I17
tp1304
a(F2.248851767331801
S'Cell[2].dend[27] syn_ = new FastInhib(0.5)'
p1305
I2
(dp1306
S'seg'
p1307
F0.16666666666666666
sS'hostfrom'
p1308
F45.0
sS'gid'
p1309
I141
sS'coords'
p1310
g7
(g8
(I0
tp1311
g10
tp1312
Rp1313
(I1
(I3
tp1314
g14
(S'f8'
p1315
I0
I1
tp1316
Rp1317
(I3
S'<'
p1318
NNNI-1
I-1
I0
tp1319
bI00
S'\x94\x912\xb8\x1a\x1d@@\x9a\xd2d\xa5V%\n\xc0T^\x0f\xa9\xf5(\x19\xc0'
p1320
tp1321
bsS'secnames'
p1322
S'Cell[2].axon[61]'
p1323
sI141
I113
tp1324
a(F2.2236903283029825
S'Cell[2].dend[33] syn_ = new FastInhib(0.3)'
p1325
I2
(dp1326
g1307
F0.5
sg1308
F45.0
sg1309
I93
sg1310
g7
(g8
(I0
tp1327
g10
tp1328
Rp1329
(I1
(I3
tp1330
g1317
I00
S'h7\x9f\x1f\xc2\xea>@\x10\xbc\xae!m\x9aO@\xc0\xf2\xc1\xb7\x15-\t\xc0'
p1331
tp1332
bsg1322
S'Cell[1].axon[66]'
p1333
sI93
I113
tp1334
a(F1.1316913349777256
S'Cell[2].dend[33] syn_ = new FastInhib(0.1)'
p1335
I2
(dp1336
g1307
F0.16666666666666666
sg1308
F45.0
sg1309
I93
sg1310
g7
(g8
(I0
tp1337
g10
tp1338
Rp1339
(I1
(I3
tp1340
g1317
I00
S'L1p\xc0\xd6\x15>@\x90\x1e\x80\xcf\xde5E@\xbb>P:\x1c\xe9\x01\xc0'
p1341
tp1342
bsg1322
S'Cell[1].axon[67]'
p1343
sI93
I113
tp1344
a(F2.3673429344213113
S'Cell[2].dend[41] syn_ = new FastInhib(0.166666666667)'
p1345
I2
(dp1346
g1307
F0.8333333333333333
sg1308
F45.0
sg1309
I93
sg1310
g7
(g8
(I0
tp1347
g10
tp1348
Rp1349
(I1
(I3
tp1350
g1317
I00
S'\x00\xf3\xf7\x93pX9@\xbe3\xed_5\xa8=@5\x06I\xb8\xca;\xd3?'
p1351
tp1352
bsg1322
S'Cell[1].axon[232]'
p1353
sI93
I113
tp1354
a(F1.6338810724195023
S'Cell[2].dend[33] syn_ = new FastInhib(0.5)'
p1355
I2
(dp1356
S'seg'
p1357
F0.30000000000000004
sS'hostfrom'
p1358
F46.0
sS'gid'
p1359
I142
sS'coords'
p1360
g7
(g8
(I0
tp1361
g10
tp1362
Rp1363
(I1
(I3
tp1364
g14
(S'f8'
p1365
I0
I1
tp1366
Rp1367
(I3
S'<'
p1368
NNNI-1
I-1
I0
tp1369
bI00
S'\xf4\xff\xd4\xe5\xb7"@@G4\xa9\xc1\x0ewU@&[\xa7\x05M\xdb\xee?'
p1370
tp1371
bsS'secnames'
p1372
S'Cell[2].axon[28]'
p1373
sI142
I113
tp1374
a(F1.1841535562721552
S'Cell[2].dend[37] syn_ = new FastInhib(0.5)'
p1375
I2
(dp1376
S'seg'
p1377
F0.5
sS'hostfrom'
p1378
F47.0
sS'gid'
p1379
I95
sS'coords'
p1380
g7
(g8
(I0
tp1381
g10
tp1382
Rp1383
(I1
(I3
tp1384
g14
(S'f8'
p1385
I0
I1
tp1386
Rp1387
(I3
S'<'
p1388
NNNI-1
I-1
I0
tp1389
bI00
S'\x01d\x93|\xdaw@@\x8c>\x1c\x13\x02\x1d2@\xa2nd\xdc\x8f5\x06@'
p1390
tp1391
bsS'secnames'
p1392
S'Cell[1].axon[174]'
p1393
sI95
I113
tp1394
a(F1.3535810374377821
S'Cell[0].apic[19] syn_ = new ExpSid(0.5)'
p1395
I0
(dp1396
g1377
F0.5
sg1378
F47.0
sg1379
I143
sg1380
g7
(g8
(I0
tp1397
g10
tp1398
Rp1399
(I1
(I3
tp1400
g1387
I00
S'\xf8\xbf\x9e\xf9\x97\xbfX\xc0`\x91K\xf2\xbc\xd7^@\x00\x00\x00`\x8f\xc2\xed\xbf'
p1401
tp1402
bsg1392
S'Cell[2].axon[38]'
p1403
sI143
I17
tp1404
a(F1.7489393883419275
S'Cell[0].apic[1] syn_ = new ExpSid(0.5)'
p1405
I0
(dp1406
g1377
F0.5
sg1378
F47.0
sg1379
I143
sg1380
g7
(g8
(I0
tp1407
g10
tp1408
Rp1409
(I1
(I3
tp1410
g1387
I00
S'\xb1|\x90Z2\x89P\xc0\xe9\x8fT;\x11\x15V@}\xe7\xf8\xda\xb8\x83\x00\xc0'
p1411
tp1412
bsg1392
S'Cell[2].axon[64]'
p1413
sI143
I17
tp1414
a(F1.8730316190879228
S'Cell[2].dend[41] syn_ = new FastInhib(0.5)'
p1415
I2
(dp1416
g1377
F0.5
sg1378
F47.0
sg1379
I143
sg1380
g7
(g8
(I0
tp1417
g10
tp1418
Rp1419
(I1
(I3
tp1420
g1387
I00
S'\x00\x00\x00\xc0\xff\x7f7@\x00\x00\x00\x00\xd7\x03L@\x00\x00\x00\x10\xae\xc7\x18@'
p1421
tp1422
bsg1392
S'Cell[2].axon[85]'
p1423
sI143
I113
tp1424
a.