(lp0
(F2.4209998528758594
S'Cell[1].dend[27] syn_ = new AmpaNmda(0.5)'
p1
I1
(dp2
S'seg'
p3
F0.5
sS'hostfrom'
p4
F2.0
sS'gid'
p5
I146
sS'coords'
p6
cnumpy.core.multiarray
_reconstruct
p7
(cnumpy
ndarray
p8
(I0
tp9
S'b'
p10
tp11
Rp12
(I1
(I3
tp13
cnumpy
dtype
p14
(S'f8'
p15
I0
I1
tp16
Rp17
(I3
S'<'
p18
NNNI-1
I-1
I0
tp19
bI00
S'(\xad7\xc9\xb1\rS\xc0sr\xb6\xd7`!\xf0?\xb5\xeb\x128\x08\xdc4\xc0'
p20
tp21
bsS'secnames'
p22
S'Cell[3].axon[236]'
p23
sI146
I81
tp24
a(F1.9457250344731747
S'Cell[1].dend[50] syn_ = new ExpSid(0.3)'
p25
I1
(dp26
S'seg'
p27
F0.7857142857142856
sS'hostfrom'
p28
F3.0
sS'gid'
p29
I147
sS'coords'
p30
g7
(g8
(I0
tp31
g10
tp32
Rp33
(I1
(I3
tp34
g14
(S'f8'
p35
I0
I1
tp36
Rp37
(I3
S'<'
p38
NNNI-1
I-1
I0
tp39
bI00
S'\xf7\x15Rc\xeeDM@^V\x12\xa2\xbb\xa1\x0b\xc0\xa0^\xc6^\xed3E\xc0'
p40
tp41
bsS'secnames'
p42
S'Cell[3].axon[135]'
p43
sI147
I81
tp44
a(F2.2418656202056426
S'Cell[2].dend[8] syn_ = new FastInhib(0.0714285714286)'
p45
I2
(dp46
S'seg'
p47
F0.5
sS'hostfrom'
p48
F4.0
sS'gid'
p49
I148
sS'coords'
p50
g7
(g8
(I0
tp51
g10
tp52
Rp53
(I1
(I3
tp54
g14
(S'f8'
p55
I0
I1
tp56
Rp57
(I3
S'<'
p58
NNNI-1
I-1
I0
tp59
bI00
S'`\x0f\x02\xbc\xd4\xf5H@\x0b\x84\x0f\xc3#@Y@\x01\r\xce\xf5\xd1wR\xc0'
p60
tp61
bsS'secnames'
p62
S'Cell[3].axon[51]'
p63
sI148
I129
tp64
a(F2.4516118774752274
S'Cell[1].dend[45] syn_ = new AmpaNmda(0.5)'
p65
I1
(dp66
g47
F0.5
sg48
F4.0
sg49
I148
sg50
g7
(g8
(I0
tp67
g10
tp68
Rp69
(I1
(I3
tp70
g57
I00
S'\xdc\x16\xbb\xc0\x8f\\>@N\xce\x12\x1f\x9f\xc5W\xc0N\xc4\xc6\xad<t?\xc0'
p71
tp72
bsg62
S'Cell[3].axon[347]'
p73
sI148
I81
tp74
a(F1.6124369328556938
S'Cell[3].apic[12] syn_ = new FastInhib(0.7)'
p75
I3
(dp76
g47
F0.8333333333333333
sg48
F4.0
sg49
I100
sg50
g7
(g8
(I0
tp77
g10
tp78
Rp79
(I1
(I3
tp80
g57
I00
S"\xc2\xdaF\x01\xffgM\xc0\xc0f/\\o\xe72\xc04u\xcf\xef'\xd8\t@"
p81
tp82
bsg62
S'Cell[2].axon[0]'
p83
sI100
I177
tp84
a(F2.247666763193932
S'Cell[2].dend[46] syn_ = new FastInhib(0.833333333333)'
p85
I2
(dp86
g47
F0.7
sg48
F4.0
sg49
I100
sg50
g7
(g8
(I0
tp87
g10
tp88
Rp89
(I1
(I3
tp90
g57
I00
S'\x18\x05_\x01\xf2\x94S@\xfb\xce\x85\xd3\xee\x91J\xc0\xf0\x96\x12Q\xc6\r:\xc0'
p91
tp92
bsg62
S'Cell[2].axon[73]'
p93
sI100
I129
tp94
a(F0.7643262179182391
S'Cell[1].dend[42] syn_ = new AmpaNmda(0.5)'
p95
I1
(dp96
g47
F0.8999999999999999
sg48
F4.0
sg49
I100
sg50
g7
(g8
(I0
tp97
g10
tp98
Rp99
(I1
(I3
tp100
g57
I00
S'\xc30\xe1\xf9\x83;#\xc0:\xf0\xa4\x98\x83\xcf\xf2\xbf\xc6\x08\xc4\xd4\x1e\x003\xc0'
p101
tp102
bsg62
S'Cell[2].axon[83]'
p103
sI100
I81
tp104
a(F2.1409446211546586
S'Cell[1].dend[68] syn_ = new ExpSid(0.5)'
p105
I1
(dp106
S'seg'
p107
F0.1
sS'hostfrom'
p108
F5.0
sS'gid'
p109
I5
sS'coords'
p110
g7
(g8
(I0
tp111
g10
tp112
Rp113
(I1
(I3
tp114
g14
(S'f8'
p115
I0
I1
tp116
Rp117
(I3
S'<'
p118
NNNI-1
I-1
I0
tp119
bI00
S'\xc3\xc8\xd2S&rS\xc0\xf1\x0b\xd5\xec\x01\x19D@t\xb9UI\xaa[T\xc0'
p120
tp121
bsS'secnames'
p122
S'Cell[0].axon[6]'
p123
sI5
I81
tp124
a(F0.9369516337597202
S'Cell[3].dend[24] syn_ = new FastInhib(0.833333333333)'
p125
I3
(dp126
S'seg'
p127
F0.1
sS'hostfrom'
p128
F6.0
sS'gid'
p129
I150
sS'coords'
p130
g7
(g8
(I0
tp131
g10
tp132
Rp133
(I1
(I3
tp134
g14
(S'f8'
p135
I0
I1
tp136
Rp137
(I3
S'<'
p138
NNNI-1
I-1
I0
tp139
bI00
S'[\xd3;\xb5\x0f\x8e[@\xfd\xacO\xba2!Q@\x00\x00\x00\x80\x14\xee>\xc0'
p140
tp141
bsS'secnames'
p142
S'Cell[3].axon[22]'
p143
sI150
I177
tp144
a(F2.1687169572040155
S'Cell[1].apic[13] syn_ = new AmpaNmda(0.5)'
p145
I1
(dp146
g127
F0.5
sg128
F6.0
sg129
I150
sg130
g7
(g8
(I0
tp147
g10
tp148
Rp149
(I1
(I3
tp150
g137
I00
S'\xc06\xc27\xbc.I\xc0*\xe93H\xd8\xefU@\x13\xec\xe8\xee\xfb\xc6B\xc0'
p151
tp152
bsg142
S'Cell[3].axon[29]'
p153
sI150
I81
tp154
a(F2.266207530549539
S'Cell[2].dend[13] syn_ = new FastInhib(0.9)'
p155
I2
(dp156
g127
F0.5
sg128
F6.0
sg129
I150
sg130
g7
(g8
(I0
tp157
g10
tp158
Rp159
(I1
(I3
tp160
g137
I00
S'\x94\xadc\xe9\xb5\xb6O\xc0\x83xL4\xfaC]@\x00\x00\x00\x80\x14\xee>\xc0'
p161
tp162
bsg142
S'Cell[3].axon[159]'
p163
sI150
I129
tp164
a(F2.3291357626188693
S'Cell[1].apic[18] syn_ = new AmpaNmda(0.5)'
p165
I1
(dp166
S'seg'
p167
F0.5
sS'hostfrom'
p168
F8.0
sS'gid'
p169
I152
sS'coords'
p170
g7
(g8
(I0
tp171
g10
tp172
Rp173
(I1
(I3
tp174
g14
(S'f8'
p175
I0
I1
tp176
Rp177
(I3
S'<'
p178
NNNI-1
I-1
I0
tp179
bI00
S'\x00\x00\x00\xe0\xa3P9\xc0\x00\x00\x00@\n\x87]@\x00\x00\x00\x80=\n\x18\xc0'
p180
tp181
bsS'secnames'
p182
S'Cell[3].axon[24]'
p183
sI152
I81
tp184
a(F2.080945816283859
S'Cell[2].dend[12] syn_ = new FastInhib(0.277777777778)'
p185
I2
(dp186
g167
F0.8999999999999999
sg168
F8.0
sg169
I104
sg170
g7
(g8
(I0
tp187
g10
tp188
Rp189
(I1
(I3
tp190
g177
I00
S"\x99\x194\xa7t\x8d%@\xd1\xc8\xabm\x86%a@\x13'M\x02q\xc9F\xc0"
p191
tp192
bsg182
S'Cell[2].axon[357]'
p193
sI104
I129
tp194
a(F1.9977468530996971
S'Cell[1].apic[17] syn_ = new ExpSid(0.5)'
p195
I1
(dp196
S'seg'
p197
F0.5
sS'hostfrom'
p198
F9.0
sS'gid'
p199
I105
sS'coords'
p200
g7
(g8
(I0
tp201
g10
tp202
Rp203
(I1
(I3
tp204
g14
(S'f8'
p205
I0
I1
tp206
Rp207
(I3
S'<'
p208
NNNI-1
I-1
I0
tp209
bI00
S"\xcd'\xadM\xca\xca9\xc0n\xdd\xa7\xbe\x9d\x9aY@N\xdd\xf4\x02N\x977\xc0"
p210
tp211
bsS'secnames'
p212
S'Cell[2].axon[56]'
p213
sI105
I81
tp214
a(F1.5792167762158904
S'Cell[1].dend[31] syn_ = new AmpaNmda(0.5)'
p215
I1
(dp216
S'seg'
p217
F0.7
sS'hostfrom'
p218
F10.0
sS'gid'
p219
I106
sS'coords'
p220
g7
(g8
(I0
tp221
g10
tp222
Rp223
(I1
(I3
tp224
g14
(S'f8'
p225
I0
I1
tp226
Rp227
(I3
S'<'
p228
NNNI-1
I-1
I0
tp229
bI00
S"\x82\xb4C9\xf50'\xc0T\xe4\xf5,8\x8c\x18@\x8c\xf4\xfe\xca\x0c\xef/\xc0"
p230
tp231
bsS'secnames'
p232
S'Cell[2].axon[12]'
p233
sI106
I81
tp234
a(F1.2903936279906647
S'Cell[1].dend[48] syn_ = new AmpaNmda(0.5)'
p235
I1
(dp236
g217
F0.21428571428571427
sg218
F10.0
sg219
I106
sg220
g7
(g8
(I0
tp237
g10
tp238
Rp239
(I1
(I3
tp240
g227
I00
S'\xc2Y\xbd\xc7c\x9f$@K\xf6\xdey\n\x9b"\xc0\xa6\xf51\xf5/\xd76\xc0'
p241
tp242
bsg232
S'Cell[2].axon[131]'
p243
sI106
I81
tp244
a(F2.075458269745608
S'Cell[1].dend[50] syn_ = new AmpaNmda(0.1)'
p245
I1
(dp246
g217
F0.16666666666666666
sg218
F10.0
sg219
I106
sg220
g7
(g8
(I0
tp247
g10
tp248
Rp249
(I1
(I3
tp250
g227
I00
S'\x85Y\xad\xa5\x964B@\x9a\xae\xfeS&%\x12\xc0\xfeB\xf7\x93!\x0b8\xc0'
p251
tp252
bsg232
S'Cell[2].axon[184]'
p253
sI106
I81
tp254
a(F2.1117116322202043
S'Cell[3].dend[4] syn_ = new FastInhib(0.166666666667)'
p255
I3
(dp256
g217
F0.8333333333333333
sg218
F10.0
sg219
I106
sg220
g7
(g8
(I0
tp257
g10
tp258
Rp259
(I1
(I3
tp260
g227
I00
S'EbE\x0f\xfe \x07@\x084\x12O\xcb4J@hq\xdd\xb1\x08\x85\r\xc0'
p261
tp262
bsg232
S'Cell[2].axon[223]'
p263
sI106
I177
tp264
a(F0.9460377869887322
S'Cell[3].apic[12] syn_ = new FastInhib(0.9)'
p265
I3
(dp266
S'seg'
p267
F0.5
sS'hostfrom'
p268
F11.0
sS'gid'
p269
I155
sS'coords'
p270
g7
(g8
(I0
tp271
g10
tp272
Rp273
(I1
(I3
tp274
g14
(S'f8'
p275
I0
I1
tp276
Rp277
(I3
S'<'
p278
NNNI-1
I-1
I0
tp279
bI00
S'\xfd0Y\x03\x92+S\xc0\xfe\xef\xe8\x1c\xc3O)\xc02\x94\xe7S\xda,\xf0\xbf'
p280
tp281
bsS'secnames'
p282
S'Cell[3].axon[163]'
p283
sI155
I177
tp284
a(F1.722856312005119
S'Cell[3].dend[19] syn_ = new FastInhib(0.5)'
p285
I3
(dp286
S'seg'
p287
F0.5
sS'hostfrom'
p288
F12.0
sS'gid'
p289
I108
sS'coords'
p290
g7
(g8
(I0
tp291
g10
tp292
Rp293
(I1
(I3
tp294
g14
(S'f8'
p295
I0
I1
tp296
Rp297
(I3
S'<'
p298
NNNI-1
I-1
I0
tp299
bI00
S'i\x07`\xe6\xb3\xfcG@x\xd0~\xd0V|?@\x8b\x12\x99\xd3\xfc\x9e9@'
p300
tp301
bsS'secnames'
p302
S'Cell[2].axon[56]'
p303
sI108
I177
tp304
a(F2.049899628327984
S'Cell[1].dend[47] syn_ = new ExpSid(0.1)'
p305
I1
(dp306
S'seg'
p307
F0.5
sS'hostfrom'
p308
F13.0
sS'gid'
p309
I61
sS'coords'
p310
g7
(g8
(I0
tp311
g10
tp312
Rp313
(I1
(I3
tp314
g14
(S'f8'
p315
I0
I1
tp316
Rp317
(I3
S'<'
p318
NNNI-1
I-1
I0
tp319
bI00
S'\xb2\xf9\x14\xf5\xa0\xf57@V\x888\x1fsM2\xc0R`\xa7\xe6\x8a\t5\xc0'
p320
tp321
bsS'secnames'
p322
S'Cell[1].axon[38]'
p323
sI61
I81
tp324
a(F0.9866371794871786
S'Cell[0].dend[1] syn_ = new AmpaNmda(0.166666666667)'
p325
I0
(dp326
S'seg'
p327
F0.8333333333333333
sS'hostfrom'
p328
F14.0
sS'gid'
p329
I110
sS'coords'
p330
g7
(g8
(I0
tp331
g10
tp332
Rp333
(I1
(I3
tp334
g14
(S'f8'
p335
I0
I1
tp336
Rp337
(I3
S'<'
p338
NNNI-1
I-1
I0
tp339
bI00
S'\x00\x00\x00@33F@\x89\x93\xf0\xe1\x1e\x1dE@\x00\xb48\x87\x9a\xfb6\xc0'
p340
tp341
bsS'secnames'
p342
S'Cell[2].axon[72]'
p343
sI110
I33
tp344
a(F2.230756198350372
S'Cell[3].dend[2] syn_ = new FastInhib(0.5)'
p345
I3
(dp346
g327
F0.5
sg328
F14.0
sg329
I110
sg330
g7
(g8
(I0
tp347
g10
tp348
Rp349
(I1
(I3
tp350
g337
I00
S'y\x83BXQ\xc7\x14@\xa4\x98\x9f\xd8\xb6\xae5@\x84\xbe\xb2\xb4\xcf\xed\xf9?'
p351
tp352
bsg342
S'Cell[2].axon[127]'
p353
sI110
I177
tp354
a(F2.389359873281657
S'Cell[0].apic[0] syn_ = new AmpaNmda(0.166666666667)'
p355
I0
(dp356
g327
F0.1
sg328
F14.0
sg329
I110
sg330
g7
(g8
(I0
tp357
g10
tp358
Rp359
(I1
(I3
tp360
g337
I00
S'\xae\xc8k\xae~\xceR@\x8eV\xa4\xa0\xf2\xadF@\xac+E\xec\x84\x1e0\xc0'
p361
tp362
bsg342
S'Cell[2].axon[142]'
p363
sI110
I33
tp364
a(F1.607314101315956
S'Cell[3].apic[4] syn_ = new FastInhib(0.833333333333)'
p365
I3
(dp366
g327
F0.16666666666666666
sg328
F14.0
sg329
I14
sg330
g7
(g8
(I0
tp367
g10
tp368
Rp369
(I1
(I3
tp370
g337
I00
S'\xdc\xbe60\xab\x161@"\xd4\xd4"(\xba]\xc0F\x13\x84\xa3\x7f\xaa)@'
p371
tp372
bsg342
S'Cell[0].axon[4]'
p373
sI14
I177
tp374
a(F1.9628101491523173
S'Cell[2].dend[6] syn_ = new FastInhib(0.5)'
p375
I2
(dp376
S'seg'
p377
F0.30000000000000004
sS'hostfrom'
p378
F15.0
sS'gid'
p379
I111
sS'coords'
p380
g7
(g8
(I0
tp381
g10
tp382
Rp383
(I1
(I3
tp384
g14
(S'f8'
p385
I0
I1
tp386
Rp387
(I3
S'<'
p388
NNNI-1
I-1
I0
tp389
bI00
S'X\xe7\x85Cz\x9aU@7K\xde\xcb\xb8\xc5V@\xff\xfcT\x15\x85GN\xc0'
p390
tp391
bsS'secnames'
p392
S'Cell[2].axon[170]'
p393
sI111
I129
tp394
a(F2.4188158177814727
S'Cell[2].dend[12] syn_ = new FastInhib(0.388888888889)'
p395
I2
(dp396
g377
F0.49999999999999994
sg378
F15.0
sg379
I159
sg380
g7
(g8
(I0
tp397
g10
tp398
Rp399
(I1
(I3
tp400
g387
I00
S'\xbe\x84\xe5G-\x18\xf1?\xc9X\xee\xd2\x96\x7fd@\xbaJI+EbG\xc0'
p401
tp402
bsg392
S'Cell[3].axon[88]'
p403
sI159
I129
tp404
a(F1.0535824343004814
S'Cell[2].dend[24] syn_ = new FastInhib(0.5)'
p405
I2
(dp406
S'seg'
p407
F0.21428571428571427
sS'hostfrom'
p408
F16.0
sS'gid'
p409
I160
sS'coords'
p410
g7
(g8
(I0
tp411
g10
tp412
Rp413
(I1
(I3
tp414
g14
(S'f8'
p415
I0
I1
tp416
Rp417
(I3
S'<'
p418
NNNI-1
I-1
I0
tp419
bI00
S'*\xd2\x8dl\xa7\xbe)@R\xfb"el\x19a@\xfa\x81II\xe9\xb2=\xc0'
p420
tp421
bsS'secnames'
p422
S'Cell[3].axon[33]'
p423
sI160
I129
tp424
a(F1.9052006774577845
S'Cell[1].dend[59] syn_ = new AmpaNmda(0.166666666667)'
p425
I1
(dp426
g407
F0.16666666666666666
sg408
F16.0
sg409
I160
sg410
g7
(g8
(I0
tp427
g10
tp428
Rp429
(I1
(I3
tp430
g417
I00
S'\xdaG\x11G\xf4n\x01\xc0$\xcb\x17-\xef\x0f+@\xb8\xa3Mu\xb3\xc6D\xc0'
p431
tp432
bsg422
S'Cell[3].axon[89]'
p433
sI160
I81
tp434
a(F0.6031404410588588
S'Cell[3].dend[14] syn_ = new FastInhib(0.833333333333)'
p435
I3
(dp436
g407
F0.9285714285714284
sg408
F16.0
sg409
I112
sg410
g7
(g8
(I0
tp437
g10
tp438
Rp439
(I1
(I3
tp440
g417
I00
S'7e\xbcz\xb5nA\xc0\ti\x17\xa2\xbf\xf2A@\x88J\xd6\xcc\xe6\x829\xc0'
p441
tp442
bsg422
S'Cell[2].axon[167]'
p443
sI112
I177
tp444
a(F1.6619525885421114
S'Cell[2].dend[12] syn_ = new FastInhib(0.277777777778)'
p445
I2
(dp446
g407
F0.5
sg408
F16.0
sg409
I112
sg410
g7
(g8
(I0
tp447
g10
tp448
Rp449
(I1
(I3
tp450
g417
I00
S'\xba\\\xf7\x0b\x1br"@\xf5\xb7a\x16\xbb\xf3`@\xd3\x8e\xcc\x87\xd6\xdeG\xc0'
p451
tp452
bsg422
S'Cell[2].axon[211]'
p453
sI112
I129
tp454
a(F1.76623666079661
S'Cell[3].apic[3] syn_ = new FastInhib(0.5)'
p455
I3
(dp456
S'seg'
p457
F0.5
sS'hostfrom'
p458
F17.0
sS'gid'
p459
I113
sS'coords'
p460
g7
(g8
(I0
tp461
g10
tp462
Rp463
(I1
(I3
tp464
g14
(S'f8'
p465
I0
I1
tp466
Rp467
(I3
S'<'
p468
NNNI-1
I-1
I0
tp469
bI00
S'\x00\x00\x00\xf0Q\xf8*@\x00\x00\x00\xb0\x1e\xf5K\xc0\x00\x00\x00@\xe1\xba!@'
p470
tp471
bsS'secnames'
p472
S'Cell[2].axon[490]'
p473
sI113
I177
tp474
a(F1.8805405973754
S'Cell[3].apic[3] syn_ = new FastInhib(0.5)'
p475
I3
(dp476
g457
F0.5
sg458
F17.0
sg459
I113
sg460
g7
(g8
(I0
tp477
g10
tp478
Rp479
(I1
(I3
tp480
g467
I00
S'\x00\x00\x00@\n\xd7(@\x00\x00\x00\x80\xeb\xb1K\xc0\x00\x00\x00 \\\xcf#@'
p481
tp482
bsg472
S'Cell[2].axon[491]'
p483
sI113
I177
tp484
a(F2.0597169817546606
S'Cell[3].apic[5] syn_ = new FastInhib(0.1)'
p485
I3
(dp486
g457
F0.8333333333333333
sg458
F17.0
sg459
I113
sg460
g7
(g8
(I0
tp487
g10
tp488
Rp489
(I1
(I3
tp490
g467
I00
S'\xd5\xf7\xfd,B\xb93@\x9d~.\x84\x8d\xa5a\xc0\x00\x00\x00@\n\xd7&@'
p491
tp492
bsg472
S'Cell[2].axon[558]'
p493
sI113
I177
tp494
a(F2.2140617647913343
S'Cell[0].dend[1] syn_ = new AmpaNmda(0.833333333333)'
p495
I0
(dp496
S'seg'
p497
F0.5
sS'hostfrom'
p498
F18.0
sS'gid'
p499
I162
sS'coords'
p500
g7
(g8
(I0
tp501
g10
tp502
Rp503
(I1
(I3
tp504
g14
(S'f8'
p505
I0
I1
tp506
Rp507
(I3
S'<'
p508
NNNI-1
I-1
I0
tp509
bI00
S':\x1eJ\x1c\x1el3@\x905\xc7\x00P\xf8J@\xb6J\xb9\n\xea\xf7?\xc0'
p510
tp511
bsS'secnames'
p512
S'Cell[3].axon[17]'
p513
sI162
I33
tp514
a(F2.341185466319304
S'Cell[2].dend[30] syn_ = new FastInhib(0.5)'
p515
I2
(dp516
g497
F0.5
sg498
F18.0
sg499
I162
sg500
g7
(g8
(I0
tp517
g10
tp518
Rp519
(I1
(I3
tp520
g507
I00
S'\xf0L+u\xac\x8c>@\x9e\x98E\x85*\xdeE@H}\xa5\x07Y\x819\xc0'
p521
tp522
bsg512
S'Cell[3].axon[63]'
p523
sI162
I129
tp524
a(F2.271267829037104
S'Cell[2].dend[24] syn_ = new FastInhib(0.3)'
p525
I2
(dp526
g497
F0.5
sg498
F18.0
sg499
I162
sg500
g7
(g8
(I0
tp527
g10
tp528
Rp529
(I1
(I3
tp530
g507
I00
S'\\N\xeb\xc5z\x025@\xda\xe8\xd2\xdfP"Y@\x00\x00\x00\x80\x14\xae@\xc0'
p531
tp532
bsg512
S'Cell[3].axon[107]'
p533
sI162
I129
tp534
a(F1.6067634884768043
S'Cell[1].apic[8] syn_ = new ExpSid(0.5)'
p535
I1
(dp536
S'seg'
p537
F0.8333333333333333
sS'hostfrom'
p538
F19.0
sS'gid'
p539
I115
sS'coords'
p540
g7
(g8
(I0
tp541
g10
tp542
Rp543
(I1
(I3
tp544
g14
(S'f8'
p545
I0
I1
tp546
Rp547
(I3
S'<'
p548
NNNI-1
I-1
I0
tp549
bI00
S'o\xda\xd6\xbc\xd2\xf1H\xc0"8w\x0c\xc0\xa4_@\xde`\x1c!z\x1b\x07\xc0'
p550
tp551
bsS'secnames'
p552
S'Cell[2].axon[226]'
p553
sI115
I81
tp554
a(F2.145847909184847
S'Cell[1].apic[10] syn_ = new AmpaNmda(0.5)'
p555
I1
(dp556
S'seg'
p557
F0.36666666666666664
sS'hostfrom'
p558
F20.0
sS'gid'
p559
I68
sS'coords'
p560
g7
(g8
(I0
tp561
g10
tp562
Rp563
(I1
(I3
tp564
g14
(S'f8'
p565
I0
I1
tp566
Rp567
(I3
S'<'
p568
NNNI-1
I-1
I0
tp569
bI00
S'\x1f\x8cp\x07\xf0i@\xc0a\x11\x96\xb5\x93\x82T@D\xc7EZ\x0c3>\xc0'
p570
tp571
bsS'secnames'
p572
S'Cell[1].axon[4]'
p573
sI68
I81
tp574
a(F2.220510251822165
S'Cell[1].apic[1] syn_ = new AmpaNmda(0.5)'
p575
I1
(dp576
g557
F0.1
sg558
F20.0
sg559
I116
sg560
g7
(g8
(I0
tp577
g10
tp578
Rp579
(I1
(I3
tp580
g567
I00
S"\xdb$\x01\x1c3\xa1A\xc0'\xb9_vA\x1eN@\xfck\xb2\x00O\xedE\xc0"
p581
tp582
bsg572
S'Cell[2].axon[184]'
p583
sI116
I81
tp584
a(F1.926359157127761
S'Cell[1].dend[75] syn_ = new ExpSid(0.166666666667)'
p585
I1
(dp586
S'seg'
p587
F0.7
sS'hostfrom'
p588
F21.0
sS'gid'
p589
I165
sS'coords'
p590
g7
(g8
(I0
tp591
g10
tp592
Rp593
(I1
(I3
tp594
g14
(S'f8'
p595
I0
I1
tp596
Rp597
(I3
S'<'
p598
NNNI-1
I-1
I0
tp599
bI00
S'\x0b\xfe\xa3\xf0\x88\xc7>\xc0\xdf\xfdU]"\xedT\xc0@E-\x83\xad\x93C\xc0'
p600
tp601
bsS'secnames'
p602
S'Cell[3].axon[33]'
p603
sI165
I81
tp604
a(F1.1434267225134904
S'Cell[1].dend[48] syn_ = new ExpSid(0.5)'
p605
I1
(dp606
g587
F0.8333333333333333
sg588
F21.0
sg589
I165
sg590
g7
(g8
(I0
tp607
g10
tp608
Rp609
(I1
(I3
tp610
g597
I00
S'\xae\xad\xf8m\xc8\xed\x1f@7\x14[s[\xfa"\xc0^\xdfK\x0f\xc7U6\xc0'
p611
tp612
bsg602
S'Cell[3].axon[104]'
p613
sI165
I81
tp614
a(F1.9315069881830382
S'Cell[1].dend[47] syn_ = new ExpSid(0.1)'
p615
I1
(dp616
g587
F0.5
sg588
F21.0
sg589
I165
sg590
g7
(g8
(I0
tp617
g10
tp618
Rp619
(I1
(I3
tp620
g597
I00
S'\x94\xbd!\xe4<\x826@~\x11\xc5S\x15\x8a4\xc0\x08\xb16\x02\xc1s3\xc0'
p621
tp622
bsg602
S'Cell[3].axon[113]'
p623
sI165
I81
tp624
a(F2.089183433319471
S'Cell[2].dend[34] syn_ = new FastInhib(0.5)'
p625
I2
(dp626
g587
F0.16666666666666666
sg588
F21.0
sg589
I165
sg590
g7
(g8
(I0
tp627
g10
tp628
Rp629
(I1
(I3
tp630
g597
I00
S'p|x?\r\xc9:@J\xf3y\xf5\xec\xb69@\xa8O\xfb\xb5\xa3aP\xc0'
p631
tp632
bsg602
S'Cell[3].axon[120]'
p633
sI165
I129
tp634
a(F2.2360778000549284
S'Cell[1].dend[55] syn_ = new ExpSid(0.5)'
p635
I1
(dp636
g587
F0.22727272727272727
sg588
F21.0
sg589
I165
sg590
g7
(g8
(I0
tp637
g10
tp638
Rp639
(I1
(I3
tp640
g597
I00
S'\xfe]\xdd\xcb\x86\xc4Z@\xcdj\xb6\xca\xbb\x8fC\xc0\xfd\xaa\xd4-\xb2\xebL\xc0'
p641
tp642
bsg602
S'Cell[3].axon[158]'
p643
sI165
I81
tp644
a(F2.343732786419361
S'Cell[2].dend[31] syn_ = new FastInhib(0.1)'
p645
I2
(dp646
g587
F0.5
sg588
F21.0
sg589
I117
sg590
g7
(g8
(I0
tp647
g10
tp648
Rp649
(I1
(I3
tp650
g597
I00
S'MI\x0e\x83{\xc44@\xb8d/\x11\x8c\xd8D@\x00\x00\x00\x80\xc2u9\xc0'
p651
tp652
bsg602
S'Cell[2].axon[3]'
p653
sI117
I129
tp654
a(F2.391465939456852
S'Cell[3].dend[14] syn_ = new FastInhib(0.833333333333)'
p655
I3
(dp656
g587
F0.8333333333333333
sg588
F21.0
sg589
I117
sg590
g7
(g8
(I0
tp657
g10
tp658
Rp659
(I1
(I3
tp660
g597
I00
S'\xbc4\xa9Q5#A\xc0j6H\xe1>\xca@@\x00\x00\x00\x80\xc2u9\xc0'
p661
tp662
bsg602
S'Cell[2].axon[62]'
p663
sI117
I177
tp664
a(F1.6847903488748495
S'Cell[1].dend[32] syn_ = new ExpSid(0.166666666667)'
p665
I1
(dp666
g587
F0.16666666666666666
sg588
F21.0
sg589
I117
sg590
g7
(g8
(I0
tp667
g10
tp668
Rp669
(I1
(I3
tp670
g597
I00
S'\xc5%\xbeqzr\xf6\xbfa$\xd7\\\x1d-$@\x00\x00\x00\xa0\x99\xd91\xc0'
p671
tp672
bsg602
S'Cell[2].axon[357]'
p673
sI117
I81
tp674
a(F1.9444335133848527
S'Cell[1].dend[33] syn_ = new ExpSid(0.1)'
p675
I1
(dp676
g587
F0.5
sg588
F21.0
sg589
I117
sg590
g7
(g8
(I0
tp677
g10
tp678
Rp679
(I1
(I3
tp680
g597
I00
S'*d\x14\x1a\xaa\x1fV@\xee3\x82\xc0a\xc0B@\x00\x00\x00\x80\xc2u9\xc0'
p681
tp682
bsg602
S'Cell[2].axon[403]'
p683
sI117
I81
tp684
a(F0.7388924515656958
S'Cell[3].apic[20] syn_ = new FastInhib(0.3)'
p685
I3
(dp686
g587
F0.7
sg588
F21.0
sg589
I117
sg590
g7
(g8
(I0
tp687
g10
tp688
Rp689
(I1
(I3
tp690
g597
I00
S'\x92{(\xad\x84cB@Ss\x97+\x01X;\xc0\x00\x00\x00\x80\xc2u9\xc0'
p691
tp692
bsg602
S'Cell[2].axon[419]'
p693
sI117
I177
tp694
a(F2.228633875174427
S'Cell[1].apic[36] syn_ = new ExpSid(0.5)'
p695
I1
(dp696
g587
F0.5
sg588
F21.0
sg589
I117
sg590
g7
(g8
(I0
tp697
g10
tp698
Rp699
(I1
(I3
tp700
g597
I00
S'\x00\x00\x00\xf0Q\xb8K@\x00\x00\x00\xe0z\xd8b@\x00\x00\x00\x80\xc2u9\xc0'
p701
tp702
bsg602
S'Cell[2].axon[509]'
p703
sI117
I81
tp704
a(F2.0932719838252067
S'Cell[1].dend[35] syn_ = new AmpaNmda(0.5)'
p705
I1
(dp706
S'seg'
p707
F0.16666666666666666
sS'hostfrom'
p708
F22.0
sS'gid'
p709
I166
sS'coords'
p710
g7
(g8
(I0
tp711
g10
tp712
Rp713
(I1
(I3
tp714
g14
(S'f8'
p715
I0
I1
tp716
Rp717
(I3
S'<'
p718
NNNI-1
I-1
I0
tp719
bI00
S'\xf3\x80\xdeN\x95 \x05\xc0\x0e\xffV\x13\xc1\xa7\xf9?\x00\x00\x00\x80\xeb\xd1"\xc0'
p720
tp721
bsS'secnames'
p722
S'Cell[3].axon[0]'
p723
sI166
I81
tp724
a(F2.1591538079500667
S'Cell[2].dend[27] syn_ = new FastInhib(0.1)'
p725
I2
(dp726
g707
F0.5
sg708
F22.0
sg709
I166
sg710
g7
(g8
(I0
tp727
g10
tp728
Rp729
(I1
(I3
tp730
g717
I00
S'\x1e\xeb$\r8U?@$\x8d\xfd\xe0\xef\x80Q@z\xd9\xfcP%\xa73\xc0'
p731
tp732
bsg722
S'Cell[3].axon[202]'
p733
sI166
I129
tp734
a(F0.9964951059701849
S'Cell[0].dend[5] syn_ = new AmpaNmda(0.166666666667)'
p735
I0
(dp736
g707
F0.16666666666666666
sg708
F22.0
sg709
I166
sg710
g7
(g8
(I0
tp737
g10
tp738
Rp739
(I1
(I3
tp740
g717
I00
S'\x98\xadEET\xecW@j%\xcd.\xa0\xaf\x1a@\x00\x00\x00@3\xb3+\xc0'
p741
tp742
bsg722
S'Cell[3].axon[292]'
p743
sI166
I33
tp744
a(F2.45970666658151
S'Cell[1].dend[5] syn_ = new ExpSid(0.5)'
p745
I1
(dp746
S'seg'
p747
F0.16666666666666666
sS'hostfrom'
p748
F23.0
sS'gid'
p749
I167
sS'coords'
p750
g7
(g8
(I0
tp751
g10
tp752
Rp753
(I1
(I3
tp754
g14
(S'f8'
p755
I0
I1
tp756
Rp757
(I3
S'<'
p758
NNNI-1
I-1
I0
tp759
bI00
S'0\xea\x03\xe7\xf7TT\xc0d\xa0\xbf\xa8\xf6\xd27\xc0_\xea\x1e\x7f\xbe\xcf \xc0'
p760
tp761
bsS'secnames'
p762
S'Cell[3].axon[177]'
p763
sI167
I81
tp764
a(F0.7871188600953065
S'Cell[1].dend[47] syn_ = new AmpaNmda(0.3)'
p765
I1
(dp766
S'seg'
p767
F0.7
sS'hostfrom'
p768
F24.0
sS'gid'
p769
I72
sS'coords'
p770
g7
(g8
(I0
tp771
g10
tp772
Rp773
(I1
(I3
tp774
g14
(S'f8'
p775
I0
I1
tp776
Rp777
(I3
S'<'
p778
NNNI-1
I-1
I0
tp779
bI00
S'\x1f#{\xf0\x95gJ@\xac\xb8\xfe{y\x00A\xc0\x00\x00\x00\x00\x00\x80:\xc0'
p780
tp781
bsS'secnames'
p782
S'Cell[1].axon[38]'
p783
sI72
I81
tp784
a(F2.4321072192212627
S'Cell[1].dend[20] syn_ = new AmpaNmda(0.166666666667)'
p785
I1
(dp786
g767
F0.1
sg768
F24.0
sg769
I168
sg770
g7
(g8
(I0
tp787
g10
tp788
Rp789
(I1
(I3
tp790
g777
I00
S'\xa5A\x92\xc1W\x8dX\xc0\xacf\x96=}\xf94\xc0\x00\x00\x00\xc0\xcc\xdcQ\xc0'
p791
tp792
bsg782
S'Cell[3].axon[150]'
p793
sI168
I81
tp794
a(F0.7547606912371806
S'Cell[3].dend[15] syn_ = new FastInhib(0.5)'
p795
I3
(dp796
g767
F0.7
sg768
F24.0
sg769
I168
sg770
g7
(g8
(I0
tp797
g10
tp798
Rp799
(I1
(I3
tp800
g777
I00
S'\x01q\x85\x91\x12\x19A@~\xa8\xe7\xcbs\xbc6@.\x12\xb9\xc7F\x833@'
p801
tp802
bsg782
S'Cell[3].axon[591]'
p803
sI168
I177
tp804
a(F1.584248069813776
S'Cell[1].dend[21] syn_ = new AmpaNmda(0.1)'
p805
I1
(dp806
g767
F0.9285714285714284
sg768
F24.0
sg769
I120
sg770
g7
(g8
(I0
tp807
g10
tp808
Rp809
(I1
(I3
tp810
g777
I00
S'\x11\x81\xf2y\x95\xb4S\xc0\x0e\x13\xfc$\x13:0@!\xdcW\xe3/[P\xc0'
p811
tp812
bsg782
S'Cell[2].axon[156]'
p813
sI120
I81
tp814
a(F1.8406327916831295
S'Cell[1].dend[41] syn_ = new ExpSid(0.5)'
p815
I1
(dp816
S'seg'
p817
F0.16666666666666666
sS'hostfrom'
p818
F25.0
sS'gid'
p819
I121
sS'coords'
p820
g7
(g8
(I0
tp821
g10
tp822
Rp823
(I1
(I3
tp824
g14
(S'f8'
p825
I0
I1
tp826
Rp827
(I3
S'<'
p828
NNNI-1
I-1
I0
tp829
bI00
S'\x1f%"\x19\xa8\xc7)\xc0\xdb\xebc\x05\xeb\xfe"\xc0\x87\xbb6[\xa6+\x02\xc0'
p830
tp831
bsS'secnames'
p832
S'Cell[2].axon[188]'
p833
sI121
I81
tp834
a(F0.5768120922311488
S'Cell[1].dend[28] syn_ = new ExpSid(0.833333333333)'
p835
I1
(dp836
g817
F0.8333333333333333
sg818
F25.0
sg819
I121
sg820
g7
(g8
(I0
tp837
g10
tp838
Rp839
(I1
(I3
tp840
g827
I00
S'\x9f\xf1{\x07\x12\xeab\xc0\xc1\x95u\xb9\xcf\xce.\xc0\x00\x00\x00\x00\x00\x00,\xc0'
p841
tp842
bsg832
S'Cell[2].axon[328]'
p843
sI121
I81
tp844
a(F2.370624776671831
S'Cell[1].dend[76] syn_ = new AmpaNmda(0.833333333333)'
p845
I1
(dp846
S'seg'
p847
F0.16666666666666666
sS'hostfrom'
p848
F26.0
sS'gid'
p849
I74
sS'coords'
p850
g7
(g8
(I0
tp851
g10
tp852
Rp853
(I1
(I3
tp854
g14
(S'f8'
p855
I0
I1
tp856
Rp857
(I3
S'<'
p858
NNNI-1
I-1
I0
tp859
bI00
S'\xf9\xe6\xbf~\xdf\x81,\xc0{\xe5\xfa\x13\x99hc\xc0\xc6\x15\x82k>\xc89\xc0'
p860
tp861
bsS'secnames'
p862
S'Cell[1].axon[22]'
p863
sI74
I81
tp864
a(F1.3871382084357688
S'Cell[1].dend[76] syn_ = new AmpaNmda(0.166666666667)'
p865
I1
(dp866
g847
F0.07894736842105263
sg848
F26.0
sg849
I74
sg850
g7
(g8
(I0
tp867
g10
tp868
Rp869
(I1
(I3
tp870
g857
I00
S'\x11\x82\x0e:\xd9k>\xc0\xa47\xbc\xc1\xf1;W\xc0x=\xf3\x1a\xd8UA\xc0'
p871
tp872
bsg862
S'Cell[1].axon[32]'
p873
sI74
I81
tp874
a(F2.029021137468614
S'Cell[2].dend[24] syn_ = new FastInhib(0.7)'
p875
I2
(dp876
g847
F0.5
sg848
F26.0
sg849
I170
sg850
g7
(g8
(I0
tp877
g10
tp878
Rp879
(I1
(I3
tp880
g857
I00
S'\x1c\xaaK\xbeNh\x08@F\xd5qR9\xcfb@\x04\xbe\xb5\xb7\xa9|G\xc0'
p881
tp882
bsg862
S'Cell[3].axon[308]'
p883
sI170
I129
tp884
a(F1.7208490575960183
S'Cell[3].dend[1] syn_ = new FastInhib(0.5)'
p885
I3
(dp886
S'seg'
p887
F0.1
sS'hostfrom'
p888
F27.0
sS'gid'
p889
I171
sS'coords'
p890
g7
(g8
(I0
tp891
g10
tp892
Rp893
(I1
(I3
tp894
g14
(S'f8'
p895
I0
I1
tp896
Rp897
(I3
S'<'
p898
NNNI-1
I-1
I0
tp899
bI00
S'\xf6\xb1j\xd1Cp\xd5\xbf\xf4\\\x93q\xff\x7fA@\n\x8b\x90\xbd\xc2\x85<\xc0'
p900
tp901
bsS'secnames'
p902
S'Cell[3].axon[46]'
p903
sI171
I177
tp904
a(F2.4467358254451383
S'Cell[2].dend[21] syn_ = new FastInhib(0.5)'
p905
I2
(dp906
S'seg'
p907
F0.8333333333333333
sS'hostfrom'
p908
F28.0
sS'gid'
p909
I172
sS'coords'
p910
g7
(g8
(I0
tp911
g10
tp912
Rp913
(I1
(I3
tp914
g14
(S'f8'
p915
I0
I1
tp916
Rp917
(I3
S'<'
p918
NNNI-1
I-1
I0
tp919
bI00
S'V\xde\xe4\xbdQiD\xc0l\xe2\xfa\xd8YNX@\xfcAV7\xd3{B\xc0'
p920
tp921
bsS'secnames'
p922
S'Cell[3].axon[14]'
p923
sI172
I129
tp924
a(F2.228533133844576
S'Cell[2].dend[8] syn_ = new FastInhib(0.357142857143)'
p925
I2
(dp926
S'seg'
p927
F0.19230769230769232
sS'hostfrom'
p928
F29.0
sS'gid'
p929
I173
sS'coords'
p930
g7
(g8
(I0
tp931
g10
tp932
Rp933
(I1
(I3
tp934
g14
(S'f8'
p935
I0
I1
tp936
Rp937
(I3
S'<'
p938
NNNI-1
I-1
I0
tp939
bI00
S'k\xda\xfa\x90*%P@#\n\xa5<\xed\xf0b@\x94\x97:\xd3\xa2@O\xc0'
p940
tp941
bsS'secnames'
p942
S'Cell[3].axon[24]'
p943
sI173
I129
tp944
a(F2.1190529815328794
S'Cell[1].dend[82] syn_ = new AmpaNmda(0.5)'
p945
I1
(dp946
S'seg'
p947
F0.30000000000000004
sS'hostfrom'
p948
F30.0
sS'gid'
p949
I126
sS'coords'
p950
g7
(g8
(I0
tp951
g10
tp952
Rp953
(I1
(I3
tp954
g14
(S'f8'
p955
I0
I1
tp956
Rp957
(I3
S'<'
p958
NNNI-1
I-1
I0
tp959
bI00
S'3\x07\xfb:\xcf\xbeK@\x80.\xb0\x05Y\xc3D@\x08D@\xc6\x8c\\_\xc0'
p960
tp961
bsS'secnames'
p962
S'Cell[2].axon[144]'
p963
sI126
I81
tp964
a(F2.159081396720294
S'Cell[1].dend[75] syn_ = new AmpaNmda(0.166666666667)'
p965
I1
(dp966
g947
F0.16666666666666666
sg948
F30.0
sg949
I174
sg950
g7
(g8
(I0
tp967
g10
tp968
Rp969
(I1
(I3
tp970
g957
I00
S'M\xac\xaa\xaf\r\x96@\xc0\x0c\xfaSs\xfbyU\xc0\x00\x00\x00\xc0\x1e\x05C\xc0'
p971
tp972
bsg962
S'Cell[3].axon[11]'
p973
sI174
I81
tp974
a(F2.148817945233887
S'Cell[1].dend[68] syn_ = new AmpaNmda(0.5)'
p975
I1
(dp976
g947
F0.5
sg948
F30.0
sg949
I174
sg950
g7
(g8
(I0
tp977
g10
tp978
Rp979
(I1
(I3
tp980
g957
I00
S'\x00\x00\x00`\xb8^S\xc0\x00\x00\x00\x00\x00\x90E@\x00\x00\x00\xc0\xcc\xfcT\xc0'
p981
tp982
bsg962
S'Cell[3].axon[197]'
p983
sI174
I81
tp984
a(F0.7444133779358293
S'Cell[1].dend[59] syn_ = new AmpaNmda(0.166666666667)'
p985
I1
(dp986
S'seg'
p987
F0.8999999999999999
sS'hostfrom'
p988
F32.0
sS'gid'
p989
I176
sS'coords'
p990
g7
(g8
(I0
tp991
g10
tp992
Rp993
(I1
(I3
tp994
g14
(S'f8'
p995
I0
I1
tp996
Rp997
(I3
S'<'
p998
NNNI-1
I-1
I0
tp999
bI00
S'(\xa87\xe7\xa7\x02\xf4\xbf\xed\xe9\xed\xab\xb3\xd2-@z\x15\x0f\xf5dzD\xc0'
p1000
tp1001
bsS'secnames'
p1002
S'Cell[3].axon[122]'
p1003
sI176
I81
tp1004
a(F2.0163010443601066
S'Cell[3].dend[15] syn_ = new FastInhib(0.5)'
p1005
I3
(dp1006
g987
F0.5
sg988
F32.0
sg989
I176
sg990
g7
(g8
(I0
tp1007
g10
tp1008
Rp1009
(I1
(I3
tp1010
g997
I00
S'\xf2z\x18\xed\xa9r@@&\x08I\x9b\xa138@\n\xbdO\xfd\x17O4@'
p1011
tp1012
bsg1002
S'Cell[3].axon[125]'
p1013
sI176
I177
tp1014
a(F1.9175581525803136
S'Cell[1].apic[27] syn_ = new AmpaNmda(0.5)'
p1015
I1
(dp1016
S'seg'
p1017
F0.5
sS'hostfrom'
p1018
F34.0
sS'gid'
p1019
I82
sS'coords'
p1020
g7
(g8
(I0
tp1021
g10
tp1022
Rp1023
(I1
(I3
tp1024
g14
(S'f8'
p1025
I0
I1
tp1026
Rp1027
(I3
S'<'
p1028
NNNI-1
I-1
I0
tp1029
bI00
S'\xd5[\xdd\x99\xb8\xadA\xc0\xe9\xd0\x95\xc0\x9d\x9bc@[\x9c\xfe\xfd\x16\xf1\x10\xc0'
p1030
tp1031
bsS'secnames'
p1032
S'Cell[1].axon[194]'
p1033
sI82
I81
tp1034
a(F2.4653863332859394
S'Cell[1].dend[54] syn_ = new AmpaNmda(0.5)'
p1035
I1
(dp1036
g1017
F0.5
sg1018
F34.0
sg1019
I178
sg1020
g7
(g8
(I0
tp1037
g10
tp1038
Rp1039
(I1
(I3
tp1040
g1027
I00
S"\xf8\x96\t\xfa\xabFG@\xa2\x86L#'\xd4-\xc0\x00\x00\x00\x80\x14.F\xc0"
p1041
tp1042
bsg1032
S'Cell[3].axon[98]'
p1043
sI178
I81
tp1044
a(F2.358888444444205
S'Cell[3].apic[2] syn_ = new FastInhib(0.5)'
p1045
I3
(dp1046
S'seg'
p1047
F0.5
sS'hostfrom'
p1048
F35.0
sS'gid'
p1049
I83
sS'coords'
p1050
g7
(g8
(I0
tp1051
g10
tp1052
Rp1053
(I1
(I3
tp1054
g14
(S'f8'
p1055
I0
I1
tp1056
Rp1057
(I3
S'<'
p1058
NNNI-1
I-1
I0
tp1059
bI00
S'\xa7\xbb\xdbV\xf7\x058@\xae\xdd\xa5.0\x03<\xc0\xca\xaf\xfc\xa7a&5@'
p1060
tp1061
bsS'secnames'
p1062
S'Cell[1].axon[204]'
p1063
sI83
I177
tp1064
a(F2.188488012104963
S'Cell[1].apic[37] syn_ = new AmpaNmda(0.5)'
p1065
I1
(dp1066
S'seg'
p1067
F0.5
sS'hostfrom'
p1068
F36.0
sS'gid'
p1069
I84
sS'coords'
p1070
g7
(g8
(I0
tp1071
g10
tp1072
Rp1073
(I1
(I3
tp1074
g14
(S'f8'
p1075
I0
I1
tp1076
Rp1077
(I3
S'<'
p1078
NNNI-1
I-1
I0
tp1079
bI00
S'\x8b\xa4Wt\xc4\xe39\xc0\xc9\t7<\xe1\x0bk@\xb3\xa0\x82\xfcp\xa6B\xc0'
p1080
tp1081
bsS'secnames'
p1082
S'Cell[1].axon[46]'
p1083
sI84
I81
tp1084
a(F1.8147910054646172
S'Cell[1].dend[48] syn_ = new AmpaNmda(0.5)'
p1085
I1
(dp1086
g1067
F0.3571428571428571
sg1068
F36.0
sg1069
I180
sg1070
g7
(g8
(I0
tp1087
g10
tp1088
Rp1089
(I1
(I3
tp1090
g1077
I00
S'\xca\xc2\xdf\xe7\xad\x05"@\xfa\xbb\x1e\xb0\xb0\xad\x1e\xc0\x92\xda\xa5 \xa3`7\xc0'
p1091
tp1092
bsg1082
S'Cell[3].axon[134]'
p1093
sI180
I81
tp1094
a(F2.1655743314654012
S'Cell[1].dend[45] syn_ = new AmpaNmda(0.166666666667)'
p1095
I1
(dp1096
g1067
F0.5
sg1068
F36.0
sg1069
I180
sg1070
g7
(g8
(I0
tp1097
g10
tp1098
Rp1099
(I1
(I3
tp1100
g1077
I00
S'\x80\x82/:G15@\xa4\xac-~\x9f\x82H\xc0\x1el\x9f|\xdfA<\xc0'
p1101
tp1102
bsg1082
S'Cell[3].axon[273]'
p1103
sI180
I81
tp1104
a(F1.9595839886713875
S'Cell[1].dend[10] syn_ = new AmpaNmda(0.5)'
p1105
I1
(dp1106
g1067
F0.30000000000000004
sg1068
F36.0
sg1069
I180
sg1070
g7
(g8
(I0
tp1107
g10
tp1108
Rp1109
(I1
(I3
tp1110
g1077
I00
S'\x90\xdd\xcc\x17\x19vQ\xc0x^B\xd9\xe5MC@\x98d\n~\\z\xdd?'
p1111
tp1112
bsg1082
S'Cell[3].axon[281]'
p1113
sI180
I81
tp1114
a(F1.9058148723472694
S'Cell[3].dend[7] syn_ = new FastInhib(0.166666666667)'
p1115
I3
(dp1116
S'seg'
p1117
F0.1
sS'hostfrom'
p1118
F37.0
sS'gid'
p1119
I133
sS'coords'
p1120
g7
(g8
(I0
tp1121
g10
tp1122
Rp1123
(I1
(I3
tp1124
g14
(S'f8'
p1125
I0
I1
tp1126
Rp1127
(I3
S'<'
p1128
NNNI-1
I-1
I0
tp1129
bI00
S'2\xf9\xffT\xc880\xc0\xb2\xf1\x0c\x1c>\xed[@2\xa4*\rOA!@'
p1130
tp1131
bsS'secnames'
p1132
S'Cell[2].axon[113]'
p1133
sI133
I177
tp1134
a(F1.1074087968713888
S'Cell[3].dend[0] syn_ = new FastInhib(0.5)'
p1135
I3
(dp1136
g1117
F0.8999999999999999
sg1118
F37.0
sg1119
I181
sg1120
g7
(g8
(I0
tp1137
g10
tp1138
Rp1139
(I1
(I3
tp1140
g1127
I00
S'\xbcC\xf3F\x85\x1d2@\x9c\xa9\x8bx!\x03.@\x00\x00\x00`\xb8\x1e\xd5?'
p1141
tp1142
bsg1132
S'Cell[3].axon[155]'
p1143
sI181
I177
tp1144
a(F2.103469203949598
S'Cell[2].dend[15] syn_ = new FastInhib(0.833333333333)'
p1145
I2
(dp1146
g1117
F0.30000000000000004
sg1118
F37.0
sg1119
I181
sg1120
g7
(g8
(I0
tp1147
g10
tp1148
Rp1149
(I1
(I3
tp1150
g1127
I00
S'\xb3\xd9\x07m\x19\x91]\xc0x\xec=W%z`@B\x86"\xbb/AD\xc0'
p1151
tp1152
bsg1132
S'Cell[3].axon[235]'
p1153
sI181
I129
tp1154
a(F2.0055383295454856
S'Cell[2].dend[27] syn_ = new FastInhib(0.1)'
p1155
I2
(dp1156
g1117
F0.16666666666666666
sg1118
F37.0
sg1119
I85
sg1120
g7
(g8
(I0
tp1157
g10
tp1158
Rp1159
(I1
(I3
tp1160
g1127
I00
S'\xa0\xec\xd5G\x98\n@@\xa3S\x08:\x94\xcaP@^R\xdf\x81\x06d3\xc0'
p1161
tp1162
bsg1132
S'Cell[1].axon[251]'
p1163
sI85
I129
tp1164
a(F0.6346744319253008
S'Cell[1].dend[17] syn_ = new AmpaNmda(0.5)'
p1165
I1
(dp1166
S'seg'
p1167
F0.1
sS'hostfrom'
p1168
F38.0
sS'gid'
p1169
I182
sS'coords'
p1170
g7
(g8
(I0
tp1171
g10
tp1172
Rp1173
(I1
(I3
tp1174
g14
(S'f8'
p1175
I0
I1
tp1176
Rp1177
(I3
S'<'
p1178
NNNI-1
I-1
I0
tp1179
bI00
S'\xb0\xcc\x90\x80X(R\xc0\xb5\x05\x02\xa7|\r+@\xecn\x8cYR\x05G\xc0'
p1180
tp1181
bsS'secnames'
p1182
S'Cell[3].axon[52]'
p1183
sI182
I81
tp1184
a(F1.1051216173872638
S'Cell[2].dend[45] syn_ = new FastInhib(0.7)'
p1185
I2
(dp1186
g1167
F0.8333333333333333
sg1168
F38.0
sg1169
I182
sg1170
g7
(g8
(I0
tp1187
g10
tp1188
Rp1189
(I1
(I3
tp1190
g1177
I00
S"J\xda\x0eU\xeb\xe3\\@ \x8a\xf9\x87\x96['@\x00\x00\x00@\n\x17?\xc0"
p1191
tp1192
bsg1182
S'Cell[3].axon[221]'
p1193
sI182
I129
tp1194
a(F2.4063388551948437
S'Cell[3].apic[20] syn_ = new FastInhib(0.3)'
p1195
I3
(dp1196
g1167
F0.16666666666666666
sg1168
F38.0
sg1169
I182
sg1170
g7
(g8
(I0
tp1197
g10
tp1198
Rp1199
(I1
(I3
tp1200
g1177
I00
S"Mj'\x0e\x12\x85B@R\x13\x12\xe2\x1c/=\xc06d\xda,\x9d\x948\xc0"
p1201
tp1202
bsg1182
S'Cell[3].axon[402]'
p1203
sI182
I177
tp1204
a(F2.3448152247303025
S'Cell[3].apic[21] syn_ = new FastInhib(0.166666666667)'
p1205
I3
(dp1206
g1167
F0.5
sg1168
F38.0
sg1169
I86
sg1170
g7
(g8
(I0
tp1207
g10
tp1208
Rp1209
(I1
(I3
tp1210
g1177
I00
S'\xd6\x89<\x13\xcf~\\@\xc0\xd0\xb2\x90#\xecP\xc0\xc3A!Fx\xf0S\xc0'
p1211
tp1212
bsg1182
S'Cell[1].axon[49]'
p1213
sI86
I177
tp1214
a(F2.164717945420097
S'Cell[0].dend[7] syn_ = new AmpaNmda(0.5)'
p1215
I0
(dp1216
g1167
F0.16666666666666666
sg1168
F38.0
sg1169
I86
sg1170
g7
(g8
(I0
tp1217
g10
tp1218
Rp1219
(I1
(I3
tp1220
g1177
I00
S'=_\xbd\xab\x1a\x9b\\@\xf9\x96\xff\xcb\xa5\x9c0\xc0\xe2\x1dW\x1ap\x08A\xc0'
p1221
tp1222
bsg1182
S'Cell[1].axon[168]'
p1223
sI86
I33
tp1224
a(F2.4441608173647555
S'Cell[2].dend[43] syn_ = new FastInhib(0.5)'
p1225
I2
(dp1226
S'seg'
p1227
F0.5
sS'hostfrom'
p1228
F39.0
sS'gid'
p1229
I87
sS'coords'
p1230
g7
(g8
(I0
tp1231
g10
tp1232
Rp1233
(I1
(I3
tp1234
g14
(S'f8'
p1235
I0
I1
tp1236
Rp1237
(I3
S'<'
p1238
NNNI-1
I-1
I0
tp1239
bI00
S'\xfd\xd6\xd6\x96\xd5\xefD@\xa8Y\xc8K\xd6c?@\xf8\x1e\xba\x8c\xd7eC\xc0'
p1240
tp1241
bsS'secnames'
p1242
S'Cell[1].axon[59]'
p1243
sI87
I129
tp1244
a(F1.0437053903231046
S'Cell[3].dend[14] syn_ = new FastInhib(0.166666666667)'
p1245
I3
(dp1246
g1227
F0.16666666666666666
sg1228
F39.0
sg1229
I183
sg1230
g7
(g8
(I0
tp1247
g10
tp1248
Rp1249
(I1
(I3
tp1250
g1237
I00
S'\xcfsl\x16\x8c3\x16\xc0\x82\r\x13S%\x10@@\x00\x00\x00\xe0\xa3p\xfd\xbf'
p1251
tp1252
bsg1242
S'Cell[3].axon[0]'
p1253
sI183
I177
tp1254
a(F1.813968422610388
S'Cell[3].apic[3] syn_ = new FastInhib(0.5)'
p1255
I3
(dp1256
g1227
F0.3461538461538462
sg1228
F39.0
sg1229
I183
sg1230
g7
(g8
(I0
tp1257
g10
tp1258
Rp1259
(I1
(I3
tp1260
g1237
I00
S'n\xec\xf8i\xd6%&@\x1c\x91\xdbI\x9f\xc4J\xc0\x00\x00\x00\x80=\n @'
p1261
tp1262
bsg1242
S'Cell[3].axon[143]'
p1263
sI183
I177
tp1264
a(F1.1307739074365846
S'Cell[1].apic[38] syn_ = new ExpSid(0.166666666667)'
p1265
I1
(dp1266
g1227
F0.08823529411764705
sg1228
F39.0
sg1229
I183
sg1230
g7
(g8
(I0
tp1267
g10
tp1268
Rp1269
(I1
(I3
tp1270
g1237
I00
S'\x1d\xa6*Y\x81m1\xc0.\xf2\xae\xd11qk@+\xc9\x86\xf2<\xbaJ\xc0'
p1271
tp1272
bsg1242
S'Cell[3].axon[295]'
p1273
sI183
I81
tp1274
a(F0.7942307258121438
S'Cell[1].dend[1] syn_ = new AmpaNmda(0.5)'
p1275
I1
(dp1276
S'seg'
p1277
F0.30000000000000004
sS'hostfrom'
p1278
F40.0
sS'gid'
p1279
I88
sS'coords'
p1280
g7
(g8
(I0
tp1281
g10
tp1282
Rp1283
(I1
(I3
tp1284
g14
(S'f8'
p1285
I0
I1
tp1286
Rp1287
(I3
S'<'
p1288
NNNI-1
I-1
I0
tp1289
bI00
S'\xe5\xd1a`\xbf\x8cO\xc0\xfc\xda\t\x85\xe4\xab\t\xc0\x00\x00\x00\x80\xc2\xf5+\xc0'
p1290
tp1291
bsS'secnames'
p1292
S'Cell[1].axon[90]'
p1293
sI88
I81
tp1294
a(F1.4386185051085763
S'Cell[3].dend[14] syn_ = new FastInhib(0.833333333333)'
p1295
I3
(dp1296
g1277
F0.5
sg1278
F40.0
sg1279
I88
sg1280
g7
(g8
(I0
tp1297
g10
tp1298
Rp1299
(I1
(I3
tp1300
g1287
I00
S'\xde\xfc\xf6YxUA\xc0\xb2\xea\xca\xe4Q9A@\x00\x00\x00\xe0Q\xb89\xc0'
p1301
tp1302
bsg1292
S'Cell[1].axon[98]'
p1303
sI88
I177
tp1304
a(F1.5009661254007416
S'Cell[3].dend[6] syn_ = new FastInhib(0.166666666667)'
p1305
I3
(dp1306
g1277
F0.7
sg1278
F40.0
sg1279
I88
sg1280
g7
(g8
(I0
tp1307
g10
tp1308
Rp1309
(I1
(I3
tp1310
g1287
I00
S'\xf0\xb1\xfbnK\xa1#\xc0\xd9HK\x14\xa4\xcbN@^\xe7Pj\xe6\xab%@'
p1311
tp1312
bsg1292
S'Cell[1].axon[99]'
p1313
sI88
I177
tp1314
a(F2.023746989159848
S'Cell[2].dend[45] syn_ = new FastInhib(0.7)'
p1315
I2
(dp1316
g1277
F0.5
sg1278
F40.0
sg1279
I88
sg1280
g7
(g8
(I0
tp1317
g10
tp1318
Rp1319
(I1
(I3
tp1320
g1287
I00
S'\x90+zQ[\x1f]@`\xf6QQ[\xf8&@\x18\x8d\xb9\x86\x96\xa7>\xc0'
p1321
tp1322
bsg1292
S'Cell[1].axon[209]'
p1323
sI88
I129
tp1324
a(F1.259842871451906
S'Cell[1].dend[67] syn_ = new AmpaNmda(0.5)'
p1325
I1
(dp1326
g1277
F0.07142857142857142
sg1278
F40.0
sg1279
I88
sg1280
g7
(g8
(I0
tp1327
g10
tp1328
Rp1329
(I1
(I3
tp1330
g1287
I00
S'\x96\x1a\xbdx+\x87=\xc0xp\xba\x8b\x0b\xd7\x14@\xf2\x8c\x92\xeet\xa0E\xc0'
p1331
tp1332
bsg1292
S'Cell[1].axon[238]'
p1333
sI88
I81
tp1334
a(F2.0603828319504336
S'Cell[1].dend[73] syn_ = new AmpaNmda(0.5)'
p1335
I1
(dp1336
g1277
F0.21428571428571427
sg1278
F40.0
sg1279
I88
sg1280
g7
(g8
(I0
tp1337
g10
tp1338
Rp1339
(I1
(I3
tp1340
g1287
I00
S'^J\xaa\\0l<\xc0\xbd\xc8\xf8f\xb9\x18&\xc0\xa2\x0b\xce\x0fU\xe4F\xc0'
p1341
tp1342
bsg1292
S'Cell[1].axon[238]'
p1343
sI88
I81
tp1344
a(F1.896738021324656
S'Cell[3].dend[6] syn_ = new FastInhib(0.166666666667)'
p1345
I3
(dp1346
g1277
F0.5
sg1278
F40.0
sg1279
I88
sg1280
g7
(g8
(I0
tp1347
g10
tp1348
Rp1349
(I1
(I3
tp1350
g1287
I00
S'\x0fo\x17\nA\\#\xc0\x0c\xde_A\xc7\xdbN@\xe0\x02\x7f\xcf\xdaD(@'
p1351
tp1352
bsg1292
S'Cell[1].axon[326]'
p1353
sI88
I177
tp1354
a(F2.3854384560517676
S'Cell[3].dend[4] syn_ = new FastInhib(0.833333333333)'
p1355
I3
(dp1356
g1277
F0.5
sg1278
F40.0
sg1279
I184
sg1280
g7
(g8
(I0
tp1357
g10
tp1358
Rp1359
(I1
(I3
tp1360
g1287
I00
S'\x80\xf1UQSk\x11@\n\x1c\xaa\xfd}.W@\xd8\x08\x19\xcb\xa8\xe6\x11\xc0'
p1361
tp1362
bsg1292
S'Cell[3].axon[31]'
p1363
sI184
I177
tp1364
a(F2.3345776064775277
S'Cell[1].dend[42] syn_ = new ExpSid(0.5)'
p1365
I1
(dp1366
S'seg'
p1367
F0.5
sS'hostfrom'
p1368
F41.0
sS'gid'
p1369
I185
sS'coords'
p1370
g7
(g8
(I0
tp1371
g10
tp1372
Rp1373
(I1
(I3
tp1374
g14
(S'f8'
p1375
I0
I1
tp1376
Rp1377
(I3
S'<'
p1378
NNNI-1
I-1
I0
tp1379
bI00
S'\x00\x00\x00\xb0\x1e\x05\x1e\xc0\x00\x00\x00 \xaeG\xfb\xbf\x00\x00\x00\xd0\xf5h2\xc0'
p1380
tp1381
bsS'secnames'
p1382
S'Cell[3].axon[18]'
p1383
sI185
I81
tp1384
a(F2.2189714939312712
S'Cell[1].apic[3] syn_ = new ExpSid(0.166666666667)'
p1385
I1
(dp1386
g1367
F0.5
sg1368
F41.0
sg1369
I185
sg1370
g7
(g8
(I0
tp1387
g10
tp1388
Rp1389
(I1
(I3
tp1390
g1377
I00
S'\xa5y\x11\xc4\x14\xb6R\xc0\xcf\xbe\x88c\x8cIU@\x00\x00\x00`f&N\xc0'
p1391
tp1392
bsg1382
S'Cell[3].axon[153]'
p1393
sI185
I81
tp1394
a(F1.7658326617388065
S'Cell[1].dend[62] syn_ = new ExpSid(0.166666666667)'
p1395
I1
(dp1396
g1367
F0.5
sg1368
F41.0
sg1369
I185
sg1370
g7
(g8
(I0
tp1397
g10
tp1398
Rp1399
(I1
(I3
tp1400
g1377
I00
S'zu\xfc\x12=+`@<\x9b\x85\xc3\x1d\tA@\xc6f>j\xe9\xa5N\xc0'
p1401
tp1402
bsg1382
S'Cell[3].axon[163]'
p1403
sI185
I81
tp1404
a(F0.9231672450339331
S'Cell[2].dend[38] syn_ = new FastInhib(0.5)'
p1405
I2
(dp1406
g1367
F0.03333333333333333
sg1368
F41.0
sg1369
I89
sg1370
g7
(g8
(I0
tp1407
g10
tp1408
Rp1409
(I1
(I3
tp1410
g1377
I00
S'\x9b\xae\xa8\xc7\xe4<S\xc02\x0b\x83\x0eL\xbdF@e:\xe8\xba\x83.D\xc0'
p1411
tp1412
bsg1382
S'Cell[1].axon[81]'
p1413
sI89
I129
tp1414
a(F1.877225475399931
S'Cell[1].dend[50] syn_ = new ExpSid(0.1)'
p1415
I1
(dp1416
g1367
F0.30000000000000004
sg1368
F41.0
sg1369
I89
sg1370
g7
(g8
(I0
tp1417
g10
tp1418
Rp1419
(I1
(I3
tp1420
g1377
I00
S'B\x19\x82\xbe;\xe8A@\xbfSM\xd2+?\x13\xc042\xc6\xde\x87K8\xc0'
p1421
tp1422
bsg1382
S'Cell[1].axon[171]'
p1423
sI89
I81
tp1424
a(F1.1038456471535416
S'Cell[3].apic[8] syn_ = new FastInhib(0.5)'
p1425
I3
(dp1426
S'seg'
p1427
F0.8999999999999999
sS'hostfrom'
p1428
F42.0
sS'gid'
p1429
I90
sS'coords'
p1430
g7
(g8
(I0
tp1431
g10
tp1432
Rp1433
(I1
(I3
tp1434
g14
(S'f8'
p1435
I0
I1
tp1436
Rp1437
(I3
S'<'
p1438
NNNI-1
I-1
I0
tp1439
bI00
S't:\x96E\x80\x1d7@Fx\xa3)e@V\xc0\xab\xf5\x9b\x9b\xa3&/@'
p1440
tp1441
bsS'secnames'
p1442
S'Cell[1].axon[147]'
p1443
sI90
I177
tp1444
a(F1.5930410299484916
S'Cell[1].dend[50] syn_ = new ExpSid(0.1)'
p1445
I1
(dp1446
S'seg'
p1447
F0.5
sS'hostfrom'
p1448
F43.0
sS'gid'
p1449
I91
sS'coords'
p1450
g7
(g8
(I0
tp1451
g10
tp1452
Rp1453
(I1
(I3
tp1454
g14
(S'f8'
p1455
I0
I1
tp1456
Rp1457
(I3
S'<'
p1458
NNNI-1
I-1
I0
tp1459
bI00
S'\x18uhPu~B@T\xfc\xfc3Hu\t\xc0x\x98M|Ku9\xc0'
p1460
tp1461
bsS'secnames'
p1462
S'Cell[1].axon[380]'
p1463
sI91
I81
tp1464
a(F0.5329187502334385
S'Cell[1].dend[32] syn_ = new ExpSid(0.833333333333)'
p1465
I1
(dp1466
g1447
F0.5
sg1448
F43.0
sg1449
I91
sg1450
g7
(g8
(I0
tp1467
g10
tp1468
Rp1469
(I1
(I3
tp1470
g1457
I00
S'@\xbe\x81\xd2\x99\xd4M@\xb8\xe8\x838\x8d\xeb=@V@\xe7\x1a\x9e\xb23\xc0'
p1471
tp1472
bsg1462
S'Cell[1].axon[438]'
p1473
sI91
I81
tp1474
a(F1.6928636125493464
S'Cell[1].apic[1] syn_ = new ExpSid(0.5)'
p1475
I1
(dp1476
g1447
F0.30000000000000004
sg1448
F43.0
sg1449
I91
sg1450
g7
(g8
(I0
tp1477
g10
tp1478
Rp1479
(I1
(I3
tp1480
g1457
I00
S'\x98\xeeCF\x92wA\xc0\x94\xe1\xf3he\xbfO@Zc`\xa7\xd1\xccF\xc0'
p1481
tp1482
bsg1462
S'Cell[1].axon[516]'
p1483
sI91
I81
tp1484
a(F0.9784148691536362
S'Cell[0].apic[3] syn_ = new ExpSid(0.5)'
p1485
I0
(dp1486
g1447
F0.5
sg1448
F43.0
sg1449
I139
sg1450
g7
(g8
(I0
tp1487
g10
tp1488
Rp1489
(I1
(I3
tp1490
g1457
I00
S"\x11}\x05\x0e[1P@.S\x82\x80\xde\xa3a@J:Z\xf7\xf9\x19'@"
p1491
tp1492
bsg1462
S'Cell[2].axon[141]'
p1493
sI139
I33
tp1494
a(F2.0846170058579263
S'Cell[3].dend[24] syn_ = new FastInhib(0.833333333333)'
p1495
I3
(dp1496
S'seg'
p1497
F0.7857142857142856
sS'hostfrom'
p1498
F44.0
sS'gid'
p1499
I92
sS'coords'
p1500
g7
(g8
(I0
tp1501
g10
tp1502
Rp1503
(I1
(I3
tp1504
g14
(S'f8'
p1505
I0
I1
tp1506
Rp1507
(I3
S'<'
p1508
NNNI-1
I-1
I0
tp1509
bI00
S'>}\x9b\xfc\xa4\x9f[@\xc3\xe4\xebZ\x07\x8eQ@\x9a\xab\xe2\x9c\x8aA?\xc0'
p1510
tp1511
bsS'secnames'
p1512
S'Cell[1].axon[110]'
p1513
sI92
I177
tp1514
a(F1.8962333020033342
S'Cell[1].dend[50] syn_ = new AmpaNmda(0.7)'
p1515
I1
(dp1516
g1497
F0.5
sg1498
F44.0
sg1499
I92
sg1500
g7
(g8
(I0
tp1517
g10
tp1518
Rp1519
(I1
(I3
tp1520
g1507
I00
S'\x14H\xee[\xc1\x04]@\x06=\xaa\xa2\r\x8d\x05@k\x9a\xeb\x0c\x7f\xedJ\xc0'
p1521
tp1522
bsg1512
S'Cell[1].axon[123]'
p1523
sI92
I81
tp1524
a(F1.4645230361456565
S'Cell[1].dend[59] syn_ = new AmpaNmda(0.166666666667)'
p1525
I1
(dp1526
g1497
F0.6111111111111112
sg1498
F44.0
sg1499
I92
sg1500
g7
(g8
(I0
tp1527
g10
tp1528
Rp1529
(I1
(I3
tp1530
g1507
I00
S'<\xda\x9e\xe4X\xce\x08\xc0\xa8\x97n\x9b\x88\xf6-@=\x0f\xf0\xee%\xd5D\xc0'
p1531
tp1532
bsg1512
S'Cell[1].axon[227]'
p1533
sI92
I81
tp1534
a(F2.306944481341763
S'Cell[1].dend[48] syn_ = new ExpSid(0.5)'
p1535
I1
(dp1536
S'seg'
p1537
F0.16666666666666666
sS'hostfrom'
p1538
F45.0
sS'gid'
p1539
I141
sS'coords'
p1540
g7
(g8
(I0
tp1541
g10
tp1542
Rp1543
(I1
(I3
tp1544
g14
(S'f8'
p1545
I0
I1
tp1546
Rp1547
(I3
S'<'
p1548
NNNI-1
I-1
I0
tp1549
bI00
S'xf\xa8\x97\x9eX%@\xea\xa3M\x0f\xd4\x99 \xc0\xb2u\xfb\xa7\x91\x085\xc0'
p1550
tp1551
bsS'secnames'
p1552
S'Cell[2].axon[11]'
p1553
sI141
I81
tp1554
a(F0.46769238301768673
S'Cell[1].dend[72] syn_ = new ExpSid(0.5)'
p1555
I1
(dp1556
g1537
F0.16666666666666666
sg1538
F45.0
sg1539
I141
sg1540
g7
(g8
(I0
tp1557
g10
tp1558
Rp1559
(I1
(I3
tp1560
g1547
I00
S'k\x1d\xe9\xe8ax@\xc0\x1cG\x0f)\xc8\x86\x14\xc0S\x9d\xd0\xce\x9e0C\xc0'
p1561
tp1562
bsg1552
S'Cell[2].axon[16]'
p1563
sI141
I81
tp1564
a(F2.163205122811651
S'Cell[3].apic[20] syn_ = new FastInhib(0.5)'
p1565
I3
(dp1566
g1537
F0.30000000000000004
sg1538
F45.0
sg1539
I141
sg1540
g7
(g8
(I0
tp1567
g10
tp1568
Rp1569
(I1
(I3
tp1570
g1547
I00
S'Z\x96I&\xdf\xffI@d\x9d\xecP\x038E\xc0\xc8\xe8i\xab=\xa8D\xc0'
p1571
tp1572
bsg1552
S'Cell[2].axon[37]'
p1573
sI141
I177
tp1574
a(F1.1838790461834439
S'Cell[2].dend[30] syn_ = new FastInhib(0.5)'
p1575
I2
(dp1576
g1537
F0.5
sg1538
F45.0
sg1539
I141
sg1540
g7
(g8
(I0
tp1577
g10
tp1578
Rp1579
(I1
(I3
tp1580
g1547
I00
S"\xcd&'>\x05\x0c>@\x9e5\xc2\x9d\xb2\x1bE@9>\xf7J\n\x9a:\xc0"
p1581
tp1582
bsg1552
S'Cell[2].axon[64]'
p1583
sI141
I129
tp1584
a(F1.9510993249588577
S'Cell[1].dend[59] syn_ = new ExpSid(0.5)'
p1585
I1
(dp1586
g1537
F0.5
sg1538
F45.0
sg1539
I141
sg1540
g7
(g8
(I0
tp1587
g10
tp1588
Rp1589
(I1
(I3
tp1590
g1547
I00
S'z\x91\xe7\x04J\xc3<@\x85\xb9%\xdd\xd9\xdc5@\xebu\xce\xc9\xca\xe3G\xc0'
p1591
tp1592
bsg1552
S'Cell[2].axon[83]'
p1593
sI141
I81
tp1594
a(F1.48552522362404
S'Cell[0].dend[0] syn_ = new ExpSid(0.5)'
p1595
I0
(dp1596
g1537
F0.5
sg1538
F45.0
sg1539
I141
sg1540
g7
(g8
(I0
tp1597
g10
tp1598
Rp1599
(I1
(I3
tp1600
g1547
I00
S'\x00\x00\x00\xa0p}M@\x00\x00\x00\xa0\x99\xa9@@\x00\x00\x00\x00)<7\xc0'
p1601
tp1602
bsg1552
S'Cell[2].axon[307]'
p1603
sI141
I33
tp1604
a(F2.0310977911038486
S'Cell[2].dend[0] syn_ = new FastInhib(0.3)'
p1605
I2
(dp1606
g1537
F0.16666666666666666
sg1538
F45.0
sg1539
I141
sg1540
g7
(g8
(I0
tp1607
g10
tp1608
Rp1609
(I1
(I3
tp1610
g1547
I00
S"\xfa\x9er\x8cdTI@\xd3Y\xf4'\xf6.H@\x00\x00\x00`\xb8\xceU\xc0"
p1611
tp1612
bsg1552
S'Cell[2].axon[340]'
p1613
sI141
I129
tp1614
a(F1.890417820044887
S'Cell[1].apic[21] syn_ = new ExpSid(0.166666666667)'
p1615
I1
(dp1616
g1537
F0.5
sg1538
F45.0
sg1539
I189
sg1540
g7
(g8
(I0
tp1617
g10
tp1618
Rp1619
(I1
(I3
tp1620
g1547
I00
S'W\xe0\xf4X*\rB\xc0\xee\xdat\xc6k\xf2b@\xac \x8d\xae6|F\xc0'
p1621
tp1622
bsg1552
S'Cell[3].axon[99]'
p1623
sI189
I81
tp1624
a(F1.8010501262346503
S'Cell[2].dend[34] syn_ = new FastInhib(0.5)'
p1625
I2
(dp1626
g1537
F0.16666666666666666
sg1538
F45.0
sg1539
I93
sg1540
g7
(g8
(I0
tp1627
g10
tp1628
Rp1629
(I1
(I3
tp1630
g1547
I00
S'\x8f\xd3\xec)\xa0k8@\xee\xcd\xb4\xe0E\xd7:@\x82\xdf\xcc\x9b\xb8\x85O\xc0'
p1631
tp1632
bsg1552
S'Cell[1].axon[8]'
p1633
sI93
I129
tp1634
a(F1.5489883901853636
S'Cell[0].dend[5] syn_ = new ExpSid(0.833333333333)'
p1635
I0
(dp1636
g1537
F0.8333333333333333
sg1538
F45.0
sg1539
I93
sg1540
g7
(g8
(I0
tp1637
g10
tp1638
Rp1639
(I1
(I3
tp1640
g1547
I00
S"\xbd\x96%\x7f\x15\\_@\x87\x93%\xc1'\x885\xc0r\xce\xf3#\xce\xb1<\xc0"
p1641
tp1642
bsg1552
S'Cell[1].axon[24]'
p1643
sI93
I33
tp1644
a(F1.4825467009712539
S'Cell[1].apic[6] syn_ = new ExpSid(0.5)'
p1645
I1
(dp1646
g1537
F0.5
sg1538
F45.0
sg1539
I93
sg1540
g7
(g8
(I0
tp1647
g10
tp1648
Rp1649
(I1
(I3
tp1650
g1547
I00
S'>=\xc0"\xab\x10@\xc0\xcd\x8d \x89{\x96O@\x0c\x06\xc3\xcey#<\xc0'
p1651
tp1652
bsg1552
S'Cell[1].axon[76]'
p1653
sI93
I81
tp1654
a(F2.4824038612008064
S'Cell[2].dend[31] syn_ = new FastInhib(0.3)'
p1655
I2
(dp1656
g1537
F0.5
sg1538
F45.0
sg1539
I93
sg1540
g7
(g8
(I0
tp1657
g10
tp1658
Rp1659
(I1
(I3
tp1660
g1547
I00
S'\xd8\xea\x8b\xc6^4\xb9\xbf\x9b\xf9*k\xb7qJ@\xf2\xc4u\x19\xd7K*\xc0'
p1661
tp1662
bsg1552
S'Cell[1].axon[156]'
p1663
sI93
I129
tp1664
a(F1.5652522698295561
S'Cell[1].dend[8] syn_ = new ExpSid(0.5)'
p1665
I1
(dp1666
g1537
F0.16666666666666666
sg1538
F45.0
sg1539
I93
sg1540
g7
(g8
(I0
tp1667
g10
tp1668
Rp1669
(I1
(I3
tp1670
g1547
I00
S'\x90\xff\rc\xea\x9aK\xc0\x1a\xe7w|\xc1\xd9!@\x11\x89\x0c\xdf\x92\xdf&\xc0'
p1671
tp1672
bsg1552
S'Cell[1].axon[209]'
p1673
sI93
I81
tp1674
a(F1.5327298466325012
S'Cell[2].dend[4] syn_ = new FastInhib(0.5)'
p1675
I2
(dp1676
S'seg'
p1677
F0.8333333333333333
sS'hostfrom'
p1678
F46.0
sS'gid'
p1679
I94
sS'coords'
p1680
g7
(g8
(I0
tp1681
g10
tp1682
Rp1683
(I1
(I3
tp1684
g14
(S'f8'
p1685
I0
I1
tp1686
Rp1687
(I3
S'<'
p1688
NNNI-1
I-1
I0
tp1689
bI00
S'tT\xdd\x96\xfe\x7fG@f\xab\xec\x96J\x14S@\x00\x00\x00\xe0\xa3\xf0L\xc0'
p1690
tp1691
bsS'secnames'
p1692
S'Cell[1].axon[285]'
p1693
sI94
I129
tp1694
a(F2.2402713041070395
S'Cell[1].apic[36] syn_ = new ExpSid(0.9)'
p1695
I1
(dp1696
S'seg'
p1697
F0.7
sS'hostfrom'
p1698
F47.0
sS'gid'
p1699
I95
sS'coords'
p1700
g7
(g8
(I0
tp1701
g10
tp1702
Rp1703
(I1
(I3
tp1704
g14
(S'f8'
p1705
I0
I1
tp1706
Rp1707
(I3
S'<'
p1708
NNNI-1
I-1
I0
tp1709
bI00
S'\xd6\xe7S\xc8L\x1eU@\xc3\x00\xe7=\x86qX@\x00\x00\x00 \\\x8f.\xc0'
p1710
tp1711
bsS'secnames'
p1712
S'Cell[1].axon[54]'
p1713
sI95
I81
tp1714
a(F2.000120149553191
S'Cell[1].dend[50] syn_ = new ExpSid(0.3)'
p1715
I1
(dp1716
g1697
F0.8333333333333333
sg1698
F47.0
sg1699
I95
sg1700
g7
(g8
(I0
tp1717
g10
tp1718
Rp1719
(I1
(I3
tp1720
g1707
I00
S'\xc6>\xb1\xeav\x0cM@\xf9\xbdLy{\x00\x04\xc0\n\xdct\xe7\xb3*E\xc0'
p1721
tp1722
bsg1712
S'Cell[1].axon[210]'
p1723
sI95
I81
tp1724
a(F2.0178757019525912
S'Cell[1].apic[26] syn_ = new ExpSid(0.5)'
p1725
I1
(dp1726
g1697
F0.5
sg1698
F47.0
sg1699
I143
sg1700
g7
(g8
(I0
tp1727
g10
tp1728
Rp1729
(I1
(I3
tp1730
g1707
I00
S'\x97\xa8\rB.\xf1\xfa\xbf\xc1\xfe*A;\x8bd@\x16\xb0\xe0\xcd)]\xdf\xbf'
p1731
tp1732
bsg1712
S'Cell[2].axon[126]'
p1733
sI143
I81
tp1734
a(F0.9980328422095782
S'Cell[1].dend[52] syn_ = new ExpSid(0.5)'
p1735
I1
(dp1736
g1697
F0.5
sg1698
F47.0
sg1699
I143
sg1700
g7
(g8
(I0
tp1737
g10
tp1738
Rp1739
(I1
(I3
tp1740
g1707
I00
S'\x00\x00\x00\xc023"@\x85\xcehH\xb4\x88\xeb?\xfbC\xf3\x1b\x12DD\xc0'
p1741
tp1742
bsg1712
S'Cell[2].axon[233]'
p1743
sI143
I81
tp1744
a.