(lp0
(F2.3612433279094764
S'Cell[1].dend[63] syn_ = new ExpSid(0.5)'
p1
I1
(dp2
S'seg'
p3
F0.16666666666666666
sS'hostfrom'
p4
F1.0
sS'gid'
p5
I145
sS'coords'
p6
cnumpy.core.multiarray
_reconstruct
p7
(cnumpy
ndarray
p8
(I0
tp9
S'b'
p10
tp11
Rp12
(I1
(I3
tp13
cnumpy
dtype
p14
(S'f8'
p15
I0
I1
tp16
Rp17
(I3
S'<'
p18
NNNI-1
I-1
I0
tp19
bI00
S'\x06\xd9Uf\xd9\x17B\xc0s;|\xf7\xf3\x1b\x11@\x00\x00\x00\xc0\x1e\x85\r\xc0'
p20
tp21
bsS'secnames'
p22
S'Cell[3].axon[127]'
p23
sI145
I63
tp24
a(F1.699541372506349
S'Cell[2].dend[6] syn_ = new FastInhib(0.833333333333)'
p25
I2
(dp26
g3
F0.1
sg4
F1.0
sg5
I97
sg6
g7
(g8
(I0
tp27
g10
tp28
Rp29
(I1
(I3
tp30
g17
I00
S'\x83?\xee\xeb\x1d\xedJ@\xdcVR\x99"\x8f?@d0\x8c\x0c@\xea?\xc0'
p31
tp32
bsg22
S'Cell[2].axon[197]'
p33
sI97
I111
tp34
a(F2.468502903304238
S'Cell[3].dend[2] syn_ = new FastInhib(0.833333333333)'
p35
I3
(dp36
g3
F0.07142857142857142
sg4
F1.0
sg5
I97
sg6
g7
(g8
(I0
tp37
g10
tp38
Rp39
(I1
(I3
tp40
g17
I00
S"\xf8\xfa%\xe6'\x99C@\xa3x[\xec\xb3\xc6E@%V\xef#\x1c\x98B\xc0"
p41
tp42
bsg22
S'Cell[2].axon[204]'
p43
sI97
I159
tp44
a(F0.6478635350094578
S'Cell[1].apic[171] syn_ = new AmpaNmda(0.5)'
p45
I1
(dp46
S'seg'
p47
F0.16666666666666666
sS'hostfrom'
p48
F2.0
sS'gid'
p49
I98
sS'coords'
p50
g7
(g8
(I0
tp51
g10
tp52
Rp53
(I1
(I3
tp54
g14
(S'f8'
p55
I0
I1
tp56
Rp57
(I3
S'<'
p58
NNNI-1
I-1
I0
tp59
bI00
S'\xbfv}0\xa6h@@/\x0e\x14\xda\xc4\x1aZ@\x9b\x93,\xeb_<?\xc0'
p60
tp61
bsS'secnames'
p62
S'Cell[2].axon[192]'
p63
sI98
I63
tp64
a(F2.3719140311202414
S'Cell[3].dend[47] syn_ = new FastInhib(0.5)'
p65
I3
(dp66
g47
F0.5
sg48
F2.0
sg49
I98
sg50
g7
(g8
(I0
tp67
g10
tp68
Rp69
(I1
(I3
tp70
g57
I00
S'\x00\x00\x00\x90\xebQ\x1f\xc0\x00\x00\x00P\xb8^Q@\x00\x00\x00\x10\x85\xab4\xc0'
p71
tp72
bsg62
S'Cell[2].axon[296]'
p73
sI98
I159
tp74
a(F2.292972510546287
S'Cell[0].dend[31] syn_ = new AmpaNmda(0.5)'
p75
I0
(dp76
g47
F0.5
sg48
F2.0
sg49
I98
sg50
g7
(g8
(I0
tp77
g10
tp78
Rp79
(I1
(I3
tp80
g57
I00
S'd\xa2z\xd6iK/\xc0\xe4g\x9f\xc70\x0e*\xc0\x8b\xa5\xb3\x84\xf7\xfa\x16@'
p81
tp82
bsg62
S'Cell[2].axon[450]'
p83
sI98
I15
tp84
a(F2.277588558063047
S'Cell[0].dend[26] syn_ = new AmpaNmda(0.833333333333)'
p85
I0
(dp86
g47
F0.8333333333333333
sg48
F2.0
sg49
I98
sg50
g7
(g8
(I0
tp87
g10
tp88
Rp89
(I1
(I3
tp90
g57
I00
S'\x00\x00\x00\x00\xd7\xe35\xc0v\xed\xe7"_{N\xc0\xaa\xa3\x9c\xdd\xaa\x13\x1c@'
p91
tp92
bsg62
S'Cell[2].axon[467]'
p93
sI98
I15
tp94
a(F2.32351287652301
S'Cell[1].dend[14] syn_ = new AmpaNmda(0.5)'
p95
I1
(dp96
g47
F0.5
sg48
F2.0
sg49
I146
sg50
g7
(g8
(I0
tp97
g10
tp98
Rp99
(I1
(I3
tp100
g57
I00
S'\xe2\xab\x18&\x16\x98\\\xc0\xed\xa9\x0c\xfe\x93\x1e\x0c\xc0X}\xbaf\xe8\xd9D\xc0'
p101
tp102
bsg62
S'Cell[3].axon[295]'
p103
sI146
I63
tp104
a(F0.6478635350094578
S'Cell[1].apic[171] syn_ = new ExpSid(0.5)'
p105
I1
(dp106
S'seg'
p107
F0.16666666666666666
sS'hostfrom'
p108
F3.0
sS'gid'
p109
I99
sS'coords'
p110
g7
(g8
(I0
tp111
g10
tp112
Rp113
(I1
(I3
tp114
g14
(S'f8'
p115
I0
I1
tp116
Rp117
(I3
S'<'
p118
NNNI-1
I-1
I0
tp119
bI00
S'\xbfv}0\xa6h@@/\x0e\x14\xda\xc4\x1aZ@\x9b\x93,\xeb_<?\xc0'
p120
tp121
bsS'secnames'
p122
S'Cell[2].axon[192]'
p123
sI99
I63
tp124
a(F2.3719140311202414
S'Cell[3].dend[47] syn_ = new FastInhib(0.5)'
p125
I3
(dp126
g107
F0.5
sg108
F3.0
sg109
I99
sg110
g7
(g8
(I0
tp127
g10
tp128
Rp129
(I1
(I3
tp130
g117
I00
S'\x00\x00\x00\x90\xebQ\x1f\xc0\x00\x00\x00P\xb8^Q@\x00\x00\x00\x10\x85\xab4\xc0'
p131
tp132
bsg122
S'Cell[2].axon[296]'
p133
sI99
I159
tp134
a(F2.292972510546287
S'Cell[0].dend[31] syn_ = new ExpSid(0.5)'
p135
I0
(dp136
g107
F0.5
sg108
F3.0
sg109
I99
sg110
g7
(g8
(I0
tp137
g10
tp138
Rp139
(I1
(I3
tp140
g117
I00
S'd\xa2z\xd6iK/\xc0\xe4g\x9f\xc70\x0e*\xc0\x8b\xa5\xb3\x84\xf7\xfa\x16@'
p141
tp142
bsg122
S'Cell[2].axon[450]'
p143
sI99
I15
tp144
a(F2.277588558063047
S'Cell[0].dend[26] syn_ = new ExpSid(0.833333333333)'
p145
I0
(dp146
g107
F0.8333333333333333
sg108
F3.0
sg109
I99
sg110
g7
(g8
(I0
tp147
g10
tp148
Rp149
(I1
(I3
tp150
g117
I00
S'\x00\x00\x00\x00\xd7\xe35\xc0v\xed\xe7"_{N\xc0\xaa\xa3\x9c\xdd\xaa\x13\x1c@'
p151
tp152
bsg122
S'Cell[2].axon[467]'
p153
sI99
I15
tp154
a(F1.1088018961902286
S'Cell[0].apic[22] syn_ = new ExpSid(0.5)'
p155
I0
(dp156
g107
F0.3461538461538462
sg108
F3.0
sg109
I3
sg110
g7
(g8
(I0
tp157
g10
tp158
Rp159
(I1
(I3
tp160
g117
I00
S"fZ\xda\xb7\x01\xd1'@\xc3N\x12\xc7\xbe{K@\x8a\xb01\xe3/\x8d:@"
p161
tp162
bsg122
S'Cell[0].axon[5]'
p163
sI3
I15
tp164
a(F2.194037606361738
S'Cell[1].dend[1] syn_ = new AmpaNmda(0.5)'
p165
I1
(dp166
S'seg'
p167
F0.1
sS'hostfrom'
p168
F4.0
sS'gid'
p169
I148
sS'coords'
p170
g7
(g8
(I0
tp171
g10
tp172
Rp173
(I1
(I3
tp174
g14
(S'f8'
p175
I0
I1
tp176
Rp177
(I3
S'<'
p178
NNNI-1
I-1
I0
tp179
bI00
S'\x0c\xfa\x89\xb0\x15\x93P\xc0:(S\xf9\xde\xa4\x00@\x8a^\xbf\x9a(#3\xc0'
p180
tp181
bsS'secnames'
p182
S'Cell[3].axon[83]'
p183
sI148
I63
tp184
a(F2.3354062439473666
S'Cell[2].dend[32] syn_ = new FastInhib(0.5)'
p185
I2
(dp186
S'seg'
p187
F0.2777777777777778
sS'hostfrom'
p188
F5.0
sS'gid'
p189
I5
sS'coords'
p190
g7
(g8
(I0
tp191
g10
tp192
Rp193
(I1
(I3
tp194
g14
(S'f8'
p195
I0
I1
tp196
Rp197
(I3
S'<'
p198
NNNI-1
I-1
I0
tp199
bI00
S'\x1d\x9aa\x18\x95\x14>@\xb1\x85\x01\xa8\xfe\xb1(@`\xab\x98\xb3\xd0`$\xc0'
p200
tp201
bsS'secnames'
p202
S'Cell[0].axon[97]'
p203
sI5
I111
tp204
a(F2.2495834387930422
S'Cell[0].dend[43] syn_ = new ExpSid(0.5)'
p205
I0
(dp206
g187
F0.5
sg188
F5.0
sg189
I5
sg190
g7
(g8
(I0
tp207
g10
tp208
Rp209
(I1
(I3
tp210
g197
I00
S'\xe2\xc1\xbdd*w?@?\x9b\xadFT\xeb\xe8\xbf<\x1d\xf2\xfb\xeeI<@'
p211
tp212
bsg202
S'Cell[0].axon[97]'
p213
sI5
I15
tp214
a(F2.440871809405409
S'Cell[2].dend[36] syn_ = new FastInhib(0.5)'
p215
I2
(dp216
S'seg'
p217
F0.5
sS'hostfrom'
p218
F6.0
sS'gid'
p219
I102
sS'coords'
p220
g7
(g8
(I0
tp221
g10
tp222
Rp223
(I1
(I3
tp224
g14
(S'f8'
p225
I0
I1
tp226
Rp227
(I3
S'<'
p228
NNNI-1
I-1
I0
tp229
bI00
S'\x00\x00\x00@\nW\x12\xc0\x00\x00\x00\x00\x000L@\x00\x00\x00 \\\xef4\xc0'
p230
tp231
bsS'secnames'
p232
S'Cell[2].axon[26]'
p233
sI102
I111
tp234
a(F1.4265207621063294
S'Cell[1].dend[13] syn_ = new AmpaNmda(0.5)'
p235
I1
(dp236
g217
F0.07142857142857142
sg218
F6.0
sg219
I150
sg220
g7
(g8
(I0
tp237
g10
tp238
Rp239
(I1
(I3
tp240
g227
I00
S'a\xd0}\x1d\xe9\rX\xc0\xdf\x19|\xce\xa5\xc5\xf0?\x00\x00\x00\x80\x14\xee>\xc0'
p241
tp242
bsg232
S'Cell[3].axon[64]'
p243
sI150
I63
tp244
a(F1.6238163526323706
S'Cell[2].dend[43] syn_ = new FastInhib(0.5)'
p245
I2
(dp246
g217
F0.5
sg218
F6.0
sg219
I150
sg220
g7
(g8
(I0
tp247
g10
tp248
Rp249
(I1
(I3
tp250
g227
I00
S'\xf7?\x03g\xbc\xbe*\xc0\xad\x80"\xad{\xe8&\xc0\xff\xff\xff\x7f\x14\xee>\xc0'
p251
tp252
bsg232
S'Cell[3].axon[75]'
p253
sI150
I111
tp254
a(F1.449473594655826
S'Cell[2].dend[40] syn_ = new FastInhib(0.5)'
p255
I2
(dp256
g217
F0.07142857142857142
sg218
F6.0
sg219
I150
sg220
g7
(g8
(I0
tp257
g10
tp258
Rp259
(I1
(I3
tp260
g227
I00
S'\xa4\x13d\x9d+:*@\x82\xba\x80x\x9e#A\xc0\x00\x00\x00\x80\x14\xee>\xc0'
p261
tp262
bsg232
S'Cell[3].axon[180]'
p263
sI150
I111
tp264
a(F2.19006150108757
S'Cell[1].dend[19] syn_ = new AmpaNmda(0.5)'
p265
I1
(dp266
g217
F0.7
sg218
F6.0
sg219
I150
sg220
g7
(g8
(I0
tp267
g10
tp268
Rp269
(I1
(I3
tp270
g227
I00
S'\x93\xdd_"\x11OR\xc0\xca\x1d\x81+1\xd9/\xc0\x00\x00\x00\x80\x14\xee>\xc0'
p271
tp272
bsg232
S'Cell[3].axon[223]'
p273
sI150
I63
tp274
a(F1.8403978485415668
S'Cell[2].dend[52] syn_ = new FastInhib(0.5)'
p275
I2
(dp276
S'seg'
p277
F0.5
sS'hostfrom'
p278
F7.0
sS'gid'
p279
I103
sS'coords'
p280
g7
(g8
(I0
tp281
g10
tp282
Rp283
(I1
(I3
tp284
g14
(S'f8'
p285
I0
I1
tp286
Rp287
(I3
S'<'
p288
NNNI-1
I-1
I0
tp289
bI00
S'\x9eK%\xb0I\xe0+\xc0\xa6\xae\xac\xeaCNT\xc0r\x07[D\xea\xe1\xc9\xbf'
p290
tp291
bsS'secnames'
p292
S'Cell[2].axon[2]'
p293
sI103
I111
tp294
a(F1.8946706582392843
S'Cell[2].dend[6] syn_ = new FastInhib(0.166666666667)'
p295
I2
(dp296
g277
F0.5
sg278
F7.0
sg279
I103
sg280
g7
(g8
(I0
tp297
g10
tp298
Rp299
(I1
(I3
tp300
g287
I00
S'\x80\r\x9d0n\xc7B@\xb6?\xf3\x89!\xbb8@\x00\x00\x00\xc0\xcc\xcc%\xc0'
p301
tp302
bsg292
S'Cell[2].axon[11]'
p303
sI103
I111
tp304
a(F1.3668887624993813
S'Cell[1].apic[216] syn_ = new ExpSid(0.5)'
p305
I1
(dp306
g277
F0.9444444444444446
sg278
F7.0
sg279
I103
sg280
g7
(g8
(I0
tp307
g10
tp308
Rp309
(I1
(I3
tp310
g287
I00
S'\xd8\x84I\xd6d(b\xc0\x9f\x85\xbd\x0b\x03\x12K@\x00\x00\x00\x80\xeb\xf1A\xc0'
p311
tp312
bsg292
S'Cell[2].axon[42]'
p313
sI103
I63
tp314
a(F2.2493590027487818
S'Cell[3].apic[4] syn_ = new FastInhib(0.5)'
p315
I3
(dp316
g277
F0.5
sg278
F7.0
sg279
I103
sg280
g7
(g8
(I0
tp317
g10
tp318
Rp319
(I1
(I3
tp320
g287
I00
S'\x1aJX\xf87\x8a<@\xcc\xefLM\xc6XD\xc0\x00\x00\x00\x00\x00\x00\xe8\xbf'
p321
tp322
bsg292
S'Cell[2].axon[400]'
p323
sI103
I159
tp324
a(F2.2185051356923124
S'Cell[1].apic[182] syn_ = new ExpSid(0.166666666667)'
p325
I1
(dp326
g277
F0.16666666666666666
sg278
F7.0
sg279
I151
sg280
g7
(g8
(I0
tp327
g10
tp328
Rp329
(I1
(I3
tp330
g287
I00
S'/jcg\xc5\xbdC\xc0\\6`\x87\x1e\xc4R@\xc7\xfa\xca_\x89p-\xc0'
p331
tp332
bsg292
S'Cell[3].axon[146]'
p333
sI151
I63
tp334
a(F1.9079056695918937
S'Cell[3].apic[8] syn_ = new FastInhib(0.3)'
p335
I3
(dp336
g277
F0.1
sg278
F7.0
sg279
I151
sg280
g7
(g8
(I0
tp337
g10
tp338
Rp339
(I1
(I3
tp340
g287
I00
S'\xf0z\x1b<W\x137@\x1fJ\x00\xf0hq`\xc0\x19\xd5\x93\xf2\x85\xa1(\xc0'
p341
tp342
bsg292
S'Cell[3].axon[155]'
p343
sI151
I159
tp344
a(F2.2842856058142855
S'Cell[2].dend[61] syn_ = new FastInhib(0.833333333333)'
p345
I2
(dp346
S'seg'
p347
F0.1
sS'hostfrom'
p348
F8.0
sS'gid'
p349
I56
sS'coords'
p350
g7
(g8
(I0
tp351
g10
tp352
Rp353
(I1
(I3
tp354
g14
(S'f8'
p355
I0
I1
tp356
Rp357
(I3
S'<'
p358
NNNI-1
I-1
I0
tp359
bI00
S'U\xedL(\xc3\xebG@y\x80\xcd\x16\x83\xffZ\xc0p\x8f\xa8 \xd6\xdd4\xc0'
p360
tp361
bsS'secnames'
p362
S'Cell[1].axon[22]'
p363
sI56
I111
tp364
a(F2.31778348132466
S'Cell[2].dend[18] syn_ = new FastInhib(0.5)'
p365
I2
(dp366
g347
F0.5
sg348
F8.0
sg349
I152
sg350
g7
(g8
(I0
tp367
g10
tp368
Rp369
(I1
(I3
tp370
g357
I00
S'\xf4^\xfbK\xc7TR@\xf0#M\x8e9i[@\x08\x11\x93\x81]\xbbQ\xc0'
p371
tp372
bsg362
S'Cell[3].axon[108]'
p373
sI152
I111
tp374
a(F2.153577796238643
S'Cell[2].dend[20] syn_ = new FastInhib(0.166666666667)'
p375
I2
(dp376
g347
F0.5
sg348
F8.0
sg349
I152
sg350
g7
(g8
(I0
tp377
g10
tp378
Rp379
(I1
(I3
tp380
g357
I00
S'\xd9jR\tl\x0bP@\\Q\xdcN\xb7\xa2.@\x00\x00\x00@3\xb33\xc0'
p381
tp382
bsg362
S'Cell[3].axon[350]'
p383
sI152
I111
tp384
a(F1.8585117456173208
S'Cell[1].apic[155] syn_ = new AmpaNmda(0.5)'
p385
I1
(dp386
g347
F0.5
sg348
F8.0
sg349
I152
sg350
g7
(g8
(I0
tp387
g10
tp388
Rp389
(I1
(I3
tp390
g357
I00
S'f:<\x07\x9b:P\xc0\xbeI\xf5[\x9e&V@\x00\x00\x00\xa0p};\xc0'
p391
tp392
bsg362
S'Cell[3].axon[595]'
p393
sI152
I63
tp394
a(F2.268764193762212
S'Cell[1].apic[174] syn_ = new AmpaNmda(0.166666666667)'
p395
I1
(dp396
g347
F0.8333333333333333
sg348
F8.0
sg349
I104
sg350
g7
(g8
(I0
tp397
g10
tp398
Rp399
(I1
(I3
tp400
g357
I00
S'>\xbf\x95\xfc\xbf\x85$@\xd0\xb1\x8b<\xd7\xf9W@\x06\x88R\xa8\xeaY3\xc0'
p401
tp402
bsg362
S'Cell[2].axon[130]'
p403
sI104
I63
tp404
a(F1.779672369041303
S'Cell[3].dend[48] syn_ = new FastInhib(0.5)'
p405
I3
(dp406
g347
F0.5
sg348
F8.0
sg349
I104
sg350
g7
(g8
(I0
tp407
g10
tp408
Rp409
(I1
(I3
tp410
g357
I00
S'\xda!,1\x0c\x93,\xc0^\xf5\xce\xc1\xa5\xe7W@\xba$ 3\x13-6\xc0'
p411
tp412
bsg362
S'Cell[2].axon[170]'
p413
sI104
I159
tp414
a(F2.159586882420697
S'Cell[1].apic[201] syn_ = new AmpaNmda(0.5)'
p415
I1
(dp416
g347
F0.5
sg348
F8.0
sg349
I104
sg350
g7
(g8
(I0
tp417
g10
tp418
Rp419
(I1
(I3
tp420
g357
I00
S'\x00\x00\x00\xd0\xf5\xc8W\xc0\x00\x00\x00\xf0Q\x98K@\x00\x00\x000338@'
p421
tp422
bsg362
S'Cell[2].axon[191]'
p423
sI104
I63
tp424
a(F2.31151226894432
S'Cell[1].dend[76] syn_ = new AmpaNmda(0.833333333333)'
p425
I1
(dp426
g347
F0.21428571428571427
sg348
F8.0
sg349
I104
sg350
g7
(g8
(I0
tp427
g10
tp428
Rp429
(I1
(I3
tp430
g357
I00
S'\xc2\x04\x18K\xb7\xe6M@\xbbH\x16\xd7\x04\xe11@n5\xe4\xca\x9dz?\xc0'
p431
tp432
bsg362
S'Cell[2].axon[242]'
p433
sI104
I63
tp434
a(F0.9166054123307247
S'Cell[0].apic[10] syn_ = new AmpaNmda(0.833333333333)'
p435
I0
(dp436
S'seg'
p437
F0.7
sS'hostfrom'
p438
F10.0
sS'gid'
p439
I10
sS'coords'
p440
g7
(g8
(I0
tp441
g10
tp442
Rp443
(I1
(I3
tp444
g14
(S'f8'
p445
I0
I1
tp446
Rp447
(I3
S'<'
p448
NNNI-1
I-1
I0
tp449
bI00
S'\xded\x0cf<;j@\xf2\x98\xbbZ\xa7@>@{B?{\x1a\\4@'
p450
tp451
bsS'secnames'
p452
S'Cell[0].axon[36]'
p453
sI10
I15
tp454
a(F2.006126862194672
S'Cell[1].apic[146] syn_ = new AmpaNmda(0.166666666667)'
p455
I1
(dp456
g437
F0.8333333333333333
sg438
F10.0
sg439
I106
sg440
g7
(g8
(I0
tp457
g10
tp458
Rp459
(I1
(I3
tp460
g447
I00
S'\xa2\t\x13\x10\xb8\x02C\xc0\x839\xba\xcc.\xb3e@\\\xf3\xe4\xfd\x0c\xa8\x02@'
p461
tp462
bsg452
S'Cell[2].axon[17]'
p463
sI106
I63
tp464
a(F0.8489666071171122
S'Cell[2].dend[43] syn_ = new FastInhib(0.166666666667)'
p465
I2
(dp466
g437
F0.21428571428571427
sg438
F10.0
sg439
I106
sg440
g7
(g8
(I0
tp467
g10
tp468
Rp469
(I1
(I3
tp470
g447
I00
S'\xc2Y\xbd\xc7c\x9f$@K\xf6\xdey\n\x9b"\xc0\xa6\xf51\xf5/\xd76\xc0'
p471
tp472
bsg452
S'Cell[2].axon[131]'
p473
sI106
I111
tp474
a(F2.0028706474897295
S'Cell[2].dend[62] syn_ = new FastInhib(0.5)'
p475
I2
(dp476
g437
F0.30000000000000004
sg438
F10.0
sg439
I106
sg440
g7
(g8
(I0
tp477
g10
tp478
Rp479
(I1
(I3
tp480
g447
I00
S'\xb2f\xc6\x15\xb5\xb9D@_\x19-\x8b\xab\x89U\xc0\xb6_\xe5Z\x0e\x86*\xc0'
p481
tp482
bsg452
S'Cell[2].axon[155]'
p483
sI106
I111
tp484
a(F2.4440573909177377
S'Cell[0].apic[0] syn_ = new AmpaNmda(0.5)'
p485
I0
(dp486
g437
F0.5
sg438
F10.0
sg439
I106
sg440
g7
(g8
(I0
tp487
g10
tp488
Rp489
(I1
(I3
tp490
g447
I00
S':\xe87\xf2z\xd9-@%8\xeb\r\xb7\x9eD@\x00\x00\x00\xc0\xf5\xa81@'
p491
tp492
bsg452
S'Cell[2].axon[193]'
p493
sI106
I15
tp494
a(F0.8340116883185621
S'Cell[1].dend[100] syn_ = new AmpaNmda(0.5)'
p495
I1
(dp496
g437
F0.19230769230769232
sg438
F10.0
sg439
I58
sg440
g7
(g8
(I0
tp497
g10
tp498
Rp499
(I1
(I3
tp500
g447
I00
S'\\\x8b\xb3.8`G@\xe4;\x07\xa3e\xf8E@\x00\x00\x00@33\x16\xc0'
p501
tp502
bsg452
S'Cell[1].axon[36]'
p503
sI58
I63
tp504
a(F2.4418980112416344
S'Cell[0].dend[12] syn_ = new AmpaNmda(0.166666666667)'
p505
I0
(dp506
g437
F0.21428571428571427
sg438
F10.0
sg439
I154
sg440
g7
(g8
(I0
tp507
g10
tp508
Rp509
(I1
(I3
tp510
g447
I00
S';\xbf\x07s\x98\x18\x05\xc0\xf0\xf3\xcb\xa1\xf1O3@\xd4\x1bO\xdf\x16\x17J@'
p511
tp512
bsg452
S'Cell[3].axon[108]'
p513
sI154
I15
tp514
a(F1.443313194411142
S'Cell[0].dend[25] syn_ = new ExpSid(0.3)'
p515
I0
(dp516
S'seg'
p517
F0.8333333333333333
sS'hostfrom'
p518
F11.0
sS'gid'
p519
I59
sS'coords'
p520
g7
(g8
(I0
tp521
g10
tp522
Rp523
(I1
(I3
tp524
g14
(S'f8'
p525
I0
I1
tp526
Rp527
(I3
S'<'
p528
NNNI-1
I-1
I0
tp529
bI00
S'\x11`\x8b\xd94\xe43\xc0I\xd0\xd1\x10E\xfdI\xc0\x00\x00\x00 \xae\xa7C@'
p530
tp531
bsS'secnames'
p532
S'Cell[1].axon[6]'
p533
sI59
I15
tp534
a(F1.9956648811329953
S'Cell[0].dend[8] syn_ = new ExpSid(0.5)'
p535
I0
(dp536
g517
F0.5
sg518
F11.0
sg519
I155
sg520
g7
(g8
(I0
tp537
g10
tp538
Rp539
(I1
(I3
tp540
g527
I00
S'\xc7 \xdf\xfd\xf0^0\xc0\x8c\xf1\x9e\n\xc8\xc2\x19\xc0\xb8\xd8\x00\xfc\xcb*-@'
p541
tp542
bsg532
S'Cell[3].axon[159]'
p543
sI155
I15
tp544
a(F2.421225320271824
S'Cell[3].dend[8] syn_ = new FastInhib(0.5)'
p545
I3
(dp546
g517
F0.8333333333333333
sg518
F11.0
sg519
I155
sg520
g7
(g8
(I0
tp547
g10
tp548
Rp549
(I1
(I3
tp550
g527
I00
S'|7\xff\x14\xbf\x89;@I\xb4\xa9\xa4\xbcCG@\x189\xe4.\xa8T&@'
p551
tp552
bsg532
S'Cell[3].axon[181]'
p553
sI155
I159
tp554
a(F1.863859166254144
S'Cell[2].dend[56] syn_ = new FastInhib(0.5)'
p555
I2
(dp556
S'seg'
p557
F0.16666666666666666
sS'hostfrom'
p558
F12.0
sS'gid'
p559
I60
sS'coords'
p560
g7
(g8
(I0
tp561
g10
tp562
Rp563
(I1
(I3
tp564
g14
(S'f8'
p565
I0
I1
tp566
Rp567
(I3
S'<'
p568
NNNI-1
I-1
I0
tp569
bI00
S'\xb5b\xab\x18_\x9dC@\xd0\xbb*\xd9\x08\xb8B\xc0\x08de\xbb\x94\x1d\x17\xc0'
p570
tp571
bsS'secnames'
p572
S'Cell[1].axon[80]'
p573
sI60
I111
tp574
a(F1.9394472567148733
S'Cell[3].dend[17] syn_ = new FastInhib(0.833333333333)'
p575
I3
(dp576
S'seg'
p577
F0.1
sS'hostfrom'
p578
F13.0
sS'gid'
p579
I109
sS'coords'
p580
g7
(g8
(I0
tp581
g10
tp582
Rp583
(I1
(I3
tp584
g14
(S'f8'
p585
I0
I1
tp586
Rp587
(I3
S'<'
p588
NNNI-1
I-1
I0
tp589
bI00
S'\xda\x8c\xaf\x90m\xfbZ@Dky\xe4w\x07a@g\x0f\x86v> 3@'
p590
tp591
bsS'secnames'
p592
S'Cell[2].axon[94]'
p593
sI109
I159
tp594
a(F2.1217393671019025
S'Cell[0].apic[56] syn_ = new ExpSid(0.5)'
p595
I0
(dp596
g577
F0.8333333333333333
sg578
F13.0
sg579
I109
sg580
g7
(g8
(I0
tp597
g10
tp598
Rp599
(I1
(I3
tp600
g587
I00
S'\x85C\x8a\xfbY\x035@\xcf\xea?m\xfa\x83p@\x86Y8\xf8\xec\xeeB@'
p601
tp602
bsg592
S'Cell[2].axon[162]'
p603
sI109
I15
tp604
a(F1.2022646927996001
S'Cell[3].dend[21] syn_ = new FastInhib(0.5)'
p605
I3
(dp606
g577
F0.5
sg578
F13.0
sg579
I109
sg580
g7
(g8
(I0
tp607
g10
tp608
Rp609
(I1
(I3
tp610
g587
I00
S'U\xbf]\x911\xc6%\xc0\xeb\xb7+^K\x04?@\x00\x00\x00 \xaeG-@'
p611
tp612
bsg592
S'Cell[2].axon[240]'
p613
sI109
I159
tp614
a(F2.3794561952715214
S'Cell[2].dend[38] syn_ = new FastInhib(0.5)'
p615
I2
(dp616
g577
F0.5
sg578
F13.0
sg579
I61
sg580
g7
(g8
(I0
tp617
g10
tp618
Rp619
(I1
(I3
tp620
g587
I00
S'\xb2\xf9\x14\xf5\xa0\xf57@V\x888\x1fsM2\xc0R`\xa7\xe6\x8a\t5\xc0'
p621
tp622
bsg592
S'Cell[1].axon[38]'
p623
sI61
I111
tp624
a(F1.7152798690131328
S'Cell[2].dend[32] syn_ = new FastInhib(0.5)'
p625
I2
(dp626
g577
F0.8999999999999999
sg578
F13.0
sg579
I61
sg580
g7
(g8
(I0
tp627
g10
tp628
Rp629
(I1
(I3
tp630
g587
I00
S'\xa9\xe8\xa3\x84\xf6\x9e=@\x13\x83^\x06\xfb\xd1,@\x99\xee~\xc7\x04\x19)\xc0'
p631
tp632
bsg592
S'Cell[1].axon[38]'
p633
sI61
I111
tp634
a(F1.638036062432621
S'Cell[3].dend[5] syn_ = new FastInhib(0.5)'
p635
I3
(dp636
S'seg'
p637
F0.5
sS'hostfrom'
p638
F14.0
sS'gid'
p639
I110
sS'coords'
p640
g7
(g8
(I0
tp641
g10
tp642
Rp643
(I1
(I3
tp644
g14
(S'f8'
p645
I0
I1
tp646
Rp647
(I3
S'<'
p648
NNNI-1
I-1
I0
tp649
bI00
S'\xee\xb3O\xd2U\xfcE@\x17}\xe6\xba\xd9\xbbF@\x18wO\x83\xba\xa13\xc0'
p650
tp651
bsS'secnames'
p652
S'Cell[2].axon[138]'
p653
sI110
I159
tp654
a(F1.7820305266631484
S'Cell[2].dend[43] syn_ = new FastInhib(0.833333333333)'
p655
I2
(dp656
S'seg'
p657
F0.5
sS'hostfrom'
p658
F15.0
sS'gid'
p659
I159
sS'coords'
p660
g7
(g8
(I0
tp661
g10
tp662
Rp663
(I1
(I3
tp664
g14
(S'f8'
p665
I0
I1
tp666
Rp667
(I3
S'<'
p668
NNNI-1
I-1
I0
tp669
bI00
S'\xac` \xdc\xb7\xdc@\xc0Y\xad\xa1PiD&\xc0\x8f\xec\xa0-\x08\xf0A\xc0'
p670
tp671
bsS'secnames'
p672
S'Cell[3].axon[45]'
p673
sI159
I111
tp674
a(F2.1268072405249425
S'Cell[0].dend[44] syn_ = new ExpSid(0.833333333333)'
p675
I0
(dp676
g657
F0.8999999999999999
sg658
F15.0
sg659
I159
sg660
g7
(g8
(I0
tp677
g10
tp678
Rp679
(I1
(I3
tp680
g667
I00
S'.\xce\xdb8\xaa\x86O@\x1cj\xa5\x19\x9f\x96\x0b@\x9c\xb2\xdb=\xb1PX@'
p681
tp682
bsg672
S'Cell[3].axon[246]'
p683
sI159
I15
tp684
a(F2.495801896723036
S'Cell[0].dend[12] syn_ = new ExpSid(0.833333333333)'
p685
I0
(dp686
g657
F0.30000000000000004
sg658
F15.0
sg659
I159
sg660
g7
(g8
(I0
tp687
g10
tp688
Rp689
(I1
(I3
tp690
g667
I00
S'\x83\x91w\xa9mU.@\x07\xf3+\x9d3`C@\xb8\xd1M&]\x8eR@'
p691
tp692
bsg672
S'Cell[3].axon[289]'
p693
sI159
I15
tp694
a(F2.087875430212326
S'Cell[0].apic[13] syn_ = new AmpaNmda(0.5)'
p695
I0
(dp696
S'seg'
p697
F0.5
sS'hostfrom'
p698
F16.0
sS'gid'
p699
I64
sS'coords'
p700
g7
(g8
(I0
tp701
g10
tp702
Rp703
(I1
(I3
tp704
g14
(S'f8'
p705
I0
I1
tp706
Rp707
(I3
S'<'
p708
NNNI-1
I-1
I0
tp709
bI00
S"\xa6'm:;!F@.q\xd6\xabM\xa7P@\x03\x18\x02s\\\x8d6@"
p710
tp711
bsS'secnames'
p712
S'Cell[1].axon[4]'
p713
sI64
I15
tp714
a(F2.2917510964838073
S'Cell[2].dend[55] syn_ = new FastInhib(0.5)'
p715
I2
(dp716
g697
F0.30000000000000004
sg698
F16.0
sg699
I64
sg700
g7
(g8
(I0
tp717
g10
tp718
Rp719
(I1
(I3
tp720
g707
I00
S'\x80g\x83\x1a\xf83G@\x8c\x08O!\x9f)I\xc0[\xd7<\xd5C\xad\x08\xc0'
p721
tp722
bsg712
S'Cell[1].axon[11]'
p723
sI64
I111
tp724
a(F1.336088455534707
S'Cell[3].apic[3] syn_ = new FastInhib(0.833333333333)'
p725
I3
(dp726
g697
F0.07142857142857142
sg698
F16.0
sg699
I160
sg700
g7
(g8
(I0
tp727
g10
tp728
Rp729
(I1
(I3
tp730
g707
I00
S'\x85\xf3\xcb\x8d\x9a\x11Y\xc0\x05`\xf7\xef\xd7oe\xc0\xa8\xec\xe3\x88\xd6\r@\xc0'
p731
tp732
bsg712
S'Cell[3].axon[88]'
p733
sI160
I159
tp734
a(F2.390563765457612
S'Cell[0].dend[8] syn_ = new AmpaNmda(0.166666666667)'
p735
I0
(dp736
g697
F0.16666666666666666
sg698
F16.0
sg699
I112
sg700
g7
(g8
(I0
tp737
g10
tp738
Rp739
(I1
(I3
tp740
g707
I00
S'\xdbc]\xa0\xfe<!\xc0NRQ\x11B\xbb\x10@&)\x08\x17\xe3\x17)@'
p741
tp742
bsg712
S'Cell[2].axon[24]'
p743
sI112
I15
tp744
a(F2.086959306370332
S'Cell[1].dend[74] syn_ = new AmpaNmda(0.5)'
p745
I1
(dp746
g697
F0.5
sg698
F16.0
sg699
I112
sg700
g7
(g8
(I0
tp747
g10
tp748
Rp749
(I1
(I3
tp750
g707
I00
S']\x89>\x90:;b@\xda\x0f\xee\xcc\xe0%F@Qu\x8e`\x9d\x8bB\xc0'
p751
tp752
bsg712
S'Cell[2].axon[129]'
p753
sI112
I63
tp754
a(F1.8646758735795779
S'Cell[3].apic[0] syn_ = new FastInhib(0.5)'
p755
I3
(dp756
S'seg'
p757
F0.5
sS'hostfrom'
p758
F17.0
sS'gid'
p759
I113
sS'coords'
p760
g7
(g8
(I0
tp761
g10
tp762
Rp763
(I1
(I3
tp764
g14
(S'f8'
p765
I0
I1
tp766
Rp767
(I3
S'<'
p768
NNNI-1
I-1
I0
tp769
bI00
S"\x00\x00\x00\x00)\xdc;@\x00\x00\x00\x00\xd7#'\xc0\x00\x00\x00\xa0G\xe1\xf6\xbf"
p770
tp771
bsS'secnames'
p772
S'Cell[2].soma[0]'
p773
sI113
I159
tp774
a(F1.8367271606479203
S'Cell[2].dend[67] syn_ = new FastInhib(0.5)'
p775
I2
(dp776
g757
F0.5
sg758
F17.0
sg759
I113
sg760
g7
(g8
(I0
tp777
g10
tp778
Rp779
(I1
(I3
tp780
g767
I00
S'\xde$\x823Y@J@\x88n\xbc)\x1b\xfc\\\xc0\x00\x00\x00 \xaeG\x17\xc0'
p781
tp782
bsg772
S'Cell[2].axon[91]'
p783
sI113
I111
tp784
a(F2.492839074833924
S'Cell[0].dend[13] syn_ = new ExpSid(0.5)'
p785
I0
(dp786
g757
F0.5
sg758
F17.0
sg759
I161
sg760
g7
(g8
(I0
tp787
g10
tp788
Rp789
(I1
(I3
tp790
g767
I00
S"\xd3V#pd92\xc0\x90\xc5<\xa1\x05\x88'@\xe8H\xbct\x04\xbdB@"
p791
tp792
bsg772
S'Cell[3].axon[11]'
p793
sI161
I15
tp794
a(F1.9966369349289805
S'Cell[1].apic[189] syn_ = new ExpSid(0.166666666667)'
p795
I1
(dp796
g757
F0.5
sg758
F17.0
sg759
I161
sg760
g7
(g8
(I0
tp797
g10
tp798
Rp799
(I1
(I3
tp800
g767
I00
S'\xfd\xca\xd8\xec\xaa@\\\xc0\x0ci\x07ex\x08R@\xcd\x17~\x9a\xa7I9@'
p801
tp802
bsg772
S'Cell[3].axon[19]'
p803
sI161
I63
tp804
a(F1.0723315523719559
S'Cell[1].dend[94] syn_ = new ExpSid(0.3)'
p805
I1
(dp806
g757
F0.30000000000000004
sg758
F17.0
sg759
I161
sg760
g7
(g8
(I0
tp807
g10
tp808
Rp809
(I1
(I3
tp810
g767
I00
S'\x0b\xebl\xdfg\x85F\xc0\x82\xea\xea\xccyuD@\xb8)\xcd\xc8\x95\xc71@'
p811
tp812
bsg772
S'Cell[3].axon[70]'
p813
sI161
I63
tp814
a(F1.0814609529804657
S'Cell[1].dend[75] syn_ = new ExpSid(0.5)'
p815
I1
(dp816
g757
F0.16666666666666666
sg758
F17.0
sg759
I161
sg760
g7
(g8
(I0
tp817
g10
tp818
Rp819
(I1
(I3
tp820
g767
I00
S'\x9c\x01>\x14h\xec7@`\xea\x1aOq66@\x96\x13\xe55\xadK6\xc0'
p821
tp822
bsg772
S'Cell[3].axon[130]'
p823
sI161
I63
tp824
a(F2.2653239990977503
S'Cell[1].dend[77] syn_ = new ExpSid(0.5)'
p825
I1
(dp826
g757
F0.5
sg758
F17.0
sg759
I161
sg760
g7
(g8
(I0
tp827
g10
tp828
Rp829
(I1
(I3
tp830
g767
I00
S'\xac\x97\x14l;\xe8:@\x8c\x17pu\xe6h3@\xc4\xfd4I\xcak0\xc0'
p831
tp832
bsg772
S'Cell[3].axon[132]'
p833
sI161
I63
tp834
a(F1.9291030003839797
S'Cell[2].dend[34] syn_ = new FastInhib(0.833333333333)'
p835
I2
(dp836
g757
F0.5
sg758
F17.0
sg759
I161
sg760
g7
(g8
(I0
tp837
g10
tp838
Rp839
(I1
(I3
tp840
g767
I00
S'\x00\x00\x00 \\/2@\x00\x00\x00\xf0Q0V@\x00\x00\x00P\x8fbO\xc0'
p841
tp842
bsg772
S'Cell[3].axon[142]'
p843
sI161
I111
tp844
a(F1.341227166124141
S'Cell[3].apic[1] syn_ = new FastInhib(0.5)'
p845
I3
(dp846
g757
F0.3461538461538462
sg758
F17.0
sg759
I65
sg760
g7
(g8
(I0
tp847
g10
tp848
Rp849
(I1
(I3
tp850
g767
I00
S'\x8e{\x8eY>\x90I\xc0\xc3#\xcf\xa9o\xe4R\xc0\x13\xc1\x02{\x9a\xb0\x0c@'
p851
tp852
bsg772
S'Cell[1].axon[12]'
p853
sI65
I159
tp854
a(F2.253981774399023
S'Cell[1].dend[64] syn_ = new AmpaNmda(0.166666666667)'
p855
I1
(dp856
S'seg'
p857
F0.8333333333333333
sS'hostfrom'
p858
F18.0
sS'gid'
p859
I66
sS'coords'
p860
g7
(g8
(I0
tp861
g10
tp862
Rp863
(I1
(I3
tp864
g14
(S'f8'
p865
I0
I1
tp866
Rp867
(I3
S'<'
p868
NNNI-1
I-1
I0
tp869
bI00
S'k-j\x14\xd4h8\xc0\xb8\x9f\xae\x17J\xa5\x08@[\xf3\x9a95\xcc3\xc0'
p870
tp871
bsS'secnames'
p872
S'Cell[1].axon[26]'
p873
sI66
I63
tp874
a(F1.923851140644001
S'Cell[1].dend[70] syn_ = new AmpaNmda(0.833333333333)'
p875
I1
(dp876
g857
F0.30000000000000004
sg858
F18.0
sg859
I162
sg860
g7
(g8
(I0
tp877
g10
tp878
Rp879
(I1
(I3
tp880
g867
I00
S'\xb4\x93N\x9d\xc0\xff[@:\xdf\xec\x10A\xa2@@\xa6\xf2\x03z\xad\xfd=\xc0'
p881
tp882
bsg872
S'Cell[3].axon[41]'
p883
sI162
I63
tp884
a(F1.515283835672388
S'Cell[3].dend[3] syn_ = new FastInhib(0.5)'
p885
I3
(dp886
g857
F0.16666666666666666
sg858
F18.0
sg859
I162
sg860
g7
(g8
(I0
tp887
g10
tp888
Rp889
(I1
(I3
tp890
g867
I00
S'\xde\x19jH\x01G>@u\xcb\x96J@\x0bB@\xbd\xd9\xd7[\xcd\xc7*\xc0'
p891
tp892
bsg872
S'Cell[3].axon[64]'
p893
sI162
I159
tp894
a(F1.2409177735492438
S'Cell[1].apic[169] syn_ = new AmpaNmda(0.5)'
p895
I1
(dp896
g857
F0.5
sg858
F18.0
sg859
I162
sg860
g7
(g8
(I0
tp897
g10
tp898
Rp899
(I1
(I3
tp900
g867
I00
S'\x00\x00\x00\x10\xd7c3@\x00\x00\x00\x00)<X@\x00\x00\x00\x90\xc2\x15?\xc0'
p901
tp902
bsg872
S'Cell[3].axon[95]'
p903
sI162
I63
tp904
a(F2.3369699314137895
S'Cell[1].apic[170] syn_ = new AmpaNmda(0.5)'
p905
I1
g896
I162
I63
tp906
a(F1.4801100107602014
S'Cell[3].dend[39] syn_ = new FastInhib(0.5)'
p907
I3
(dp908
S'seg'
p909
F0.7857142857142856
sS'hostfrom'
p910
F19.0
sS'gid'
p911
I115
sS'coords'
p912
g7
(g8
(I0
tp913
g10
tp914
Rp915
(I1
(I3
tp916
g14
(S'f8'
p917
I0
I1
tp918
Rp919
(I3
S'<'
p920
NNNI-1
I-1
I0
tp921
bI00
S"\xe1\xc8\x84\x14\xdfM'@P\x85N\x9d'*7@\xbe\x99\x16v\xdc\xc7.@"
p922
tp923
bsS'secnames'
p924
S'Cell[2].axon[75]'
p925
sI115
I159
tp926
a(F2.3190671716243836
S'Cell[1].dend[99] syn_ = new ExpSid(0.1)'
p927
I1
(dp928
g909
F0.7
sg910
F19.0
sg911
I115
sg912
g7
(g8
(I0
tp929
g10
tp930
Rp931
(I1
(I3
tp932
g919
I00
S'\x05\x85x\x9e\x92oC@\xbcr\x16\xc3\xb8BL@a\xa1\x91\x9a\xf6\x9f3@'
p933
tp934
bsg924
S'Cell[2].axon[249]'
p935
sI115
I63
tp936
a(F0.7469336663242315
S'Cell[3].apic[8] syn_ = new FastInhib(0.3)'
p937
I3
(dp938
g909
F0.8333333333333333
sg910
F19.0
sg911
I67
sg912
g7
(g8
(I0
tp939
g10
tp940
Rp941
(I1
(I3
tp942
g919
I00
S'\x80\xb7\xab\xa9q\x127@1&K\xf4ri`\xc0<\x05c<[\xc5#\xc0'
p943
tp944
bsg924
S'Cell[1].axon[17]'
p945
sI67
I159
tp946
a(F1.3010738977668665
S'Cell[1].apic[211] syn_ = new AmpaNmda(0.5)'
p947
I1
(dp948
S'seg'
p949
F0.5
sS'hostfrom'
p950
F20.0
sS'gid'
p951
I116
sS'coords'
p952
g7
(g8
(I0
tp953
g10
tp954
Rp955
(I1
(I3
tp956
g14
(S'f8'
p957
I0
I1
tp958
Rp959
(I3
S'<'
p960
NNNI-1
I-1
I0
tp961
bI00
S'\x1d\xd3h\x16\xaaj[\xc0Q\xb4\x14\x07E\x18G@\x93=;\xa9\x05\x0b<\xc0'
p962
tp963
bsS'secnames'
p964
S'Cell[2].axon[22]'
p965
sI116
I63
tp966
a(F1.3979170700845336
S'Cell[2].dend[41] syn_ = new FastInhib(0.5)'
p967
I2
(dp968
S'seg'
p969
F0.5
sS'hostfrom'
p970
F21.0
sS'gid'
p971
I165
sS'coords'
p972
g7
(g8
(I0
tp973
g10
tp974
Rp975
(I1
(I3
tp976
g14
(S'f8'
p977
I0
I1
tp978
Rp979
(I3
S'<'
p980
NNNI-1
I-1
I0
tp981
bI00
S'"\xaf\xe6.T:9@X\xc7I\x97\xed\xe8\x19\xc0+gB\x87\xac\x8a0\xc0'
p982
tp983
bsS'secnames'
p984
S'Cell[3].axon[8]'
p985
sI165
I111
tp986
a(F1.0131625871379597
S'Cell[1].dend[94] syn_ = new ExpSid(0.1)'
p987
I1
(dp988
g969
F0.7857142857142856
sg970
F21.0
sg971
I165
sg972
g7
(g8
(I0
tp989
g10
tp990
Rp991
(I1
(I3
tp992
g979
I00
S'\xd4I\xe3\x0b\x9c\x1fD\xc0\x95l\x98\x18\x92\x9d?@F\x14\xe8\xb2\xb8\x18&@'
p993
tp994
bsg984
S'Cell[3].axon[83]'
p995
sI165
I63
tp996
a(F1.8041735495932745
S'Cell[2].dend[43] syn_ = new FastInhib(0.166666666667)'
p997
I2
(dp998
g969
F0.8333333333333333
sg970
F21.0
sg971
I165
sg972
g7
(g8
(I0
tp999
g10
tp1000
Rp1001
(I1
(I3
tp1002
g979
I00
S'\xae\xad\xf8m\xc8\xed\x1f@7\x14[s[\xfa"\xc0^\xdfK\x0f\xc7U6\xc0'
p1003
tp1004
bsg984
S'Cell[3].axon[104]'
p1005
sI165
I111
tp1006
a(F1.192743944790902
S'Cell[3].dend[48] syn_ = new FastInhib(0.833333333333)'
p1007
I3
(dp1008
g969
F0.5
sg970
F21.0
sg971
I117
sg972
g7
(g8
(I0
tp1009
g10
tp1010
Rp1011
(I1
(I3
tp1012
g979
I00
S'\xda{\x82=9\x8e9\xc06\xaa\xc0Aa\xca]@\x00\x00\x00\x80\xc2u9\xc0'
p1013
tp1014
bsg984
S'Cell[2].axon[291]'
p1015
sI117
I159
tp1016
a(F2.0542108023372334
S'Cell[0].dend[26] syn_ = new ExpSid(0.166666666667)'
p1017
I0
(dp1018
g969
F0.2777777777777778
sg970
F21.0
sg971
I69
sg972
g7
(g8
(I0
tp1019
g10
tp1020
Rp1021
(I1
(I3
tp1022
g979
I00
S'\x98\xe8\nE\xf1\xc9 \xc0\xe5c\xae\x19\x052@\xc0\x00\x00\x00\x80\x14\xae @'
p1023
tp1024
bsg984
S'Cell[1].axon[4]'
p1025
sI69
I15
tp1026
a(F2.0767952532319662
S'Cell[0].dend[35] syn_ = new ExpSid(0.5)'
p1027
I0
(dp1028
g969
F0.16666666666666666
sg970
F21.0
sg971
I69
sg972
g7
(g8
(I0
tp1029
g10
tp1030
Rp1031
(I1
(I3
tp1032
g979
I00
S'h\xbb\xfdY\x9f%\x1d@\xfb\xaa\xf6YU\xa9\x11\xc0X\xb3q\xccW\x9d>@'
p1033
tp1034
bsg984
S'Cell[1].axon[16]'
p1035
sI69
I15
tp1036
a(F2.3163669005744
S'Cell[0].dend[24] syn_ = new AmpaNmda(0.5)'
p1037
I0
(dp1038
S'seg'
p1039
F0.1
sS'hostfrom'
p1040
F22.0
sS'gid'
p1041
I70
sS'coords'
p1042
g7
(g8
(I0
tp1043
g10
tp1044
Rp1045
(I1
(I3
tp1046
g14
(S'f8'
p1047
I0
I1
tp1048
Rp1049
(I3
S'<'
p1050
NNNI-1
I-1
I0
tp1051
bI00
S'X\x9a\xb2\xe7)\xc8"\xc0\xec\x1b\xf2]\t\xf47\xc0f@%\xd9\xef\xf7+@'
p1052
tp1053
bsS'secnames'
p1054
S'Cell[1].axon[7]'
p1055
sI70
I15
tp1056
a(F2.4711102812538357
S'Cell[0].apic[16] syn_ = new AmpaNmda(0.166666666667)'
p1057
I0
(dp1058
g1039
F0.8333333333333333
sg1040
F22.0
sg1041
I166
sg1042
g7
(g8
(I0
tp1059
g10
tp1060
Rp1061
(I1
(I3
tp1062
g1049
I00
S'?\x80=\x93\xef\xefQ@d\x08\xa3F\xd28X@\x00\x00\x00\x80\x14\xae\x1f@'
p1063
tp1064
bsg1054
S'Cell[3].axon[248]'
p1065
sI166
I15
tp1066
a(F1.4452869827841475
S'Cell[0].dend[21] syn_ = new ExpSid(0.5)'
p1067
I0
(dp1068
S'seg'
p1069
F0.5
sS'hostfrom'
p1070
F23.0
sS'gid'
p1071
I71
sS'coords'
p1072
g7
(g8
(I0
tp1073
g10
tp1074
Rp1075
(I1
(I3
tp1076
g14
(S'f8'
p1077
I0
I1
tp1078
Rp1079
(I3
S'<'
p1080
NNNI-1
I-1
I0
tp1081
bI00
S'P@\xc3*\xf5\xa6\x0c@J2\xb4\x85\x8f\xca\x11\xc0\x1e\xef\xe0C\xc8\xb4\x15@'
p1082
tp1083
bsS'secnames'
p1084
S'Cell[1].axon[0]'
p1085
sI71
I15
tp1086
a(F1.6740919253190658
S'Cell[0].dend[33] syn_ = new ExpSid(0.5)'
p1087
I0
(dp1088
g1069
F0.5
sg1070
F23.0
sg1071
I167
sg1072
g7
(g8
(I0
tp1089
g10
tp1090
Rp1091
(I1
(I3
tp1092
g1079
I00
S'\x86\x13a\x131\xe88\xc0\xe7\xf2\xea\r\xcb\x856\xc0\x1d\xd0\xe0\x11\xa6&\x05\xc0'
p1093
tp1094
bsg1084
S'Cell[3].axon[163]'
p1095
sI167
I15
tp1096
a(F1.9388671337707184
S'Cell[3].dend[34] syn_ = new FastInhib(0.5)'
p1097
I3
(dp1098
S'seg'
p1099
F0.9285714285714284
sS'hostfrom'
p1100
F24.0
sS'gid'
p1101
I72
sS'coords'
p1102
g7
(g8
(I0
tp1103
g10
tp1104
Rp1105
(I1
(I3
tp1106
g14
(S'f8'
p1107
I0
I1
tp1108
Rp1109
(I3
S'<'
p1110
NNNI-1
I-1
I0
tp1111
bI00
S'\xb2\xcc\x87\xddH\xc91@\x88>\xa6\x9dFs8@\x00\x00\x00\xe0\xa3\xf06@'
p1112
tp1113
bsS'secnames'
p1114
S'Cell[1].axon[2]'
p1115
sI72
I159
tp1116
a(F2.2717842875277534
S'Cell[0].dend[32] syn_ = new AmpaNmda(0.5)'
p1117
I0
(dp1118
g1099
F0.8333333333333333
sg1100
F24.0
sg1101
I120
sg1102
g7
(g8
(I0
tp1119
g10
tp1120
Rp1121
(I1
(I3
tp1122
g1109
I00
S'\xea|+;X\xf78\xc07\x8a\xc0Us\xc9<\xc0\x98\xffA#\xa1=\x00\xc0'
p1123
tp1124
bsg1114
S'Cell[2].axon[125]'
p1125
sI120
I15
tp1126
a(F1.9626324667151214
S'Cell[0].dend[20] syn_ = new AmpaNmda(0.5)'
p1127
I0
(dp1128
g1099
F0.5
sg1100
F24.0
sg1101
I120
sg1102
g7
(g8
(I0
tp1129
g10
tp1130
Rp1131
(I1
(I3
tp1132
g1109
I00
S'R\xb3\xcb\xe4\xe54\x0f\xc0\\\x9bJG,\xe1\x1c@|\xdc\x8a\xef\xc4\\\x18\xc0'
p1133
tp1134
bsg1114
S'Cell[2].axon[131]'
p1135
sI120
I15
tp1136
a(F2.1183337616341893
S'Cell[1].dend[65] syn_ = new AmpaNmda(0.5)'
p1137
I1
(dp1138
g1099
F0.8333333333333333
sg1100
F24.0
sg1101
I120
sg1102
g7
(g8
(I0
tp1139
g10
tp1140
Rp1141
(I1
(I3
tp1142
g1109
I00
S'_\xcd$\xe46\xa92@T/\x95.d\x96O\xc0\xd1\x92V\x113`B\xc0'
p1143
tp1144
bsg1114
S'Cell[2].axon[258]'
p1145
sI120
I63
tp1146
a(F2.3823125473853493
S'Cell[1].apic[206] syn_ = new AmpaNmda(0.166666666667)'
p1147
I1
(dp1148
g1099
F0.16666666666666666
sg1100
F24.0
sg1101
I120
sg1102
g7
(g8
(I0
tp1149
g10
tp1150
Rp1151
(I1
(I3
tp1152
g1109
I00
S'\x8b\xe8\x90G\xca\x86[\xc0\xb4\xe2U\x96\x17\xc6L@vn\x95\xad$\x8f4\xc0'
p1153
tp1154
bsg1114
S'Cell[2].axon[277]'
p1155
sI120
I63
tp1156
a(F1.2720586522556911
S'Cell[3].dend[46] syn_ = new FastInhib(0.5)'
p1157
I3
(dp1158
S'seg'
p1159
F0.5
sS'hostfrom'
p1160
F25.0
sS'gid'
p1161
I121
sS'coords'
p1162
g7
(g8
(I0
tp1163
g10
tp1164
Rp1165
(I1
(I3
tp1166
g14
(S'f8'
p1167
I0
I1
tp1168
Rp1169
(I3
S'<'
p1170
NNNI-1
I-1
I0
tp1171
bI00
S'\x88\xf5cpH\x92\xc3?\\\x80I\x93\x12LJ@\xfasVeg\x185\xc0'
p1172
tp1173
bsS'secnames'
p1174
S'Cell[2].axon[23]'
p1175
sI121
I159
tp1176
a(F2.1356723977264918
S'Cell[1].apic[182] syn_ = new ExpSid(0.166666666667)'
p1177
I1
(dp1178
g1159
F0.5
sg1160
F25.0
sg1161
I121
sg1162
g7
(g8
(I0
tp1179
g10
tp1180
Rp1181
(I1
(I3
tp1182
g1169
I00
S'\x1f\x0b\xe4\x0f\xf7\xfeB\xc0\x8c\xd5+Q;CR@^\xa5U-K\x9e0\xc0'
p1183
tp1184
bsg1174
S'Cell[2].axon[115]'
p1185
sI121
I63
tp1186
a(F1.4209319904997115
S'Cell[1].dend[13] syn_ = new ExpSid(0.166666666667)'
p1187
I1
(dp1188
g1159
F0.1
sg1160
F25.0
sg1161
I121
sg1162
g7
(g8
(I0
tp1189
g10
tp1190
Rp1191
(I1
(I3
tp1192
g1169
I00
S'\x0b\xb9*\x07o(T\xc0\xd9\x9a\xac4\xa1c\xe9\xbf\xdd\xa1\xf4\xcd@|8\xc0'
p1193
tp1194
bsg1174
S'Cell[2].axon[159]'
p1195
sI121
I63
tp1196
a(F2.192991370659847
S'Cell[1].apic[0] syn_ = new ExpSid(0.5)'
p1197
I1
(dp1198
g1159
F0.5
sg1160
F25.0
sg1161
I121
sg1162
g7
(g8
(I0
tp1199
g10
tp1200
Rp1201
(I1
(I3
tp1202
g1169
I00
S'N\xcbm\x80\x07\x92J\xc0\x16\xa7Xe\x8d\x92A@\xcc\xb1P\x93\xd0\xbd(\xc0'
p1203
tp1204
bsg1174
S'Cell[2].axon[209]'
p1205
sI121
I63
tp1206
a(F2.284827421889374
S'Cell[1].apic[141] syn_ = new AmpaNmda(0.7)'
p1207
I1
(dp1208
S'seg'
p1209
F0.3571428571428571
sS'hostfrom'
p1210
F26.0
sS'gid'
p1211
I170
sS'coords'
p1212
g7
(g8
(I0
tp1213
g10
tp1214
Rp1215
(I1
(I3
tp1216
g14
(S'f8'
p1217
I0
I1
tp1218
Rp1219
(I3
S'<'
p1220
NNNI-1
I-1
I0
tp1221
bI00
S"l#\xafS\x00e]\xc0\x82'\x99\x11\xc3\x19l@ \x8a{*i|3\xc0"
p1222
tp1223
bsS'secnames'
p1224
S'Cell[3].axon[343]'
p1225
sI170
I63
tp1226
a(F1.6780169664274471
S'Cell[3].dend[4] syn_ = new FastInhib(0.5)'
p1227
I3
(dp1228
g1209
F0.8333333333333333
sg1210
F26.0
sg1211
I170
sg1212
g7
(g8
(I0
tp1229
g10
tp1230
Rp1231
(I1
(I3
tp1232
g1219
I00
S'\xca]\xd6\xbf\xf4kB@>k\t\xc5"\x96E@\xa8\xbe51[\xe0%\xc0'
p1233
tp1234
bsg1224
S'Cell[3].axon[454]'
p1235
sI170
I159
tp1236
a(F1.2958255746972471
S'Cell[2].dend[6] syn_ = new FastInhib(0.166666666667)'
p1237
I2
(dp1238
g1209
F0.16666666666666666
sg1210
F26.0
sg1211
I170
sg1212
g7
(g8
(I0
tp1239
g10
tp1240
Rp1241
(I1
(I3
tp1242
g1219
I00
S"\xceI\x1e\x9d_0B@'\xc1\xcbh\xb7\xb97@\xa4I\xe1\x0c\xc7\x0e%\xc0"
p1243
tp1244
bsg1224
S'Cell[3].axon[457]'
p1245
sI170
I111
tp1246
a(F2.3198151265156666
S'Cell[2].dend[32] syn_ = new FastInhib(0.5)'
p1247
I2
(dp1248
S'seg'
p1249
F0.5
sS'hostfrom'
p1250
F27.0
sS'gid'
p1251
I171
sS'coords'
p1252
g7
(g8
(I0
tp1253
g10
tp1254
Rp1255
(I1
(I3
tp1256
g14
(S'f8'
p1257
I0
I1
tp1258
Rp1259
(I3
S'<'
p1260
NNNI-1
I-1
I0
tp1261
bI00
S'v\x15\x98g\xe5\xa5=@Y\x1ce\x00~\xcc*@%9\x928\xce\x06$\xc0'
p1262
tp1263
bsS'secnames'
p1264
S'Cell[3].axon[31]'
p1265
sI171
I111
tp1266
a(F1.6623567347361592
S'Cell[2].dend[2] syn_ = new FastInhib(0.5)'
p1267
I2
(dp1268
g1249
F0.30000000000000004
sg1250
F27.0
sg1251
I171
sg1252
g7
(g8
(I0
tp1269
g10
tp1270
Rp1271
(I1
(I3
tp1272
g1259
I00
S'\x82\x0f\x8a\x10\xdcpA@pQ\x04>\xea.@@\xb9\xfe9\xb4\xef\x0f\xf5?'
p1273
tp1274
bsg1264
S'Cell[3].axon[32]'
p1275
sI171
I111
tp1276
a(F2.445937582596182
S'Cell[1].dend[64] syn_ = new AmpaNmda(0.166666666667)'
p1277
I1
(dp1278
S'seg'
p1279
F0.8333333333333333
sS'hostfrom'
p1280
F28.0
sS'gid'
p1281
I172
sS'coords'
p1282
g7
(g8
(I0
tp1283
g10
tp1284
Rp1285
(I1
(I3
tp1286
g14
(S'f8'
p1287
I0
I1
tp1288
Rp1289
(I3
S'<'
p1290
NNNI-1
I-1
I0
tp1291
bI00
S'1\x12\x81\x1f\xc0d5\xc0\xd2\x10o\xb3-\xc0\xfa?\x17\xa1\xa4\x17G\xf75\xc0'
p1292
tp1293
bsS'secnames'
p1294
S'Cell[3].axon[0]'
p1295
sI172
I63
tp1296
a(F1.4048160506579737
S'Cell[3].dend[2] syn_ = new FastInhib(0.833333333333)'
p1297
I3
(dp1298
g1279
F0.05555555555555555
sg1280
F28.0
sg1281
I172
sg1282
g7
(g8
(I0
tp1299
g10
tp1300
Rp1301
(I1
(I3
tp1302
g1289
I00
S'\x9f\xc6P\x03~\x10B@p\xda\x90\\>\xe3D@\x18\xc3-\xb2\xc3:C\xc0'
p1303
tp1304
bsg1294
S'Cell[3].axon[84]'
p1305
sI172
I159
tp1306
a(F2.2180049999091542
S'Cell[3].apic[5] syn_ = new FastInhib(0.833333333333)'
p1307
I3
(dp1308
S'seg'
p1309
F0.5
sS'hostfrom'
p1310
F29.0
sS'gid'
p1311
I77
sS'coords'
p1312
g7
(g8
(I0
tp1313
g10
tp1314
Rp1315
(I1
(I3
tp1316
g14
(S'f8'
p1317
I0
I1
tp1318
Rp1319
(I3
S'<'
p1320
NNNI-1
I-1
I0
tp1321
bI00
S'C\xdb3\x064\x1eN@\xber\xa7\xaf\x0e\x15b\xc0\x1d\xab\xc5\xb7\xcd\xfb;\xc0'
p1322
tp1323
bsS'secnames'
p1324
S'Cell[1].axon[45]'
p1325
sI77
I159
tp1326
a(F2.13995736391749
S'Cell[2].dend[38] syn_ = new FastInhib(0.5)'
p1327
I2
(dp1328
S'seg'
p1329
F0.16666666666666666
sS'hostfrom'
p1330
F30.0
sS'gid'
p1331
I126
sS'coords'
p1332
g7
(g8
(I0
tp1333
g10
tp1334
Rp1335
(I1
(I3
tp1336
g14
(S'f8'
p1337
I0
I1
tp1338
Rp1339
(I3
S'<'
p1340
NNNI-1
I-1
I0
tp1341
bI00
S'\xc69\xa3\x8fy\xdb6@\x0fc\xf5\x03\x06`2\xc0=tm\xb9\x1dx6\xc0'
p1342
tp1343
bsS'secnames'
p1344
S'Cell[2].axon[4]'
p1345
sI126
I111
tp1346
a(F2.4606876273699894
S'Cell[1].dend[89] syn_ = new AmpaNmda(0.833333333333)'
p1347
I1
(dp1348
g1329
F0.8333333333333333
sg1330
F30.0
sg1331
I126
sg1332
g7
(g8
(I0
tp1349
g10
tp1350
Rp1351
(I1
(I3
tp1352
g1339
I00
S'\xd0:\xed!iO\x07\xc0\x00w\xb3\xb2P\xea\x0f\xc0\\\xf7\x07P\x91\xa97\xc0'
p1353
tp1354
bsg1344
S'Cell[2].axon[46]'
p1355
sI126
I63
tp1356
a(F1.9227528231984887
S'Cell[3].dend[0] syn_ = new FastInhib(0.5)'
p1357
I3
(dp1358
g1329
F0.8999999999999999
sg1330
F30.0
sg1331
I126
sg1332
g7
(g8
(I0
tp1359
g10
tp1360
Rp1361
(I1
(I3
tp1362
g1339
I00
S'\xc0\x95lFcmO@\x12\xc8\xfbN\x11]N@\x1c\xbb\xe5/\xd5\xd9\x16@'
p1363
tp1364
bsg1344
S'Cell[2].axon[176]'
p1365
sI126
I159
tp1366
a(F1.1540119521965022
S'Cell[1].dend[92] syn_ = new AmpaNmda(0.5)'
p1367
I1
(dp1368
g1329
F0.5
sg1330
F30.0
sg1331
I174
sg1332
g7
(g8
(I0
tp1369
g10
tp1370
Rp1371
(I1
(I3
tp1372
g1339
I00
S'\x18\x93\xcc?i\x05\x00@\xb6\xee\xb1d\x99o+\xc0\x08\xdc\xd7\xc1\xb6\xfe,@'
p1373
tp1374
bsg1344
S'Cell[3].axon[275]'
p1375
sI174
I63
tp1376
a(F1.8988697061018491
S'Cell[0].dend[41] syn_ = new AmpaNmda(0.1)'
p1377
I0
(dp1378
g1329
F0.16666666666666666
sg1330
F30.0
sg1331
I174
sg1332
g7
(g8
(I0
tp1379
g10
tp1380
Rp1381
(I1
(I3
tp1382
g1339
I00
S'\x9d>\xa8\xceA\xfc4@\x14\x0e~i\x15\x1f\x16\xc05L\x89\xb9\x16\x92;@'
p1383
tp1384
bsg1344
S'Cell[3].axon[295]'
p1385
sI174
I15
tp1386
a(F1.551396262884085
S'Cell[2].dend[26] syn_ = new FastInhib(0.166666666667)'
p1387
I2
(dp1388
S'seg'
p1389
F0.7
sS'hostfrom'
p1390
F31.0
sS'gid'
p1391
I127
sS'coords'
p1392
g7
(g8
(I0
tp1393
g10
tp1394
Rp1395
(I1
(I3
tp1396
g14
(S'f8'
p1397
I0
I1
tp1398
Rp1399
(I3
S'<'
p1400
NNNI-1
I-1
I0
tp1401
bI00
S'\xb1\xb0\xe9\xea\xfa%U@\x89\x9e8!\xbe\xc8<@\x00\xe5\x9d|D\x0f7\xc0'
p1402
tp1403
bsS'secnames'
p1404
S'Cell[2].axon[12]'
p1405
sI127
I111
tp1406
a(F1.5710185150192681
S'Cell[2].dend[61] syn_ = new FastInhib(0.166666666667)'
p1407
I2
(dp1408
g1389
F0.1
sg1390
F31.0
sg1391
I127
sg1392
g7
(g8
(I0
tp1409
g10
tp1410
Rp1411
(I1
(I3
tp1412
g1399
I00
S'\x9a\x8d\xbaD\xca\xd0F@\x91\xd9@\xfe\r\x04T\xc0\xf4v?\x12\x05\x89(\xc0'
p1413
tp1414
bsg1404
S'Cell[2].axon[24]'
p1415
sI127
I111
tp1416
a(F1.0578324825350987
S'Cell[1].apic[153] syn_ = new ExpSid(0.5)'
p1417
I1
(dp1418
g1389
F0.1
sg1390
F31.0
sg1391
I175
sg1392
g7
(g8
(I0
tp1419
g10
tp1420
Rp1421
(I1
(I3
tp1422
g1399
I00
S'e\xd5\xb2\xfa&\xa2R\xc0\xea\x00\xbd\xaaNaZ@L\x94\x0cP\xd1\xd3A\xc0'
p1423
tp1424
bsg1404
S'Cell[3].axon[39]'
p1425
sI175
I63
tp1426
a(F2.344729444432379
S'Cell[1].dend[58] syn_ = new ExpSid(0.5)'
p1427
I1
(dp1428
g1389
F0.19230769230769232
sg1390
F31.0
sg1391
I175
sg1392
g7
(g8
(I0
tp1429
g10
tp1430
Rp1431
(I1
(I3
tp1432
g1399
I00
S'c/\xe0`I\x1eH\xc0&\x9c|\x83\xbf\x15\x17@\x00\x00\x00\xe0Q\x18B\xc0'
p1433
tp1434
bsg1404
S'Cell[3].axon[121]'
p1435
sI175
I63
tp1436
a(F2.4045362550986593
S'Cell[0].dend[27] syn_ = new ExpSid(0.166666666667)'
p1437
I0
(dp1438
g1389
F0.5
sg1390
F31.0
sg1391
I175
sg1392
g7
(g8
(I0
tp1439
g10
tp1440
Rp1441
(I1
(I3
tp1442
g1399
I00
S'g\xc7i\x8dU\x87@\xc0\xec\xfa\xbdCu\xbcR\xc0U\xce\x01\xe16\xbc\x1f@'
p1443
tp1444
bsg1404
S'Cell[3].axon[197]'
p1445
sI175
I15
tp1446
a(F0.6863079158804867
S'Cell[1].dend[42] syn_ = new ExpSid(0.5)'
p1447
I1
(dp1448
g1389
F0.5
sg1390
F31.0
sg1391
I175
sg1392
g7
(g8
(I0
tp1449
g10
tp1450
Rp1451
(I1
(I3
tp1452
g1399
I00
S'\x12\xd2z\xa1h\xceU\xc0\xb2\x0c\xcb\xe9#\xf9\x02@\xb6\x88\x82\xd5WOE\xc0'
p1453
tp1454
bsg1404
S'Cell[3].axon[215]'
p1455
sI175
I63
tp1456
a(F0.8574038785385483
S'Cell[1].dend[43] syn_ = new ExpSid(0.5)'
p1457
I1
g1448
I175
I63
tp1458
a(F1.654335074997711
S'Cell[1].dend[44] syn_ = new ExpSid(0.5)'
p1459
I1
g1448
I175
I63
tp1460
a(F1.7273798500291173
S'Cell[2].dend[29] syn_ = new FastInhib(0.5)'
p1461
I2
(dp1462
g1389
F0.8999999999999999
sg1390
F31.0
sg1391
I175
sg1392
g7
(g8
(I0
tp1463
g10
tp1464
Rp1465
(I1
(I3
tp1466
g1399
I00
S'\xee\x14\xdfa\xfd\xeeg@\xda7\xbc\xb0\xf2\x0f9@\x00\x00\x00\x80\xeb\xb1I\xc0'
p1467
tp1468
bsg1404
S'Cell[3].axon[297]'
p1469
sI175
I111
tp1470
a(F1.7686625938600287
S'Cell[3].apic[14] syn_ = new FastInhib(0.3)'
p1471
I3
(dp1472
S'seg'
p1473
F0.5
sS'hostfrom'
p1474
F32.0
sS'gid'
p1475
I32
sS'coords'
p1476
g7
(g8
(I0
tp1477
g10
tp1478
Rp1479
(I1
(I3
tp1480
g14
(S'f8'
p1481
I0
I1
tp1482
Rp1483
(I3
S'<'
p1484
NNNI-1
I-1
I0
tp1485
bI00
S'(\x1a\xf0R\xbf\xfd1@X\x83Cr\xaf\xfat\xc0\x81!\xb4\x08Y\x022\xc0'
p1486
tp1487
bsS'secnames'
p1488
S'Cell[0].axon[18]'
p1489
sI32
I159
tp1490
a(F2.2884790324021704
S'Cell[2].dend[62] syn_ = new FastInhib(0.5)'
p1491
I2
(dp1492
g1473
F0.5
sg1474
F32.0
sg1475
I176
sg1476
g7
(g8
(I0
tp1493
g10
tp1494
Rp1495
(I1
(I3
tp1496
g1483
I00
S"\xa2\x88\xfd\xce\x17[D@\x82|!\xe8\xf4\xeaU\xc0\x00\x00\x00\xe0z\x14'\xc0"
p1497
tp1498
bsg1488
S'Cell[3].axon[59]'
p1499
sI176
I111
tp1500
a(F1.677904020814953
S'Cell[2].dend[62] syn_ = new FastInhib(0.5)'
p1501
I2
(dp1502
g1473
F0.16666666666666666
sg1474
F32.0
sg1475
I176
sg1476
g7
(g8
(I0
tp1503
g10
tp1504
Rp1505
(I1
(I3
tp1506
g1483
I00
S']\xc5\x07\xb1\\\xedE@\x1cC(\xb51\xf8U\xc0@\x86\x02\xba*\xde(\xc0'
p1507
tp1508
bsg1488
S'Cell[3].axon[94]'
p1509
sI176
I111
tp1510
a(F2.0604843655461678
S'Cell[1].apic[8] syn_ = new ExpSid(0.5)'
p1511
I1
(dp1512
S'seg'
p1513
F0.16666666666666666
sS'hostfrom'
p1514
F33.0
sS'gid'
p1515
I177
sS'coords'
p1516
g7
(g8
(I0
tp1517
g10
tp1518
Rp1519
(I1
(I3
tp1520
g14
(S'f8'
p1521
I0
I1
tp1522
Rp1523
(I3
S'<'
p1524
NNNI-1
I-1
I0
tp1525
bI00
S'\x14\xec\xc9(p\xd6H\xc0\xca\x8b\xdf\xd8\xc5\tj@Zj\xb45\xa9\xdc\x00@'
p1526
tp1527
bsS'secnames'
p1528
S'Cell[3].axon[106]'
p1529
sI177
I63
tp1530
a(F2.400276086067882
S'Cell[0].apic[17] syn_ = new AmpaNmda(0.5)'
p1531
I0
(dp1532
S'seg'
p1533
F0.5
sS'hostfrom'
p1534
F34.0
sS'gid'
p1535
I82
sS'coords'
p1536
g7
(g8
(I0
tp1537
g10
tp1538
Rp1539
(I1
(I3
tp1540
g14
(S'f8'
p1541
I0
I1
tp1542
Rp1543
(I3
S'<'
p1544
NNNI-1
I-1
I0
tp1545
bI00
S'\x92\xfd\xfb\x96.\x84T@0\xff?n\x03\xa7X@\x00\x00\x00\xa0\x99\x99\xe9?'
p1546
tp1547
bsS'secnames'
p1548
S'Cell[1].axon[22]'
p1549
sI82
I15
tp1550
a(F1.6806694032086018
S'Cell[1].apic[228] syn_ = new AmpaNmda(0.5)'
p1551
I1
(dp1552
g1533
F0.16666666666666666
sg1534
F34.0
sg1535
I82
sg1536
g7
(g8
(I0
tp1553
g10
tp1554
Rp1555
(I1
(I3
tp1556
g1543
I00
S'\xf2]\x01\xc9r\xf6c\xc0g\x99\xf1\x9aW.\x1a@\x00\x00\x00`\xb8>B\xc0'
p1557
tp1558
bsg1548
S'Cell[1].axon[244]'
p1559
sI82
I63
tp1560
a(F2.445455248223677
S'Cell[2].dend[34] syn_ = new FastInhib(0.166666666667)'
p1561
I2
(dp1562
g1533
F0.30000000000000004
sg1534
F34.0
sg1535
I178
sg1536
g7
(g8
(I0
tp1563
g10
tp1564
Rp1565
(I1
(I3
tp1566
g1543
I00
S'\x13\x82\xde\xbeU\x974@\xf4{\x91\xb5\x17XE@\x80|\xed@{\xffD\xc0'
p1567
tp1568
bsg1548
S'Cell[3].axon[21]'
p1569
sI178
I111
tp1570
a(F2.0495307713765607
S'Cell[1].apic[180] syn_ = new AmpaNmda(0.5)'
p1571
I1
(dp1572
g1533
F0.5
sg1534
F34.0
sg1535
I178
sg1536
g7
(g8
(I0
tp1573
g10
tp1574
Rp1575
(I1
(I3
tp1576
g1543
I00
S'^\xf2\x04\x17\xd7\xe2>\xc0\x87=\xc8\xf1b{Z@\x1b\xe1\xb8\xec\x11\x0cC\xc0'
p1577
tp1578
bsg1548
S'Cell[3].axon[237]'
p1579
sI178
I63
tp1580
a(F1.9297713382905481
S'Cell[2].dend[67] syn_ = new FastInhib(0.5)'
p1581
I2
(dp1582
S'seg'
p1583
F0.5
sS'hostfrom'
p1584
F35.0
sS'gid'
p1585
I35
sS'coords'
p1586
g7
(g8
(I0
tp1587
g10
tp1588
Rp1589
(I1
(I3
tp1590
g14
(S'f8'
p1591
I0
I1
tp1592
Rp1593
(I3
S'<'
p1594
NNNI-1
I-1
I0
tp1595
bI00
S'\xc1\n\x96J<\x12K@Y\xf60\x16F~\\\xc0(\xd8\xd7P?\xa6\x11\xc0'
p1596
tp1597
bsS'secnames'
p1598
S'Cell[0].axon[20]'
p1599
sI35
I111
tp1600
a(F2.359753394034168
S'Cell[2].dend[11] syn_ = new FastInhib(0.833333333333)'
p1601
I2
(dp1602
g1583
F0.5
sg1584
F35.0
sg1585
I179
sg1586
g7
(g8
(I0
tp1603
g10
tp1604
Rp1605
(I1
(I3
tp1606
g1593
I00
S'\x00\x00\x00p=BP@\x00\x00\x00\xd0\xccDX@\x00\x00\x00033*\xc0'
p1607
tp1608
bsg1598
S'Cell[3].axon[156]'
p1609
sI179
I111
tp1610
a(F2.3808907899233107
S'Cell[3].dend[39] syn_ = new FastInhib(0.166666666667)'
p1611
I3
(dp1612
S'seg'
p1613
F0.1
sS'hostfrom'
p1614
F36.0
sS'gid'
p1615
I132
sS'coords'
p1616
g7
(g8
(I0
tp1617
g10
tp1618
Rp1619
(I1
(I3
tp1620
g14
(S'f8'
p1621
I0
I1
tp1622
Rp1623
(I3
S'<'
p1624
NNNI-1
I-1
I0
tp1625
bI00
S'\xd7CV^]\x87-@\x84\x95\xa5-\x91e4@\x00\x00\x00\x00\x00\x00\x1a@'
p1626
tp1627
bsS'secnames'
p1628
S'Cell[2].axon[54]'
p1629
sI132
I159
tp1630
a(F1.7889540525059773
S'Cell[0].dend[8] syn_ = new AmpaNmda(0.166666666667)'
p1631
I0
(dp1632
g1613
F0.8333333333333333
sg1614
F36.0
sg1615
I132
sg1616
g7
(g8
(I0
tp1633
g10
tp1634
Rp1635
(I1
(I3
tp1636
g1623
I00
S'\xf6\x86\xe67\x91\x92"\xc0\xe4\xc1\xee\xc3\xceH\x1a@\xf3\x8bz%\x11\xe4+@'
p1637
tp1638
bsg1628
S'Cell[2].axon[55]'
p1639
sI132
I15
tp1640
a(F2.0237678090590476
S'Cell[3].dend[6] syn_ = new FastInhib(0.3)'
p1641
I3
(dp1642
g1613
F0.5
sg1614
F36.0
sg1615
I132
sg1616
g7
(g8
(I0
tp1643
g10
tp1644
Rp1645
(I1
(I3
tp1646
g1623
I00
S'\x9e,\xbd\xfb\xf8\xa6Q@\xc6\x87\x178\xc3\x89K@<<\xce\xefp\xc65\xc0'
p1647
tp1648
bsg1628
S'Cell[2].axon[134]'
p1649
sI132
I159
tp1650
a(F2.3341119488842015
S'Cell[2].dend[54] syn_ = new FastInhib(0.5)'
p1651
I2
(dp1652
g1613
F0.5
sg1614
F36.0
sg1615
I132
sg1616
g7
(g8
(I0
tp1653
g10
tp1654
Rp1655
(I1
(I3
tp1656
g1623
I00
S'}/\xfe\xa0\x14\x96A@\xde\xea\xbdJ\xa6\x1d9\xc0\x1a\xfdR\xa7@\xc1\x15\xc0'
p1657
tp1658
bsg1628
S'Cell[2].axon[188]'
p1659
sI132
I111
tp1660
a(F1.077136346792312
S'Cell[2].dend[49] syn_ = new FastInhib(0.5)'
p1661
I2
(dp1662
g1613
F0.16666666666666666
sg1614
F36.0
sg1615
I132
sg1616
g7
(g8
(I0
tp1663
g10
tp1664
Rp1665
(I1
(I3
tp1666
g1623
I00
S"\xe0x\xdb\xd9\xc9\x11:@\xc1\xbb\xff\xd2\xaf\x9d<\xc0\x1b\xca\xf3'\xe2\xfd\xf2\xbf"
p1667
tp1668
bsg1628
S'Cell[2].axon[203]'
p1669
sI132
I111
tp1670
a(F2.400742506444844
S'Cell[2].dend[43] syn_ = new FastInhib(0.166666666667)'
p1671
I2
(dp1672
g1613
F0.3571428571428571
sg1614
F36.0
sg1615
I180
sg1616
g7
(g8
(I0
tp1673
g10
tp1674
Rp1675
(I1
(I3
tp1676
g1623
I00
S'\xca\xc2\xdf\xe7\xad\x05"@\xfa\xbb\x1e\xb0\xb0\xad\x1e\xc0\x92\xda\xa5 \xa3`7\xc0'
p1677
tp1678
bsg1628
S'Cell[3].axon[134]'
p1679
sI180
I111
tp1680
a(F2.005021255848005
S'Cell[0].apic[39] syn_ = new AmpaNmda(0.388888888889)'
p1681
I0
(dp1682
g1613
F0.5
sg1614
F36.0
sg1615
I180
sg1616
g7
(g8
(I0
tp1683
g10
tp1684
Rp1685
(I1
(I3
tp1686
g1623
I00
S'\xba\x89\xcd\x12\xf1\x7f*\xc0C\x7f\xe1%\xb1\xfbb@\x00\x00\x00 \xae\xa7E@'
p1687
tp1688
bsg1628
S'Cell[3].axon[143]'
p1689
sI180
I15
tp1690
a(F1.5111473174975214
S'Cell[2].dend[68] syn_ = new FastInhib(0.1)'
p1691
I2
(dp1692
g1613
F0.5
sg1614
F36.0
sg1615
I36
sg1616
g7
(g8
(I0
tp1693
g10
tp1694
Rp1695
(I1
(I3
tp1696
g1623
I00
S'T\x08y\x10\x91\x93E@X)\xe5l\xae-`\xc0&\xc4\xf7\xba\xa9Y\t\xc0'
p1697
tp1698
bsg1628
S'Cell[0].axon[12]'
p1699
sI36
I111
tp1700
a(F1.8243050877216476
S'Cell[2].dend[11] syn_ = new FastInhib(0.833333333333)'
p1701
I2
(dp1702
g1613
F0.22727272727272727
sg1614
F36.0
sg1615
I36
sg1616
g7
(g8
(I0
tp1703
g10
tp1704
Rp1705
(I1
(I3
tp1706
g1623
I00
S'E\xc7\xd1\x80R\x8eP@C\xd9+\xccG\xd1W@\x9a\xf6\x95\xca~\xc4$\xc0'
p1707
tp1708
bsg1628
S'Cell[0].axon[28]'
p1709
sI36
I111
tp1710
a(F0.9900767031562103
S'Cell[0].apic[16] syn_ = new ExpSid(0.166666666667)'
p1711
I0
(dp1712
S'seg'
p1713
F0.5
sS'hostfrom'
p1714
F37.0
sS'gid'
p1715
I133
sS'coords'
p1716
g7
(g8
(I0
tp1717
g10
tp1718
Rp1719
(I1
(I3
tp1720
g14
(S'f8'
p1721
I0
I1
tp1722
Rp1723
(I3
S'<'
p1724
NNNI-1
I-1
I0
tp1725
bI00
S',\xe7\xa0\xaaZ\xb0Q@\\\xac<H\x84\xf7W@\xd0\xca\xe5"8\xb2\x1d@'
p1726
tp1727
bsS'secnames'
p1728
S'Cell[2].axon[12]'
p1729
sI133
I15
tp1730
a(F1.8249031597450869
S'Cell[1].dend[51] syn_ = new ExpSid(0.7)'
p1731
I1
(dp1732
g1713
F0.16666666666666666
sg1714
F37.0
sg1715
I133
sg1716
g7
(g8
(I0
tp1733
g10
tp1734
Rp1735
(I1
(I3
tp1736
g1723
I00
S'\xa2\xf1W\xf8\x9d+`\xc06\xd9\xccO\xf2uQ@\x00\x00\x00@33\x1c@'
p1737
tp1738
bsg1728
S'Cell[2].axon[85]'
p1739
sI133
I63
tp1740
a(F1.7023391432837522
S'Cell[1].dend[97] syn_ = new ExpSid(0.166666666667)'
p1741
I1
(dp1742
g1713
F0.5
sg1714
F37.0
sg1715
I181
sg1716
g7
(g8
(I0
tp1743
g10
tp1744
Rp1745
(I1
(I3
tp1746
g1723
I00
S'\xcf\x837M\x81\x91;@}\xde?\x82\xc8\xa1M@\x00\x00\x00`\xb8\x1e\xd5?'
p1747
tp1748
bsg1728
S'Cell[3].axon[166]'
p1749
sI181
I63
tp1750
a(F1.9608215600997707
S'Cell[3].dend[48] syn_ = new FastInhib(0.166666666667)'
p1751
I3
(dp1752
g1713
F0.21428571428571427
sg1714
F37.0
sg1715
I181
sg1716
g7
(g8
(I0
tp1753
g10
tp1754
Rp1755
(I1
(I3
tp1756
g1723
I00
S'l\xbf\x18\x9b>\x04\xfc?\xd0&\xf3\xef\xf7\xe9Q@\x94\xaa\xfc\x13p\xee6\xc0'
p1757
tp1758
bsg1728
S'Cell[3].axon[272]'
p1759
sI181
I159
tp1760
a(F2.0196963866707076
S'Cell[1].dend[67] syn_ = new ExpSid(0.5)'
p1761
I1
(dp1762
g1713
F0.49999999999999994
sg1714
F37.0
sg1715
I37
sg1716
g7
(g8
(I0
tp1763
g10
tp1764
Rp1765
(I1
(I3
tp1766
g1723
I00
S'\xced\x03c\xac\xb18@\x07\xdd\xf9#>aP\xc0\x03\x07\xdbb\x06\x19C\xc0'
p1767
tp1768
bsg1728
S'Cell[0].axon[22]'
p1769
sI37
I63
tp1770
a(F2.4221349064375404
S'Cell[2].dend[12] syn_ = new FastInhib(0.833333333333)'
p1771
I2
(dp1772
g1713
F0.3571428571428571
sg1714
F37.0
sg1715
I85
sg1716
g7
(g8
(I0
tp1773
g10
tp1774
Rp1775
(I1
(I3
tp1776
g1723
I00
S' h\x8a\xc2\\2K@\x82N\xa6\x88\xe0\x0bQ@\x84\xa1B\xdb\\VF\xc0'
p1777
tp1778
bsg1728
S'Cell[1].axon[97]'
p1779
sI85
I111
tp1780
a(F0.36401638498725714
S'Cell[1].apic[154] syn_ = new ExpSid(0.5)'
p1781
I1
(dp1782
g1713
F0.3235294117647059
sg1714
F37.0
sg1715
I85
sg1716
g7
(g8
(I0
tp1783
g10
tp1784
Rp1785
(I1
(I3
tp1786
g1723
I00
S'\xeb\xb9\xb7Q:\xdaR\xc0N\xac~\x05\xd2\xbd[@\x93\xaa#\xc6\xfaaB\xc0'
p1787
tp1788
bsg1728
S'Cell[1].axon[220]'
p1789
sI85
I63
tp1790
a(F2.095704670856759
S'Cell[1].apic[186] syn_ = new ExpSid(0.1)'
p1791
I1
(dp1792
g1713
F0.30000000000000004
sg1714
F37.0
sg1715
I85
sg1716
g7
(g8
(I0
tp1793
g10
tp1794
Rp1795
(I1
(I3
tp1796
g1723
I00
S'\xa2m_zzd+@]\xd5pc\x96&]@\xaet\x8f\xc9\xc2\xde3@'
p1797
tp1798
bsg1728
S'Cell[1].axon[249]'
p1799
sI85
I63
tp1800
a(F1.3477437127465102
S'Cell[2].dend[50] syn_ = new FastInhib(0.166666666667)'
p1801
I2
(dp1802
S'seg'
p1803
F0.16666666666666666
sS'hostfrom'
p1804
F38.0
sS'gid'
p1805
I182
sS'coords'
p1806
g7
(g8
(I0
tp1807
g10
tp1808
Rp1809
(I1
(I3
tp1810
g14
(S'f8'
p1811
I0
I1
tp1812
Rp1813
(I3
S'<'
p1814
NNNI-1
I-1
I0
tp1815
bI00
S'FS\xf0r<>\x1d@\xa0\xb8\xec\x84R\xadF\xc0\xaa\x89+\xb9L\xa5\x06\xc0'
p1816
tp1817
bsS'secnames'
p1818
S'Cell[3].axon[292]'
p1819
sI182
I111
tp1820
a(F0.8536908853946422
S'Cell[2].dend[23] syn_ = new FastInhib(0.833333333333)'
p1821
I2
(dp1822
g1803
F0.16666666666666666
sg1804
F38.0
sg1805
I86
sg1806
g7
(g8
(I0
tp1823
g10
tp1824
Rp1825
(I1
(I3
tp1826
g1813
I00
S'\xc6\x8bm~\xb7\x15T@\x842F\xf9\xafDL\xc0\x94\xd9\xe0\xb9\xa7\xf5J\xc0'
p1827
tp1828
bsg1818
S'Cell[1].axon[24]'
p1829
sI86
I111
tp1830
a(F1.9872539374943123
S'Cell[2].dend[61] syn_ = new FastInhib(0.5)'
p1831
I2
(dp1832
S'seg'
p1833
F0.16666666666666666
sS'hostfrom'
p1834
F39.0
sS'gid'
p1835
I87
sS'coords'
p1836
g7
(g8
(I0
tp1837
g10
tp1838
Rp1839
(I1
(I3
tp1840
g14
(S'f8'
p1841
I0
I1
tp1842
Rp1843
(I3
S'<'
p1844
NNNI-1
I-1
I0
tp1845
bI00
S'A\x07\x04\xf3\x15\xf1G@\xe0rRD\x07\x9aW\xc0\x1d\x15\xd3\x92\xf0\xde0\xc0'
p1846
tp1847
bsS'secnames'
p1848
S'Cell[1].axon[172]'
p1849
sI87
I111
tp1850
a(F2.28383727374816
S'Cell[2].dend[14] syn_ = new FastInhib(0.5)'
p1851
I2
(dp1852
g1833
F0.5
sg1834
F39.0
sg1835
I135
sg1836
g7
(g8
(I0
tp1853
g10
tp1854
Rp1855
(I1
(I3
tp1856
g1843
I00
S'\xa46]\x94k\xccM@\x88uP2KIS@\x8c\xcf<q\xfc\xb1K\xc0'
p1857
tp1858
bsg1848
S'Cell[2].axon[90]'
p1859
sI135
I111
tp1860
a(F2.39662740319747
S'Cell[2].dend[48] syn_ = new FastInhib(0.5)'
p1861
I2
(dp1862
g1833
F0.5
sg1834
F39.0
sg1835
I135
sg1836
g7
(g8
(I0
tp1863
g10
tp1864
Rp1865
(I1
(I3
tp1866
g1843
I00
S'\x85Bo\x8b\xa1\x16A@R\x01\xa18\x18\x9f-\xc0\x82S%\xa3\xac:\x01\xc0'
p1867
tp1868
bsg1848
S'Cell[2].axon[170]'
p1869
sI135
I111
tp1870
a(F1.9659748611286838
S'Cell[2].dend[33] syn_ = new FastInhib(0.5)'
p1871
I2
(dp1872
g1833
F0.5
sg1834
F39.0
sg1835
I183
sg1836
g7
(g8
(I0
tp1873
g10
tp1874
Rp1875
(I1
(I3
tp1876
g1843
I00
S'\x14\x10~$\x91\xba3@mPj\xba\x90\x868@L\x87\xa9\x1c\xb3\xeb<\xc0'
p1877
tp1878
bsg1848
S'Cell[3].axon[31]'
p1879
sI183
I111
tp1880
a(F0.8296709342545396
S'Cell[1].apic[222] syn_ = new ExpSid(0.5)'
p1881
I1
(dp1882
g1833
F0.5
sg1834
F39.0
sg1835
I183
sg1836
g7
(g8
(I0
tp1883
g10
tp1884
Rp1885
(I1
(I3
tp1886
g1843
I00
S'^\xf2\x15\x9b9\xe0Y\xc0\xe4u\x140}\x93B@\xd6N\x18G\xac\x1e5\xc0'
p1887
tp1888
bsg1848
S'Cell[3].axon[183]'
p1889
sI183
I63
tp1890
a(F2.1650138734212963
S'Cell[1].apic[158] syn_ = new ExpSid(0.5)'
p1891
I1
(dp1892
g1833
F0.30000000000000004
sg1834
F39.0
sg1835
I183
sg1836
g7
(g8
(I0
tp1893
g10
tp1894
Rp1895
(I1
(I3
tp1896
g1843
I00
S'\x9c\x96!\xf0\xa6\xe3T\xc0`,p{DmW@}\xa3I\xd0\xf9\x11@\xc0'
p1897
tp1898
bsg1848
S'Cell[3].axon[267]'
p1899
sI183
I63
tp1900
a(F2.250500894044519
S'Cell[1].dend[42] syn_ = new AmpaNmda(0.5)'
p1901
I1
(dp1902
S'seg'
p1903
F0.16666666666666666
sS'hostfrom'
p1904
F40.0
sS'gid'
p1905
I88
sS'coords'
p1906
g7
(g8
(I0
tp1907
g10
tp1908
Rp1909
(I1
(I3
tp1910
g14
(S'f8'
p1911
I0
I1
tp1912
Rp1913
(I3
S'<'
p1914
NNNI-1
I-1
I0
tp1915
bI00
S'*QT2`\x17V\xc0j8\xd7\xa84\xb2\xfd?h\xef\xa5\x0be*D\xc0'
p1916
tp1917
bsS'secnames'
p1918
S'Cell[1].axon[18]'
p1919
sI88
I63
tp1920
a(F1.8125762645778485
S'Cell[1].dend[43] syn_ = new AmpaNmda(0.5)'
p1921
I1
g1902
I88
I63
tp1922
a(F1.7123551142513869
S'Cell[1].dend[44] syn_ = new AmpaNmda(0.5)'
p1923
I1
g1902
I88
I63
tp1924
a(F2.117152484087896
S'Cell[3].apic[3] syn_ = new FastInhib(0.833333333333)'
p1925
I3
(dp1926
g1903
F0.5
sg1904
F40.0
sg1905
I88
sg1906
g7
(g8
(I0
tp1927
g10
tp1928
Rp1929
(I1
(I3
tp1930
g1913
I00
S'N\x87%\xf3\x15qY\xc0:\xeb\xd4y\xf5\x83e\xc0<\xff&\xf3\xec\xb6@\xc0'
p1931
tp1932
bsg1918
S'Cell[1].axon[39]'
p1933
sI88
I159
tp1934
a(F1.9136717222678417
S'Cell[2].dend[8] syn_ = new FastInhib(0.5)'
p1935
I2
(dp1936
g1903
F0.5
sg1904
F40.0
sg1905
I88
sg1906
g7
(g8
(I0
tp1937
g10
tp1938
Rp1939
(I1
(I3
tp1940
g1913
I00
S'\xb4\xbe\xe8`\xc3:H@\xdc\x87\xa6\xf5\x99Q5@\xfc)\xba\x90\xfb\xb80\xc0'
p1941
tp1942
bsg1918
S'Cell[1].axon[176]'
p1943
sI88
I111
tp1944
a(F1.1106462537380453
S'Cell[1].dend[81] syn_ = new AmpaNmda(0.5)'
p1945
I1
(dp1946
g1903
F0.5
sg1904
F40.0
sg1905
I88
sg1906
g7
(g8
(I0
tp1947
g10
tp1948
Rp1949
(I1
(I3
tp1950
g1913
I00
S'>r\xaa\x92>\xb5B@j\x8e\xc5\x06\xba\xeb0@V4|cK\xf76\xc0'
p1951
tp1952
bsg1918
S'Cell[1].axon[344]'
p1953
sI88
I63
tp1954
a(F1.2077113395934693
S'Cell[1].dend[82] syn_ = new AmpaNmda(0.5)'
p1955
I1
g1946
I88
I63
tp1956
a(F0.1588276167955879
S'Cell[1].dend[83] syn_ = new AmpaNmda(0.5)'
p1957
I1
g1946
I88
I63
tp1958
a(F1.4770963381472912
S'Cell[1].dend[84] syn_ = new AmpaNmda(0.5)'
p1959
I1
g1946
I88
I63
tp1960
a(F0.4368145255913737
S'Cell[1].dend[85] syn_ = new AmpaNmda(0.5)'
p1961
I1
g1946
I88
I63
tp1962
a(F1.4455471457861497
S'Cell[1].dend[86] syn_ = new AmpaNmda(0.5)'
p1963
I1
g1946
I88
I63
tp1964
a(F2.4949147766784887
S'Cell[1].dend[87] syn_ = new AmpaNmda(0.166666666667)'
p1965
I1
g1946
I88
I63
tp1966
a(F1.9766956371382836
S'Cell[2].dend[27] syn_ = new FastInhib(0.1)'
p1967
I2
(dp1968
g1903
F0.16666666666666666
sg1904
F40.0
sg1905
I88
sg1906
g7
(g8
(I0
tp1969
g10
tp1970
Rp1971
(I1
(I3
tp1972
g1913
I00
S'\xe9\xe9\x19\xd2y\xa8T@.I\x0b\xce!Q(@1\x94\x95/HA9\xc0'
p1973
tp1974
bsg1918
S'Cell[1].axon[383]'
p1975
sI88
I111
tp1976
a(F0.1793485313153357
S'Cell[0].dend[19] syn_ = new AmpaNmda(0.5)'
p1977
I0
(dp1978
g1903
F0.5
sg1904
F40.0
sg1905
I184
sg1906
g7
(g8
(I0
tp1979
g10
tp1980
Rp1981
(I1
(I3
tp1982
g1913
I00
S'\xee\x1a\rh-l\xea?\n\x91\\\xaeV\xce\t@\x00\x00\x00\xc0\x1e\x85\x03\xc0'
p1983
tp1984
bsg1918
S'Cell[3].axon[62]'
p1985
sI184
I15
tp1986
a(F1.4010123797931777
S'Cell[1].apic[183] syn_ = new AmpaNmda(0.166666666667)'
p1987
I1
(dp1988
g1903
F0.5
sg1904
F40.0
sg1905
I184
sg1906
g7
(g8
(I0
tp1989
g10
tp1990
Rp1991
(I1
(I3
tp1992
g1913
I00
S'y\x84CU6Q\xe0?={\x7f,\x90\xbc[@\x1f\xfa|@\xa6\x1f2@'
p1993
tp1994
bsg1918
S'Cell[3].axon[72]'
p1995
sI184
I63
tp1996
a(F0.9125281252488052
S'Cell[1].apic[228] syn_ = new ExpSid(0.5)'
p1997
I1
(dp1998
S'seg'
p1999
F0.8999999999999999
sS'hostfrom'
p2000
F41.0
sS'gid'
p2001
I89
sS'coords'
p2002
g7
(g8
(I0
tp2003
g10
tp2004
Rp2005
(I1
(I3
tp2006
g14
(S'f8'
p2007
I0
I1
tp2008
Rp2009
(I3
S'<'
p2010
NNNI-1
I-1
I0
tp2011
bI00
S'E\xa4\xa6W\x83\x07d\xc0O\x1eWM\xab\xdf\x1c@H\xc8M\xf0\xf1\xceA\xc0'
p2012
tp2013
bsS'secnames'
p2014
S'Cell[1].axon[14]'
p2015
sI89
I63
tp2016
a(F2.1325238843207126
S'Cell[1].apic[187] syn_ = new ExpSid(0.5)'
p2017
I1
(dp2018
g1999
F0.16666666666666666
sg2000
F41.0
sg2001
I89
sg2002
g7
(g8
(I0
tp2019
g10
tp2020
Rp2021
(I1
(I3
tp2022
g2009
I00
S'\xff\xa8\xc4\x0es!S\xc0\xcc\x891\xc7\xf8\x08N@#\x95p?\xf0\xc3\x1f@'
p2023
tp2024
bsg2014
S'Cell[1].axon[108]'
p2025
sI89
I63
tp2026
a(F2.211639521330041
S'Cell[1].dend[35] syn_ = new ExpSid(0.5)'
p2027
I1
(dp2028
g1999
F0.21428571428571427
sg2000
F41.0
sg2001
I89
sg2002
g7
(g8
(I0
tp2029
g10
tp2030
Rp2031
(I1
(I3
tp2032
g2009
I00
S'\xf5DB+~\x96S\xc0\x1cO3N%\xaa/\xc0\x0bb\x8c\xca\xcb\x9dD\xc0'
p2033
tp2034
bsg2014
S'Cell[1].axon[152]'
p2035
sI89
I63
tp2036
a(F1.6781605675117777
S'Cell[2].dend[38] syn_ = new FastInhib(0.166666666667)'
p2037
I2
(dp2038
g1999
F0.05555555555555555
sg2000
F41.0
sg2001
I89
sg2002
g7
(g8
(I0
tp2039
g10
tp2040
Rp2041
(I1
(I3
tp2042
g2009
I00
S'f\xf9SK\xe6@>@\xdf\xa5\xeaj3\xf3%\xc0\xeb\xf7\x16\x85C`2\xc0'
p2043
tp2044
bsg2014
S'Cell[1].axon[186]'
p2045
sI89
I111
tp2046
a(F2.4518487748021887
S'Cell[2].dend[5] syn_ = new FastInhib(0.5)'
p2047
I2
(dp2048
g1999
F0.5
sg2000
F41.0
sg2001
I89
sg2002
g7
(g8
(I0
tp2049
g10
tp2050
Rp2051
(I1
(I3
tp2052
g2009
I00
S'~\x04\xdd;\xa4\x9aB@L\xb8\x9b\xc61DI@\xd2/\xc5"-\xe4\xc9?'
p2053
tp2054
bsg2014
S'Cell[1].axon[192]'
p2055
sI89
I111
tp2056
a(F1.4108912356094216
S'Cell[0].dend[3] syn_ = new AmpaNmda(0.833333333333)'
p2057
I0
(dp2058
S'seg'
p2059
F0.21428571428571427
sS'hostfrom'
p2060
F42.0
sS'gid'
p2061
I90
sS'coords'
p2062
g7
(g8
(I0
tp2063
g10
tp2064
Rp2065
(I1
(I3
tp2066
g14
(S'f8'
p2067
I0
I1
tp2068
Rp2069
(I3
S'<'
p2070
NNNI-1
I-1
I0
tp2071
bI00
S"Z(7\xab\x9cFI\xc08G8\xe4\xc8\x8c'@`\x7f\xfc\x9f?\x86>@"
p2072
tp2073
bsS'secnames'
p2074
S'Cell[1].axon[146]'
p2075
sI90
I15
tp2076
a(F2.016675936790093
S'Cell[0].dend[12] syn_ = new AmpaNmda(0.5)'
p2077
I0
(dp2078
g2059
F0.03333333333333333
sg2060
F42.0
sg2061
I90
sg2062
g7
(g8
(I0
tp2079
g10
tp2080
Rp2081
(I1
(I3
tp2082
g2069
I00
S"|wVi}*\xf9?<\xfa\x92\xdat\x17;@\xdcR\xbf'i\xe0M@"
p2083
tp2084
bsg2074
S'Cell[1].axon[226]'
p2085
sI90
I15
tp2086
a(F2.314321565942878
S'Cell[3].dend[15] syn_ = new FastInhib(0.9)'
p2087
I3
(dp2088
g2059
F0.16666666666666666
sg2060
F42.0
sg2061
I138
sg2062
g7
(g8
(I0
tp2089
g10
tp2090
Rp2091
(I1
(I3
tp2092
g2069
I00
S'\xbb:\x84\xb4\x1c\xfcW@/Y\xa2\xeb\xa3\xe3X@\xff\x02\xc0\x0e\xd1\xc8:@'
p2093
tp2094
bsg2074
S'Cell[2].axon[37]'
p2095
sI138
I159
tp2096
a(F1.8659660758692416
S'Cell[1].apic[193] syn_ = new AmpaNmda(0.5)'
p2097
I1
(dp2098
g2059
F0.3571428571428571
sg2060
F42.0
sg2061
I138
sg2062
g7
(g8
(I0
tp2099
g10
tp2100
Rp2101
(I1
(I3
tp2102
g2069
I00
S't\xa2,s\t2a\xc0\r\xde\x14\\z\xa6T@\x98\xd62\x88\x85\xae&@'
p2103
tp2104
bsg2074
S'Cell[2].axon[110]'
p2105
sI138
I63
tp2106
a(F1.2770756436238677
S'Cell[0].apic[60] syn_ = new AmpaNmda(0.357142857143)'
p2107
I0
(dp2108
g2059
F0.5
sg2060
F42.0
sg2061
I138
sg2062
g7
(g8
(I0
tp2109
g10
tp2110
Rp2111
(I1
(I3
tp2112
g2069
I00
S'\x00\x00\x00pf\xc65@\x00\x00\x00\x90\xeb\xa7w@\x00\x00\x00\xa0Ga\x17@'
p2113
tp2114
bsg2074
S'Cell[2].axon[255]'
p2115
sI138
I15
tp2116
a(F2.3994588780715067
S'Cell[1].apic[223] syn_ = new AmpaNmda(0.166666666667)'
p2117
I1
(dp2118
g2059
F0.30000000000000004
sg2060
F42.0
sg2061
I186
sg2062
g7
(g8
(I0
tp2119
g10
tp2120
Rp2121
(I1
(I3
tp2122
g2069
I00
S',\xc3iP\xb3\x9b`\xc0\xaf\\PnA>6@[=F{\xda#+\xc0'
p2123
tp2124
bsg2074
S'Cell[3].axon[52]'
p2125
sI186
I63
tp2126
a(F2.400858620542201
S'Cell[3].apic[1] syn_ = new FastInhib(0.214285714286)'
p2127
I3
(dp2128
S'seg'
p2129
F0.5
sS'hostfrom'
p2130
F43.0
sS'gid'
p2131
I139
sS'coords'
p2132
g7
(g8
(I0
tp2133
g10
tp2134
Rp2135
(I1
(I3
tp2136
g14
(S'f8'
p2137
I0
I1
tp2138
Rp2139
(I3
S'<'
p2140
NNNI-1
I-1
I0
tp2141
bI00
S'\x00\x00\x00\x80\x14.\x18\xc0\x00\x00\x00\xa0p\xddG\xc0\x00\x00\x00\xac\x1e\x85\xfb?'
p2142
tp2143
bsS'secnames'
p2144
S'Cell[2].axon[408]'
p2145
sI139
I159
tp2146
a(F1.9082904231243405
S'Cell[2].dend[41] syn_ = new FastInhib(0.5)'
p2147
I2
(dp2148
g2129
F0.5
sg2130
F43.0
sg2131
I187
sg2132
g7
(g8
(I0
tp2149
g10
tp2150
Rp2151
(I1
(I3
tp2152
g2139
I00
S' ui\xa1\xc3\xab8@\x935\xbb\x1f\xf2\xbc\x18\xc0\xde\x0eV\x0f\xc8\xf4*\xc0'
p2153
tp2154
bsg2144
S'Cell[3].axon[0]'
p2155
sI187
I111
tp2156
a(F2.1720469294029554
S'Cell[1].apic[165] syn_ = new AmpaNmda(0.5)'
p2157
I1
(dp2158
S'seg'
p2159
F0.8333333333333333
sS'hostfrom'
p2160
F44.0
sS'gid'
p2161
I188
sS'coords'
p2162
g7
(g8
(I0
tp2163
g10
tp2164
Rp2165
(I1
(I3
tp2166
g14
(S'f8'
p2167
I0
I1
tp2168
Rp2169
(I3
S'<'
p2170
NNNI-1
I-1
I0
tp2171
bI00
S'\xd3\xe88\x14\x00\x05E\xc0\x04T\xd5O|\xe1P@\x02\xbf \xab\x16\xeb/\xc0'
p2172
tp2173
bsS'secnames'
p2174
S'Cell[3].axon[90]'
p2175
sI188
I63
tp2176
a(F2.3072636379502094
S'Cell[1].dend[66] syn_ = new ExpSid(0.5)'
p2177
I1
(dp2178
S'seg'
p2179
F0.8333333333333333
sS'hostfrom'
p2180
F45.0
sS'gid'
p2181
I141
sS'coords'
p2182
g7
(g8
(I0
tp2183
g10
tp2184
Rp2185
(I1
(I3
tp2186
g14
(S'f8'
p2187
I0
I1
tp2188
Rp2189
(I3
S'<'
p2190
NNNI-1
I-1
I0
tp2191
bI00
S',\x025\xf6\x87t2@\x9a\xc7\x19\xe4\x02\x8eP\xc0b\x16\xf2\xfa\xfc\xbbB\xc0'
p2192
tp2193
bsS'secnames'
p2194
S'Cell[2].axon[42]'
p2195
sI141
I63
tp2196
a(F1.9901821061570473
S'Cell[2].dend[20] syn_ = new FastInhib(0.5)'
p2197
I2
(dp2198
g2179
F0.5
sg2180
F45.0
sg2181
I141
sg2182
g7
(g8
(I0
tp2199
g10
tp2200
Rp2201
(I1
(I3
tp2202
g2189
I00
S'*\xe4\x00\xb3\xa7\x8bQ@k\x11Nv\xaf\xca\x0c@\x1f\x85&\x91\xfc\x18;\xc0'
p2203
tp2204
bsg2194
S'Cell[2].axon[82]'
p2205
sI141
I111
tp2206
a(F1.2345470567137675
S'Cell[0].dend[33] syn_ = new ExpSid(0.5)'
p2207
I0
(dp2208
g2179
F0.5
sg2180
F45.0
sg2181
I141
sg2182
g7
(g8
(I0
tp2209
g10
tp2210
Rp2211
(I1
(I3
tp2212
g2189
I00
S'\xf0\xdbF\xd1`\x8d9\xc0J\xd9(\xc8Rn6\xc0F>\x04\xa0U\xef\x12\xc0'
p2213
tp2214
bsg2194
S'Cell[2].axon[143]'
p2215
sI141
I15
tp2216
a(F2.1126363500335463
S'Cell[2].dend[19] syn_ = new FastInhib(0.5)'
p2217
I2
(dp2218
g2179
F0.16666666666666666
sg2180
F45.0
sg2181
I141
sg2182
g7
(g8
(I0
tp2219
g10
tp2220
Rp2221
(I1
(I3
tp2222
g2189
I00
S'U!\xf3\xa4\xb5*L@\xef\x91HK-}1@\n\x02\x90<\x9cQ-\xc0'
p2223
tp2224
bsg2194
S'Cell[2].axon[263]'
p2225
sI141
I111
tp2226
a(F0.7119482925401065
S'Cell[3].dend[39] syn_ = new FastInhib(0.166666666667)'
p2227
I3
(dp2228
g2179
F0.30000000000000004
sg2180
F45.0
sg2181
I189
sg2182
g7
(g8
(I0
tp2229
g10
tp2230
Rp2231
(I1
(I3
tp2232
g2189
I00
S'\x9e\x98?\xd0j\r*@ \xda\xed?\xa3\xdd5@\xca\xa1LTM\x80\x12@'
p2233
tp2234
bsg2194
S'Cell[3].axon[1]'
p2235
sI189
I159
tp2236
a(F1.646627408805221
S'Cell[1].dend[76] syn_ = new ExpSid(0.5)'
p2237
I1
(dp2238
g2179
F0.8999999999999999
sg2180
F45.0
sg2181
I189
sg2182
g7
(g8
(I0
tp2239
g10
tp2240
Rp2241
(I1
(I3
tp2242
g2189
I00
S'cn\xb3\x17\xfd%E@l\x05\x0f6\x17\x822@\x9c\xc9\x90\x1d\xfe\xc59\xc0'
p2243
tp2244
bsg2194
S'Cell[3].axon[1]'
p2245
sI189
I63
tp2246
a(F2.0100423704511488
S'Cell[3].dend[2] syn_ = new FastInhib(0.166666666667)'
p2247
I3
(dp2248
g2179
F0.5
sg2180
F45.0
sg2181
I189
sg2182
g7
(g8
(I0
tp2249
g10
tp2250
Rp2251
(I1
(I3
tp2252
g2189
I00
S'\xad \xa1\x0fz3?@\xd8\xab+\x7f\xb9\x83C@\xf3\x8c\xe9\xdc\xd8`0\xc0'
p2253
tp2254
bsg2194
S'Cell[3].axon[43]'
p2255
sI189
I159
tp2256
a(F1.4155189723133557
S'Cell[3].dend[4] syn_ = new FastInhib(0.5)'
p2257
I3
(dp2258
g2179
F0.5
sg2180
F45.0
sg2181
I189
sg2182
g7
(g8
(I0
tp2259
g10
tp2260
Rp2261
(I1
(I3
tp2262
g2189
I00
S'\x90k9\xe3\xbcLC@]:\xdf\xcethE@\x00\x00\x00\xe0\xa3p(\xc0'
p2263
tp2264
bsg2194
S'Cell[3].axon[47]'
p2265
sI189
I159
tp2266
a(F1.7086987176631043
S'Cell[1].dend[100] syn_ = new ExpSid(0.5)'
p2267
I1
(dp2268
g2179
F0.16666666666666666
sg2180
F45.0
sg2181
I189
sg2182
g7
(g8
(I0
tp2269
g10
tp2270
Rp2271
(I1
(I3
tp2272
g2189
I00
S'a\xb5\xb70\x0f\xa1F@\x1a\xcf\x92r\x1csF@\xfa\xf7\xf0\x94>\r\x1a\xc0'
p2273
tp2274
bsg2194
S'Cell[3].axon[49]'
p2275
sI189
I63
tp2276
a(F2.0627378242387113
S'Cell[2].dend[7] syn_ = new FastInhib(0.5)'
p2277
I2
(dp2278
g2179
F0.5
sg2180
F45.0
sg2181
I189
sg2182
g7
(g8
(I0
tp2279
g10
tp2280
Rp2281
(I1
(I3
tp2282
g2189
I00
S'\x8f\xa3\xc1 G\x97E@>WYf\x7f\xac.@\x07+\xcf\xe4\xc1\xb7!\xc0'
p2283
tp2284
bsg2194
S'Cell[3].axon[83]'
p2285
sI189
I111
tp2286
a(F2.3334411457211996
S'Cell[1].dend[93] syn_ = new ExpSid(0.5)'
p2287
I1
(dp2288
g2179
F0.1
sg2180
F45.0
sg2181
I93
sg2182
g7
(g8
(I0
tp2289
g10
tp2290
Rp2291
(I1
(I3
tp2292
g2189
I00
S'\x12V\xa1Q\x94 D\xc0+\xf2\t\xe0\x0el7@n|\t\xb3\xb3\x00\x18@'
p2293
tp2294
bsg2194
S'Cell[1].axon[152]'
p2295
sI93
I63
tp2296
a(F1.997980088899959
S'Cell[1].dend[89] syn_ = new AmpaNmda(0.833333333333)'
p2297
I1
(dp2298
S'seg'
p2299
F0.16666666666666666
sS'hostfrom'
p2300
F46.0
sS'gid'
p2301
I94
sS'coords'
p2302
g7
(g8
(I0
tp2303
g10
tp2304
Rp2305
(I1
(I3
tp2306
g14
(S'f8'
p2307
I0
I1
tp2308
Rp2309
(I3
S'<'
p2310
NNNI-1
I-1
I0
tp2311
bI00
S'\x8dI\x1c;\xa1\x03\xfd\xbf?i|\xe3.\xf4\x14\xc0\x00\x00\x00@3s8\xc0'
p2312
tp2313
bsS'secnames'
p2314
S'Cell[1].axon[227]'
p2315
sI94
I63
tp2316
a(F1.89268542161796
S'Cell[1].dend[50] syn_ = new AmpaNmda(0.0555555555556)'
p2317
I1
(dp2318
g2299
F0.5
sg2300
F46.0
sg2301
I94
sg2302
g7
(g8
(I0
tp2319
g10
tp2320
Rp2321
(I1
(I3
tp2322
g2309
I00
S'G\x84\xce\xaa\xdf7I\xc0\xb2n\xd3\x08\x7f\xfa\x1c\xc0\x00\x00\x00@\xe1z\x06@'
p2323
tp2324
bsg2314
S'Cell[1].axon[308]'
p2325
sI94
I63
tp2326
a(F2.2250021521011996
S'Cell[2].dend[12] syn_ = new FastInhib(0.5)'
p2327
I2
(dp2328
S'seg'
p2329
F0.5
sS'hostfrom'
p2330
F47.0
sS'gid'
p2331
I95
sS'coords'
p2332
g7
(g8
(I0
tp2333
g10
tp2334
Rp2335
(I1
(I3
tp2336
g14
(S'f8'
p2337
I0
I1
tp2338
Rp2339
(I3
S'<'
p2340
NNNI-1
I-1
I0
tp2341
bI00
S'\x00\x00\x00\xd0\xa3`K@\x00\x00\x00`f\xf6I@\x00\x00\x00@\xb8~?\xc0'
p2342
tp2343
bsS'secnames'
p2344
S'Cell[1].axon[3]'
p2345
sI95
I111
tp2346
a(F2.2405088404251474
S'Cell[1].dend[26] syn_ = new ExpSid(0.5)'
p2347
I1
(dp2348
g2329
F0.8333333333333333
sg2330
F47.0
sg2331
I143
sg2332
g7
(g8
(I0
tp2349
g10
tp2350
Rp2351
(I1
(I3
tp2352
g2339
I00
S'N\r\x8b%\xa4\xdeP\xc0\x83\xee\x13\xe1\xe3\x83\xd6?\xf9\xe1\xf7\xfd\xd0\xdcB\xc0'
p2353
tp2354
bsg2344
S'Cell[2].axon[7]'
p2355
sI143
I63
tp2356
a(F1.8651499415434245
S'Cell[1].apic[153] syn_ = new ExpSid(0.5)'
p2357
I1
(dp2358
g2329
F0.8333333333333333
sg2330
F47.0
sg2331
I143
sg2332
g7
(g8
(I0
tp2359
g10
tp2360
Rp2361
(I1
(I3
tp2362
g2339
I00
S':\xf4\xf3S\xa7\xc9R\xc06\xaer^)\x1eZ@\xc2\x1d\x1d\xcc\x06\x95@\xc0'
p2363
tp2364
bsg2344
S'Cell[2].axon[14]'
p2365
sI143
I63
tp2366
a(F1.366990558088085
S'Cell[1].apic[206] syn_ = new ExpSid(0.833333333333)'
p2367
I1
(dp2368
g2329
F0.05555555555555555
sg2330
F47.0
sg2331
I143
sg2332
g7
(g8
(I0
tp2369
g10
tp2370
Rp2371
(I1
(I3
tp2372
g2339
I00
S'\x00[\n\xaf\xc0\ra\xc0,-\xfc\xab\x19\x97T@o:J\xda1\xec1\xc0'
p2373
tp2374
bsg2344
S'Cell[2].axon[73]'
p2375
sI143
I63
tp2376
a(F1.773690731491222
S'Cell[0].dend[8] syn_ = new ExpSid(0.833333333333)'
p2377
I0
(dp2378
g2329
F0.5
sg2330
F47.0
sg2331
I143
sg2332
g7
(g8
(I0
tp2379
g10
tp2380
Rp2381
(I1
(I3
tp2382
g2339
I00
S'\xa0\n9\xfa[\xeb9\xc0\x10\xb1xb\xec`2\xc0\x00\x00\x00\xa0Ga"@'
p2383
tp2384
bsg2344
S'Cell[2].axon[104]'
p2385
sI143
I15
tp2386
a.