(lp0
(F1.925639439052267
S'Cell[2].dend[6] syn_ = new FastInhib(0.833333333333)'
p1
I2
(dp2
S'seg'
p3
F0.16666666666666666
sS'hostfrom'
p4
F2.0
sS'gid'
p5
I98
sS'coords'
p6
cnumpy.core.multiarray
_reconstruct
p7
(cnumpy
ndarray
p8
(I0
tp9
S'b'
p10
tp11
Rp12
(I1
(I3
tp13
cnumpy
dtype
p14
(S'f8'
p15
I0
I1
tp16
Rp17
(I3
S'<'
p18
NNNI-1
I-1
I0
tp19
bI00
S'\x00\x00\x00\xe0z\x94?@\xe6\xfa0a\xe7{:@\xf9:\xdd\xdc/?!@'
p20
tp21
bsS'secnames'
p22
S'Cell[2].axon[9]'
p23
sI98
I106
tp24
a(F1.3279708881516463
S'Cell[3].dend[17] syn_ = new FastInhib(0.5)'
p25
I3
(dp26
g3
F0.16666666666666666
sg4
F2.0
sg5
I98
sg6
g7
(g8
(I0
tp27
g10
tp28
Rp29
(I1
(I3
tp30
g17
I00
S"}\xceh\xc3*oP@bR\x80'\xf4\xffK@\xb0\x8be.u\xdf\x16\xc0"
p31
tp32
bsg22
S'Cell[2].axon[186]'
p33
sI98
I154
tp34
a(F2.006625264408055
S'Cell[1].dend[0] syn_ = new AmpaNmda(0.5)'
p35
I1
(dp36
g3
F0.5
sg4
F2.0
sg5
I98
sg6
g7
(g8
(I0
tp37
g10
tp38
Rp39
(I1
(I3
tp40
g17
I00
S"Q\xfe\x03@\x01\xc0\x06@'}\xffC(\xeeN@>%\xb9\xa5D\xa62\xc0"
p41
tp42
bsg22
S'Cell[2].axon[406]'
p43
sI98
I58
tp44
a(F1.925639439052267
S'Cell[2].dend[6] syn_ = new FastInhib(0.833333333333)'
p45
I2
(dp46
S'seg'
p47
F0.16666666666666666
sS'hostfrom'
p48
F3.0
sS'gid'
p49
I99
sS'coords'
p50
g7
(g8
(I0
tp51
g10
tp52
Rp53
(I1
(I3
tp54
g14
(S'f8'
p55
I0
I1
tp56
Rp57
(I3
S'<'
p58
NNNI-1
I-1
I0
tp59
bI00
S'\x00\x00\x00\xe0z\x94?@\xe6\xfa0a\xe7{:@\xf9:\xdd\xdc/?!@'
p60
tp61
bsS'secnames'
p62
S'Cell[2].axon[9]'
p63
sI99
I106
tp64
a(F1.3279708881516463
S'Cell[3].dend[17] syn_ = new FastInhib(0.5)'
p65
I3
(dp66
g47
F0.16666666666666666
sg48
F3.0
sg49
I99
sg50
g7
(g8
(I0
tp67
g10
tp68
Rp69
(I1
(I3
tp70
g57
I00
S"}\xceh\xc3*oP@bR\x80'\xf4\xffK@\xb0\x8be.u\xdf\x16\xc0"
p71
tp72
bsg62
S'Cell[2].axon[186]'
p73
sI99
I154
tp74
a(F2.006625264408055
S'Cell[1].dend[0] syn_ = new ExpSid(0.5)'
p75
I1
(dp76
g47
F0.5
sg48
F3.0
sg49
I99
sg50
g7
(g8
(I0
tp77
g10
tp78
Rp79
(I1
(I3
tp80
g57
I00
S"Q\xfe\x03@\x01\xc0\x06@'}\xffC(\xeeN@>%\xb9\xa5D\xa62\xc0"
p81
tp82
bsg62
S'Cell[2].axon[406]'
p83
sI99
I58
tp84
a(F2.000385887745793
S'Cell[2].dend[8] syn_ = new FastInhib(0.166666666667)'
p85
I2
(dp86
g47
F0.07142857142857142
sg48
F3.0
sg49
I147
sg50
g7
(g8
(I0
tp87
g10
tp88
Rp89
(I1
(I3
tp90
g57
I00
S'\xa1\xdd\x0e\xf9\xe6\xdc,@d\xae\x19\xf9\xc5\xc53@\xe8\xa4&\xbf\x14p\xfe?'
p91
tp92
bsg62
S'Cell[3].axon[3]'
p93
sI147
I106
tp94
a(F2.441561794606859
S'Cell[0].dend[27] syn_ = new AmpaNmda(0.5)'
p95
I0
(dp96
S'seg'
p97
F0.16666666666666666
sS'hostfrom'
p98
F4.0
sS'gid'
p99
I148
sS'coords'
p100
g7
(g8
(I0
tp101
g10
tp102
Rp103
(I1
(I3
tp104
g14
(S'f8'
p105
I0
I1
tp106
Rp107
(I3
S'<'
p108
NNNI-1
I-1
I0
tp109
bI00
S'\x11\xf7\\.5oK@\xa2\xa1\x81\xf2\x99{(\xc0\x00\x00\x00 \xaeG\x14\xc0'
p110
tp111
bsS'secnames'
p112
S'Cell[3].axon[193]'
p113
sI148
I10
tp114
a(F1.2834585844329887
S'Cell[1].dend[42] syn_ = new AmpaNmda(0.5)'
p115
I1
(dp116
S'seg'
p117
F0.5
sS'hostfrom'
p118
F6.0
sS'gid'
p119
I150
sS'coords'
p120
g7
(g8
(I0
tp121
g10
tp122
Rp123
(I1
(I3
tp124
g14
(S'f8'
p125
I0
I1
tp126
Rp127
(I3
S'<'
p128
NNNI-1
I-1
I0
tp129
bI00
S'\xc4\xfc\x02)6\xc72@bPl\xcf\xd7\x9dO@\x00\x00\x00\x80\x14\xee>\xc0'
p130
tp131
bsS'secnames'
p132
S'Cell[3].axon[85]'
p133
sI150
I58
tp134
a(F2.1295335217369367
S'Cell[2].dend[2] syn_ = new FastInhib(0.833333333333)'
p135
I2
(dp136
g117
F0.5
sg118
F6.0
sg119
I150
sg120
g7
(g8
(I0
tp137
g10
tp138
Rp139
(I1
(I3
tp140
g127
I00
S'\x14\xa8\x95\x1d\xe5\x86T@\xc8\xe6P\xb3^\x05/\xc0\x00\x00\x00\x80\x14\xee>\xc0'
p141
tp142
bsg132
S'Cell[3].axon[91]'
p143
sI150
I106
tp144
a(F2.4330356074971866
S'Cell[1].dend[67] syn_ = new ExpSid(0.166666666667)'
p145
I1
(dp146
S'seg'
p147
F0.5
sS'hostfrom'
p148
F7.0
sS'gid'
p149
I103
sS'coords'
p150
g7
(g8
(I0
tp151
g10
tp152
Rp153
(I1
(I3
tp154
g14
(S'f8'
p155
I0
I1
tp156
Rp157
(I3
S'<'
p158
NNNI-1
I-1
I0
tp159
bI00
S'T\x92!\x92\x1fXC@b\x9e\xf6\x91\t+C@\xc4\xac-h\xee\xa2/@'
p160
tp161
bsS'secnames'
p162
S'Cell[2].axon[299]'
p163
sI103
I58
tp164
a(F2.0968239139274627
S'Cell[2].dend[3] syn_ = new FastInhib(0.833333333333)'
p165
I2
(dp166
g147
F0.5
sg148
F7.0
sg149
I103
sg150
g7
(g8
(I0
tp167
g10
tp168
Rp169
(I1
(I3
tp170
g157
I00
S'\xb3\x7fP{\xf0\xf2Q@\x8a\x9b\xe3\xad\xc6\xc5\n@\xd2\x88\xd3\xbb(\xdd\r\xc0'
p171
tp172
bsg162
S'Cell[2].axon[350]'
p173
sI103
I106
tp174
a(F2.1930646010989965
S'Cell[3].dend[11] syn_ = new FastInhib(0.5)'
p175
I3
(dp176
g147
F0.5
sg148
F7.0
sg149
I103
sg150
g7
(g8
(I0
tp177
g10
tp178
Rp179
(I1
(I3
tp180
g157
I00
S'\x15rU\xf8I\xe0X@\x99\x9962\xe0\xac1\xc0 \xbcs\xbfvl$\xc0'
p181
tp182
bsg162
S'Cell[2].axon[353]'
p183
sI103
I154
tp184
a(F2.1744180357293468
S'Cell[1].apic[24] syn_ = new AmpaNmda(0.5)'
p185
I1
(dp186
S'seg'
p187
F0.8333333333333333
sS'hostfrom'
p188
F8.0
sS'gid'
p189
I152
sS'coords'
p190
g7
(g8
(I0
tp191
g10
tp192
Rp193
(I1
(I3
tp194
g14
(S'f8'
p195
I0
I1
tp196
Rp197
(I3
S'<'
p198
NNNI-1
I-1
I0
tp199
bI00
S'R1\xb81\xd7\\2@\x1a*`\x94\xef\x80e@,\xc0\x9c/3(*@'
p200
tp201
bsS'secnames'
p202
S'Cell[3].axon[378]'
p203
sI152
I58
tp204
a(F1.9791380348678722
S'Cell[2].dend[5] syn_ = new FastInhib(0.5)'
p205
I2
(dp206
g187
F0.7
sg188
F8.0
sg189
I152
sg190
g7
(g8
(I0
tp207
g10
tp208
Rp209
(I1
(I3
tp210
g197
I00
S'V\xc9\xe9vx\x07:@R\xb0\xc8\xc5\xff\xa83\xc0\x08\x85\x8a@\xe9\x00\x1f\xc0'
p211
tp212
bsg202
S'Cell[3].axon[523]'
p213
sI152
I106
tp214
a(F2.454617344243529
S'Cell[1].dend[34] syn_ = new AmpaNmda(0.5)'
p215
I1
(dp216
g187
F0.8333333333333333
sg188
F8.0
sg189
I152
sg190
g7
(g8
(I0
tp217
g10
tp218
Rp219
(I1
(I3
tp220
g197
I00
S'e\xbb\xb3\x91\xb1\x99F\xc0\x02|%\\4\xc2Q@d\xb4B\xa9\x19_$\xc0'
p221
tp222
bsg202
S'Cell[3].axon[559]'
p223
sI152
I58
tp224
a(F2.185015838780232
S'Cell[1].apic[17] syn_ = new AmpaNmda(0.3)'
p225
I1
(dp226
g187
F0.8333333333333333
sg188
F8.0
sg189
I104
sg190
g7
(g8
(I0
tp227
g10
tp228
Rp229
(I1
(I3
tp230
g197
I00
S'=\x1d\xecwx\x1e(@I\xe8RR\xcb\xdb^@#\xb2F\x96&\xbc3\xc0'
p231
tp232
bsg202
S'Cell[2].axon[144]'
p233
sI104
I58
tp234
a(F2.06490930136713
S'Cell[3].dend[15] syn_ = new FastInhib(0.5)'
p235
I3
(dp236
g187
F0.5
sg188
F8.0
sg189
I104
sg190
g7
(g8
(I0
tp237
g10
tp238
Rp239
(I1
(I3
tp240
g197
I00
S'\x00\x00\x00\x00\x00\xf0Z@\x00\x00\x00\x10\xd7\xa3>\xc0\x00\x00\x00\xf8\xff\xbf)\xc0'
p241
tp242
bsg202
S'Cell[2].axon[326]'
p243
sI104
I154
tp244
a(F0.9484101220875796
S'Cell[1].dend[52] syn_ = new AmpaNmda(0.1)'
p245
I1
(dp246
g187
F0.5
sg188
F8.0
sg189
I104
sg190
g7
(g8
(I0
tp247
g10
tp248
Rp249
(I1
(I3
tp250
g197
I00
S'L\x15C\x083\x0c:@O\x14\xa0o=xV@\xc3\xaa\xaf\xe1A\xd1I\xc0'
p251
tp252
bsg202
S'Cell[2].axon[353]'
p253
sI104
I58
tp254
a(F2.2724053347569186
S'Cell[1].dend[49] syn_ = new ExpSid(0.1)'
p255
I1
(dp256
S'seg'
p257
F0.8333333333333333
sS'hostfrom'
p258
F9.0
sS'gid'
p259
I105
sS'coords'
p260
g7
(g8
(I0
tp261
g10
tp262
Rp263
(I1
(I3
tp264
g14
(S'f8'
p265
I0
I1
tp266
Rp267
(I3
S'<'
p268
NNNI-1
I-1
I0
tp269
bI00
S'\xd9\x8b&\x0b\x9b\xf9;@\xac\x91\x125\xae\xb3U@;\xa28\xa2\xf8DJ\xc0'
p270
tp271
bsS'secnames'
p272
S'Cell[2].axon[9]'
p273
sI105
I58
tp274
a(F1.8277362205625056
S'Cell[0].dend[7] syn_ = new AmpaNmda(0.7)'
p275
I0
(dp276
S'seg'
p277
F0.8333333333333333
sS'hostfrom'
p278
F10.0
sS'gid'
p279
I106
sS'coords'
p280
g7
(g8
(I0
tp281
g10
tp282
Rp283
(I1
(I3
tp284
g14
(S'f8'
p285
I0
I1
tp286
Rp287
(I3
S'<'
p288
NNNI-1
I-1
I0
tp289
bI00
S'\x8e=U\x8b\xa9]E\xc0OE4E UH\xc0\xb8\xc1T\xb3\xd85!@'
p290
tp291
bsS'secnames'
p292
S'Cell[2].axon[275]'
p293
sI106
I10
tp294
a(F2.064151925666871
S'Cell[3].dend[12] syn_ = new FastInhib(0.5)'
p295
I3
(dp296
g277
F0.5
sg278
F10.0
sg279
I106
sg280
g7
(g8
(I0
tp297
g10
tp298
Rp299
(I1
(I3
tp300
g287
I00
S'|\x92|L\xe8O`@>3\xfc,\x01+@\xc0\x18d/\xb6l\xba\t@'
p301
tp302
bsg292
S'Cell[2].axon[291]'
p303
sI106
I154
tp304
a(F2.0461058449376717
S'Cell[0].dend[31] syn_ = new AmpaNmda(0.5)'
p305
I0
(dp306
g277
F0.07142857142857142
sg278
F10.0
sg279
I154
sg280
g7
(g8
(I0
tp307
g10
tp308
Rp309
(I1
(I3
tp310
g287
I00
S'<\x08o\xd3E\xaeQ@\x10\xe4\xd1\x1e3\xc1K\xc0q\xa4\xa5g\xc1\xf7:@'
p311
tp312
bsg292
S'Cell[3].axon[8]'
p313
sI154
I10
tp314
a(F1.4464223294016827
S'Cell[1].apic[21] syn_ = new AmpaNmda(0.5)'
p315
I1
(dp316
g277
F0.7
sg278
F10.0
sg279
I154
sg280
g7
(g8
(I0
tp317
g10
tp318
Rp319
(I1
(I3
tp320
g287
I00
S"\xd4\x95\x91\x10\xb5'F@\xf6\xf6\x05y\x98Qc@\xe9m8\x14\xcfD@@"
p321
tp322
bsg292
S'Cell[3].axon[91]'
p323
sI154
I58
tp324
a(F2.342120139054365
S'Cell[3].dend[6] syn_ = new FastInhib(0.0555555555556)'
p325
I3
(dp326
S'seg'
p327
F0.19230769230769232
sS'hostfrom'
p328
F12.0
sS'gid'
p329
I60
sS'coords'
p330
g7
(g8
(I0
tp331
g10
tp332
Rp333
(I1
(I3
tp334
g14
(S'f8'
p335
I0
I1
tp336
Rp337
(I3
S'<'
p338
NNNI-1
I-1
I0
tp339
bI00
S'\x02q\xf8\xec\xdf\xcdL@\xc8\xa1\x7fw\xbf$@\xc0\xae\xe2\xceG(y\xfb?'
p340
tp341
bsS'secnames'
p342
S'Cell[1].axon[77]'
p343
sI60
I154
tp344
a(F1.5438251087822543
S'Cell[1].apic[31] syn_ = new AmpaNmda(0.5)'
p345
I1
(dp346
g327
F0.5
sg328
F12.0
sg329
I108
sg330
g7
(g8
(I0
tp347
g10
tp348
Rp349
(I1
(I3
tp350
g337
I00
S'u\xa0"\x9a\xce\xb41@\x8a\xdcI\xe0\x8e8t@vO\xf8\xa7V\xac0@'
p351
tp352
bsg342
S'Cell[2].axon[82]'
p353
sI108
I58
tp354
a(F2.1555703032616176
S'Cell[3].dend[23] syn_ = new FastInhib(0.3)'
p355
I3
(dp356
S'seg'
p357
F0.5
sS'hostfrom'
p358
F13.0
sS'gid'
p359
I109
sS'coords'
p360
g7
(g8
(I0
tp361
g10
tp362
Rp363
(I1
(I3
tp364
g14
(S'f8'
p365
I0
I1
tp366
Rp367
(I3
S'<'
p368
NNNI-1
I-1
I0
tp369
bI00
S'\xb0\xb5v\x91m\x14E@\x8c\x1f\xab\xb4r\x9cX@$\xf8D\xdf\x15T\x14@'
p370
tp371
bsS'secnames'
p372
S'Cell[2].axon[64]'
p373
sI109
I154
tp374
a(F1.5890701718575555
S'Cell[2].dend[3] syn_ = new FastInhib(0.833333333333)'
p375
I2
(dp376
g357
F0.16666666666666666
sg358
F13.0
sg359
I109
sg360
g7
(g8
(I0
tp377
g10
tp378
Rp379
(I1
(I3
tp380
g367
I00
S'\xb1Q\xbe\xab\xc6\x05R@\x11H\xd1\xb0\x89\xcb\x02@\xa3.\x8b/K\xfc\xf0\xbf'
p381
tp382
bsg372
S'Cell[2].axon[143]'
p383
sI109
I106
tp384
a(F2.155183458106732
S'Cell[3].dend[23] syn_ = new FastInhib(0.7)'
p385
I3
(dp386
g357
F0.16666666666666666
sg358
F13.0
sg359
I109
sg360
g7
(g8
(I0
tp387
g10
tp388
Rp389
(I1
(I3
tp390
g367
I00
S'\x8b\r\xc5)Wg!@X/\xe4\xc0\xe8\xd8a@D2A\xbf6\x88+@'
p391
tp392
bsg372
S'Cell[2].axon[179]'
p393
sI109
I154
tp394
a(F1.9572417827119424
S'Cell[2].dend[9] syn_ = new FastInhib(0.5)'
p395
I2
(dp396
g357
F0.5
sg358
F13.0
sg359
I109
sg360
g7
(g8
(I0
tp397
g10
tp398
Rp399
(I1
(I3
tp400
g367
I00
S'\x9fY\xa4c\xba\xf2\x1b@\xad\xe2V\xc8\x89v9@\xc8>\xe3\xd6\ne\xd1?'
p401
tp402
bsg372
S'Cell[2].axon[241]'
p403
sI109
I106
tp404
a(F1.5429467196790079
S'Cell[0].dend[16] syn_ = new ExpSid(0.833333333333)'
p405
I0
(dp406
g357
F0.5
sg358
F13.0
sg359
I109
sg360
g7
(g8
(I0
tp407
g10
tp408
Rp409
(I1
(I3
tp410
g367
I00
S'\x1a\xf5\xf5t\xe2DE@\x00\x00\x00\x80=\n\xc7\xbf\x98\xaf6\x94M\xb3K\xc0'
p411
tp412
bsg372
S'Cell[2].axon[255]'
p413
sI109
I10
tp414
a(F2.3393934732873474
S'Cell[1].dend[29] syn_ = new ExpSid(0.5)'
p415
I1
(dp416
g357
F0.5
sg358
F13.0
sg359
I109
sg360
g7
(g8
(I0
tp417
g10
tp418
Rp419
(I1
(I3
tp420
g367
I00
S'\x8c\x9e\x93n\xb6!R\xc0\x1c\xa9\x94\x17\xa1\xbeM@\\\xb3;\xce\xb5\x85+@'
p421
tp422
bsg372
S'Cell[2].axon[269]'
p423
sI109
I58
tp424
a(F1.1645133198456625
S'Cell[0].dend[35] syn_ = new AmpaNmda(0.5)'
p425
I0
(dp426
S'seg'
p427
F0.8333333333333333
sS'hostfrom'
p428
F14.0
sS'gid'
p429
I110
sS'coords'
p430
g7
(g8
(I0
tp431
g10
tp432
Rp433
(I1
(I3
tp434
g14
(S'f8'
p435
I0
I1
tp436
Rp437
(I3
S'<'
p438
NNNI-1
I-1
I0
tp439
bI00
S'N\xb1\x9a\xdfw\xb2Q@^\x92tt!\x071@\x00\x00\x00@339\xc0'
p440
tp441
bsS'secnames'
p442
S'Cell[2].axon[15]'
p443
sI110
I10
tp444
a(F2.4550907580015746
S'Cell[0].dend[19] syn_ = new AmpaNmda(0.5)'
p445
I0
(dp446
g427
F0.5
sg428
F14.0
sg429
I110
sg430
g7
(g8
(I0
tp447
g10
tp448
Rp449
(I1
(I3
tp450
g437
I00
S"\x00\x00\x00\xc0\xcc\x0c?@\xaa\xf2@\x1d&\xbd'\xc0\xfe\x93Y\xe1\xd0\xcd\x10\xc0"
p451
tp452
bsg442
S'Cell[2].axon[68]'
p453
sI110
I10
tp454
a(F2.2165879342355193
S'Cell[1].dend[62] syn_ = new AmpaNmda(0.5)'
p455
I1
(dp456
g427
F0.1
sg428
F14.0
sg429
I110
sg430
g7
(g8
(I0
tp457
g10
tp458
Rp459
(I1
(I3
tp460
g437
I00
S'\xcc\xdd\xb3\x9f\x81LG@\x87\xb4\x94]5\xdeI@\x80\xd7\x02<\x8d\xc6\x13@'
p461
tp462
bsg442
S'Cell[2].axon[90]'
p463
sI110
I58
tp464
a(F1.7413185628246919
S'Cell[1].dend[62] syn_ = new AmpaNmda(0.833333333333)'
p465
I1
(dp466
g427
F0.8333333333333333
sg428
F14.0
sg429
I110
sg430
g7
(g8
(I0
tp467
g10
tp468
Rp469
(I1
(I3
tp470
g437
I00
S'\x01\xdb\xa7J\x19\xa0M@\xf6\x19u\xc3\x04\xf4I@\x00\x00\x00 \x85\xeb\xf5\xbf'
p471
tp472
bsg442
S'Cell[2].axon[137]'
p473
sI110
I58
tp474
a(F2.2147363089332504
S'Cell[1].apic[8] syn_ = new ExpSid(0.166666666667)'
p475
I1
(dp476
S'seg'
p477
F0.5
sS'hostfrom'
p478
F15.0
sS'gid'
p479
I111
sS'coords'
p480
g7
(g8
(I0
tp481
g10
tp482
Rp483
(I1
(I3
tp484
g14
(S'f8'
p485
I0
I1
tp486
Rp487
(I3
S'<'
p488
NNNI-1
I-1
I0
tp489
bI00
S'\xb9\xfb\x80u\xf9\xacE@\x00\x00\x00\xa0p=[@\x00\x00\x00@3\xf3B\xc0'
p490
tp491
bsS'secnames'
p492
S'Cell[2].axon[154]'
p493
sI111
I58
tp494
a(F1.655562604708501
S'Cell[2].dend[8] syn_ = new FastInhib(0.5)'
p495
I2
(dp496
g477
F0.8333333333333333
sg478
F15.0
sg479
I111
sg480
g7
(g8
(I0
tp497
g10
tp498
Rp499
(I1
(I3
tp500
g487
I00
S'h\x13\xe8\xfah\xc25@8\x1d\xc1\xd1wgC@\x02V\x98\xa2\xc2\x0c\x18@'
p501
tp502
bsg492
S'Cell[2].axon[158]'
p503
sI111
I106
tp504
a(F1.6769781059194413
S'Cell[1].dend[43] syn_ = new ExpSid(0.5)'
p505
I1
(dp506
g477
F0.16666666666666666
sg478
F15.0
sg479
I111
sg480
g7
(g8
(I0
tp507
g10
tp508
Rp509
(I1
(I3
tp510
g487
I00
S'\xeb?\xdb\xc72\xc41@\xf1\xec8\xd6L\xfeQ@\xa1\xda\x08\xf2^uA\xc0'
p511
tp512
bsg492
S'Cell[2].axon[242]'
p513
sI111
I58
tp514
a(F1.6669873523518646
S'Cell[0].dend[20] syn_ = new ExpSid(0.1)'
p515
I0
(dp516
g477
F0.8333333333333333
sg478
F15.0
sg479
I111
sg480
g7
(g8
(I0
tp517
g10
tp518
Rp519
(I1
(I3
tp520
g487
I00
S';^\xcc\xb7\xdb\xb6D@\x85\x94\n1\xdd\x142\xc0Y\xf4(\xf2x\x0b>\xc0'
p521
tp522
bsg492
S'Cell[2].axon[378]'
p523
sI111
I10
tp524
a(F2.3630009651742125
S'Cell[1].apic[20] syn_ = new ExpSid(0.5)'
p525
I1
(dp526
g477
F0.5
sg478
F15.0
sg479
I159
sg480
g7
(g8
(I0
tp527
g10
tp528
Rp529
(I1
(I3
tp530
g487
I00
S'\x03\xb1\xe9\xd9;\\.@\xd1\x93\xcf\xd6R\x02^@Na?\x00m\x8e(@'
p531
tp532
bsg492
S'Cell[3].axon[51]'
p533
sI159
I58
tp534
a(F1.7337544064942119
S'Cell[0].dend[29] syn_ = new ExpSid(0.5)'
p535
I0
(dp536
g477
F0.8333333333333333
sg478
F15.0
sg479
I159
sg480
g7
(g8
(I0
tp537
g10
tp538
Rp539
(I1
(I3
tp540
g487
I00
S'0\xfd\xa0\xc3\x93\xd5A@4W\x97\x9b\xe0\xf8\xe7?.\xad\xb8\xdd\xf8W1@'
p541
tp542
bsg492
S'Cell[3].axon[284]'
p543
sI159
I10
tp544
a(F1.8635846157214428
S'Cell[1].apic[16] syn_ = new ExpSid(0.5)'
p545
I1
(dp546
g477
F0.16666666666666666
sg478
F15.0
sg479
I159
sg480
g7
(g8
(I0
tp547
g10
tp548
Rp549
(I1
(I3
tp550
g487
I00
S'^!\xa3K\xbe\xaeF\xc0\xf1\xcd \xaeO\xe7X@\xc1\xcf\xf3[l\x073@'
p551
tp552
bsg492
S'Cell[3].axon[321]'
p553
sI159
I58
tp554
a(F2.3698818467553777
S'Cell[0].dend[7] syn_ = new ExpSid(0.9)'
p555
I0
(dp556
g477
F0.9285714285714284
sg478
F15.0
sg479
I15
sg480
g7
(g8
(I0
tp557
g10
tp558
Rp559
(I1
(I3
tp560
g487
I00
S"^\xc7\xf6\x88\xfetO\xc0\xecY\xf4\xd39\x9fK\xc04\xa5\xf0\xfcO\x19'@"
p561
tp562
bsg492
S'Cell[0].axon[3]'
p563
sI15
I10
tp564
a(F2.065742114744627
S'Cell[0].dend[8] syn_ = new AmpaNmda(0.5)'
p565
I0
(dp566
S'seg'
p567
F0.16666666666666666
sS'hostfrom'
p568
F16.0
sS'gid'
p569
I112
sS'coords'
p570
g7
(g8
(I0
tp571
g10
tp572
Rp573
(I1
(I3
tp574
g14
(S'f8'
p575
I0
I1
tp576
Rp577
(I3
S'<'
p578
NNNI-1
I-1
I0
tp579
bI00
S"u\xce\xca\x18\xd0\xaf1@\x04\x00\x826\x8e\xab1\xc0\xfb,-'w\xe2'@"
p580
tp581
bsS'secnames'
p582
S'Cell[2].axon[8]'
p583
sI112
I10
tp584
a(F1.9434650037371284
S'Cell[1].apic[11] syn_ = new ExpSid(0.5)'
p585
I1
(dp586
S'seg'
p587
F0.16666666666666666
sS'hostfrom'
p588
F17.0
sS'gid'
p589
I161
sS'coords'
p590
g7
(g8
(I0
tp591
g10
tp592
Rp593
(I1
(I3
tp594
g14
(S'f8'
p595
I0
I1
tp596
Rp597
(I3
S'<'
p598
NNNI-1
I-1
I0
tp599
bI00
S'T\x12\xe8\x8bz\xe0!@\xca\xf0\xf0M\xfa\xb9Y@x\xfeG8"\x03\x11@'
p600
tp601
bsS'secnames'
p602
S'Cell[3].axon[99]'
p603
sI161
I58
tp604
a(F0.9954484797230941
S'Cell[1].apic[12] syn_ = new ExpSid(0.5)'
p605
I1
(dp606
g587
F0.49999999999999994
sg588
F17.0
sg589
I161
sg590
g7
(g8
(I0
tp607
g10
tp608
Rp609
(I1
(I3
tp610
g597
I00
S"\nQ\xec'\xf2.\x02@n/3b\x0e\xe4Z@\x85?\xd4!\x1bL\x01@"
p611
tp612
bsg602
S'Cell[3].axon[209]'
p613
sI161
I58
tp614
a(F1.9348040487551355
S'Cell[1].dend[63] syn_ = new ExpSid(0.5)'
p615
I1
(dp616
g587
F0.30000000000000004
sg588
F17.0
sg589
I161
sg590
g7
(g8
(I0
tp617
g10
tp618
Rp619
(I1
(I3
tp620
g597
I00
S'?\x8a\x8d\x8d5\x83U@69?4\x8f\x96U@\x00\x00\x00`\xb8^>\xc0'
p621
tp622
bsg602
S'Cell[3].axon[289]'
p623
sI161
I58
tp624
a(F2.320066929256466
S'Cell[3].dend[7] syn_ = new FastInhib(0.166666666667)'
p625
I3
(dp626
S'seg'
p627
F0.5
sS'hostfrom'
p628
F18.0
sS'gid'
p629
I114
sS'coords'
p630
g7
(g8
(I0
tp631
g10
tp632
Rp633
(I1
(I3
tp634
g14
(S'f8'
p635
I0
I1
tp636
Rp637
(I3
S'<'
p638
NNNI-1
I-1
I0
tp639
bI00
S'\x00\x00\x00\xe0z\xd4L@\x00\x00\x00\x80\x14\xee3\xc0\x00\x00\x00\xf0Q\xb8\x19@'
p640
tp641
bsS'secnames'
p642
S'Cell[2].axon[84]'
p643
sI114
I154
tp644
a(F1.9572179762499493
S'Cell[2].dend[8] syn_ = new FastInhib(0.833333333333)'
p645
I2
(dp646
g627
F0.5
sg628
F18.0
sg629
I162
sg630
g7
(g8
(I0
tp647
g10
tp648
Rp649
(I1
(I3
tp650
g637
I00
S"p\x15J\xe6\x83'?@\xa4W\xf5\xfa\x99\xefL@\xf0Q\xa4\x82b\xae\x16@"
p651
tp652
bsg642
S'Cell[3].axon[218]'
p653
sI162
I106
tp654
a(F1.9235906015772917
S'Cell[1].apic[13] syn_ = new ExpSid(0.833333333333)'
p655
I1
(dp656
S'seg'
p657
F0.5
sS'hostfrom'
p658
F19.0
sS'gid'
p659
I115
sS'coords'
p660
g7
(g8
(I0
tp661
g10
tp662
Rp663
(I1
(I3
tp664
g14
(S'f8'
p665
I0
I1
tp666
Rp667
(I3
S'<'
p668
NNNI-1
I-1
I0
tp669
bI00
S'\xb1h\x95\x91\xfe\x8f@\xc0^\x85V\x92x\x10`@h\x1dud\xa9% \xc0'
p670
tp671
bsS'secnames'
p672
S'Cell[2].axon[192]'
p673
sI115
I58
tp674
a(F2.41836427053683
S'Cell[2].dend[6] syn_ = new FastInhib(0.5)'
p675
I2
(dp676
g657
F0.16666666666666666
sg658
F19.0
sg659
I67
sg660
g7
(g8
(I0
tp677
g10
tp678
Rp679
(I1
(I3
tp680
g667
I00
S'!\xd1\xbb\x97\t\xb07@\\] n\xc7V0@\x01~.\x93\x04o\xfa?'
p681
tp682
bsg672
S'Cell[1].axon[0]'
p683
sI67
I106
tp684
a(F1.3511330090180407
S'Cell[3].dend[6] syn_ = new FastInhib(0.277777777778)'
p685
I3
(dp686
g657
F0.30000000000000004
sg658
F19.0
sg659
I67
sg660
g7
(g8
(I0
tp687
g10
tp688
Rp689
(I1
(I3
tp690
g667
I00
S'F\xe0\tC\xea\xfeH@h\x175q\xb1\rV\xc0\x00\x00\x00\xa0\x99\x99\x1d@'
p691
tp692
bsg672
S'Cell[1].axon[38]'
p693
sI67
I154
tp694
a(F1.6061741602638782
S'Cell[0].dend[9] syn_ = new AmpaNmda(0.5)'
p695
I0
(dp696
S'seg'
p697
F0.16666666666666666
sS'hostfrom'
p698
F20.0
sS'gid'
p699
I68
sS'coords'
p700
g7
(g8
(I0
tp701
g10
tp702
Rp703
(I1
(I3
tp704
g14
(S'f8'
p705
I0
I1
tp706
Rp707
(I3
S'<'
p708
NNNI-1
I-1
I0
tp709
bI00
S'\xe87\xd5c+\xcd6@P\xd6\xd3\xb2\x04\xfe;\xc0\x00\x00\x00@33\x1d@'
p710
tp711
bsS'secnames'
p712
S'Cell[1].axon[28]'
p713
sI68
I10
tp714
a(F2.171792471088709
S'Cell[1].dend[38] syn_ = new ExpSid(0.5)'
p715
I1
(dp716
S'seg'
p717
F0.8333333333333333
sS'hostfrom'
p718
F21.0
sS'gid'
p719
I117
sS'coords'
p720
g7
(g8
(I0
tp721
g10
tp722
Rp723
(I1
(I3
tp724
g14
(S'f8'
p725
I0
I1
tp726
Rp727
(I3
S'<'
p728
NNNI-1
I-1
I0
tp729
bI00
S',\x82v97\xfcQ\xc0<\xe7\x06\xb4\xb9&P@\x00\x00\x00\x80\xc2u9\xc0'
p730
tp731
bsS'secnames'
p732
S'Cell[2].axon[456]'
p733
sI117
I58
tp734
a(F1.2536786207788997
S'Cell[0].dend[36] syn_ = new ExpSid(0.833333333333)'
p735
I0
(dp736
g717
F0.3888888888888889
sg718
F21.0
sg719
I69
sg720
g7
(g8
(I0
tp737
g10
tp738
Rp739
(I1
(I3
tp740
g727
I00
S'\xaf\x9d\xf6G\xde\x901\xc0s\xaf\x14\xa5M\xf2.\xc0\x83\xc0\x1c\xe9\xd5d\t@'
p741
tp742
bsg732
S'Cell[1].axon[4]'
p743
sI69
I10
tp744
a(F1.4007263372192695
S'Cell[1].apic[19] syn_ = new AmpaNmda(0.5)'
p745
I1
(dp746
S'seg'
p747
F0.8333333333333333
sS'hostfrom'
p748
F22.0
sS'gid'
p749
I22
sS'coords'
p750
g7
(g8
(I0
tp751
g10
tp752
Rp753
(I1
(I3
tp754
g14
(S'f8'
p755
I0
I1
tp756
Rp757
(I3
S'<'
p758
NNNI-1
I-1
I0
tp759
bI00
S'\xc3X=\x12\x17\x97G@0G\xec\xa5,\x98\\@\x84\xaf\xcem\xbb\xae8@'
p760
tp761
bsS'secnames'
p762
S'Cell[0].axon[5]'
p763
sI22
I58
tp764
a(F1.5278771769208852
S'Cell[1].dend[39] syn_ = new AmpaNmda(0.833333333333)'
p765
I1
(dp766
g747
F0.16666666666666666
sg748
F22.0
sg749
I166
sg750
g7
(g8
(I0
tp767
g10
tp768
Rp769
(I1
(I3
tp770
g757
I00
S'\x88\xbauU\x95%\x19\xc0\xa5,\xe4\xcc"\x1a @\x1e\xf1LyM@\x14@'
p771
tp772
bsg762
S'Cell[3].axon[199]'
p773
sI166
I58
tp774
a(F1.9956880932992294
S'Cell[1].apic[19] syn_ = new ExpSid(0.166666666667)'
p775
I1
(dp776
S'seg'
p777
F0.1
sS'hostfrom'
p778
F23.0
sS'gid'
p779
I119
sS'coords'
p780
g7
(g8
(I0
tp781
g10
tp782
Rp783
(I1
(I3
tp784
g14
(S'f8'
p785
I0
I1
tp786
Rp787
(I3
S'<'
p788
NNNI-1
I-1
I0
tp789
bI00
S'\x88vN\x98A\x1e9@\x81\xad@\xbe\x04\xeaZ@\x86\x9e\xc0\xa9\x90\xf2\x1c@'
p790
tp791
bsS'secnames'
p792
S'Cell[2].axon[114]'
p793
sI119
I58
tp794
a(F2.2162176005044794
S'Cell[0].dend[38] syn_ = new ExpSid(0.166666666667)'
p795
I0
(dp796
g777
F0.7
sg778
F23.0
sg779
I167
sg780
g7
(g8
(I0
tp797
g10
tp798
Rp799
(I1
(I3
tp800
g787
I00
S',\x9e{\xa6\xdb\xfc?\xc0o\xf5?\xbcP\xde7\xc0\xd8n\xf7&t\xf9\xb1\xbf'
p801
tp802
bsg792
S'Cell[3].axon[156]'
p803
sI167
I10
tp804
a(F2.4035475483105095
S'Cell[0].dend[33] syn_ = new AmpaNmda(0.5)'
p805
I0
(dp806
S'seg'
p807
F0.5
sS'hostfrom'
p808
F24.0
sS'gid'
p809
I72
sS'coords'
p810
g7
(g8
(I0
tp811
g10
tp812
Rp813
(I1
(I3
tp814
g14
(S'f8'
p815
I0
I1
tp816
Rp817
(I3
S'<'
p818
NNNI-1
I-1
I0
tp819
bI00
S'\x00\x00\x00\x80\xeb\xf1H@\x00\x00\x00\x80\xb8\x1e\xdd?\x00\x00\x00(\x85\xeb\xfb?'
p820
tp821
bsS'secnames'
p822
S'Cell[1].soma[3]'
p823
sI72
I10
tp824
a(F2.4489245553458074
S'Cell[0].dend[23] syn_ = new AmpaNmda(0.7)'
p825
I0
(dp826
g807
F0.16666666666666666
sg808
F24.0
sg809
I120
sg810
g7
(g8
(I0
tp827
g10
tp828
Rp829
(I1
(I3
tp830
g817
I00
S'H\xf1\x1f\xc9P\xaeD@k\x18W\x17\x036X\xc0\xf8\xeb\xfay\xfa\xa7F\xc0'
p831
tp832
bsg822
S'Cell[2].axon[95]'
p833
sI120
I10
tp834
a(F1.4569391263369345
S'Cell[0].dend[7] syn_ = new AmpaNmda(0.3)'
p835
I0
(dp836
g807
F0.5
sg808
F24.0
sg809
I120
sg810
g7
(g8
(I0
tp837
g10
tp838
Rp839
(I1
(I3
tp840
g817
I00
S'~\x1b\x16e+b$\xc0\xf0^\xbe\xd4\xef\x17>\xc0\x19\xea\x08^\x9c\x05\xe4?'
p841
tp842
bsg822
S'Cell[2].axon[288]'
p843
sI120
I10
tp844
a(F2.252391132703193
S'Cell[0].dend[24] syn_ = new ExpSid(0.7)'
p845
I0
(dp846
S'seg'
p847
F0.5
sS'hostfrom'
p848
F25.0
sS'gid'
p849
I121
sS'coords'
p850
g7
(g8
(I0
tp851
g10
tp852
Rp853
(I1
(I3
tp854
g14
(S'f8'
p855
I0
I1
tp856
Rp857
(I3
S'<'
p858
NNNI-1
I-1
I0
tp859
bI00
S'\x00\x00\x00`\x8f\xc28@\x00\x00\x00pf\x06?\xc0\x00\x00\x00 \x85kQ\xc0'
p860
tp861
bsS'secnames'
p862
S'Cell[2].axon[140]'
p863
sI121
I10
tp864
a(F1.322144147631771
S'Cell[1].dend[40] syn_ = new ExpSid(0.166666666667)'
p865
I1
(dp866
g847
F0.16666666666666666
sg848
F25.0
sg849
I121
sg850
g7
(g8
(I0
tp867
g10
tp868
Rp869
(I1
(I3
tp870
g857
I00
S'\x1f%"\x19\xa8\xc7)\xc0\xdb\xebc\x05\xeb\xfe"\xc0\x87\xbb6[\xa6+\x02\xc0'
p871
tp872
bsg862
S'Cell[2].axon[188]'
p873
sI121
I58
tp874
a(F1.9700972921045956
S'Cell[2].dend[6] syn_ = new FastInhib(0.166666666667)'
p875
I2
(dp876
g847
F0.30000000000000004
sg848
F25.0
sg849
I121
sg850
g7
(g8
(I0
tp877
g10
tp878
Rp879
(I1
(I3
tp880
g857
I00
S'`\x10\xa1\xa2\xad\x8c&@\xa9z\xea\xf3{\x18$@\x1b/\x96"\x92\xdf\xe0\xbf'
p881
tp882
bsg862
S'Cell[2].axon[189]'
p883
sI121
I106
tp884
a(F1.7029079839482015
S'Cell[3].dend[5] syn_ = new FastInhib(0.9)'
p885
I3
(dp886
g847
F0.5
sg848
F25.0
sg849
I169
sg850
g7
(g8
(I0
tp887
g10
tp888
Rp889
(I1
(I3
tp890
g857
I00
S'\xeeuK\xe5\xe1\xd6@\xc0,\xe7\x82\x12]\xf1O\xc0\xe6j\x7fg\xd9\xbc @'
p891
tp892
bsg862
S'Cell[3].axon[176]'
p893
sI169
I154
tp894
a(F1.6128684085601748
S'Cell[3].dend[5] syn_ = new FastInhib(0.9)'
p895
I3
(dp896
g847
F0.8333333333333333
sg848
F25.0
sg849
I169
sg850
g7
(g8
(I0
tp897
g10
tp898
Rp899
(I1
(I3
tp900
g857
I00
S'\xd1\x81ZA\xfd@A\xc0\x91[q\xb4pMO\xc0J\xa9.\xe2\xd0\xca%@'
p901
tp902
bsg862
S'Cell[3].axon[244]'
p903
sI169
I154
tp904
a(F2.074197085034374
S'Cell[2].dend[6] syn_ = new FastInhib(0.5)'
p905
I2
(dp906
S'seg'
p907
F0.8333333333333333
sS'hostfrom'
p908
F26.0
sS'gid'
p909
I170
sS'coords'
p910
g7
(g8
(I0
tp911
g10
tp912
Rp913
(I1
(I3
tp914
g14
(S'f8'
p915
I0
I1
tp916
Rp917
(I3
S'<'
p918
NNNI-1
I-1
I0
tp919
bI00
S'\xb0\xaf\xbe\x94\xc1\x115@-\xd4\x04Y\xfc\xbb1@\xaa\xdb_\x02\xc7e\x11@'
p920
tp921
bsS'secnames'
p922
S'Cell[3].axon[458]'
p923
sI170
I106
tp924
a(F1.6365645635076875
S'Cell[2].dend[6] syn_ = new FastInhib(0.833333333333)'
p925
I2
(dp926
S'seg'
p927
F0.5
sS'hostfrom'
p928
F27.0
sS'gid'
p929
I75
sS'coords'
p930
g7
(g8
(I0
tp931
g10
tp932
Rp933
(I1
(I3
tp934
g14
(S'f8'
p935
I0
I1
tp936
Rp937
(I3
S'<'
p938
NNNI-1
I-1
I0
tp939
bI00
S'\xbc\x8d\xc496\xca?@\xa6\x84\xb2\x89\x04l8@\x00\x00\x00\x80=\n\x18@'
p940
tp941
bsS'secnames'
p942
S'Cell[1].axon[0]'
p943
sI75
I106
tp944
a(F1.5056336111840187
S'Cell[1].apic[6] syn_ = new ExpSid(0.5)'
p945
I1
(dp946
g927
F0.8333333333333333
sg928
F27.0
sg929
I171
sg930
g7
(g8
(I0
tp947
g10
tp948
Rp949
(I1
(I3
tp950
g937
I00
S'\xd1\xa4\xd0\xc8\x15\xcd(@:\x10#d\x87;U@\xd7\xcdS\xa0o\xf1\x0e@'
p951
tp952
bsg942
S'Cell[3].axon[0]'
p953
sI171
I58
tp954
a(F1.9207650080084648
S'Cell[1].dend[1] syn_ = new ExpSid(0.5)'
p955
I1
(dp956
g927
F0.16666666666666666
sg928
F27.0
sg929
I171
sg930
g7
(g8
(I0
tp957
g10
tp958
Rp959
(I1
(I3
tp960
g937
I00
S'&\xa8\xf4^#"(\xc0M0\xb6\xc1\xbbKA@\x00\x00\x00\xa0p\xbd:\xc0'
p961
tp962
bsg942
S'Cell[3].axon[45]'
p963
sI171
I58
tp964
a(F1.213751817081737
S'Cell[0].dend[15] syn_ = new AmpaNmda(0.5)'
p965
I0
(dp966
S'seg'
p967
F0.5
sS'hostfrom'
p968
F28.0
sS'gid'
p969
I172
sS'coords'
p970
g7
(g8
(I0
tp971
g10
tp972
Rp973
(I1
(I3
tp974
g14
(S'f8'
p975
I0
I1
tp976
Rp977
(I3
S'<'
p978
NNNI-1
I-1
I0
tp979
bI00
S'\x00\x00\x00P\xb8\x9e9@\x00\x00\x00\x80\x14.\x19@\x00\x00\x00P\xe1z\x15\xc0'
p980
tp981
bsS'secnames'
p982
S'Cell[3].axon[88]'
p983
sI172
I10
tp984
a(F1.78602937120767
S'Cell[0].dend[38] syn_ = new AmpaNmda(0.5)'
p985
I0
(dp986
S'seg'
p987
F0.16666666666666666
sS'hostfrom'
p988
F30.0
sS'gid'
p989
I174
sS'coords'
p990
g7
(g8
(I0
tp991
g10
tp992
Rp993
(I1
(I3
tp994
g14
(S'f8'
p995
I0
I1
tp996
Rp997
(I3
S'<'
p998
NNNI-1
I-1
I0
tp999
bI00
S'\x1d\xf8+\xe8L\x1dH\xc0\xb0,\xbf\x05U\xc9?\xc0\xfe1\x18H\xd1j\xca\xbf'
p1000
tp1001
bsS'secnames'
p1002
S'Cell[3].axon[0]'
p1003
sI174
I10
tp1004
a(F2.2885630839933886
S'Cell[2].dend[1] syn_ = new FastInhib(0.5)'
p1005
I2
(dp1006
g987
F0.16666666666666666
sg988
F30.0
sg989
I174
sg990
g7
(g8
(I0
tp1007
g10
tp1008
Rp1009
(I1
(I3
tp1010
g997
I00
S'\x1f\xcf\x8dt\x1c\xcf@@\x12\xc7+=0\x9c%\xc0\xb5Jm\xbatM1\xc0'
p1011
tp1012
bsg1002
S'Cell[3].axon[284]'
p1013
sI174
I106
tp1014
a(F0.9432467809858429
S'Cell[0].dend[11] syn_ = new AmpaNmda(0.9)'
p1015
I0
(dp1016
S'seg'
p1017
F0.07142857142857142
sS'hostfrom'
p1018
F32.0
sS'gid'
p1019
I176
sS'coords'
p1020
g7
(g8
(I0
tp1021
g10
tp1022
Rp1023
(I1
(I3
tp1024
g14
(S'f8'
p1025
I0
I1
tp1026
Rp1027
(I3
S'<'
p1028
NNNI-1
I-1
I0
tp1029
bI00
S'U\x10\x0b\x7f,0V@\xa9\xb0~%\xa4fU\xc0\xff;\xf6,\xb1^$\xc0'
p1030
tp1031
bsS'secnames'
p1032
S'Cell[3].axon[44]'
p1033
sI176
I10
tp1034
a(F2.25989248774476
S'Cell[0].dend[33] syn_ = new AmpaNmda(0.833333333333)'
p1035
I0
(dp1036
g1017
F0.8333333333333333
sg1018
F32.0
sg1019
I176
sg1020
g7
(g8
(I0
tp1037
g10
tp1038
Rp1039
(I1
(I3
tp1040
g1027
I00
S'\xb0\x0e\x03M\xd1JN@L \xbc\xd6\xbeQ\x07@\xcc\xf7Ut]\x8e\xf5\xbf'
p1041
tp1042
bsg1032
S'Cell[3].axon[109]'
p1043
sI176
I10
tp1044
a(F2.43672112020142
S'Cell[3].dend[5] syn_ = new FastInhib(0.3)'
p1045
I3
(dp1046
g1017
F0.5
sg1018
F32.0
sg1019
I176
sg1020
g7
(g8
(I0
tp1047
g10
tp1048
Rp1049
(I1
(I3
tp1050
g1027
I00
S'\x18\x90\n\x96\x10\x84>@\x1fFn\xac\xa3\x04L\xc0\x00\x00\x00\x00\x00@0\xc0'
p1051
tp1052
bsg1032
S'Cell[3].axon[121]'
p1053
sI176
I154
tp1054
a(F2.433545803531529
S'Cell[2].dend[6] syn_ = new FastInhib(0.833333333333)'
p1055
I2
(dp1056
S'seg'
p1057
F0.16666666666666666
sS'hostfrom'
p1058
F33.0
sS'gid'
p1059
I177
sS'coords'
p1060
g7
(g8
(I0
tp1061
g10
tp1062
Rp1063
(I1
(I3
tp1064
g14
(S'f8'
p1065
I0
I1
tp1066
Rp1067
(I3
S'<'
p1068
NNNI-1
I-1
I0
tp1069
bI00
S'\xc3\xfb\xe1\xd9\x84\xf0=@3-\x10\x9f\x00\xfd7@\xe9~\xcb)(\xf5\x15@'
p1070
tp1071
bsS'secnames'
p1072
S'Cell[3].axon[0]'
p1073
sI177
I106
tp1074
a(F1.6738721209935592
S'Cell[1].dend[60] syn_ = new ExpSid(0.5)'
p1075
I1
(dp1076
g1057
F0.8333333333333333
sg1058
F33.0
sg1059
I177
sg1060
g7
(g8
(I0
tp1077
g10
tp1078
Rp1079
(I1
(I3
tp1080
g1067
I00
S'Q\xdb\xd4\xef\x93s?@L\xe4M\xd8:\xd2H@\xd8\xde\x19.j\x08\x1d@'
p1081
tp1082
bsg1072
S'Cell[3].axon[0]'
p1083
sI177
I58
tp1084
a(F1.3352429291532162
S'Cell[1].dend[20] syn_ = new ExpSid(0.5)'
p1085
I1
(dp1086
g1057
F0.30000000000000004
sg1058
F33.0
sg1059
I177
sg1060
g7
(g8
(I0
tp1087
g10
tp1088
Rp1089
(I1
(I3
tp1090
g1067
I00
S'd\x13\x1c\xcf\x01\xea!\xc0\x19?\xc9\xb9\xfc+P@p\x7f\x85_5\x8c9@'
p1091
tp1092
bsg1072
S'Cell[3].axon[57]'
p1093
sI177
I58
tp1094
a(F1.6569591966765007
S'Cell[0].dend[13] syn_ = new ExpSid(0.166666666667)'
p1095
I0
(dp1096
S'seg'
p1097
F0.8333333333333333
sS'hostfrom'
p1098
F35.0
sS'gid'
p1099
I83
sS'coords'
p1100
g7
(g8
(I0
tp1101
g10
tp1102
Rp1103
(I1
(I3
tp1104
g14
(S'f8'
p1105
I0
I1
tp1106
Rp1107
(I3
S'<'
p1108
NNNI-1
I-1
I0
tp1109
bI00
S'\xa3\xc1S\n\xe1\t<@#\xdd\x19\x07,\x94T\xc0\xb7\x90\x98\x0f\x02\x11\x0c@'
p1110
tp1111
bsS'secnames'
p1112
S'Cell[1].axon[51]'
p1113
sI83
I10
tp1114
a(F1.5124308014023307
S'Cell[0].dend[31] syn_ = new ExpSid(0.5)'
p1115
I0
(dp1116
g1097
F0.5
sg1098
F35.0
sg1099
I83
sg1100
g7
(g8
(I0
tp1117
g10
tp1118
Rp1119
(I1
(I3
tp1120
g1107
I00
S'\xedG\x0bV\xc6YQ@\x83lc\xf1NNL\xc0\x00\x00\x00 \xaeG<@'
p1121
tp1122
bsg1112
S'Cell[1].axon[140]'
p1123
sI83
I10
tp1124
a(F1.425719396117568
S'Cell[0].dend[33] syn_ = new ExpSid(0.5)'
p1125
I0
(dp1126
g1097
F0.16666666666666666
sg1098
F35.0
sg1099
I83
sg1100
g7
(g8
(I0
tp1127
g10
tp1128
Rp1129
(I1
(I3
tp1130
g1107
I00
S':6\xf6\xff\x94MJ@\x18\x9cGj\x0cP\xec\xbf\xb3\xe3\xc2\x17\xba\x8e\x0c@'
p1131
tp1132
bsg1112
S'Cell[1].axon[157]'
p1133
sI83
I10
tp1134
a(F1.6175335613162163
S'Cell[0].dend[20] syn_ = new ExpSid(0.3)'
p1135
I0
(dp1136
g1097
F0.3571428571428571
sg1098
F35.0
sg1099
I83
sg1100
g7
(g8
(I0
tp1137
g10
tp1138
Rp1139
(I1
(I3
tp1140
g1107
I00
S'\x11r\xa6\xde\x8d5P@\xe3Z19\x86m8\xc0,;o\x10E\xc4E\xc0'
p1141
tp1142
bsg1112
S'Cell[1].axon[230]'
p1143
sI83
I10
tp1144
a(F2.4770744739548123
S'Cell[0].dend[27] syn_ = new ExpSid(0.166666666667)'
p1145
I0
(dp1146
g1097
F0.16666666666666666
sg1098
F35.0
sg1099
I35
sg1100
g7
(g8
(I0
tp1147
g10
tp1148
Rp1149
(I1
(I3
tp1150
g1107
I00
S' \x9b\x8cwv+G@R\xd3>0E\x0c\x1e\xc0\x00\x00\x00\x00\x00\x00\x10@'
p1151
tp1152
bsg1112
S'Cell[0].axon[0]'
p1153
sI35
I10
tp1154
a(F2.076826071761266
S'Cell[1].apic[9] syn_ = new ExpSid(0.5)'
p1155
I1
(dp1156
g1097
F0.5
sg1098
F35.0
sg1099
I179
sg1100
g7
(g8
(I0
tp1157
g10
tp1158
Rp1159
(I1
(I3
tp1160
g1107
I00
S'\xf0JoN\xca\xfdA@{\xa3n\x1a\x9eb[@eE}\x159\xd3H\xc0'
p1161
tp1162
bsg1112
S'Cell[3].axon[8]'
p1163
sI179
I58
tp1164
a(F1.1831902957112335
S'Cell[1].apic[32] syn_ = new AmpaNmda(0.166666666667)'
p1165
I1
(dp1166
S'seg'
p1167
F0.16666666666666666
sS'hostfrom'
p1168
F36.0
sS'gid'
p1169
I84
sS'coords'
p1170
g7
(g8
(I0
tp1171
g10
tp1172
Rp1173
(I1
(I3
tp1174
g14
(S'f8'
p1175
I0
I1
tp1176
Rp1177
(I3
S'<'
p1178
NNNI-1
I-1
I0
tp1179
bI00
S'\x88\x16[\xeb\xef\x9a!@\x92=\xf2]\x19`u@-\xe8\xe6\xe9A\xb7#@'
p1180
tp1181
bsS'secnames'
p1182
S'Cell[1].axon[88]'
p1183
sI84
I58
tp1184
a(F1.4124558031257453
S'Cell[1].dend[7] syn_ = new AmpaNmda(0.5)'
p1185
I1
(dp1186
g1167
F0.5
sg1168
F36.0
sg1169
I84
sg1170
g7
(g8
(I0
tp1187
g10
tp1188
Rp1189
(I1
(I3
tp1190
g1177
I00
S'vS\xfaT\x1cmD\xc0|\xf7\xaf\xcbCfX@\xe4\xa4\xf3[GO3\xc0'
p1191
tp1192
bsg1182
S'Cell[1].axon[270]'
p1193
sI84
I58
tp1194
a(F1.7645721733233215
S'Cell[1].dend[36] syn_ = new AmpaNmda(0.5)'
p1195
I1
(dp1196
g1167
F0.1
sg1168
F36.0
sg1169
I84
sg1170
g7
(g8
(I0
tp1197
g10
tp1198
Rp1199
(I1
(I3
tp1200
g1177
I00
S'@\x96K:\x84\xa3S\xc0:)}\xf4\xbfPQ@\xa2g\x1e\x13\x85\xa3J\xc0'
p1201
tp1202
bsg1182
S'Cell[1].axon[309]'
p1203
sI84
I58
tp1204
a(F1.42056328727811
S'Cell[3].dend[17] syn_ = new FastInhib(0.5)'
p1205
I3
(dp1206
g1167
F0.16666666666666666
sg1168
F36.0
sg1169
I132
sg1170
g7
(g8
(I0
tp1207
g10
tp1208
Rp1209
(I1
(I3
tp1210
g1177
I00
S'j\xd1\xc6+XFP@H\xcf\x18\xdd\xbb\xc1K@\xff\xba\x8b\x83GQ\x16\xc0'
p1211
tp1212
bsg1182
S'Cell[2].axon[134]'
p1213
sI132
I154
tp1214
a(F2.361929401588909
S'Cell[0].dend[19] syn_ = new AmpaNmda(0.5)'
p1215
I0
(dp1216
g1167
F0.16666666666666666
sg1168
F36.0
sg1169
I132
sg1170
g7
(g8
(I0
tp1217
g10
tp1218
Rp1219
(I1
(I3
tp1220
g1177
I00
S'b\xc9\x1a\x9e\xe1\x1c@@n\xcb\xe57hl*\xc0\x18B1\x8bQ\xc9\x16\xc0'
p1221
tp1222
bsg1182
S'Cell[2].axon[188]'
p1223
sI132
I10
tp1224
a(F2.353819694659903
S'Cell[0].dend[27] syn_ = new AmpaNmda(0.833333333333)'
p1225
I0
(dp1226
g1167
F0.5
sg1168
F36.0
sg1169
I132
sg1170
g7
(g8
(I0
tp1227
g10
tp1228
Rp1229
(I1
(I3
tp1230
g1177
I00
S'\xf2\x95\xa5\xba|\xc5O@\x8eo\xdd\x86\xe1G(\xc0\x9b\xad\x0e\x84\x85\xcc0\xc0'
p1231
tp1232
bsg1182
S'Cell[2].axon[192]'
p1233
sI132
I10
tp1234
a(F2.48999113957022
S'Cell[2].dend[5] syn_ = new FastInhib(0.5)'
p1235
I2
(dp1236
g1167
F0.8333333333333333
sg1168
F36.0
sg1169
I132
sg1170
g7
(g8
(I0
tp1237
g10
tp1238
Rp1239
(I1
(I3
tp1240
g1177
I00
S'\xd7\x1e\xddal\x8a9@\xea\x85\x14\x87\xd1f3\xc0{\x80\x8d\x00\x98\xc6\x0c\xc0'
p1241
tp1242
bsg1182
S'Cell[2].axon[202]'
p1243
sI132
I106
tp1244
a(F1.9705451832228291
S'Cell[2].dend[7] syn_ = new FastInhib(0.5)'
p1245
I2
(dp1246
g1167
F0.5
sg1168
F36.0
sg1169
I180
sg1170
g7
(g8
(I0
tp1247
g10
tp1248
Rp1249
(I1
(I3
tp1250
g1177
I00
S'\x00\x00\x00\x00\x00\x00\x16@\x00\x00\x00 \xae\xc7!@\x00\x00\x00\xa0\x99\x99\xa9\xbf'
p1251
tp1252
bsg1182
S'Cell[3].soma[0]'
p1253
sI180
I106
tp1254
a(F1.3341872946913156
S'Cell[2].dend[3] syn_ = new FastInhib(0.166666666667)'
p1255
I2
(dp1256
g1167
F0.8333333333333333
sg1168
F36.0
sg1169
I180
sg1170
g7
(g8
(I0
tp1257
g10
tp1258
Rp1259
(I1
(I3
tp1260
g1177
I00
S'u\x0b\xa0q[\xc1J@\x9d\x88\x8fbD1\xf8\xbft\x8a\xd6=\xd2\xca!\xc0'
p1261
tp1262
bsg1182
S'Cell[3].axon[170]'
p1263
sI180
I106
tp1264
a(F2.1168654233166753
S'Cell[2].dend[6] syn_ = new FastInhib(0.5)'
p1265
I2
(dp1266
g1167
F0.5
sg1168
F36.0
sg1169
I180
sg1170
g7
(g8
(I0
tp1267
g10
tp1268
Rp1269
(I1
(I3
tp1270
g1177
I00
S'\x1fXp\xeb\x1d\xfa7@\xcf\x0b\xf1\xfd\x06r2@1!oW\x9a;\x08@'
p1271
tp1272
bsg1182
S'Cell[3].axon[194]'
p1273
sI180
I106
tp1274
a(F1.4981165340414795
S'Cell[0].dend[36] syn_ = new ExpSid(0.5)'
p1275
I0
(dp1276
S'seg'
p1277
F0.8333333333333333
sS'hostfrom'
p1278
F37.0
sS'gid'
p1279
I133
sS'coords'
p1280
g7
(g8
(I0
tp1281
g10
tp1282
Rp1283
(I1
(I3
tp1284
g14
(S'f8'
p1285
I0
I1
tp1286
Rp1287
(I3
S'<'
p1288
NNNI-1
I-1
I0
tp1289
bI00
S'\x93N\xb6\xca\xff\x00\x1b\xc0 \x0c\x92\x11\x87\xfc\n\xc0\xd6m\x90\x95o\xa0$@'
p1290
tp1291
bsS'secnames'
p1292
S'Cell[2].axon[18]'
p1293
sI133
I10
tp1294
a(F1.2593730235934781
S'Cell[0].dend[37] syn_ = new ExpSid(0.5)'
p1295
I0
(dp1296
g1277
F0.7
sg1278
F37.0
sg1279
I133
sg1280
g7
(g8
(I0
tp1297
g10
tp1298
Rp1299
(I1
(I3
tp1300
g1287
I00
S'\xf4\xfb\xa3\x93k\xec@\xc0\xc0B5\xe2\xda\x98?\xc0V\x1a\xd9\xdak\x00\x07\xc0'
p1301
tp1302
bsg1292
S'Cell[2].axon[119]'
p1303
sI133
I10
tp1304
a(F1.3332310768215296
S'Cell[1].apic[10] syn_ = new ExpSid(0.5)'
p1305
I1
(dp1306
g1277
F0.8333333333333333
sg1278
F37.0
sg1279
I85
sg1280
g7
(g8
(I0
tp1307
g10
tp1308
Rp1309
(I1
(I3
tp1310
g1287
I00
S'\xf6\x14\xfe\x94-\x04(@\xa1-\x1b\xde\xb0\xadW@\xf07\xbd0Qa\x14@'
p1311
tp1312
bsg1292
S'Cell[1].axon[248]'
p1313
sI85
I58
tp1314
a(F2.2124402019871554
S'Cell[0].dend[22] syn_ = new AmpaNmda(0.1)'
p1315
I0
(dp1316
S'seg'
p1317
F0.30000000000000004
sS'hostfrom'
p1318
F38.0
sS'gid'
p1319
I182
sS'coords'
p1320
g7
(g8
(I0
tp1321
g10
tp1322
Rp1323
(I1
(I3
tp1324
g14
(S'f8'
p1325
I0
I1
tp1326
Rp1327
(I3
S'<'
p1328
NNNI-1
I-1
I0
tp1329
bI00
S'0|\x1f[\xc6\x8eG@\x1b\xc3\x1e\x13\x9d-6\xc0\x8c\xa9\x10\x0e4\xda:\xc0'
p1330
tp1331
bsS'secnames'
p1332
S'Cell[3].axon[218]'
p1333
sI182
I10
tp1334
a(F1.5965767373367792
S'Cell[0].dend[22] syn_ = new AmpaNmda(0.3)'
p1335
I0
(dp1336
g1317
F0.5
sg1318
F38.0
sg1319
I182
sg1320
g7
(g8
(I0
tp1337
g10
tp1338
Rp1339
(I1
(I3
tp1340
g1327
I00
S'\x00\x00\x00P\xb8\xceI@\x00\x00\x00 \xae\x07<\xc0\x00\x00\x00\x90\xeb\xf1G\xc0'
p1341
tp1342
bsg1332
S'Cell[3].axon[412]'
p1343
sI182
I10
tp1344
a(F1.458364106563151
S'Cell[1].dend[7] syn_ = new ExpSid(0.1)'
p1345
I1
(dp1346
S'seg'
p1347
F0.8333333333333333
sS'hostfrom'
p1348
F39.0
sS'gid'
p1349
I183
sS'coords'
p1350
g7
(g8
(I0
tp1351
g10
tp1352
Rp1353
(I1
(I3
tp1354
g14
(S'f8'
p1355
I0
I1
tp1356
Rp1357
(I3
S'<'
p1358
NNNI-1
I-1
I0
tp1359
bI00
S'0\xfb\x8c\x98\xa8V\x04\xc0\xaa\xd5\x84\xac5\xb8Q@\x00\x00\x00\x80\x14\xae\x1c\xc0'
p1360
tp1361
bsS'secnames'
p1362
S'Cell[3].axon[0]'
p1363
sI183
I58
tp1364
a(F2.275396390183385
S'Cell[1].dend[69] syn_ = new ExpSid(0.833333333333)'
p1365
I1
(dp1366
g1347
F0.5
sg1348
F39.0
sg1349
I183
sg1350
g7
(g8
(I0
tp1367
g10
tp1368
Rp1369
(I1
(I3
tp1370
g1357
I00
S'\xcc\tp \xb1|>@\xa0\x98\x98\x05^]B@\xc1\xee@\x1f\xf9\x98F@'
p1371
tp1372
bsg1362
S'Cell[3].axon[191]'
p1373
sI183
I58
tp1374
a(F1.9314965589214215
S'Cell[1].apic[18] syn_ = new AmpaNmda(0.5)'
p1375
I1
(dp1376
S'seg'
p1377
F0.5
sS'hostfrom'
p1378
F40.0
sS'gid'
p1379
I88
sS'coords'
p1380
g7
(g8
(I0
tp1381
g10
tp1382
Rp1383
(I1
(I3
tp1384
g14
(S'f8'
p1385
I0
I1
tp1386
Rp1387
(I3
S'<'
p1388
NNNI-1
I-1
I0
tp1389
bI00
S'\x00\x00\x00\x80\xfc\xff*@\x00\x00\x00p=*Z@\x00\x00\x00\x80\x14. @'
p1390
tp1391
bsS'secnames'
p1392
S'Cell[1].axon[68]'
p1393
sI88
I58
tp1394
a(F2.4888554776242633
S'Cell[3].dend[5] syn_ = new FastInhib(0.7)'
p1395
I3
(dp1396
g1377
F0.5
sg1378
F40.0
sg1379
I88
sg1380
g7
(g8
(I0
tp1397
g10
tp1398
Rp1399
(I1
(I3
tp1400
g1387
I00
S'$V\xf8\x14\t\xc0(\xc0\rU\x8d\xb8\xeefP\xc0\x01\x00\x00`\x8f\xc2\t\xc0'
p1401
tp1402
bsg1392
S'Cell[1].axon[159]'
p1403
sI88
I154
tp1404
a(F2.38984915310972
S'Cell[3].dend[22] syn_ = new FastInhib(0.0714285714286)'
p1405
I3
(dp1406
g1377
F0.5
sg1378
F40.0
sg1379
I88
sg1380
g7
(g8
(I0
tp1407
g10
tp1408
Rp1409
(I1
(I3
tp1410
g1387
I00
S'@\xccv\x85 \xaaP@D\x87?\x00\x94\xd7Z@7e\xe9\xfe\xd6u\r@'
p1411
tp1412
bsg1392
S'Cell[1].axon[196]'
p1413
sI88
I154
tp1414
a(F2.072806434588587
S'Cell[0].dend[33] syn_ = new AmpaNmda(0.833333333333)'
p1415
I0
(dp1416
g1377
F0.5
sg1378
F40.0
sg1379
I88
sg1380
g7
(g8
(I0
tp1417
g10
tp1418
Rp1419
(I1
(I3
tp1420
g1387
I00
S'\n2-\xa4\x81\xf6N@D>P\x86\xad\\\xe3?\x9b\x1d\xd8\xf3\xe06\xe4\xbf'
p1421
tp1422
bsg1392
S'Cell[1].axon[350]'
p1423
sI88
I10
tp1424
a(F1.5845339556078453
S'Cell[1].apic[11] syn_ = new ExpSid(0.5)'
p1425
I1
(dp1426
S'seg'
p1427
F0.16666666666666666
sS'hostfrom'
p1428
F41.0
sS'gid'
p1429
I137
sS'coords'
p1430
g7
(g8
(I0
tp1431
g10
tp1432
Rp1433
(I1
(I3
tp1434
g14
(S'f8'
p1435
I0
I1
tp1436
Rp1437
(I3
S'<'
p1438
NNNI-1
I-1
I0
tp1439
bI00
S'\xb8\x11\xe3\xd1\xf3\xed!@\x13\xf0\xed\xe8\x94\xf1Y@\x00\x87\xbd\xf7=g\x10@'
p1440
tp1441
bsS'secnames'
p1442
S'Cell[2].axon[4]'
p1443
sI137
I58
tp1444
a(F2.3557271276009693
S'Cell[3].dend[19] syn_ = new FastInhib(0.5)'
p1445
I3
(dp1446
g1427
F0.30000000000000004
sg1428
F41.0
sg1429
I185
sg1430
g7
(g8
(I0
tp1447
g10
tp1448
Rp1449
(I1
(I3
tp1450
g1437
I00
S'\xb6\xd9SX=\x02R@\x08\xb4\xef\x164\xf0Y@\x00\x00\x00 \xaeG \xc0'
p1451
tp1452
bsg1442
S'Cell[3].axon[232]'
p1453
sI185
I154
tp1454
a(F1.7607079598531432
S'Cell[3].dend[6] syn_ = new FastInhib(0.0555555555556)'
p1455
I3
(dp1456
g1427
F0.8999999999999999
sg1428
F41.0
sg1429
I185
sg1430
g7
(g8
(I0
tp1457
g10
tp1458
Rp1459
(I1
(I3
tp1460
g1437
I00
S'.\xb7\xc3\xa3\xe2\x08L@\x19\xfc\xc0\xca\xbe\xadA\xc0X\xe6\x89J\xa3\xc5\xf6?'
p1461
tp1462
bsg1442
S'Cell[3].axon[283]'
p1463
sI185
I154
tp1464
a(F2.368734462611042
S'Cell[1].dend[36] syn_ = new ExpSid(0.5)'
p1465
I1
(dp1466
g1427
F0.16666666666666666
sg1428
F41.0
sg1429
I89
sg1430
g7
(g8
(I0
tp1467
g10
tp1468
Rp1469
(I1
(I3
tp1470
g1437
I00
S'1[\x90\xa6\xbe\xf7S\xc0\x88\xae\xb1\xe4E\x14Q@\x90\x9cf\tb\x06K\xc0'
p1471
tp1472
bsg1442
S'Cell[1].axon[9]'
p1473
sI89
I58
tp1474
a(F2.449276530150499
S'Cell[0].dend[23] syn_ = new ExpSid(0.5)'
p1475
I0
(dp1476
g1427
F0.40909090909090906
sg1428
F41.0
sg1429
I89
sg1430
g7
(g8
(I0
tp1477
g10
tp1478
Rp1479
(I1
(I3
tp1480
g1437
I00
S'm\xb9\xd9\x9d\xd9\xe9D@\x16\xf42/\xc1\xf0R\xc0\xe8\xc7,]z\xacC\xc0'
p1481
tp1482
bsg1442
S'Cell[1].axon[199]'
p1483
sI89
I10
tp1484
a(F2.227635767687953
S'Cell[1].dend[13] syn_ = new AmpaNmda(0.5)'
p1485
I1
(dp1486
S'seg'
p1487
F0.5
sS'hostfrom'
p1488
F42.0
sS'gid'
p1489
I138
sS'coords'
p1490
g7
(g8
(I0
tp1491
g10
tp1492
Rp1493
(I1
(I3
tp1494
g14
(S'f8'
p1495
I0
I1
tp1496
Rp1497
(I3
S'<'
p1498
NNNI-1
I-1
I0
tp1499
bI00
S'z\xbd\xda\x8f\x83\xb0\x17\xc0\xe5>\xb3\xb6\xc0LJ@."\xa3\xde_\xe2B@'
p1500
tp1501
bsS'secnames'
p1502
S'Cell[2].axon[46]'
p1503
sI138
I58
tp1504
a(F2.2245878985942027
S'Cell[1].apic[32] syn_ = new AmpaNmda(0.5)'
p1505
I1
(dp1506
g1487
F0.2777777777777778
sg1488
F42.0
sg1489
I138
sg1490
g7
(g8
(I0
tp1507
g10
tp1508
Rp1509
(I1
(I3
tp1510
g1497
I00
S'\x8d\xc3\xb7)+)\r\xc0\xd4\xd2\xf8|\x01\x8fv@+\x16\x89x\xfa\x1c3@'
p1511
tp1512
bsg1502
S'Cell[2].axon[280]'
p1513
sI138
I58
tp1514
a(F2.2315785000000963
S'Cell[1].dend[66] syn_ = new ExpSid(0.5)'
p1515
I1
(dp1516
S'seg'
p1517
F0.16666666666666666
sS'hostfrom'
p1518
F43.0
sS'gid'
p1519
I91
sS'coords'
p1520
g7
(g8
(I0
tp1521
g10
tp1522
Rp1523
(I1
(I3
tp1524
g14
(S'f8'
p1525
I0
I1
tp1526
Rp1527
(I3
S'<'
p1528
NNNI-1
I-1
I0
tp1529
bI00
S'@(\x084\xc2\x12c@Y\x8a\xd7vo@L@\xe4\x87:mkGQ\xc0'
p1530
tp1531
bsS'secnames'
p1532
S'Cell[1].axon[138]'
p1533
sI91
I58
tp1534
a(F1.8687160671160803
S'Cell[1].dend[48] syn_ = new ExpSid(0.5)'
p1535
I1
(dp1536
g1517
F0.8333333333333333
sg1518
F43.0
sg1519
I91
sg1520
g7
(g8
(I0
tp1537
g10
tp1538
Rp1539
(I1
(I3
tp1540
g1527
I00
S'\x00\x00\x00`\xe1Z7@VUU\x95%\xafR@UUUuw\xf7@\xc0'
p1541
tp1542
bsg1532
S'Cell[1].axon[499]'
p1543
sI91
I58
tp1544
a(F1.591616555414049
S'Cell[1].dend[48] syn_ = new ExpSid(0.5)'
p1545
I1
(dp1546
g1517
F0.16666666666666666
sg1518
F43.0
sg1519
I91
sg1520
g7
(g8
(I0
tp1547
g10
tp1548
Rp1549
(I1
(I3
tp1550
g1527
I00
S'\x18l:\x16\xecR7@\xe2\xc4\xd5H\x93\xccR@\xbcZ\xea\xaf\x1e B\xc0'
p1551
tp1552
bsg1532
S'Cell[1].axon[500]'
p1553
sI91
I58
tp1554
a(F2.14907201233745
S'Cell[0].dend[27] syn_ = new ExpSid(0.5)'
p1555
I0
(dp1556
g1517
F0.5
sg1518
F43.0
sg1519
I139
sg1520
g7
(g8
(I0
tp1557
g10
tp1558
Rp1559
(I1
(I3
tp1560
g1527
I00
S'\x0f\x9b\xef\xa4r\xd0K@\xe4c\x8c\xc2(\xfb#\xc0\x0f\x9eC<\xae}\x1c\xc0'
p1561
tp1562
bsg1532
S'Cell[2].axon[268]'
p1563
sI139
I10
tp1564
a(F2.3450430588551607
S'Cell[2].dend[11] syn_ = new FastInhib(0.5)'
p1565
I2
(dp1566
g1517
F0.5
sg1518
F43.0
sg1519
I139
sg1520
g7
(g8
(I0
tp1567
g10
tp1568
Rp1569
(I1
(I3
tp1570
g1527
I00
S'S\xf8\x81R\xa0\x1d$\xc0\xd0\xab\xcb\x8a\xac}\x18\xc0Q\xb8/LH`B\xc0'
p1571
tp1572
bsg1532
S'Cell[2].axon[289]'
p1573
sI139
I106
tp1574
a(F1.0534696798637757
S'Cell[2].dend[4] syn_ = new FastInhib(0.5)'
p1575
I2
(dp1576
g1517
F0.5
sg1518
F43.0
sg1519
I187
sg1520
g7
(g8
(I0
tp1577
g10
tp1578
Rp1579
(I1
(I3
tp1580
g1527
I00
S' ui\xa1\xc3\xab8@\x935\xbb\x1f\xf2\xbc\x18\xc0\xde\x0eV\x0f\xc8\xf4*\xc0'
p1581
tp1582
bsg1532
S'Cell[3].axon[0]'
p1583
sI187
I106
tp1584
a(F2.4452133057817482
S'Cell[0].dend[11] syn_ = new AmpaNmda(0.5)'
p1585
I0
(dp1586
S'seg'
p1587
F0.5
sS'hostfrom'
p1588
F44.0
sS'gid'
p1589
I92
sS'coords'
p1590
g7
(g8
(I0
tp1591
g10
tp1592
Rp1593
(I1
(I3
tp1594
g14
(S'f8'
p1595
I0
I1
tp1596
Rp1597
(I3
S'<'
p1598
NNNI-1
I-1
I0
tp1599
bI00
S'K\x98\xde?\xf4\xc3N@\x8a\x10F\x1f\xf5\x92I\xc0\x00\x00\x00\xc0\xf5(\x14\xc0'
p1600
tp1601
bsS'secnames'
p1602
S'Cell[1].axon[106]'
p1603
sI92
I10
tp1604
a(F1.240262002970397
S'Cell[2].dend[9] syn_ = new FastInhib(0.5)'
p1605
I2
(dp1606
g1587
F0.5
sg1588
F44.0
sg1589
I188
sg1590
g7
(g8
(I0
tp1607
g10
tp1608
Rp1609
(I1
(I3
tp1610
g1597
I00
S'\x1d\xc8\x8a\xaeI9\x18@\x91\x91\x7f\ty\x9e6@\x9c\x99BHSy\xb9\xbf'
p1611
tp1612
bsg1602
S'Cell[3].axon[1]'
p1613
sI188
I106
tp1614
a(F1.1746767145196964
S'Cell[2].dend[11] syn_ = new FastInhib(0.5)'
p1615
I2
(dp1616
S'seg'
p1617
F0.5
sS'hostfrom'
p1618
F45.0
sS'gid'
p1619
I141
sS'coords'
p1620
g7
(g8
(I0
tp1621
g10
tp1622
Rp1623
(I1
(I3
tp1624
g14
(S'f8'
p1625
I0
I1
tp1626
Rp1627
(I3
S'<'
p1628
NNNI-1
I-1
I0
tp1629
bI00
S"\x84[\x1b\x1d\xad\x15'\xc0\xe4\x1a\xec\x88l\n\x15\xc0\xa8\xea\xa9\xbf\xff$B\xc0"
p1630
tp1631
bsS'secnames'
p1632
S'Cell[2].axon[13]'
p1633
sI141
I106
tp1634
a(F2.2304144080481807
S'Cell[0].dend[34] syn_ = new ExpSid(0.5)'
p1635
I0
(dp1636
g1617
F0.5
sg1618
F45.0
sg1619
I141
sg1620
g7
(g8
(I0
tp1637
g10
tp1638
Rp1639
(I1
(I3
tp1640
g1627
I00
S'\xdcj!r<\x1dP@ \xff\xdb\x82\xe2"\x07@4E\xd8\xa0\xfdZ\x1d\xc0'
p1641
tp1642
bsg1632
S'Cell[2].axon[534]'
p1643
sI141
I10
tp1644
a(F1.9352428355337215
S'Cell[0].dend[3] syn_ = new ExpSid(0.166666666667)'
p1645
I0
(dp1646
g1617
F0.16666666666666666
sg1618
F45.0
sg1619
I189
sg1620
g7
(g8
(I0
tp1647
g10
tp1648
Rp1649
(I1
(I3
tp1650
g1627
I00
S"\x009L\xb3E0\x80\xbf\xb3`\xef'\xad\x8a2\xc0\x7f\xc9F\xb2\x1f\xe9\x03\xc0"
p1651
tp1652
bsg1632
S'Cell[3].axon[0]'
p1653
sI189
I10
tp1654
a(F1.098407214030144
S'Cell[0].dend[24] syn_ = new AmpaNmda(0.5)'
p1655
I0
(dp1656
S'seg'
p1657
F0.7857142857142856
sS'hostfrom'
p1658
F46.0
sS'gid'
p1659
I142
sS'coords'
p1660
g7
(g8
(I0
tp1661
g10
tp1662
Rp1663
(I1
(I3
tp1664
g14
(S'f8'
p1665
I0
I1
tp1666
Rp1667
(I3
S'<'
p1668
NNNI-1
I-1
I0
tp1669
bI00
S'\x1c\xdd\xd6\xc0qDB@f%V3\xf6\xd9\x1f\xc0%Ay\x1cJbP\xc0'
p1670
tp1671
bsS'secnames'
p1672
S'Cell[2].axon[13]'
p1673
sI142
I10
tp1674
a(F2.1173826113878804
S'Cell[1].dend[38] syn_ = new ExpSid(0.5)'
p1675
I1
(dp1676
S'seg'
p1677
F0.16666666666666666
sS'hostfrom'
p1678
F47.0
sS'gid'
p1679
I143
sS'coords'
p1680
g7
(g8
(I0
tp1681
g10
tp1682
Rp1683
(I1
(I3
tp1684
g14
(S'f8'
p1685
I0
I1
tp1686
Rp1687
(I3
S'<'
p1688
NNNI-1
I-1
I0
tp1689
bI00
S"T\xae\x1b bjR\xc0\xd8z|\xc6\x96'P@I\x9e\xf3\x0c\xc6\xca;\xc0"
p1690
tp1691
bsS'secnames'
p1692
S'Cell[2].axon[10]'
p1693
sI143
I58
tp1694
a.