(lp0
(F1.101283455972099
S'Cell[1].dend[12] syn_ = new ExpSid(0.166666666667)'
p1
I1
(dp2
S'seg'
p3
F0.8333333333333333
sS'hostfrom'
p4
F1.0
sS'gid'
p5
I97
sS'coords'
p6
cnumpy.core.multiarray
_reconstruct
p7
(cnumpy
ndarray
p8
(I0
tp9
S'b'
p10
tp11
Rp12
(I1
(I3
tp13
cnumpy
dtype
p14
(S'f8'
p15
I0
I1
tp16
Rp17
(I3
S'<'
p18
NNNI-1
I-1
I0
tp19
bI00
S'<\xb6^\xe2\xeb\x12T\xc0i$\xe3\tZ\xc9G@\xc22\xe9\xe7\xb8t!@'
p20
tp21
bsS'secnames'
p22
S'Cell[2].axon[25]'
p23
sI97
I67
tp24
a(F1.0996743335348536
S'Cell[3].dend[25] syn_ = new FastInhib(0.1)'
p25
I3
(dp26
g3
F0.16666666666666666
sg4
F1.0
sg5
I97
sg6
g7
(g8
(I0
tp27
g10
tp28
Rp29
(I1
(I3
tp30
g17
I00
S'l\xd1\xc6\x0e\t9?@\xe0\xe7Z_\x8010\xc0S\x00sfq\xf2%@'
p31
tp32
bsg22
S'Cell[2].axon[165]'
p33
sI97
I163
tp34
a(F2.3302870150373165
S'Cell[2].dend[0] syn_ = new FastInhib(0.5)'
p35
I2
(dp36
g3
F0.5
sg4
F1.0
sg5
I97
sg6
g7
(g8
(I0
tp37
g10
tp38
Rp39
(I1
(I3
tp40
g17
I00
S'\xcc?J\x01\xd8\xa1E\xc0(`a"f\xd9F@\x16\xe2\xf92\x8e|\x12@'
p41
tp42
bsg22
S'Cell[2].axon[181]'
p43
sI97
I115
tp44
a(F2.1083880753076922
S'Cell[3].apic[42] syn_ = new FastInhib(0.0555555555556)'
p45
I3
(dp46
S'seg'
p47
F0.16666666666666666
sS'hostfrom'
p48
F2.0
sS'gid'
p49
I98
sS'coords'
p50
g7
(g8
(I0
tp51
g10
tp52
Rp53
(I1
(I3
tp54
g14
(S'f8'
p55
I0
I1
tp56
Rp57
(I3
S'<'
p58
NNNI-1
I-1
I0
tp59
bI00
S'D]?3g\x9a1\xc0\x1a\xf4 C<\\>@\xaa\x1a\x18\xa3^\x7f\n@'
p60
tp61
bsS'secnames'
p62
S'Cell[2].axon[17]'
p63
sI98
I163
tp64
a(F1.127361881868507
S'Cell[2].dend[18] syn_ = new FastInhib(0.5)'
p65
I2
(dp66
g47
F0.5
sg48
F2.0
sg49
I98
sg50
g7
(g8
(I0
tp67
g10
tp68
Rp69
(I1
(I3
tp70
g57
I00
S'R\xe82\n"ZA\xc01@\x0fL\x0b\xf92@\x00\x00\x00\x80\xebQ\x06@'
p71
tp72
bsg62
S'Cell[2].axon[19]'
p73
sI98
I115
tp74
a(F1.1917098151790655
S'Cell[1].dend[12] syn_ = new AmpaNmda(0.5)'
p75
I1
(dp76
g47
F0.7
sg48
F2.0
sg49
I98
sg50
g7
(g8
(I0
tp77
g10
tp78
Rp79
(I1
(I3
tp80
g57
I00
S'\xe8\xe3\xea\xbeH\xa7X\xc0\xd2\xc7\xd5\xfd\xce8H@\x00\x00\x00\xe0Q\xb8#@'
p81
tp82
bsg62
S'Cell[2].axon[29]'
p83
sI98
I67
tp84
a(F2.268887506243607
S'Cell[3].apic[26] syn_ = new FastInhib(0.642857142857)'
p85
I3
(dp86
g47
F0.8333333333333333
sg48
F2.0
sg49
I98
sg50
g7
(g8
(I0
tp87
g10
tp88
Rp89
(I1
(I3
tp90
g57
I00
S'\xbc36\xbb\x9d\xe3\xf5?1\xf9\xf8a\x1f\x9ba@\xcc!\x12\x8e\xbe\xea/\xc0'
p91
tp92
bsg62
S'Cell[2].axon[211]'
p93
sI98
I163
tp94
a(F1.8365765069093944
S'Cell[0].dend[21] syn_ = new AmpaNmda(0.0714285714286)'
p95
I0
(dp96
g47
F0.5
sg48
F2.0
sg49
I98
sg50
g7
(g8
(I0
tp97
g10
tp98
Rp99
(I1
(I3
tp100
g57
I00
S'\xc5J<q;dI@9\xc8(Zp\xb00@\xb6C\xd3Sb\xf8;\xc0'
p101
tp102
bsg62
S'Cell[2].axon[428]'
p103
sI98
I19
tp104
a(F2.420287827801198
S'Cell[3].dend[3] syn_ = new FastInhib(0.166666666667)'
p105
I3
(dp106
g47
F0.5
sg48
F2.0
sg49
I146
sg50
g7
(g8
(I0
tp107
g10
tp108
Rp109
(I1
(I3
tp110
g57
I00
S'\xfc\xd2CX \x91N\xc0\xcf\xf1\xb7\xf2\xa9\x99R\xc0\xfd\xbd\xc8\x84\xe8l2@'
p111
tp112
bsg62
S'Cell[3].axon[15]'
p113
sI146
I163
tp114
a(F2.1083880753076922
S'Cell[3].apic[42] syn_ = new FastInhib(0.0555555555556)'
p115
I3
(dp116
S'seg'
p117
F0.16666666666666666
sS'hostfrom'
p118
F3.0
sS'gid'
p119
I99
sS'coords'
p120
g7
(g8
(I0
tp121
g10
tp122
Rp123
(I1
(I3
tp124
g14
(S'f8'
p125
I0
I1
tp126
Rp127
(I3
S'<'
p128
NNNI-1
I-1
I0
tp129
bI00
S'D]?3g\x9a1\xc0\x1a\xf4 C<\\>@\xaa\x1a\x18\xa3^\x7f\n@'
p130
tp131
bsS'secnames'
p132
S'Cell[2].axon[17]'
p133
sI99
I163
tp134
a(F1.127361881868507
S'Cell[2].dend[18] syn_ = new FastInhib(0.5)'
p135
I2
(dp136
g117
F0.5
sg118
F3.0
sg119
I99
sg120
g7
(g8
(I0
tp137
g10
tp138
Rp139
(I1
(I3
tp140
g127
I00
S'R\xe82\n"ZA\xc01@\x0fL\x0b\xf92@\x00\x00\x00\x80\xebQ\x06@'
p141
tp142
bsg132
S'Cell[2].axon[19]'
p143
sI99
I115
tp144
a(F1.1917098151790655
S'Cell[1].dend[12] syn_ = new ExpSid(0.5)'
p145
I1
(dp146
g117
F0.7
sg118
F3.0
sg119
I99
sg120
g7
(g8
(I0
tp147
g10
tp148
Rp149
(I1
(I3
tp150
g127
I00
S'\xe8\xe3\xea\xbeH\xa7X\xc0\xd2\xc7\xd5\xfd\xce8H@\x00\x00\x00\xe0Q\xb8#@'
p151
tp152
bsg132
S'Cell[2].axon[29]'
p153
sI99
I67
tp154
a(F2.268887506243607
S'Cell[3].apic[26] syn_ = new FastInhib(0.642857142857)'
p155
I3
(dp156
g117
F0.8333333333333333
sg118
F3.0
sg119
I99
sg120
g7
(g8
(I0
tp157
g10
tp158
Rp159
(I1
(I3
tp160
g127
I00
S'\xbc36\xbb\x9d\xe3\xf5?1\xf9\xf8a\x1f\x9ba@\xcc!\x12\x8e\xbe\xea/\xc0'
p161
tp162
bsg132
S'Cell[2].axon[211]'
p163
sI99
I163
tp164
a(F1.8365765069093944
S'Cell[0].dend[21] syn_ = new ExpSid(0.0714285714286)'
p165
I0
(dp166
g117
F0.5
sg118
F3.0
sg119
I99
sg120
g7
(g8
(I0
tp167
g10
tp168
Rp169
(I1
(I3
tp170
g127
I00
S'\xc5J<q;dI@9\xc8(Zp\xb00@\xb6C\xd3Sb\xf8;\xc0'
p171
tp172
bsg132
S'Cell[2].axon[428]'
p173
sI99
I19
tp174
a(F2.1065848999696635
S'Cell[2].dend[27] syn_ = new FastInhib(0.1)'
p175
I2
(dp176
g117
F0.07142857142857142
sg118
F3.0
sg119
I51
sg120
g7
(g8
(I0
tp177
g10
tp178
Rp179
(I1
(I3
tp180
g127
I00
S's\x80\xac\xa85\xb2C\xc0\xd5\x80z\x13\xc6\x8f7\xc0\x80\\\x81;\xbf\x81\x0e\xc0'
p181
tp182
bsg132
S'Cell[1].axon[1]'
p183
sI51
I115
tp184
a(F2.1047193154791723
S'Cell[1].dend[5] syn_ = new ExpSid(0.1)'
p185
I1
(dp186
g117
F0.30000000000000004
sg118
F3.0
sg119
I51
sg120
g7
(g8
(I0
tp187
g10
tp188
Rp189
(I1
(I3
tp190
g127
I00
S'\xe9\x80r\xf45$"@\xa1\xa0\x15[\x87\x80\x1a\xc0\xfe\xc6\x0e\xa2\x8d\xbf?\xc0'
p191
tp192
bsg132
S'Cell[1].axon[38]'
p193
sI51
I67
tp194
a(F2.3060334483923053
S'Cell[2].dend[31] syn_ = new FastInhib(0.5)'
p195
I2
(dp196
S'seg'
p197
F0.1
sS'hostfrom'
p198
F4.0
sS'gid'
p199
I148
sS'coords'
p200
g7
(g8
(I0
tp201
g10
tp202
Rp203
(I1
(I3
tp204
g14
(S'f8'
p205
I0
I1
tp206
Rp207
(I3
S'<'
p208
NNNI-1
I-1
I0
tp209
bI00
S'\xc6]\xb9l\x82\x026\xc0\xa7\xf26\x11:\x87e\xc0\x00\x00\x00@\xe1z\x12@'
p210
tp211
bsS'secnames'
p212
S'Cell[3].axon[101]'
p213
sI148
I115
tp214
a(F1.5909882684478813
S'Cell[2].dend[24] syn_ = new FastInhib(0.611111111111)'
p215
I2
(dp216
g197
F0.8333333333333333
sg198
F4.0
sg199
I148
sg200
g7
(g8
(I0
tp217
g10
tp218
Rp219
(I1
(I3
tp220
g207
I00
S'\x81\xcf,P\xb0\xecV@\xf0\xbf\x18\xf8\x1eXX\xc0\xcc\x99\xbdj\x17\x87Q\xc0'
p221
tp222
bsg212
S'Cell[3].axon[130]'
p223
sI148
I115
tp224
a(F2.49263994179033
S'Cell[1].dend[8] syn_ = new ExpSid(0.3)'
p225
I1
(dp226
S'seg'
p227
F0.5
sS'hostfrom'
p228
F5.0
sS'gid'
p229
I149
sS'coords'
p230
g7
(g8
(I0
tp231
g10
tp232
Rp233
(I1
(I3
tp234
g14
(S'f8'
p235
I0
I1
tp236
Rp237
(I3
S'<'
p238
NNNI-1
I-1
I0
tp239
bI00
S'\xed\x07\xd5\xd8\xa2\xe0\x15\xc0@1\x8ek~\x9e3\xc0\x92\xc3\x89\xd9\xb4P\xee\xbf'
p240
tp241
bsS'secnames'
p242
S'Cell[3].axon[11]'
p243
sI149
I67
tp244
a(F1.7120440461532533
S'Cell[2].dend[23] syn_ = new FastInhib(0.611111111111)'
p245
I2
(dp246
g227
F0.5
sg228
F5.0
sg229
I149
sg230
g7
(g8
(I0
tp247
g10
tp248
Rp249
(I1
(I3
tp250
g237
I00
S'\xf0\xfe\x0bv[DQ\xc0\xc1\xaf\xce\xa3p\xa8c\xc0\xc8$\xee2N\xe4E\xc0'
p251
tp252
bsg242
S'Cell[3].axon[21]'
p253
sI149
I115
tp254
a(F2.1348556820273568
S'Cell[2].dend[4] syn_ = new FastInhib(0.833333333333)'
p255
I2
(dp256
g227
F0.8333333333333333
sg228
F5.0
sg229
I101
sg230
g7
(g8
(I0
tp257
g10
tp258
Rp259
(I1
(I3
tp260
g237
I00
S'\x1f+|\xdeEmL\xc0\x01[\xf4\x9e\xc1hV@^A\xc4\xcd\xee\x87;@'
p261
tp262
bsg242
S'Cell[2].axon[2]'
p263
sI101
I115
tp264
a(F1.6198700635694636
S'Cell[1].dend[14] syn_ = new AmpaNmda(0.1)'
p265
I1
(dp266
S'seg'
p267
F0.5
sS'hostfrom'
p268
F6.0
sS'gid'
p269
I102
sS'coords'
p270
g7
(g8
(I0
tp271
g10
tp272
Rp273
(I1
(I3
tp274
g14
(S'f8'
p275
I0
I1
tp276
Rp277
(I3
S'<'
p278
NNNI-1
I-1
I0
tp279
bI00
S'\xf5\x96\xc4\xbcY\x18B\xc0\x96\xf7\xd7u\xdeu8@\x00\x00\x00\xc0\xcc\xcc$\xc0'
p280
tp281
bsS'secnames'
p282
S'Cell[2].axon[76]'
p283
sI102
I67
tp284
a(F1.8151496081706477
S'Cell[1].dend[19] syn_ = new AmpaNmda(0.357142857143)'
p285
I1
(dp286
g267
F0.5
sg268
F6.0
sg269
I150
sg270
g7
(g8
(I0
tp287
g10
tp288
Rp289
(I1
(I3
tp290
g277
I00
S'\xb9q\xd2\xbbK\xe5G\xc0Z\xc4rKI\xdaA@\x00\x00\x00\x80\x14\xee>\xc0'
p291
tp292
bsg282
S'Cell[3].axon[60]'
p293
sI150
I67
tp294
a(F2.22451486713836
S'Cell[0].dend[9] syn_ = new AmpaNmda(0.5)'
p295
I0
(dp296
g267
F0.5
sg268
F6.0
sg269
I150
sg270
g7
(g8
(I0
tp297
g10
tp298
Rp299
(I1
(I3
tp300
g277
I00
S'\xe7{\x80\xbd\xb36#\xc0\x80\xe8\xf4\xc2\x80\xe5-\xc0\x00\x00\x00\x80\x14\xee>\xc0'
p301
tp302
bsg282
S'Cell[3].axon[76]'
p303
sI150
I19
tp304
a(F1.896803646197151
S'Cell[1].dend[4] syn_ = new AmpaNmda(0.166666666667)'
p305
I1
(dp306
g267
F0.5
sg268
F6.0
sg269
I150
sg270
g7
(g8
(I0
tp307
g10
tp308
Rp309
(I1
(I3
tp310
g277
I00
S'\xf6\xb9\xfb;\xac\xa76@\xf2\xa3\xdd\xaf\xbe#\xd9?\x00\x00\x00\x80\x14\xee>\xc0'
p311
tp312
bsg282
S'Cell[3].axon[174]'
p313
sI150
I67
tp314
a(F2.464017467789889
S'Cell[0].dend[8] syn_ = new ExpSid(0.5)'
p315
I0
(dp316
S'seg'
p317
F0.30000000000000004
sS'hostfrom'
p318
F7.0
sS'gid'
p319
I103
sS'coords'
p320
g7
(g8
(I0
tp321
g10
tp322
Rp323
(I1
(I3
tp324
g14
(S'f8'
p325
I0
I1
tp326
Rp327
(I3
S'<'
p328
NNNI-1
I-1
I0
tp329
bI00
S'\xc1\xcbO\xd2\x0baL\xc0h2\xf1G~\xbcG\xc0\xaf\x81I^\x80\x0e4\xc0'
p330
tp331
bsS'secnames'
p332
S'Cell[2].axon[59]'
p333
sI103
I19
tp334
a(F2.465602501797158
S'Cell[2].dend[14] syn_ = new FastInhib(0.0555555555556)'
p335
I2
(dp336
g317
F0.5
sg318
F7.0
sg319
I103
sg320
g7
(g8
(I0
tp337
g10
tp338
Rp339
(I1
(I3
tp340
g327
I00
S'\xc9\xe7\xe3\xcf\xcb\xf0C\xc0\x8c\x05\xca\x83\xe4_H@\x00\x00\x00 \xae\xc7"\xc0'
p341
tp342
bsg332
S'Cell[2].axon[90]'
p343
sI103
I115
tp344
a(F2.0475892176419404
S'Cell[1].dend[19] syn_ = new ExpSid(0.357142857143)'
p345
I1
(dp346
g317
F0.22727272727272727
sg318
F7.0
sg319
I103
sg320
g7
(g8
(I0
tp347
g10
tp348
Rp349
(I1
(I3
tp350
g327
I00
S'\xd9\xed\x11\xfc\x03DI\xc0*\x83\xa5\xe1\xf0\x06B@\xe6\xea\r\x06\xe0\x89<\xc0'
p351
tp352
bsg332
S'Cell[2].axon[162]'
p353
sI103
I67
tp354
a(F1.0288539390179021
S'Cell[0].apic[0] syn_ = new ExpSid(0.0714285714286)'
p355
I0
(dp356
g317
F0.5
sg318
F7.0
sg319
I151
sg320
g7
(g8
(I0
tp357
g10
tp358
Rp359
(I1
(I3
tp360
g327
I00
S'\x00\x00\x00\xd0\xf5(\x11@\x00\x00\x00\xc0\xf5\xa8F@\x00\x00\x00\xc0\x1e\x85$\xc0'
p361
tp362
bsg332
S'Cell[3].soma[0]'
p363
sI151
I19
tp364
a(F2.4231267767793625
S'Cell[0].dend[13] syn_ = new ExpSid(0.0555555555556)'
p365
I0
(dp366
g317
F0.5
sg318
F7.0
sg319
I151
sg320
g7
(g8
(I0
tp367
g10
tp368
Rp369
(I1
(I3
tp370
g327
I00
S'\xaa7b\xc6\x02\x90\x1a\xc0jp=Nxe:\xc0\xcb\x9bR\xd6x"@\xc0'
p371
tp372
bsg332
S'Cell[3].axon[11]'
p373
sI151
I19
tp374
a(F2.098260909541532
S'Cell[1].apic[7] syn_ = new ExpSid(0.833333333333)'
p375
I1
(dp376
g317
F0.5
sg318
F7.0
sg319
I151
sg320
g7
(g8
(I0
tp377
g10
tp378
Rp379
(I1
(I3
tp380
g327
I00
S'\xf1\x11\x88l\x9c\xd6\xe7\xbf#\xd2\xf8\xcfo\x88Y@\x15\x94\x9b\xbd`"/@'
p381
tp382
bsg332
S'Cell[3].axon[225]'
p383
sI151
I67
tp384
a(F1.9116463161347188
S'Cell[2].dend[18] syn_ = new FastInhib(0.5)'
p385
I2
(dp386
S'seg'
p387
F0.5
sS'hostfrom'
p388
F8.0
sS'gid'
p389
I152
sS'coords'
p390
g7
(g8
(I0
tp391
g10
tp392
Rp393
(I1
(I3
tp394
g14
(S'f8'
p395
I0
I1
tp396
Rp397
(I3
S'<'
p398
NNNI-1
I-1
I0
tp399
bI00
S'\xfd4\xc8\xd8\x11\x8e@\xc0+1H\x02\xd1u1@\x00\x00\x00\xc0\xf5(\x13@'
p400
tp401
bsS'secnames'
p402
S'Cell[3].axon[508]'
p403
sI152
I115
tp404
a(F1.880032598897575
S'Cell[0].dend[33] syn_ = new AmpaNmda(0.642857142857)'
p405
I0
(dp406
g387
F0.8333333333333333
sg388
F8.0
sg389
I104
sg390
g7
(g8
(I0
tp407
g10
tp408
Rp409
(I1
(I3
tp410
g397
I00
S'"t\x90\xe7\xdbsY@\x143l\xbew\xcaD\xc0\x84\xa3\xd7`vW$@'
p411
tp412
bsg402
S'Cell[2].axon[95]'
p413
sI104
I19
tp414
a(F1.3358260464828953
S'Cell[3].dend[12] syn_ = new FastInhib(0.5)'
p415
I3
(dp416
g387
F0.5
sg388
F8.0
sg389
I104
sg390
g7
(g8
(I0
tp417
g10
tp418
Rp419
(I1
(I3
tp420
g397
I00
S'\xc1/\xe0X.=D\xc0\xefU\xcf1\x1fjC\xc00r\xd1\x1a\t\xa6\x13\xc0'
p421
tp422
bsg402
S'Cell[2].axon[201]'
p423
sI104
I163
tp424
a(F1.4470051834136024
S'Cell[2].dend[24] syn_ = new FastInhib(0.166666666667)'
p425
I2
(dp426
S'seg'
p427
F0.5
sS'hostfrom'
p428
F9.0
sS'gid'
p429
I105
sS'coords'
p430
g7
(g8
(I0
tp431
g10
tp432
Rp433
(I1
(I3
tp434
g14
(S'f8'
p435
I0
I1
tp436
Rp437
(I3
S'<'
p438
NNNI-1
I-1
I0
tp439
bI00
S'\x00\x00\x00\xa0Ga!@d\x08My\x84\x89F\xc0dA~7\x84!6\xc0'
p440
tp441
bsS'secnames'
p442
S'Cell[2].axon[4]'
p443
sI105
I115
tp444
a(F0.8918857602408029
S'Cell[2].dend[9] syn_ = new FastInhib(0.5)'
p445
I2
(dp446
g427
F0.16666666666666666
sg428
F9.0
sg429
I105
sg430
g7
(g8
(I0
tp447
g10
tp448
Rp449
(I1
(I3
tp450
g437
I00
S'\x01\x07\xc1\xedM\xcc&\xc0h\x8cH\xcd\xab\xb6Y@*Y\xde\x1d\xd5\\8\xc0'
p451
tp452
bsg442
S'Cell[2].axon[49]'
p453
sI105
I115
tp454
a(F2.317703112599429
S'Cell[2].dend[24] syn_ = new FastInhib(0.166666666667)'
p455
I2
(dp456
g427
F0.5
sg428
F9.0
sg429
I105
sg430
g7
(g8
(I0
tp457
g10
tp458
Rp459
(I1
(I3
tp460
g437
I00
S'n\xdf\r\x82\x13\x80 @\xdcl\xb9\n?bF\xc0r,\x953\x0c\x135\xc0'
p461
tp462
bsg442
S'Cell[2].axon[60]'
p463
sI105
I115
tp464
a(F2.3847122818643682
S'Cell[0].dend[13] syn_ = new ExpSid(0.166666666667)'
p465
I0
(dp466
g427
F0.1
sg428
F9.0
sg429
I105
sg430
g7
(g8
(I0
tp467
g10
tp468
Rp469
(I1
(I3
tp470
g437
I00
S'\xb3 h\x10\x1d\x9f"\xc0>&U\x15\x87\xfdB\xc0\x1c\xeaf\x80\xdf J\xc0'
p471
tp472
bsg442
S'Cell[2].axon[272]'
p473
sI105
I19
tp474
a(F0.9015660936768576
S'Cell[0].dend[7] syn_ = new AmpaNmda(0.5)'
p475
I0
(dp476
S'seg'
p477
F0.7
sS'hostfrom'
p478
F10.0
sS'gid'
p479
I106
sS'coords'
p480
g7
(g8
(I0
tp481
g10
tp482
Rp483
(I1
(I3
tp484
g14
(S'f8'
p485
I0
I1
tp486
Rp487
(I3
S'<'
p488
NNNI-1
I-1
I0
tp489
bI00
S"\x82\xb4C9\xf50'\xc0T\xe4\xf5,8\x8c\x18@\x8c\xf4\xfe\xca\x0c\xef/\xc0"
p490
tp491
bsS'secnames'
p492
S'Cell[2].axon[12]'
p493
sI106
I19
tp494
a(F2.103138027411262
S'Cell[0].dend[25] syn_ = new AmpaNmda(0.357142857143)'
p495
I0
(dp496
g477
F0.8333333333333333
sg478
F10.0
sg479
I106
sg480
g7
(g8
(I0
tp497
g10
tp498
Rp499
(I1
(I3
tp500
g487
I00
S'\x10\xa2*\xb1\x93\xb5G@J\xf1\x08S\x8a\xe5A\xc0\x00\x00\x00`f&<\xc0'
p501
tp502
bsg492
S'Cell[2].axon[34]'
p503
sI106
I19
tp504
a(F2.098510557218265
S'Cell[3].apic[39] syn_ = new FastInhib(0.166666666667)'
p505
I3
(dp506
g477
F0.16666666666666666
sg478
F10.0
sg479
I106
sg480
g7
(g8
(I0
tp507
g10
tp508
Rp509
(I1
(I3
tp510
g487
I00
S'\x00\xc3\x9b\x97\xa4\xd7B@"\xd4\x9b5_\xbd`@\x00\x00\x00\x00\x00\xc06\xc0'
p511
tp512
bsg492
S'Cell[2].axon[51]'
p513
sI106
I163
tp514
a(F1.0721296858787646
S'Cell[3].dend[24] syn_ = new FastInhib(0.5)'
p515
I3
(dp516
g477
F0.5
sg478
F10.0
sg479
I106
sg480
g7
(g8
(I0
tp517
g10
tp518
Rp519
(I1
(I3
tp520
g487
I00
S'Z\x98{\xf9\xc1\xad0@\xae\x84\xb3\xba\xfaF,\xc0B\xde\xbe\xffQ\xd7#@'
p521
tp522
bsg492
S'Cell[2].axon[189]'
p523
sI106
I163
tp524
a(F1.7214706911269138
S'Cell[1].dend[5] syn_ = new AmpaNmda(0.3)'
p525
I1
(dp526
g477
F0.5
sg478
F10.0
sg479
I106
sg480
g7
(g8
(I0
tp527
g10
tp528
Rp529
(I1
(I3
tp530
g487
I00
S'\xd2&\xc9\x1a\xb9?\xf2\xbf\x86;\x879r\xdf:\xc0\x00\x00\x00\xe0\xa3\x10B\xc0'
p531
tp532
bsg492
S'Cell[2].axon[278]'
p533
sI106
I67
tp534
a(F1.516689324439436
S'Cell[1].dend[1] syn_ = new ExpSid(0.5)'
p535
I1
(dp536
S'seg'
p537
F0.8333333333333333
sS'hostfrom'
p538
F11.0
sS'gid'
p539
I155
sS'coords'
p540
g7
(g8
(I0
tp541
g10
tp542
Rp543
(I1
(I3
tp544
g14
(S'f8'
p545
I0
I1
tp546
Rp547
(I3
S'<'
p548
NNNI-1
I-1
I0
tp549
bI00
S'`r?\xd416,@0T\x8b\x82\xc3\xab0@\x02>j\xb3s\x854\xc0'
p550
tp551
bsS'secnames'
p552
S'Cell[3].axon[184]'
p553
sI155
I67
tp554
a(F2.0524022002698032
S'Cell[0].dend[30] syn_ = new AmpaNmda(0.7)'
p555
I0
(dp556
S'seg'
p557
F0.16666666666666666
sS'hostfrom'
p558
F12.0
sS'gid'
p559
I60
sS'coords'
p560
g7
(g8
(I0
tp561
g10
tp562
Rp563
(I1
(I3
tp564
g14
(S'f8'
p565
I0
I1
tp566
Rp567
(I3
S'<'
p568
NNNI-1
I-1
I0
tp569
bI00
S'\x1b\xffTad\x8e>@\xfc\xc1\xd9\x06\xd4\x03[\xc0\x00\x00\x00`\x8f\xc2#@'
p570
tp571
bsS'secnames'
p572
S'Cell[1].axon[3]'
p573
sI60
I19
tp574
a(F1.3971821100010708
S'Cell[1].dend[6] syn_ = new AmpaNmda(0.5)'
p575
I1
(dp576
g557
F0.7857142857142856
sg558
F12.0
sg559
I156
sg560
g7
(g8
(I0
tp577
g10
tp578
Rp579
(I1
(I3
tp580
g567
I00
S'e\x06%\xfc\xe0\'N@\x97\xb7j,\xc5\xc2<\xc0x\t"\t}\xe6H\xc0'
p581
tp582
bsg572
S'Cell[3].axon[580]'
p583
sI156
I67
tp584
a(F2.2213324649144455
S'Cell[2].dend[34] syn_ = new FastInhib(0.5)'
p585
I2
(dp586
g557
F0.16666666666666666
sg558
F12.0
sg559
I108
sg560
g7
(g8
(I0
tp587
g10
tp588
Rp589
(I1
(I3
tp590
g567
I00
S'\xe4\xdd\x8f\x87c\xa2>@\x82\x81\xe6\xb4\xa0\xf62@\xd2p\x9f\x01|\x9a#\xc0'
p591
tp592
bsg572
S'Cell[2].axon[18]'
p593
sI108
I115
tp594
a(F2.4468458465458167
S'Cell[3].apic[40] syn_ = new FastInhib(0.5)'
p595
I3
(dp596
S'seg'
p597
F0.5
sS'hostfrom'
p598
F13.0
sS'gid'
p599
I109
sS'coords'
p600
g7
(g8
(I0
tp601
g10
tp602
Rp603
(I1
(I3
tp604
g14
(S'f8'
p605
I0
I1
tp606
Rp607
(I3
S'<'
p608
NNNI-1
I-1
I0
tp609
bI00
S'\xfc\x00\x9c\x0b\x0f\xc0E@4\xea\x8dIY\xfde@\x00\x00\x00\x80=\n\x14@'
p610
tp611
bsS'secnames'
p612
S'Cell[2].axon[6]'
p613
sI109
I163
tp614
a(F2.449878682832831
S'Cell[0].dend[21] syn_ = new ExpSid(0.357142857143)'
p615
I0
(dp616
g597
F0.30000000000000004
sg598
F13.0
sg599
I109
sg600
g7
(g8
(I0
tp617
g10
tp618
Rp619
(I1
(I3
tp620
g607
I00
S'm\xe5\xd8>\xb1\x80T@2n\x17\xf0\x83j@@YKMNG[I\xc0'
p621
tp622
bsg612
S'Cell[2].axon[127]'
p623
sI109
I19
tp624
a(F2.421309983167831
S'Cell[2].dend[12] syn_ = new FastInhib(0.5)'
p625
I2
(dp626
g597
F0.05555555555555555
sg598
F13.0
sg599
I109
sg600
g7
(g8
(I0
tp627
g10
tp628
Rp629
(I1
(I3
tp630
g607
I00
S'c\xe2\x8d\x0b \x15P\xc0\xc3E6\x06\xd3\xadR@\x84\xfc\x89}\xc4A4@'
p631
tp632
bsg612
S'Cell[2].axon[275]'
p633
sI109
I115
tp634
a(F1.1914235864025289
S'Cell[0].dend[5] syn_ = new AmpaNmda(0.166666666667)'
p635
I0
(dp636
S'seg'
p637
F0.5
sS'hostfrom'
p638
F14.0
sS'gid'
p639
I110
sS'coords'
p640
g7
(g8
(I0
tp641
g10
tp642
Rp643
(I1
(I3
tp644
g14
(S'f8'
p645
I0
I1
tp646
Rp647
(I3
S'<'
p648
NNNI-1
I-1
I0
tp649
bI00
S'(P\x9cv\x04\xd75@\x1aoL\xae)\xdbA\xc01]\xc5Q\xa6\xf0G\xc0'
p650
tp651
bsS'secnames'
p652
S'Cell[2].axon[42]'
p653
sI110
I19
tp654
a(F1.0745977796657504
S'Cell[0].dend[33] syn_ = new AmpaNmda(0.0714285714286)'
p655
I0
(dp656
g637
F0.5
sg638
F14.0
sg639
I110
sg640
g7
(g8
(I0
tp657
g10
tp658
Rp659
(I1
(I3
tp660
g647
I00
S"\x00\x00\x00\xc0\xcc\x0c?@\xaa\xf2@\x1d&\xbd'\xc0\xfe\x93Y\xe1\xd0\xcd\x10\xc0"
p661
tp662
bsg652
S'Cell[2].axon[68]'
p663
sI110
I19
tp664
a(F1.6621643826439716
S'Cell[3].dend[25] syn_ = new FastInhib(0.3)'
p665
I3
(dp666
g637
F0.8333333333333333
sg638
F14.0
sg639
I110
sg640
g7
(g8
(I0
tp667
g10
tp668
Rp669
(I1
(I3
tp670
g647
I00
S"\xb6\xfeU\xef\xa36K@&\xcbd\x94\xa2H.\xc0\xb8\xd5\xf6\xec,\x8a'@"
p671
tp672
bsg652
S'Cell[2].axon[134]'
p673
sI110
I163
tp674
a(F1.5066691146186888
S'Cell[3].apic[29] syn_ = new FastInhib(0.3)'
p675
I3
(dp676
S'seg'
p677
F0.5
sS'hostfrom'
p678
F15.0
sS'gid'
p679
I159
sS'coords'
p680
g7
(g8
(I0
tp681
g10
tp682
Rp683
(I1
(I3
tp684
g14
(S'f8'
p685
I0
I1
tp686
Rp687
(I3
S'<'
p688
NNNI-1
I-1
I0
tp689
bI00
S'\x82\xc4\x06\xd3Z\x18\xd5\xbf:\xb6\xf2:S\xb6I@\x12\x8b\xa0\xb7\xe4($\xc0'
p690
tp691
bsS'secnames'
p692
S'Cell[3].axon[35]'
p693
sI159
I163
tp694
a(F0.8442642907214134
S'Cell[2].dend[12] syn_ = new FastInhib(0.166666666667)'
p695
I2
(dp696
g677
F0.16666666666666666
sg678
F15.0
sg679
I159
sg680
g7
(g8
(I0
tp697
g10
tp698
Rp699
(I1
(I3
tp700
g687
I00
S'\xec\x88\x8e\xb5\x10iJ\xc0\x18\xb3\x14\xe8\xbc$N@\x00\x00\x00\xa0\x99\x99!@'
p701
tp702
bsg692
S'Cell[3].axon[293]'
p703
sI159
I115
tp704
a(F0.9717913895920957
S'Cell[2].dend[32] syn_ = new FastInhib(0.1)'
p705
I2
(dp706
S'seg'
p707
F0.5
sS'hostfrom'
p708
F16.0
sS'gid'
p709
I16
sS'coords'
p710
g7
(g8
(I0
tp711
g10
tp712
Rp713
(I1
(I3
tp714
g14
(S'f8'
p715
I0
I1
tp716
Rp717
(I3
S'<'
p718
NNNI-1
I-1
I0
tp719
bI00
S'\x00\x00\x00\xd8\xa3pG\xc0\x00\x00\x00\xe0z\x94(\xc0\x00\x00\x00@\n\xd7\x0f@'
p720
tp721
bsS'secnames'
p722
S'Cell[0].soma[0]'
p723
sI16
I115
tp724
a(F1.0900731405357944
S'Cell[3].apic[30] syn_ = new FastInhib(0.5)'
p725
I3
(dp726
g707
F0.1
sg708
F16.0
sg709
I160
sg710
g7
(g8
(I0
tp727
g10
tp728
Rp729
(I1
(I3
tp730
g717
I00
S',m#\x88b\xeeE@f5Bv<\x82a@\x0f\x98\xbc~\x93pB\xc0'
p731
tp732
bsg722
S'Cell[3].axon[34]'
p733
sI160
I163
tp734
a(F2.340077385252736
S'Cell[1].dend[5] syn_ = new AmpaNmda(0.1)'
p735
I1
(dp736
g707
F0.8333333333333333
sg708
F16.0
sg709
I160
sg710
g7
(g8
(I0
tp737
g10
tp738
Rp739
(I1
(I3
tp740
g717
I00
S"\x8f\x9e*w(\xad'@\x0c\xf6|\xac\xba\xa8#\xc0P\x86\x86\x89\x91\x8a@\xc0"
p741
tp742
bsg722
S'Cell[3].axon[117]'
p743
sI160
I67
tp744
a(F0.7648077320192427
S'Cell[2].dend[34] syn_ = new FastInhib(0.5)'
p745
I2
(dp746
g707
F0.1
sg708
F16.0
sg709
I160
sg710
g7
(g8
(I0
tp747
g10
tp748
Rp749
(I1
(I3
tp750
g717
I00
S'&V\x87\x87\xe6q<@\xcdK\xe8,\xa4W1@\x89\x92I<\x16K"\xc0'
p751
tp752
bsg722
S'Cell[3].axon[131]'
p753
sI160
I115
tp754
a(F2.292588043256402
S'Cell[0].dend[23] syn_ = new AmpaNmda(0.5)'
p755
I0
(dp756
g707
F0.5
sg708
F16.0
sg709
I112
sg710
g7
(g8
(I0
tp757
g10
tp758
Rp759
(I1
(I3
tp760
g717
I00
S'_\xab%\xd9\x87\xb8;@!:\xf2M\x1e\xe1+@\xee\x94\xeeh\x8f@$\xc0'
p761
tp762
bsg722
S'Cell[2].axon[96]'
p763
sI112
I19
tp764
a(F2.4450016092897573
S'Cell[0].dend[23] syn_ = new AmpaNmda(0.5)'
p765
I0
(dp766
g707
F0.7
sg708
F16.0
sg709
I112
sg710
g7
(g8
(I0
tp767
g10
tp768
Rp769
(I1
(I3
tp770
g717
I00
S"\x00\x00\x00@\xe1z9@'\nK_\xec\xe8*@\xb4\xbdd\xdb\xc8\xfe#\xc0"
p771
tp772
bsg722
S'Cell[2].axon[206]'
p773
sI112
I19
tp774
a(F1.7232534807066768
S'Cell[0].dend[36] syn_ = new ExpSid(0.833333333333)'
p775
I0
(dp776
S'seg'
p777
F0.5
sS'hostfrom'
p778
F17.0
sS'gid'
p779
I113
sS'coords'
p780
g7
(g8
(I0
tp781
g10
tp782
Rp783
(I1
(I3
tp784
g14
(S'f8'
p785
I0
I1
tp786
Rp787
(I3
S'<'
p788
NNNI-1
I-1
I0
tp789
bI00
S"\xc4\xed\x80\xd9\x00uG@\\']4|6b\xc0\x00\x00\x00\xc0\xf5\xa8%\xc0"
p790
tp791
bsS'secnames'
p792
S'Cell[2].axon[763]'
p793
sI113
I19
tp794
a(F1.437438577821803
S'Cell[2].dend[7] syn_ = new FastInhib(0.357142857143)'
p795
I2
(dp796
g777
F0.16666666666666666
sg778
F17.0
sg779
I161
sg780
g7
(g8
(I0
tp797
g10
tp798
Rp799
(I1
(I3
tp800
g787
I00
S'\x19M\xf7+\x01\xe18@\x1e\xacn\xa4\x13\x10P@\xb4\xad\xcbV+\xc4!@'
p801
tp802
bsg792
S'Cell[3].axon[9]'
p803
sI161
I115
tp804
a(F2.3732495877084627
S'Cell[3].apic[1] syn_ = new FastInhib(0.5)'
p805
I3
(dp806
g777
F0.1
sg778
F17.0
sg779
I161
sg780
g7
(g8
(I0
tp807
g10
tp808
Rp809
(I1
(I3
tp810
g787
I00
S"\xbe\xeeZ9\xe4 \x08\xc0[I Lg$'@\x00\x00\x00\xe0Q\xb8/@"
p811
tp812
bsg792
S'Cell[3].axon[21]'
p813
sI161
I163
tp814
a(F2.4983602585465503
S'Cell[1].apic[7] syn_ = new ExpSid(0.166666666667)'
p815
I1
(dp816
g777
F0.5
sg778
F17.0
sg779
I161
sg780
g7
(g8
(I0
tp817
g10
tp818
Rp819
(I1
(I3
tp820
g787
I00
S'\xee\x11\xb2\xf6*6$@"\xf1\xed\xc9P\x12V@\xce^\x07Za\xe8\x16@'
p821
tp822
bsg792
S'Cell[3].axon[87]'
p823
sI161
I67
tp824
a(F1.884423046335533
S'Cell[2].dend[12] syn_ = new FastInhib(0.166666666667)'
p825
I2
(dp826
S'seg'
p827
F0.5
sS'hostfrom'
p828
F18.0
sS'gid'
p829
I114
sS'coords'
p830
g7
(g8
(I0
tp831
g10
tp832
Rp833
(I1
(I3
tp834
g14
(S'f8'
p835
I0
I1
tp836
Rp837
(I3
S'<'
p838
NNNI-1
I-1
I0
tp839
bI00
S'\x8c\x95\x0f?w\xedI\xc0`\xa3\xbc3?lN@\xf1\xfa?5D.!@'
p840
tp841
bsS'secnames'
p842
S'Cell[2].axon[46]'
p843
sI114
I115
tp844
a(F2.096377463075802
S'Cell[3].apic[15] syn_ = new FastInhib(0.5)'
p845
I3
(dp846
S'seg'
p847
F0.8636363636363638
sS'hostfrom'
p848
F19.0
sS'gid'
p849
I67
sS'coords'
p850
g7
(g8
(I0
tp851
g10
tp852
Rp853
(I1
(I3
tp854
g14
(S'f8'
p855
I0
I1
tp856
Rp857
(I3
S'<'
p858
NNNI-1
I-1
I0
tp859
bI00
S'\x12m)\x9an\xff6\xc0!\x8dc\x84AJ_@\xbe\xc0\xe6\xf9DA0@'
p860
tp861
bsS'secnames'
p862
S'Cell[1].axon[8]'
p863
sI67
I163
tp864
a(F0.8681716835220563
S'Cell[3].dend[1] syn_ = new FastInhib(0.166666666667)'
p865
I3
(dp866
S'seg'
p867
F0.2777777777777778
sS'hostfrom'
p868
F21.0
sS'gid'
p869
I165
sS'coords'
p870
g7
(g8
(I0
tp871
g10
tp872
Rp873
(I1
(I3
tp874
g14
(S'f8'
p875
I0
I1
tp876
Rp877
(I3
S'<'
p878
NNNI-1
I-1
I0
tp879
bI00
S'\xb2\x93\xbf\x8do\x16?\xc0\x7f\xcd\xe6\x00\xfb\x97D\xc0\xefS\xee\x86jP\x1c@'
p880
tp881
bsS'secnames'
p882
S'Cell[3].axon[230]'
p883
sI165
I163
tp884
a(F1.398412471269339
S'Cell[0].dend[33] syn_ = new AmpaNmda(0.928571428571)'
p885
I0
(dp886
S'seg'
p887
F0.8333333333333333
sS'hostfrom'
p888
F22.0
sS'gid'
p889
I118
sS'coords'
p890
g7
(g8
(I0
tp891
g10
tp892
Rp893
(I1
(I3
tp894
g14
(S'f8'
p895
I0
I1
tp896
Rp897
(I3
S'<'
p898
NNNI-1
I-1
I0
tp899
bI00
S'\xd0d\xf9d\xear]@\xdc\xac\xb3\xeb,nD\xc0\x00\x00\x00`\x8f\x822\xc0'
p900
tp901
bsS'secnames'
p902
S'Cell[2].axon[400]'
p903
sI118
I19
tp904
a(F2.134820448332636
S'Cell[2].dend[21] syn_ = new FastInhib(0.5)'
p905
I2
(dp906
g887
F0.16666666666666666
sg888
F22.0
sg889
I70
sg890
g7
(g8
(I0
tp907
g10
tp908
Rp909
(I1
(I3
tp910
g897
I00
S'\x0bBzO\x06T5\xc0{\xbe\x06\x9aa&A\xc06\xcd\x99Iv\xe3\xea\xbf'
p911
tp912
bsg902
S'Cell[1].axon[8]'
p913
sI70
I115
tp914
a(F2.2634536899970294
S'Cell[3].apic[16] syn_ = new FastInhib(0.166666666667)'
p915
I3
(dp916
g887
F0.5
sg888
F22.0
sg889
I166
sg890
g7
(g8
(I0
tp917
g10
tp918
Rp919
(I1
(I3
tp920
g897
I00
S"\x92'G\xa7Km?\xc0\xe6;@\xabS\x97`@\x00\x00\x00\x00\xd7\xa32@"
p921
tp922
bsg902
S'Cell[3].axon[48]'
p923
sI166
I163
tp924
a(F1.8058013803852075
S'Cell[3].apic[15] syn_ = new FastInhib(0.5)'
p925
I3
(dp926
g887
F0.16666666666666666
sg888
F22.0
sg889
I166
sg890
g7
(g8
(I0
tp927
g10
tp928
Rp929
(I1
(I3
tp930
g897
I00
S',/b\xb1\xdf\n9\xc0f\xf5\xb9\xb2\xcc\xb7_@\x00\x00\x00`\x8f\xc2,@'
p931
tp932
bsg902
S'Cell[3].axon[89]'
p933
sI166
I163
tp934
a(F1.72967240055229
S'Cell[2].dend[16] syn_ = new FastInhib(0.5)'
p935
I2
(dp936
g887
F0.5
sg888
F22.0
sg889
I166
sg890
g7
(g8
(I0
tp937
g10
tp938
Rp939
(I1
(I3
tp940
g897
I00
S'8\xc9\xf7;\xb5YS\xc0\xf9\x83\x864\x0etB@\xb1\xa2\x90i\xc1\xa63@'
p941
tp942
bsg902
S'Cell[3].axon[97]'
p943
sI166
I115
tp944
a(F2.388145167801096
S'Cell[3].apic[26] syn_ = new FastInhib(0.214285714286)'
p945
I3
(dp946
g887
F0.5
sg888
F22.0
sg889
I166
sg890
g7
(g8
(I0
tp947
g10
tp948
Rp949
(I1
(I3
tp950
g897
I00
S'Q\xcd\x89\xb2\x9c\xc1\x01\xc0\x8b\xdb\\\x05\xd8FP@\x00\x00\x00 \x85\xab0\xc0'
p951
tp952
bsg902
S'Cell[3].axon[201]'
p953
sI166
I163
tp954
a(F2.382897572029793
S'Cell[3].dend[19] syn_ = new FastInhib(0.5)'
p955
I3
(dp956
S'seg'
p957
F0.5
sS'hostfrom'
p958
F23.0
sS'gid'
p959
I167
sS'coords'
p960
g7
(g8
(I0
tp961
g10
tp962
Rp963
(I1
(I3
tp964
g14
(S'f8'
p965
I0
I1
tp966
Rp967
(I3
S'<'
p968
NNNI-1
I-1
I0
tp969
bI00
S']af\x0b\xbd\xd9@\xc0\x11+X\xd9V\x9eM\xc0\x8cnP\x8a\x8e\x01A\xc0'
p970
tp971
bsS'secnames'
p972
S'Cell[3].axon[28]'
p973
sI167
I163
tp974
a(F1.3369154705811663
S'Cell[1].dend[13] syn_ = new ExpSid(0.5)'
p975
I1
(dp976
S'seg'
p977
F0.16666666666666666
sS'hostfrom'
p978
F25.0
sS'gid'
p979
I121
sS'coords'
p980
g7
(g8
(I0
tp981
g10
tp982
Rp983
(I1
(I3
tp984
g14
(S'f8'
p985
I0
I1
tp986
Rp987
(I3
S'<'
p988
NNNI-1
I-1
I0
tp989
bI00
S'6i \\d\xc1+\xc02S\xf4;\xaa\xcb?@A\xbe\x84\xdd\xce\xdc\xe7?'
p990
tp991
bsS'secnames'
p992
S'Cell[2].axon[3]'
p993
sI121
I67
tp994
a(F2.063370110190296
S'Cell[1].dend[1] syn_ = new ExpSid(0.5)'
p995
I1
(dp996
g977
F0.8333333333333333
sg978
F25.0
sg979
I121
sg980
g7
(g8
(I0
tp997
g10
tp998
Rp999
(I1
(I3
tp1000
g987
I00
S'\xfa6\x90ng\x00(@\xb7\x8aB\xb1\n&0@\x8cV\xb3\xdb\x13\xd11\xc0'
p1001
tp1002
bsg992
S'Cell[2].axon[5]'
p1003
sI121
I67
tp1004
a(F2.0611316467842196
S'Cell[3].apic[42] syn_ = new FastInhib(0.388888888889)'
p1005
I3
(dp1006
g977
F0.5
sg978
F25.0
sg979
I121
sg980
g7
(g8
(I0
tp1007
g10
tp1008
Rp1009
(I1
(I3
tp1010
g987
I00
S'v5\xab\xbb,\xf3D\xc0d\nX\xa5p{V@\x00\x00\x00\xc0\xcc\xcc\x14\xc0'
p1011
tp1012
bsg992
S'Cell[2].axon[108]'
p1013
sI121
I163
tp1014
a(F2.4319278864679084
S'Cell[3].apic[42] syn_ = new FastInhib(0.611111111111)'
p1015
I3
(dp1016
g977
F0.16666666666666666
sg978
F25.0
sg979
I121
sg980
g7
(g8
(I0
tp1017
g10
tp1018
Rp1019
(I1
(I3
tp1020
g987
I00
S'}}\xa5\x9a\xaaLO\xc0\x9c_-\xfcd!_@\x06i\xe3\x0f\xcf\xe1\x03\xc0'
p1021
tp1022
bsg992
S'Cell[2].axon[123]'
p1023
sI121
I163
tp1024
a(F1.9005696481252474
S'Cell[2].dend[25] syn_ = new FastInhib(0.5)'
p1025
I2
(dp1026
g977
F0.5
sg978
F25.0
sg979
I121
sg980
g7
(g8
(I0
tp1027
g10
tp1028
Rp1029
(I1
(I3
tp1030
g987
I00
S'\xa7Q\xdc\xdfJ\x91B\xc0\xd4\xf4\x86\xf0\xaf**@Z\xf1C\xa9Q\x17\x14\xc0'
p1031
tp1032
bsg992
S'Cell[2].axon[195]'
p1033
sI121
I115
tp1034
a(F2.1537354147674983
S'Cell[0].dend[36] syn_ = new AmpaNmda(0.833333333333)'
p1035
I0
(dp1036
S'seg'
p1037
F0.5
sS'hostfrom'
p1038
F26.0
sS'gid'
p1039
I122
sS'coords'
p1040
g7
(g8
(I0
tp1041
g10
tp1042
Rp1043
(I1
(I3
tp1044
g14
(S'f8'
p1045
I0
I1
tp1046
Rp1047
(I3
S'<'
p1048
NNNI-1
I-1
I0
tp1049
bI00
S'\xc6\xe4N^\x12nF@\xd1k\xcfE:]b\xc0h\xb7\xceb1\xa9)\xc0'
p1050
tp1051
bsS'secnames'
p1052
S'Cell[2].axon[1]'
p1053
sI122
I19
tp1054
a(F2.455896002846129
S'Cell[3].dend[4] syn_ = new FastInhib(0.5)'
p1055
I3
(dp1056
g1037
F0.8333333333333333
sg1038
F26.0
sg1039
I74
sg1040
g7
(g8
(I0
tp1057
g10
tp1058
Rp1059
(I1
(I3
tp1060
g1047
I00
S"\xe5\x84\n\xa4h\xfb=\xc0I\xd1'\x19]\x83@\xc0\x88\x02\xc0\xeeN\x9d#@"
p1061
tp1062
bsg1052
S'Cell[1].axon[0]'
p1063
sI74
I163
tp1064
a(F1.6673132093156342
S'Cell[1].apic[2] syn_ = new ExpSid(0.3)'
p1065
I1
(dp1066
S'seg'
p1067
F0.5
sS'hostfrom'
p1068
F27.0
sS'gid'
p1069
I75
sS'coords'
p1070
g7
(g8
(I0
tp1071
g10
tp1072
Rp1073
(I1
(I3
tp1074
g14
(S'f8'
p1075
I0
I1
tp1076
Rp1077
(I3
S'<'
p1078
NNNI-1
I-1
I0
tp1079
bI00
S'\x08\x88\xda`GhP@\x02Y\x7f\xe1\xb3\xccQ@0\xddt\xdb\xd3\x80\x1b\xc0'
p1080
tp1081
bsS'secnames'
p1082
S'Cell[1].axon[2]'
p1083
sI75
I67
tp1084
a(F0.9479082582672099
S'Cell[0].dend[33] syn_ = new ExpSid(0.5)'
p1085
I0
(dp1086
g1067
F0.5
sg1068
F27.0
sg1069
I75
sg1070
g7
(g8
(I0
tp1087
g10
tp1088
Rp1089
(I1
(I3
tp1090
g1077
I00
S'[YZ\xf3\xeb\xa1S@=\x0f\x19\xca\t\x80C\xc0\x00\x00\x00 \\\x8f#@'
p1091
tp1092
bsg1082
S'Cell[1].axon[11]'
p1093
sI75
I19
tp1094
a(F2.301137617747144
S'Cell[3].apic[0] syn_ = new FastInhib(0.5)'
p1095
I3
(dp1096
g1067
F0.1
sg1068
F27.0
sg1069
I27
sg1070
g7
(g8
(I0
tp1097
g10
tp1098
Rp1099
(I1
(I3
tp1100
g1077
I00
S'&\xdc\xb3&\xf4\x05\x03\xc0]\x1c\x1cf\x8eY\xff?N\xc3u\xdep\xa1\x15@'
p1101
tp1102
bsg1082
S'Cell[0].axon[4]'
p1103
sI27
I163
tp1104
a(F2.326010937739973
S'Cell[1].dend[7] syn_ = new ExpSid(0.1)'
p1105
I1
(dp1106
g1067
F0.8333333333333333
sg1068
F27.0
sg1069
I171
sg1070
g7
(g8
(I0
tp1107
g10
tp1108
Rp1109
(I1
(I3
tp1110
g1077
I00
S'\xab\xe8\x13\xe0\xdb\xca@@$lVV\\\xa6\x11@\xda\x1ck\x84\xe6:3\xc0'
p1111
tp1112
bsg1082
S'Cell[3].axon[31]'
p1113
sI171
I67
tp1114
a(F0.7623294306284862
S'Cell[1].dend[23] syn_ = new ExpSid(0.166666666667)'
p1115
I1
(dp1116
g1067
F0.5
sg1068
F27.0
sg1069
I171
sg1070
g7
(g8
(I0
tp1117
g10
tp1118
Rp1119
(I1
(I3
tp1120
g1077
I00
S"\x8b\xaa\xc4\xe7\x84 I@\xb2\xcc\xaa'\xe7};@\x12\x96\xc2\x19\x11{\x04@"
p1121
tp1122
bsg1082
S'Cell[3].axon[32]'
p1123
sI171
I67
tp1124
a(F1.1516146288323512
S'Cell[1].dend[20] syn_ = new AmpaNmda(0.5)'
p1125
I1
(dp1126
S'seg'
p1127
F0.5
sS'hostfrom'
p1128
F28.0
sS'gid'
p1129
I172
sS'coords'
p1130
g7
(g8
(I0
tp1131
g10
tp1132
Rp1133
(I1
(I3
tp1134
g14
(S'f8'
p1135
I0
I1
tp1136
Rp1137
(I3
S'<'
p1138
NNNI-1
I-1
I0
tp1139
bI00
S'%<)evM4\xc002_M\x0b\xba0\xc0\x00\x00\x00\xa0\x99Y6\xc0'
p1140
tp1141
bsS'secnames'
p1142
S'Cell[3].axon[0]'
p1143
sI172
I67
tp1144
a(F2.0558659180795305
S'Cell[2].dend[14] syn_ = new FastInhib(0.388888888889)'
p1145
I2
(dp1146
S'seg'
p1147
F0.8333333333333333
sS'hostfrom'
p1148
F29.0
sS'gid'
p1149
I173
sS'coords'
p1150
g7
(g8
(I0
tp1151
g10
tp1152
Rp1153
(I1
(I3
tp1154
g14
(S'f8'
p1155
I0
I1
tp1156
Rp1157
(I3
S'<'
p1158
NNNI-1
I-1
I0
tp1159
bI00
S't\xd4!V\x9d\xfe\x13\xc0@t\xb5\xd7\xf0FX@\x00\x00\x00 \\\x8f?\xc0'
p1160
tp1161
bsS'secnames'
p1162
S'Cell[3].axon[0]'
p1163
sI173
I115
tp1164
a(F1.3620059750428588
S'Cell[2].dend[27] syn_ = new FastInhib(0.7)'
p1165
I2
(dp1166
g1147
F0.5
sg1148
F29.0
sg1149
I29
sg1150
g7
(g8
(I0
tp1167
g10
tp1168
Rp1169
(I1
(I3
tp1170
g1157
I00
S"\x14\xb0\xb5\xf5\xb31G\xc0\xfa\xed\xb5\xf2\x14>_\xc07\x84'\x1c\xf6\xde\x17@"
p1171
tp1172
bsg1162
S'Cell[0].axon[17]'
p1173
sI29
I115
tp1174
a(F1.6086873305240887
S'Cell[1].dend[24] syn_ = new AmpaNmda(0.5)'
p1175
I1
(dp1176
S'seg'
p1177
F0.8333333333333333
sS'hostfrom'
p1178
F30.0
sS'gid'
p1179
I126
sS'coords'
p1180
g7
(g8
(I0
tp1181
g10
tp1182
Rp1183
(I1
(I3
tp1184
g14
(S'f8'
p1185
I0
I1
tp1186
Rp1187
(I3
S'<'
p1188
NNNI-1
I-1
I0
tp1189
bI00
S'W2Vl\x88/7@\xd0\x1d\x06t\x0c\n=@\x8a\x9a\xe9\x05-L$@'
p1190
tp1191
bsS'secnames'
p1192
S'Cell[2].axon[30]'
p1193
sI126
I67
tp1194
a(F1.406475598422667
S'Cell[1].dend[20] syn_ = new AmpaNmda(0.3)'
p1195
I1
(dp1196
g1177
F0.8333333333333333
sg1178
F30.0
sg1179
I126
sg1180
g7
(g8
(I0
tp1197
g10
tp1198
Rp1199
(I1
(I3
tp1200
g1187
I00
S'\xf1Cjy\x1b@3\xc0l\xe9i\xf1\x84d\x01@\x00\x00\x00\x80=J1\xc0'
p1201
tp1202
bsg1192
S'Cell[2].axon[34]'
p1203
sI126
I67
tp1204
a(F2.0280800326283246
S'Cell[0].dend[10] syn_ = new AmpaNmda(0.833333333333)'
p1205
I0
(dp1206
g1177
F0.16666666666666666
sg1178
F30.0
sg1179
I126
sg1180
g7
(g8
(I0
tp1207
g10
tp1208
Rp1209
(I1
(I3
tp1210
g1187
I00
S'\xd8\xf8\x8a\x86\xf7$0\xc0l\xd7qTD\xacC\xc0\xbeq(\xb1\x90jP\xc0'
p1211
tp1212
bsg1192
S'Cell[2].axon[43]'
p1213
sI126
I19
tp1214
a(F2.070896331439328
S'Cell[1].apic[8] syn_ = new AmpaNmda(0.0714285714286)'
p1215
I1
(dp1216
g1177
F0.5
sg1178
F30.0
sg1179
I126
sg1180
g7
(g8
(I0
tp1217
g10
tp1218
Rp1219
(I1
(I3
tp1220
g1187
I00
S"\xaf\xc8=\x05\x12\x0e+@\xbc\xbd'\x052.X@\xd9D\x15\x10PO\x07@"
p1221
tp1222
bsg1192
S'Cell[2].axon[177]'
p1223
sI126
I67
tp1224
a(F2.228648200219325
S'Cell[1].dend[19] syn_ = new AmpaNmda(0.214285714286)'
p1225
I1
(dp1226
g1177
F0.5
sg1178
F30.0
sg1179
I174
sg1180
g7
(g8
(I0
tp1227
g10
tp1228
Rp1229
(I1
(I3
tp1230
g1187
I00
S'f\xb38B\xa8\x8eD\xc0\x08\xfd\x11\xc5\xe9TA@\xa8+\xc0#\xc7h1\xc0'
p1231
tp1232
bsg1192
S'Cell[3].axon[40]'
p1233
sI174
I67
tp1234
a(F1.8726027968975383
S'Cell[1].dend[19] syn_ = new AmpaNmda(0.214285714286)'
p1235
I1
(dp1236
g1177
F0.5
sg1178
F30.0
sg1179
I174
sg1180
g7
(g8
(I0
tp1237
g10
tp1238
Rp1239
(I1
(I3
tp1240
g1187
I00
S'\xf2k{\xdd\xa9\x99D\xc0\xd7\xa3(4:+B@\x9d\xd3\x88\x08\xdb80\xc0'
p1241
tp1242
bsg1192
S'Cell[3].axon[307]'
p1243
sI174
I67
tp1244
a(F2.4113913479274065
S'Cell[1].apic[8] syn_ = new ExpSid(0.928571428571)'
p1245
I1
(dp1246
S'seg'
p1247
F0.5
sS'hostfrom'
p1248
F31.0
sS'gid'
p1249
I175
sS'coords'
p1250
g7
(g8
(I0
tp1251
g10
tp1252
Rp1253
(I1
(I3
tp1254
g14
(S'f8'
p1255
I0
I1
tp1256
Rp1257
(I3
S'<'
p1258
NNNI-1
I-1
I0
tp1259
bI00
S'\xec\xa0\x1b\xfe\x86F:@\x0b\x9eh\x17\xf5lm@\xe5#\x9ctd\xf50@'
p1260
tp1261
bsS'secnames'
p1262
S'Cell[3].axon[353]'
p1263
sI175
I67
tp1264
a(F1.6618713175126267
S'Cell[2].dend[21] syn_ = new FastInhib(0.5)'
p1265
I2
(dp1266
S'seg'
p1267
F0.8333333333333333
sS'hostfrom'
p1268
F32.0
sS'gid'
p1269
I176
sS'coords'
p1270
g7
(g8
(I0
tp1271
g10
tp1272
Rp1273
(I1
(I3
tp1274
g14
(S'f8'
p1275
I0
I1
tp1276
Rp1277
(I3
S'<'
p1278
NNNI-1
I-1
I0
tp1279
bI00
S'J\xdd\xd2\xd5\xa6\xcc5\xc0\x08\x06\xcd4y\xe1@\xc0\x04\x06v\xee\x9c\x87\xe6\xbf'
p1280
tp1281
bsS'secnames'
p1282
S'Cell[3].axon[11]'
p1283
sI176
I115
tp1284
a(F2.074608372862429
S'Cell[2].dend[14] syn_ = new FastInhib(0.166666666667)'
p1285
I2
(dp1286
S'seg'
p1287
F0.5
sS'hostfrom'
p1288
F33.0
sS'gid'
p1289
I129
sS'coords'
p1290
g7
(g8
(I0
tp1291
g10
tp1292
Rp1293
(I1
(I3
tp1294
g14
(S'f8'
p1295
I0
I1
tp1296
Rp1297
(I3
S'<'
p1298
NNNI-1
I-1
I0
tp1299
bI00
S'\x1a\xddW\xba\x86\x9c<\xc0\x00\x00\x00\x00)\x1cQ@\xdal+\x17\xbe\x95-\xc0'
p1300
tp1301
bsS'secnames'
p1302
S'Cell[2].axon[30]'
p1303
sI129
I115
tp1304
a(F2.405013000125766
S'Cell[1].apic[8] syn_ = new ExpSid(0.928571428571)'
p1305
I1
(dp1306
g1287
F0.5
sg1288
F33.0
sg1289
I177
sg1290
g7
(g8
(I0
tp1307
g10
tp1308
Rp1309
(I1
(I3
tp1310
g1297
I00
S'\x98\xa3\xe6\xd6\x07,:@\x1a\x000\xfb\xbd\x94m@\xd8LxDi\xfa/@'
p1311
tp1312
bsg1302
S'Cell[3].axon[114]'
p1313
sI177
I67
tp1314
a(F2.0102176214829726
S'Cell[3].apic[26] syn_ = new FastInhib(0.357142857143)'
p1315
I3
(dp1316
g1287
F0.5
sg1288
F33.0
sg1289
I177
sg1290
g7
(g8
(I0
tp1317
g10
tp1318
Rp1319
(I1
(I3
tp1320
g1297
I00
S'\xcc\xe1\xe2h\x85\x8b\x10\xc0\x1b\xb2K!\xd9sV@\xf6M\x04\x8d\x07\x003\xc0'
p1321
tp1322
bsg1302
S'Cell[3].axon[178]'
p1323
sI177
I163
tp1324
a(F2.493973540240566
S'Cell[3].dend[6] syn_ = new FastInhib(0.833333333333)'
p1325
I3
(dp1326
S'seg'
p1327
F0.07142857142857142
sS'hostfrom'
p1328
F34.0
sS'gid'
p1329
I82
sS'coords'
p1330
g7
(g8
(I0
tp1331
g10
tp1332
Rp1333
(I1
(I3
tp1334
g14
(S'f8'
p1335
I0
I1
tp1336
Rp1337
(I3
S'<'
p1338
NNNI-1
I-1
I0
tp1339
bI00
S'w\xe5\xc0T\x02\x07Y\xc0\xb4T\x84\xc2\x9a\xbc\x00\xc0i\xc6UL9\xa7\t@'
p1340
tp1341
bsS'secnames'
p1342
S'Cell[1].axon[145]'
p1343
sI82
I163
tp1344
a(F2.4556145214340783
S'Cell[1].dend[6] syn_ = new AmpaNmda(0.3)'
p1345
I1
(dp1346
g1327
F0.5
sg1328
F34.0
sg1329
I178
sg1330
g7
(g8
(I0
tp1347
g10
tp1348
Rp1349
(I1
(I3
tp1350
g1337
I00
S"\xf8\x96\t\xfa\xabFG@\xa2\x86L#'\xd4-\xc0\x00\x00\x00\x80\x14.F\xc0"
p1351
tp1352
bsg1342
S'Cell[3].axon[98]'
p1353
sI178
I67
tp1354
a(F1.2764566480495578
S'Cell[3].dend[25] syn_ = new FastInhib(0.3)'
p1355
I3
(dp1356
S'seg'
p1357
F0.30000000000000004
sS'hostfrom'
p1358
F35.0
sS'gid'
p1359
I83
sS'coords'
p1360
g7
(g8
(I0
tp1361
g10
tp1362
Rp1363
(I1
(I3
tp1364
g14
(S'f8'
p1365
I0
I1
tp1366
Rp1367
(I3
S'<'
p1368
NNNI-1
I-1
I0
tp1369
bI00
S'[\xe5\xb5\x05j7L@A6 \xcc\xee\xf0+\xc0c\xf7|}\xc4\t&@'
p1370
tp1371
bsS'secnames'
p1372
S'Cell[1].axon[205]'
p1373
sI83
I163
tp1374
a(F2.480689683868967
S'Cell[3].apic[29] syn_ = new FastInhib(0.5)'
p1375
I3
(dp1376
g1357
F0.5
sg1358
F35.0
sg1359
I179
sg1360
g7
(g8
(I0
tp1377
g10
tp1378
Rp1379
(I1
(I3
tp1380
g1367
I00
S'L\xaf\x08\xae%\x02-@\xb1\xa6\x90\x05\x0f`R@ \xf6\x9e\xcd\x94\x9d+\xc0'
p1381
tp1382
bsg1372
S'Cell[3].axon[11]'
p1383
sI179
I163
tp1384
a(F1.8389303664836105
S'Cell[3].dend[25] syn_ = new FastInhib(0.3)'
p1385
I3
(dp1386
g1357
F0.30000000000000004
sg1358
F35.0
sg1359
I179
sg1360
g7
(g8
(I0
tp1387
g10
tp1388
Rp1389
(I1
(I3
tp1390
g1367
I00
S'\xcd9\xb5\xd6\xbe\x11L@\x95S6g\xb6y0\xc0\xcb\xe2\xbb\xb2\xae\xe3#@'
p1391
tp1392
bsg1372
S'Cell[3].axon[17]'
p1393
sI179
I163
tp1394
a(F1.443127980671856
S'Cell[0].apic[0] syn_ = new AmpaNmda(0.785714285714)'
p1395
I0
(dp1396
S'seg'
p1397
F0.5
sS'hostfrom'
p1398
F36.0
sS'gid'
p1399
I84
sS'coords'
p1400
g7
(g8
(I0
tp1401
g10
tp1402
Rp1403
(I1
(I3
tp1404
g14
(S'f8'
p1405
I0
I1
tp1406
Rp1407
(I3
S'<'
p1408
NNNI-1
I-1
I0
tp1409
bI00
S'\xaf%\x12\x05e\xd0\xef?m\xde\xf6\xd1\x1b\xfej@\xd6i\xc3K+w-\xc0'
p1410
tp1411
bsS'secnames'
p1412
S'Cell[1].axon[349]'
p1413
sI84
I19
tp1414
a(F2.0045265400217698
S'Cell[1].apic[8] syn_ = new AmpaNmda(0.0714285714286)'
p1415
I1
(dp1416
g1397
F0.1
sg1398
F36.0
sg1399
I84
sg1400
g7
(g8
(I0
tp1417
g10
tp1418
Rp1419
(I1
(I3
tp1420
g1407
I00
S'\x10\xd8\xeaQ\x95\xc30@o\xe0d&j\x1bX@\x99n\x0b\x89\x04V\x12@'
p1421
tp1422
bsg1412
S'Cell[1].axon[497]'
p1423
sI84
I67
tp1424
a(F0.37866261311606647
S'Cell[3].apic[20] syn_ = new FastInhib(0.5)'
p1425
I3
(dp1426
g1397
F0.5
sg1398
F36.0
sg1399
I84
sg1400
g7
(g8
(I0
tp1427
g10
tp1428
Rp1429
(I1
(I3
tp1430
g1407
I00
S"\xed.\x03\x9do\xe1B\xc0s\x9e\xed?<\xd0R@\xbe'\tNp\xa7A@"
p1431
tp1432
bsg1412
S'Cell[1].axon[625]'
p1433
sI84
I163
tp1434
a(F0.7276161031982783
S'Cell[1].dend[8] syn_ = new AmpaNmda(0.9)'
p1435
I1
(dp1436
g1397
F0.7
sg1398
F36.0
sg1399
I132
sg1400
g7
(g8
(I0
tp1437
g10
tp1438
Rp1439
(I1
(I3
tp1440
g1407
I00
S'\xc6\xb7\xda[\xaf\xdb\x13\xc0\x066E\xd0N|X\xc05~\x17\x9bMn\x1a@'
p1441
tp1442
bsg1412
S'Cell[2].axon[16]'
p1443
sI132
I67
tp1444
a(F1.6000395863359282
S'Cell[3].apic[26] syn_ = new FastInhib(0.0714285714286)'
p1445
I3
(dp1446
g1397
F0.21428571428571427
sg1398
F36.0
sg1399
I132
sg1400
g7
(g8
(I0
tp1447
g10
tp1448
Rp1449
(I1
(I3
tp1450
g1407
I00
S'\xc6\xbal\xb4I\x1d\x01\xc0\xee\x953\x85\t^D@\x00\x00\x00\xe0z\x94)\xc0'
p1451
tp1452
bsg1412
S'Cell[2].axon[28]'
p1453
sI132
I163
tp1454
a(F0.9997601305850972
S'Cell[1].apic[0] syn_ = new AmpaNmda(0.5)'
p1455
I1
(dp1456
g1397
F0.16666666666666666
sg1398
F36.0
sg1399
I132
sg1400
g7
(g8
(I0
tp1457
g10
tp1458
Rp1459
(I1
(I3
tp1460
g1407
I00
S'\x0er\xf7;\xbb%+@\x12:I\x7f3XK@&\xc7E\xd0L{\xf8?'
p1461
tp1462
bsg1412
S'Cell[2].axon[58]'
p1463
sI132
I67
tp1464
a(F2.3870355628558624
S'Cell[0].dend[33] syn_ = new AmpaNmda(0.0714285714286)'
p1465
I0
(dp1466
g1397
F0.16666666666666666
sg1398
F36.0
sg1399
I132
sg1400
g7
(g8
(I0
tp1467
g10
tp1468
Rp1469
(I1
(I3
tp1470
g1407
I00
S'b\xc9\x1a\x9e\xe1\x1c@@n\xcb\xe57hl*\xc0\x18B1\x8bQ\xc9\x16\xc0'
p1471
tp1472
bsg1412
S'Cell[2].axon[188]'
p1473
sI132
I19
tp1474
a(F1.7366769701077338
S'Cell[2].dend[34] syn_ = new FastInhib(0.1)'
p1475
I2
(dp1476
g1397
F0.19230769230769232
sg1398
F36.0
sg1399
I180
sg1400
g7
(g8
(I0
tp1477
g10
tp1478
Rp1479
(I1
(I3
tp1480
g1407
I00
S'g\xa2P\xcb\x98\x997\xc0\xb9\x95\xc8\xaa\x9eW0@\x8e\xff\x17uw\xbf\x17\xc0'
p1481
tp1482
bsg1412
S'Cell[3].axon[69]'
p1483
sI180
I115
tp1484
a(F1.9506095954255356
S'Cell[0].dend[30] syn_ = new AmpaNmda(0.7)'
p1485
I0
(dp1486
g1397
F0.16666666666666666
sg1398
F36.0
sg1399
I180
sg1400
g7
(g8
(I0
tp1487
g10
tp1488
Rp1489
(I1
(I3
tp1490
g1407
I00
S'HL\x98\xa9\xa5\xab<@\x9c\x83\x9d\xbc0\xcfZ\xc0\x00\x00\x00\x80\xebQ#@'
p1491
tp1492
bsg1412
S'Cell[3].axon[219]'
p1493
sI180
I19
tp1494
a(F2.2739599752270356
S'Cell[0].dend[10] syn_ = new AmpaNmda(0.166666666667)'
p1495
I0
(dp1496
g1397
F0.5
sg1398
F36.0
sg1399
I180
sg1400
g7
(g8
(I0
tp1497
g10
tp1498
Rp1499
(I1
(I3
tp1500
g1407
I00
S'4\x80\x02\x91\xb0\xcd%\xc0\xbc)\xe8\x02\x0437\xc0\xf7\xee\x824G\\A\xc0'
p1501
tp1502
bsg1412
S'Cell[3].axon[272]'
p1503
sI180
I19
tp1504
a(F2.157923955306489
S'Cell[2].dend[34] syn_ = new FastInhib(0.1)'
p1505
I2
(dp1506
S'seg'
p1507
F0.16666666666666666
sS'hostfrom'
p1508
F37.0
sS'gid'
p1509
I133
sS'coords'
p1510
g7
(g8
(I0
tp1511
g10
tp1512
Rp1513
(I1
(I3
tp1514
g14
(S'f8'
p1515
I0
I1
tp1516
Rp1517
(I3
S'<'
p1518
NNNI-1
I-1
I0
tp1519
bI00
S'#\x97\x11\xb8\xf3\xd36\xc0\xc8\x00\xb3r\x870*@\x8dp\x04b\x10\xec\x11\xc0'
p1520
tp1521
bsS'secnames'
p1522
S'Cell[2].axon[80]'
p1523
sI133
I115
tp1524
a(F0.8656827572224436
S'Cell[2].dend[2] syn_ = new FastInhib(0.5)'
p1525
I2
(dp1526
S'seg'
p1527
F0.8333333333333333
sS'hostfrom'
p1528
F38.0
sS'gid'
p1529
I182
sS'coords'
p1530
g7
(g8
(I0
tp1531
g10
tp1532
Rp1533
(I1
(I3
tp1534
g14
(S'f8'
p1535
I0
I1
tp1536
Rp1537
(I3
S'<'
p1538
NNNI-1
I-1
I0
tp1539
bI00
S'f!\xf7a\x88\x9bE\xc0e\x13\x05\xa31\xd9I@\x8a\x11\x17\xda\x82\xca\x0b@'
p1540
tp1541
bsS'secnames'
p1542
S'Cell[3].axon[154]'
p1543
sI182
I115
tp1544
a(F2.4826310391026074
S'Cell[1].dend[7] syn_ = new ExpSid(0.3)'
p1545
I1
(dp1546
S'seg'
p1547
F0.5
sS'hostfrom'
p1548
F39.0
sS'gid'
p1549
I87
sS'coords'
p1550
g7
(g8
(I0
tp1551
g10
tp1552
Rp1553
(I1
(I3
tp1554
g14
(S'f8'
p1555
I0
I1
tp1556
Rp1557
(I3
S'<'
p1558
NNNI-1
I-1
I0
tp1559
bI00
S'\x00\x00\x00\x80\xebQI@\x00\x00\x00 \xaeG\x1e\xc0\x00\x00\x00\xe0Qx5\xc0'
p1560
tp1561
bsS'secnames'
p1562
S'Cell[1].soma[0]'
p1563
sI87
I67
tp1564
a(F1.5778113360048052
S'Cell[1].dend[5] syn_ = new ExpSid(0.7)'
p1565
I1
(dp1566
g1547
F0.5
sg1548
F39.0
sg1549
I183
sg1550
g7
(g8
(I0
tp1567
g10
tp1568
Rp1569
(I1
(I3
tp1570
g1557
I00
S'\xfd\xaa\'\x07f\xb57\xc0\x8d\x18\x9c\xbe"\xe7F\xc0\'\xc3@W\x18\x9eO\xc0'
p1571
tp1572
bsg1562
S'Cell[3].axon[225]'
p1573
sI183
I67
tp1574
a(F1.447268026539381
S'Cell[2].dend[20] syn_ = new FastInhib(0.5)'
p1575
I2
(dp1576
S'seg'
p1577
F0.1
sS'hostfrom'
p1578
F40.0
sS'gid'
p1579
I88
sS'coords'
p1580
g7
(g8
(I0
tp1581
g10
tp1582
Rp1583
(I1
(I3
tp1584
g14
(S'f8'
p1585
I0
I1
tp1586
Rp1587
(I3
S'<'
p1588
NNNI-1
I-1
I0
tp1589
bI00
S'H\xd9\x90\xd9\x82K;\xc0\xde\x1d\xd4\xce$\x17#\xc0GH\x87r\tr\xda?'
p1590
tp1591
bsS'secnames'
p1592
S'Cell[1].axon[248]'
p1593
sI88
I115
tp1594
a(F2.216092184660048
S'Cell[1].dend[13] syn_ = new AmpaNmda(0.5)'
p1595
I1
(dp1596
g1577
F0.16666666666666666
sg1578
F40.0
sg1579
I88
sg1580
g7
(g8
(I0
tp1597
g10
tp1598
Rp1599
(I1
(I3
tp1600
g1587
I00
S'\xe2\xa5\x92mD>0\xc0\xe6s\xab\xf4\x7f\xda=@\x00\x00\x00\x00)\\\xe7\xbf'
p1601
tp1602
bsg1592
S'Cell[1].axon[301]'
p1603
sI88
I67
tp1604
a(F2.4975748071543276
S'Cell[3].apic[3] syn_ = new FastInhib(0.5)'
p1605
I3
(dp1606
g1577
F0.5
sg1578
F40.0
sg1579
I88
sg1580
g7
(g8
(I0
tp1607
g10
tp1608
Rp1609
(I1
(I3
tp1610
g1587
I00
S'\x0fo\x17\nA\\#\xc0\x0c\xde_A\xc7\xdbN@\xe0\x02\x7f\xcf\xdaD(@'
p1611
tp1612
bsg1592
S'Cell[1].axon[326]'
p1613
sI88
I163
tp1614
a(F2.221268623660894
S'Cell[1].dend[22] syn_ = new AmpaNmda(0.7)'
p1615
I1
(dp1616
g1577
F0.8999999999999999
sg1578
F40.0
sg1579
I88
sg1580
g7
(g8
(I0
tp1617
g10
tp1618
Rp1619
(I1
(I3
tp1620
g1587
I00
S'ro>\x87\xf4\xb9^@\xe1\xad[\xf9\x104\xe3?9\x12\x16\xa6:CD\xc0'
p1621
tp1622
bsg1592
S'Cell[1].axon[357]'
p1623
sI88
I67
tp1624
a(F1.2179361949538614
S'Cell[1].dend[7] syn_ = new AmpaNmda(0.1)'
p1625
I1
(dp1626
g1577
F0.3571428571428571
sg1578
F40.0
sg1579
I184
sg1580
g7
(g8
(I0
tp1627
g10
tp1628
Rp1629
(I1
(I3
tp1630
g1587
I00
S'D\x8dG.\xce\xc8?@\x0c\x04\xfe\x85Y\x9b\x13@hW\xdd)"\xe83\xc0'
p1631
tp1632
bsg1592
S'Cell[3].axon[61]'
p1633
sI184
I67
tp1634
a(F1.479606308693709
S'Cell[1].dend[18] syn_ = new AmpaNmda(0.5)'
p1635
I1
(dp1636
g1577
F0.16666666666666666
sg1578
F40.0
sg1579
I184
sg1580
g7
(g8
(I0
tp1637
g10
tp1638
Rp1639
(I1
(I3
tp1640
g1587
I00
S'\x00\x00\x00\xe0Q\xb8\xae\xbf3N\x07\x9e\xde\xe3:@\xd7\x9e5\xeb\x9c\x82\x0e\xc0'
p1641
tp1642
bsg1592
S'Cell[3].axon[62]'
p1643
sI184
I67
tp1644
a(F2.291921313522382
S'Cell[3].apic[13] syn_ = new FastInhib(0.166666666667)'
p1645
I3
(dp1646
S'seg'
p1647
F0.5
sS'hostfrom'
p1648
F41.0
sS'gid'
p1649
I185
sS'coords'
p1650
g7
(g8
(I0
tp1651
g10
tp1652
Rp1653
(I1
(I3
tp1654
g14
(S'f8'
p1655
I0
I1
tp1656
Rp1657
(I3
S'<'
p1658
NNNI-1
I-1
I0
tp1659
bI00
S'T\xed\x03\xa9\xbb\x992\xc0\xe0~h\x951\x93X@\x9a\xac\xd2w\xa3\x085@'
p1660
tp1661
bsS'secnames'
p1662
S'Cell[3].axon[187]'
p1663
sI185
I163
tp1664
a(F1.2272923280920225
S'Cell[3].apic[14] syn_ = new FastInhib(0.166666666667)'
p1665
I3
(dp1666
g1647
F0.5
sg1648
F41.0
sg1649
I185
sg1650
g7
(g8
(I0
tp1667
g10
tp1668
Rp1669
(I1
(I3
tp1670
g1657
I00
S'\x0b\t\x17"\xc8\xf83\xc0Dh\xf8px\xf4`@\xa7x\x0c\xce\xf9\x021@'
p1671
tp1672
bsg1662
S'Cell[3].axon[188]'
p1673
sI185
I163
tp1674
a(F2.3962313361945142
S'Cell[1].apic[3] syn_ = new ExpSid(0.5)'
p1675
I1
(dp1676
g1647
F0.10869565217391304
sg1648
F41.0
sg1649
I185
sg1650
g7
(g8
(I0
tp1677
g10
tp1678
Rp1679
(I1
(I3
tp1680
g1657
I00
S'\x96\xcf\x14O\xa0\xb7M@\xec\x0f\x08\xcdt\xaeU@\x00\x00\x00\x00\x00\x801\xc0'
p1681
tp1682
bsg1662
S'Cell[3].axon[276]'
p1683
sI185
I67
tp1684
a(F1.774868222426895
S'Cell[3].apic[27] syn_ = new FastInhib(0.5)'
p1685
I3
(dp1686
g1647
F0.1
sg1648
F41.0
sg1649
I89
sg1650
g7
(g8
(I0
tp1687
g10
tp1688
Rp1689
(I1
(I3
tp1690
g1657
I00
S'\x85y<\x9b\xe5\x01&\xc0\xb7\xbc$\xd6\xe6\x03I@\x7f\xf9\xca\xf7\x15\x17I\xc0'
p1691
tp1692
bsg1662
S'Cell[1].axon[129]'
p1693
sI89
I163
tp1694
a(F2.060743090201016
S'Cell[1].dend[1] syn_ = new ExpSid(0.5)'
p1695
I1
(dp1696
g1647
F0.5
sg1648
F41.0
sg1649
I89
sg1650
g7
(g8
(I0
tp1697
g10
tp1698
Rp1699
(I1
(I3
tp1700
g1657
I00
S"Um\xcc\x9d\x91\xda'@\xdc!i{\xed\xb7.@\xddM\x1eWR\xf52\xc0"
p1701
tp1702
bsg1662
S'Cell[1].axon[157]'
p1703
sI89
I67
tp1704
a(F1.730469975130542
S'Cell[3].dend[12] syn_ = new FastInhib(0.5)'
p1705
I3
(dp1706
S'seg'
p1707
F0.7
sS'hostfrom'
p1708
F42.0
sS'gid'
p1709
I90
sS'coords'
p1710
g7
(g8
(I0
tp1711
g10
tp1712
Rp1713
(I1
(I3
tp1714
g14
(S'f8'
p1715
I0
I1
tp1716
Rp1717
(I3
S'<'
p1718
NNNI-1
I-1
I0
tp1719
bI00
S'\x00\x00\x00\x80=jD\xc0\x00\x00\x00\x80\xeb\x11C\xc0DD\xdaU\xad\xc7\x00\xc0'
p1720
tp1721
bsS'secnames'
p1722
S'Cell[1].axon[24]'
p1723
sI90
I163
tp1724
a(F0.7764137637817681
S'Cell[2].dend[26] syn_ = new FastInhib(0.5)'
p1725
I2
(dp1726
g1707
F0.16666666666666666
sg1708
F42.0
sg1709
I138
sg1710
g7
(g8
(I0
tp1727
g10
tp1728
Rp1729
(I1
(I3
tp1730
g1717
I00
S'\xe0z\xb8\xabV\xacC\xc0\x07\xe9H0U\xd8\x02\xc0C\xaaK\x0eGi\x1f\xc0'
p1731
tp1732
bsg1722
S'Cell[2].axon[66]'
p1733
sI138
I115
tp1734
a(F1.5042793268727397
S'Cell[2].dend[2] syn_ = new FastInhib(0.5)'
p1735
I2
(dp1736
g1707
F0.5
sg1708
F42.0
sg1709
I138
sg1710
g7
(g8
(I0
tp1737
g10
tp1738
Rp1739
(I1
(I3
tp1740
g1717
I00
S'G\xc4\xe6R\x86\xceE\xc0\x98\x1b\xc43*\xa2J@\x8e[\xec/e#\x07@'
p1741
tp1742
bsg1722
S'Cell[2].axon[152]'
p1743
sI138
I115
tp1744
a(F1.0565306457301282
S'Cell[3].dend[0] syn_ = new FastInhib(0.5)'
p1745
I3
(dp1746
g1707
F0.5
sg1708
F42.0
sg1709
I186
sg1710
g7
(g8
(I0
tp1747
g10
tp1748
Rp1749
(I1
(I3
tp1750
g1717
I00
S'|\x89^z\xc8\\4\xc0=\x90\xdf\x92\x96\xe4;\xc0\x00\x00\x00\x00\x00\x00\x18@'
p1751
tp1752
bsg1722
S'Cell[3].axon[68]'
p1753
sI186
I163
tp1754
a(F1.5408846024152183
S'Cell[0].dend[33] syn_ = new AmpaNmda(0.214285714286)'
p1755
I0
(dp1756
g1707
F0.8333333333333333
sg1708
F42.0
sg1709
I186
sg1710
g7
(g8
(I0
tp1757
g10
tp1758
Rp1759
(I1
(I3
tp1760
g1717
I00
S"IK\xb9\x8a\xb7zE@\xeb\xeb\xd3\x16\xeb\xef;\xc0\x82G\xfc\x91SV'@"
p1761
tp1762
bsg1722
S'Cell[3].axon[85]'
p1763
sI186
I19
tp1764
a(F2.361908047818965
S'Cell[3].dend[3] syn_ = new FastInhib(0.166666666667)'
p1765
I3
(dp1766
g1707
F0.5
sg1708
F42.0
sg1709
I186
sg1710
g7
(g8
(I0
tp1767
g10
tp1768
Rp1769
(I1
(I3
tp1770
g1717
I00
S'\x00\x00\x00P\xb8\xeeN\xc0\x00\x00\x00\x90\xc2}R\xc0\x00\x00\x00\x00\x00\x001@'
p1771
tp1772
bsg1722
S'Cell[3].axon[113]'
p1773
sI186
I163
tp1774
a(F2.2038098363181344
S'Cell[3].apic[13] syn_ = new FastInhib(0.5)'
p1775
I3
(dp1776
S'seg'
p1777
F0.5
sS'hostfrom'
p1778
F43.0
sS'gid'
p1779
I91
sS'coords'
p1780
g7
(g8
(I0
tp1781
g10
tp1782
Rp1783
(I1
(I3
tp1784
g14
(S'f8'
p1785
I0
I1
tp1786
Rp1787
(I3
S'<'
p1788
NNNI-1
I-1
I0
tp1789
bI00
S'w-u\x81\x1e\x0f3\xc0\x083\x9b8\xce.\\@\x00\x00\x00\x80=\x8a%@'
p1790
tp1791
bsS'secnames'
p1792
S'Cell[1].axon[234]'
p1793
sI91
I163
tp1794
a(F2.462571508991968
S'Cell[1].apic[4] syn_ = new ExpSid(0.5)'
p1795
I1
(dp1796
g1777
F0.5
sg1778
F43.0
sg1779
I187
sg1780
g7
(g8
(I0
tp1797
g10
tp1798
Rp1799
(I1
(I3
tp1800
g1787
I00
S'\xaa\xb0\xa8\xc8Q\xe4W@\x9d\xb7\xc4G\xbf\x83\\@\xcd\x99\xca\xfb\xbc\xbdA\xc0'
p1801
tp1802
bsg1792
S'Cell[3].axon[76]'
p1803
sI187
I67
tp1804
a(F2.4211113080144697
S'Cell[0].dend[33] syn_ = new ExpSid(0.785714285714)'
p1805
I0
(dp1806
g1777
F0.7
sg1778
F43.0
sg1779
I187
sg1780
g7
(g8
(I0
tp1807
g10
tp1808
Rp1809
(I1
(I3
tp1810
g1787
I00
S' \xbbM\xb8\x82\xfd\\@"\xd6\xe0j\xc9dE\xc0\xc4\x01w\\\x88\x0c\x1a@'
p1811
tp1812
bsg1792
S'Cell[3].axon[170]'
p1813
sI187
I19
tp1814
a(F1.4000627830140862
S'Cell[2].dend[24] syn_ = new FastInhib(0.388888888889)'
p1815
I2
(dp1816
S'seg'
p1817
F0.5
sS'hostfrom'
p1818
F44.0
sS'gid'
p1819
I92
sS'coords'
p1820
g7
(g8
(I0
tp1821
g10
tp1822
Rp1823
(I1
(I3
tp1824
g14
(S'f8'
p1825
I0
I1
tp1826
Rp1827
(I3
S'<'
p1828
NNNI-1
I-1
I0
tp1829
bI00
S'\x82T%\xaf\xa9\x88H@-%\xa9\xb2\xd9\x8eQ\xc0iTI\x91\xefaH\xc0'
p1830
tp1831
bsS'secnames'
p1832
S'Cell[1].axon[205]'
p1833
sI92
I115
tp1834
a(F2.152621733187783
S'Cell[2].dend[34] syn_ = new FastInhib(0.3)'
p1835
I2
(dp1836
g1817
F0.5
sg1818
F44.0
sg1819
I92
sg1820
g7
(g8
(I0
tp1837
g10
tp1838
Rp1839
(I1
(I3
tp1840
g1827
I00
S'\xef\xa9N\x9d\x84\xb2\x01@\xb8\xb6Fh0j*@s\x9d:\xc4\xd5b\x1f\xc0'
p1841
tp1842
bsg1832
S'Cell[1].axon[210]'
p1843
sI92
I115
tp1844
a(F0.7149679665806717
S'Cell[3].apic[16] syn_ = new FastInhib(0.5)'
p1845
I3
(dp1846
g1817
F0.5
sg1818
F44.0
sg1819
I140
sg1820
g7
(g8
(I0
tp1847
g10
tp1848
Rp1849
(I1
(I3
tp1850
g1827
I00
S';\xbeC\x90p9I\xc0Y\x82\x99;\xb6\xb4b@\x00\x00\x00\xe0\xa3\xf05@'
p1851
tp1852
bsg1832
S'Cell[2].axon[31]'
p1853
sI140
I163
tp1854
a(F2.398259187783138
S'Cell[2].dend[0] syn_ = new FastInhib(0.5)'
p1855
I2
(dp1856
g1817
F0.8333333333333333
sg1818
F44.0
sg1819
I188
sg1820
g7
(g8
(I0
tp1857
g10
tp1858
Rp1859
(I1
(I3
tp1860
g1827
I00
S'\xe0\x0e`\xefj\xc3C\xc0\xd9\xcb,\x1d\x87\xbfG@\xe1\xda\x1a=\x80N\x08@'
p1861
tp1862
bsg1832
S'Cell[3].axon[22]'
p1863
sI188
I115
tp1864
a(F1.677492390926961
S'Cell[0].dend[0] syn_ = new ExpSid(0.5)'
p1865
I0
(dp1866
S'seg'
p1867
F0.5
sS'hostfrom'
p1868
F45.0
sS'gid'
p1869
I141
sS'coords'
p1870
g7
(g8
(I0
tp1871
g10
tp1872
Rp1873
(I1
(I3
tp1874
g14
(S'f8'
p1875
I0
I1
tp1876
Rp1877
(I3
S'<'
p1878
NNNI-1
I-1
I0
tp1879
bI00
S'\xf2\x0f\xe7\xd0>\x9a%@\x92\xe8\x8d\xe1$\x9e2@\xa7\x02\x06\xb8\x8d$2\xc0'
p1880
tp1881
bsS'secnames'
p1882
S'Cell[2].axon[71]'
p1883
sI141
I19
tp1884
a(F1.6880909443855303
S'Cell[0].dend[4] syn_ = new ExpSid(0.166666666667)'
p1885
I0
(dp1886
g1867
F0.5
sg1868
F45.0
sg1869
I141
sg1870
g7
(g8
(I0
tp1887
g10
tp1888
Rp1889
(I1
(I3
tp1890
g1877
I00
S'\xf4=\x8d\xa3\'\x8c"@\xb2\xe5\xaf`\xa3\x96!@\x9c\xf25\xf0\xd8\xf5@\xc0'
p1891
tp1892
bsg1882
S'Cell[2].axon[133]'
p1893
sI141
I19
tp1894
a(F2.1117658526487895
S'Cell[2].dend[34] syn_ = new FastInhib(0.3)'
p1895
I2
(dp1896
g1867
F0.8333333333333333
sg1868
F45.0
sg1869
I189
sg1870
g7
(g8
(I0
tp1897
g10
tp1898
Rp1899
(I1
(I3
tp1900
g1877
I00
S'\xfc\xbc\x90\xd1\x14@\xeb?\x1c\xfb\x8a\x12\x89\x9e/@\x00\x00\x00\x00)\\\x1b\xc0'
p1901
tp1902
bsg1882
S'Cell[3].axon[0]'
p1903
sI189
I115
tp1904
a(F1.1727159813812271
S'Cell[2].dend[32] syn_ = new FastInhib(0.3)'
p1905
I2
(dp1906
g1867
F0.8333333333333333
sg1868
F45.0
sg1869
I189
sg1870
g7
(g8
(I0
tp1907
g10
tp1908
Rp1909
(I1
(I3
tp1910
g1877
I00
S'\xc0c\xfd\xc8W\xd9P\xc0D\xea\x0bE\x15\x949\xc0\x00\x00\x00@\xe1z\x18@'
p1911
tp1912
bsg1882
S'Cell[3].axon[6]'
p1913
sI189
I115
tp1914
a(F1.1864912267547545
S'Cell[0].apic[0] syn_ = new ExpSid(0.214285714286)'
p1915
I0
(dp1916
g1867
F0.16666666666666666
sg1868
F45.0
sg1869
I189
sg1870
g7
(g8
(I0
tp1917
g10
tp1918
Rp1919
(I1
(I3
tp1920
g1877
I00
S'\xeet\xef4\x9a\x89\x0b@\xc9gy\xe8)\xf3S@\x97\xdcd\xe1\xa5\xaa0\xc0'
p1921
tp1922
bsg1882
S'Cell[3].axon[200]'
p1923
sI189
I19
tp1924
a(F1.8767422919605252
S'Cell[0].apic[0] syn_ = new ExpSid(0.214285714286)'
p1925
I0
(dp1926
g1867
F0.16666666666666666
sg1868
F45.0
sg1869
I93
sg1870
g7
(g8
(I0
tp1927
g10
tp1928
Rp1929
(I1
(I3
tp1930
g1877
I00
S'\xa2\x94m\xb3b\x19\x0c@WO\xbf5\x97\xfdS@\\\tf\xc5D\x022\xc0'
p1931
tp1932
bsg1882
S'Cell[1].axon[47]'
p1933
sI93
I19
tp1934
a(F2.4806980172927844
S'Cell[3].apic[27] syn_ = new FastInhib(0.5)'
p1935
I3
(dp1936
g1867
F0.5
sg1868
F45.0
sg1869
I93
sg1870
g7
(g8
(I0
tp1937
g10
tp1938
Rp1939
(I1
(I3
tp1940
g1877
I00
S"\xc6]&\xd3\n\x92'\xc0fa%\xc2f\xd4H@\x19\x822\xafwWH\xc0"
p1941
tp1942
bsg1882
S'Cell[1].axon[83]'
p1943
sI93
I163
tp1944
a(F1.8900467663316314
S'Cell[3].apic[26] syn_ = new FastInhib(0.0714285714286)'
p1945
I3
(dp1946
g1867
F0.5
sg1868
F45.0
sg1869
I93
sg1870
g7
(g8
(I0
tp1947
g10
tp1948
Rp1949
(I1
(I3
tp1950
g1877
I00
S'\x12S,\xee\xef\x0f\xd7\xbf\xb5:\xf3B ND@vJ\xdc\x11\xc66.\xc0'
p1951
tp1952
bsg1882
S'Cell[1].axon[144]'
p1953
sI93
I163
tp1954
a(F2.2684994148771733
S'Cell[0].dend[1] syn_ = new ExpSid(0.5)'
p1955
I0
(dp1956
S'seg'
p1957
F0.5
sS'hostfrom'
p1958
F47.0
sS'gid'
p1959
I95
sS'coords'
p1960
g7
(g8
(I0
tp1961
g10
tp1962
Rp1963
(I1
(I3
tp1964
g14
(S'f8'
p1965
I0
I1
tp1966
Rp1967
(I3
S'<'
p1968
NNNI-1
I-1
I0
tp1969
bI00
S'<\x9fT\xf3]\x83#@\xe4z\x8c\xdc>X+@\x15\xe6=\xf3U\xc9<\xc0'
p1970
tp1971
bsS'secnames'
p1972
S'Cell[1].axon[342]'
p1973
sI95
I19
tp1974
a(F1.5238398776425108
S'Cell[3].dend[6] syn_ = new FastInhib(0.5)'
p1975
I3
(dp1976
g1957
F0.1
sg1958
F47.0
sg1959
I47
sg1960
g7
(g8
(I0
tp1977
g10
tp1978
Rp1979
(I1
(I3
tp1980
g1967
I00
S'*m\x82k[\xdeS\xc0Oqav\xc4J,\xc0\xcb.\xff\xb6\xe7\xa1+@'
p1981
tp1982
bsg1972
S'Cell[0].axon[38]'
p1983
sI47
I163
tp1984
a.