(lp0
(F2.269307587883374
S'Cell[3].dend[22] syn_ = new FastInhib(0.5)'
p1
I3
(dp2
S'seg'
p3
F0.16666666666666666
sS'hostfrom'
p4
F1.0
sS'gid'
p5
I145
sS'coords'
p6
cnumpy.core.multiarray
_reconstruct
p7
(cnumpy
ndarray
p8
(I0
tp9
S'b'
p10
tp11
Rp12
(I1
(I3
tp13
cnumpy
dtype
p14
(S'f8'
p15
I0
I1
tp16
Rp17
(I3
S'<'
p18
NNNI-1
I-1
I0
tp19
bI00
S"\xa2r\x18(\xa7\xaaN\xc0\xb8\x82\tbJ\xe5M@\xde5\xf6\x12dn'\xc0"
p20
tp21
bsS'secnames'
p22
S'Cell[3].axon[119]'
p23
sI145
I178
tp24
a(F2.424669779858494
S'Cell[3].dend[5] syn_ = new FastInhib(0.166666666667)'
p25
I3
(dp26
g3
F0.07142857142857142
sg4
F1.0
sg5
I97
sg6
g7
(g8
(I0
tp27
g10
tp28
Rp29
(I1
(I3
tp30
g17
I00
S'ru\xc8\x8cy\xc4X\xc0lB\xde]\xc0V1@)\x90W\x12\xe0\xa95\xc0'
p31
tp32
bsg22
S'Cell[2].axon[26]'
p33
sI97
I178
tp34
a(F1.2704452944318596
S'Cell[1].dend[0] syn_ = new FastInhib(0.5)'
p35
I1
(dp36
g3
F0.5
sg4
F1.0
sg5
I97
sg6
g7
(g8
(I0
tp37
g10
tp38
Rp39
(I1
(I3
tp40
g17
I00
S'\x19\xd5\x19\x01\xbdb0\xc0\x8c(\xbe\x8a9\xef%\xc0<\x02}\x11\x8a\x1a\xef\xbf'
p41
tp42
bsg22
S'Cell[2].axon[162]'
p43
sI97
I82
tp44
a(F2.402207078616032
S'Cell[0].apic[30] syn_ = new ExpSid(0.1)'
p45
I0
(dp46
g3
F0.16666666666666666
sg4
F1.0
sg5
I97
sg6
g7
(g8
(I0
tp47
g10
tp48
Rp49
(I1
(I3
tp50
g17
I00
S'\x00\xa2\xaagO\x00V@\xe7\xeb\xa9&\x01\xed$@>X\xd8\x1b\x8c\xf3(\xc0'
p51
tp52
bsg22
S'Cell[2].axon[171]'
p53
sI97
I34
tp54
a(F1.7737362798460803
S'Cell[1].dend[41] syn_ = new FastInhib(0.3)'
p55
I1
(dp56
g3
F0.5
sg4
F1.0
sg5
I97
sg6
g7
(g8
(I0
tp57
g10
tp58
Rp59
(I1
(I3
tp60
g17
I00
S'\x18\xe79\xab,\x907@\x1d\x85\xd0\xb8\x8d\x13;@W\x137\xb6B\xcb\xfb\xbf'
p61
tp62
bsg22
S'Cell[2].axon[207]'
p63
sI97
I82
tp64
a(F2.1835257086711697
S'Cell[1].dend[3] syn_ = new FastInhib(0.5)'
p65
I1
(dp66
S'seg'
p67
F0.16666666666666666
sS'hostfrom'
p68
F2.0
sS'gid'
p69
I98
sS'coords'
p70
g7
(g8
(I0
tp71
g10
tp72
Rp73
(I1
(I3
tp74
g14
(S'f8'
p75
I0
I1
tp76
Rp77
(I3
S'<'
p78
NNNI-1
I-1
I0
tp79
bI00
S'\x00\x00\x00\xe0z\x94?@\xe6\xfa0a\xe7{:@\xf9:\xdd\xdc/?!@'
p80
tp81
bsS'secnames'
p82
S'Cell[2].axon[9]'
p83
sI98
I82
tp84
a(F2.213923504235843
S'Cell[3].dend[2] syn_ = new FastInhib(0.5)'
p85
I3
(dp86
g67
F0.5
sg68
F2.0
sg69
I98
sg70
g7
(g8
(I0
tp87
g10
tp88
Rp89
(I1
(I3
tp90
g77
I00
S'\x9e7\x8cM\x9c\x9bO\xc0\xd0\xe8\x0c\xd3\xb2|=@\x00\x00\x00\xe0z\x14\x17\xc0'
p91
tp92
bsg82
S'Cell[2].axon[30]'
p93
sI98
I178
tp94
a(F2.1825877328604557
S'Cell[3].dend[40] syn_ = new FastInhib(0.5)'
p95
I3
(dp96
g67
F0.5
sg68
F2.0
sg69
I98
sg70
g7
(g8
(I0
tp97
g10
tp98
Rp99
(I1
(I3
tp100
g77
I00
S'G\x883\x9b\x8f\x04L\xc0\x06\xb78\x1a\x13\xf0`@\x9e/\x9b\xfaB\xeaG\xc0'
p101
tp102
bsg82
S'Cell[2].axon[37]'
p103
sI98
I178
tp104
a(F2.2562381180655584
S'Cell[1].dend[15] syn_ = new FastInhib(0.166666666667)'
p105
I1
(dp106
g67
F0.8333333333333333
sg68
F2.0
sg69
I98
sg70
g7
(g8
(I0
tp107
g10
tp108
Rp109
(I1
(I3
tp110
g77
I00
S'\x00\x00\x00 \xaeG&\xc0\x9c._j\x80\x874@\xd5\x91r\xa9\x0f\xb28\xc0'
p111
tp112
bsg82
S'Cell[2].axon[448]'
p113
sI98
I82
tp114
a(F1.5608784797482604
S'Cell[1].dend[14] syn_ = new FastInhib(0.5)'
p115
I1
(dp116
g67
F0.16666666666666666
sg68
F2.0
sg69
I98
sg70
g7
(g8
(I0
tp117
g10
tp118
Rp119
(I1
(I3
tp120
g77
I00
S"\x0f*\xa4\x0b\x9b2)\xc0H\xe9\nO\xe0?*@\xe7'\xf0\x8fO\xd81\xc0"
p121
tp122
bsg82
S'Cell[2].axon[449]'
p123
sI98
I82
tp124
a(F2.2604203183835545
S'Cell[1].dend[5] syn_ = new FastInhib(0.1)'
p125
I1
(dp126
g67
F0.5
sg68
F2.0
sg69
I98
sg70
g7
(g8
(I0
tp127
g10
tp128
Rp129
(I1
(I3
tp130
g77
I00
S'\x08[\xab\xee\xa3|)\xc0\x14\xdd-P\xc9k(@\x9c>5r\xe0\xe4\n\xc0'
p131
tp132
bsg82
S'Cell[2].axon[449]'
p133
sI98
I82
tp134
a(F2.495781098334087
S'Cell[1].dend[13] syn_ = new FastInhib(0.5)'
p135
I1
(dp136
g67
F0.7
sg68
F2.0
sg69
I98
sg70
g7
(g8
(I0
tp137
g10
tp138
Rp139
(I1
(I3
tp140
g77
I00
S'D7\x0em)\xc8\x1f@\xdc\xb2\xf1\xb7E)B@\x00\x00\x00\x80=\xca7\xc0'
p141
tp142
bsg82
S'Cell[2].axon[473]'
p143
sI98
I82
tp144
a(F1.8780673451119447
S'Cell[1].dend[25] syn_ = new FastInhib(0.1)'
p145
I1
(dp146
g67
F0.5
sg68
F2.0
sg69
I146
sg70
g7
(g8
(I0
tp147
g10
tp148
Rp149
(I1
(I3
tp150
g77
I00
S'\xce\x06\t\x8b\x9f\xa1<\xc0D\xdb\x13t\x81r$\xc0\xe5\x01\x07\x90\xe7\x17,\xc0'
p151
tp152
bsg82
S'Cell[3].axon[124]'
p153
sI146
I82
tp154
a(F2.3953279805493897
S'Cell[3].dend[65] syn_ = new FastInhib(0.166666666667)'
p155
I3
(dp156
g67
F0.5
sg68
F2.0
sg69
I146
sg70
g7
(g8
(I0
tp157
g10
tp158
Rp159
(I1
(I3
tp160
g77
I00
S'p4\x97Kw\xbd\x1f\xc0(\xab-h\xf2\xe6G@\xaa\x8e\xa4!\x7f\x99&\xc0'
p161
tp162
bsg82
S'Cell[3].axon[188]'
p163
sI146
I178
tp164
a(F1.3904718809490626
S'Cell[2].dend[11] syn_ = new FastInhib(0.5)'
p165
I2
(dp166
g67
F0.5
sg68
F2.0
sg69
I146
sg70
g7
(g8
(I0
tp167
g10
tp168
Rp169
(I1
(I3
tp170
g77
I00
S'\x00\x00\x00\x90\x99\xc9Y\xc0\x00\x00\x00\x18\x85k\x12\xc0\x00\x00\x00\xf0Q\x18A\xc0'
p171
tp172
bsg82
S'Cell[3].axon[279]'
p173
sI146
I130
tp174
a(F2.1835257086711697
S'Cell[1].dend[3] syn_ = new FastInhib(0.5)'
p175
I1
(dp176
S'seg'
p177
F0.16666666666666666
sS'hostfrom'
p178
F3.0
sS'gid'
p179
I99
sS'coords'
p180
g7
(g8
(I0
tp181
g10
tp182
Rp183
(I1
(I3
tp184
g14
(S'f8'
p185
I0
I1
tp186
Rp187
(I3
S'<'
p188
NNNI-1
I-1
I0
tp189
bI00
S'\x00\x00\x00\xe0z\x94?@\xe6\xfa0a\xe7{:@\xf9:\xdd\xdc/?!@'
p190
tp191
bsS'secnames'
p192
S'Cell[2].axon[9]'
p193
sI99
I82
tp194
a(F2.213923504235843
S'Cell[3].dend[2] syn_ = new FastInhib(0.5)'
p195
I3
(dp196
g177
F0.5
sg178
F3.0
sg179
I99
sg180
g7
(g8
(I0
tp197
g10
tp198
Rp199
(I1
(I3
tp200
g187
I00
S'\x9e7\x8cM\x9c\x9bO\xc0\xd0\xe8\x0c\xd3\xb2|=@\x00\x00\x00\xe0z\x14\x17\xc0'
p201
tp202
bsg192
S'Cell[2].axon[30]'
p203
sI99
I178
tp204
a(F2.1825877328604557
S'Cell[3].dend[40] syn_ = new FastInhib(0.5)'
p205
I3
(dp206
g177
F0.5
sg178
F3.0
sg179
I99
sg180
g7
(g8
(I0
tp207
g10
tp208
Rp209
(I1
(I3
tp210
g187
I00
S'G\x883\x9b\x8f\x04L\xc0\x06\xb78\x1a\x13\xf0`@\x9e/\x9b\xfaB\xeaG\xc0'
p211
tp212
bsg192
S'Cell[2].axon[37]'
p213
sI99
I178
tp214
a(F2.2562381180655584
S'Cell[1].dend[15] syn_ = new FastInhib(0.166666666667)'
p215
I1
(dp216
g177
F0.8333333333333333
sg178
F3.0
sg179
I99
sg180
g7
(g8
(I0
tp217
g10
tp218
Rp219
(I1
(I3
tp220
g187
I00
S'\x00\x00\x00 \xaeG&\xc0\x9c._j\x80\x874@\xd5\x91r\xa9\x0f\xb28\xc0'
p221
tp222
bsg192
S'Cell[2].axon[448]'
p223
sI99
I82
tp224
a(F1.5608784797482604
S'Cell[1].dend[14] syn_ = new FastInhib(0.5)'
p225
I1
(dp226
g177
F0.16666666666666666
sg178
F3.0
sg179
I99
sg180
g7
(g8
(I0
tp227
g10
tp228
Rp229
(I1
(I3
tp230
g187
I00
S"\x0f*\xa4\x0b\x9b2)\xc0H\xe9\nO\xe0?*@\xe7'\xf0\x8fO\xd81\xc0"
p231
tp232
bsg192
S'Cell[2].axon[449]'
p233
sI99
I82
tp234
a(F2.2604203183835545
S'Cell[1].dend[5] syn_ = new FastInhib(0.1)'
p235
I1
(dp236
g177
F0.5
sg178
F3.0
sg179
I99
sg180
g7
(g8
(I0
tp237
g10
tp238
Rp239
(I1
(I3
tp240
g187
I00
S'\x08[\xab\xee\xa3|)\xc0\x14\xdd-P\xc9k(@\x9c>5r\xe0\xe4\n\xc0'
p241
tp242
bsg192
S'Cell[2].axon[449]'
p243
sI99
I82
tp244
a(F2.495781098334087
S'Cell[1].dend[13] syn_ = new FastInhib(0.5)'
p245
I1
(dp246
g177
F0.7
sg178
F3.0
sg179
I99
sg180
g7
(g8
(I0
tp247
g10
tp248
Rp249
(I1
(I3
tp250
g187
I00
S'D7\x0em)\xc8\x1f@\xdc\xb2\xf1\xb7E)B@\x00\x00\x00\x80=\xca7\xc0'
p251
tp252
bsg192
S'Cell[2].axon[473]'
p253
sI99
I82
tp254
a(F1.1531995365569039
S'Cell[3].apic[3] syn_ = new FastInhib(0.833333333333)'
p255
I3
(dp256
S'seg'
p257
F0.8333333333333333
sS'hostfrom'
p258
F4.0
sS'gid'
p259
I148
sS'coords'
p260
g7
(g8
(I0
tp261
g10
tp262
Rp263
(I1
(I3
tp264
g14
(S'f8'
p265
I0
I1
tp266
Rp267
(I3
S'<'
p268
NNNI-1
I-1
I0
tp269
bI00
S'k\xa2l\xad8gL@\xa34\xfd\xfb\xdf\x7f5\xc0\xf6\xe8\xd1iu\x803@'
p270
tp271
bsS'secnames'
p272
S'Cell[3].axon[326]'
p273
sI148
I178
tp274
a(F1.969199616632231
S'Cell[1].dend[35] syn_ = new FastInhib(0.833333333333)'
p275
I1
(dp276
g257
F0.1
sg258
F4.0
sg259
I148
sg260
g7
(g8
(I0
tp277
g10
tp278
Rp279
(I1
(I3
tp280
g267
I00
S'*\\\xc2:m^:@\xa0`\xa3\xe3\xae<\x1d\xc0t\x01p\xebhw\x14@'
p281
tp282
bsg272
S'Cell[3].axon[338]'
p283
sI148
I82
tp284
a(F1.0356256488203481
S'Cell[1].dend[16] syn_ = new FastInhib(0.5)'
p285
I1
(dp286
g257
F0.8999999999999999
sg258
F4.0
sg259
I148
sg260
g7
(g8
(I0
tp287
g10
tp288
Rp289
(I1
(I3
tp290
g267
I00
S'h\x90V\x9b\x81\x04?@k\x8c\x88%\xc7\xf10@}\x80[\x8c\xab\xfcF\xc0'
p291
tp292
bsg272
S'Cell[3].axon[338]'
p293
sI148
I82
tp294
a(F1.0699579562418862
S'Cell[2].dend[57] syn_ = new FastInhib(0.7)'
p295
I2
(dp296
g257
F0.5
sg258
F4.0
sg259
I148
sg260
g7
(g8
(I0
tp297
g10
tp298
Rp299
(I1
(I3
tp300
g267
I00
S'u\x0bY\x1a\\\xcbK\xc0;\xdf\xbd3\xb8}U\xc0V)\x90\\q\xe2E\xc0'
p301
tp302
bsg272
S'Cell[3].axon[391]'
p303
sI148
I130
tp304
a(F2.0347257508099754
S'Cell[3].apic[20] syn_ = new FastInhib(0.5)'
p305
I3
(dp306
g257
F0.1
sg258
F4.0
sg259
I4
sg260
g7
(g8
(I0
tp307
g10
tp308
Rp309
(I1
(I3
tp310
g267
I00
S'\x98\x16\x89}d\x80M@P\xbb\xaei\x1c=d\xc0\xb7\xe6\x14;\x8f`\x13@'
p311
tp312
bsg272
S'Cell[0].axon[18]'
p313
sI4
I178
tp314
a(F2.2276289127693056
S'Cell[3].apic[19] syn_ = new FastInhib(0.5)'
p315
I3
(dp316
g257
F0.16666666666666666
sg258
F4.0
sg259
I4
sg260
g7
(g8
(I0
tp317
g10
tp318
Rp319
(I1
(I3
tp320
g267
I00
S'\xa2\x12\xf3\x9f\x1b^G@+p:\xbfg\xb1b\xc0\x00\x00\x00\x80\x14\xae\x16@'
p321
tp322
bsg272
S'Cell[0].axon[21]'
p323
sI4
I178
tp324
a(F1.8188014295803363
S'Cell[3].apic[10] syn_ = new FastInhib(0.5)'
p325
I3
(dp326
S'seg'
p327
F0.5
sS'hostfrom'
p328
F5.0
sS'gid'
p329
I149
sS'coords'
p330
g7
(g8
(I0
tp331
g10
tp332
Rp333
(I1
(I3
tp334
g14
(S'f8'
p335
I0
I1
tp336
Rp337
(I3
S'<'
p338
NNNI-1
I-1
I0
tp339
bI00
S'\xbc\x99G\x84F\x14\x11@\r\x07\xc9\xd3f\xb6X\xc0\x01\x0f\xc0\xbaT\xd1=\xc0'
p340
tp341
bsS'secnames'
p342
S'Cell[3].axon[37]'
p343
sI149
I178
tp344
a(F1.557296137332961
S'Cell[3].apic[3] syn_ = new FastInhib(0.166666666667)'
p345
I3
(dp346
g327
F0.8999999999999999
sg328
F5.0
sg329
I149
sg330
g7
(g8
(I0
tp347
g10
tp348
Rp349
(I1
(I3
tp350
g337
I00
S'\xe9#L\xc8\xfc\xbc,@\xfd\xadd\xcar\x0b2\xc0\xff\xff\xff\x7f\x14\xae\x1f\xc0'
p351
tp352
bsg342
S'Cell[3].axon[38]'
p353
sI149
I178
tp354
a(F1.4380842614578977
S'Cell[3].dend[28] syn_ = new FastInhib(0.5)'
p355
I3
(dp356
g327
F0.16666666666666666
sg328
F5.0
sg329
I5
sg330
g7
(g8
(I0
tp357
g10
tp358
Rp359
(I1
(I3
tp360
g337
I00
S'yH\x84\xa5\x91dZ\xc0\x04mA\xee:\x9al@\xac!\xc8|,M\x1e\xc0'
p361
tp362
bsg342
S'Cell[0].axon[34]'
p363
sI5
I178
tp364
a(F1.518700735361421
S'Cell[2].dend[30] syn_ = new FastInhib(0.5)'
p365
I2
(dp366
S'seg'
p367
F0.5
sS'hostfrom'
p368
F6.0
sS'gid'
p369
I102
sS'coords'
p370
g7
(g8
(I0
tp371
g10
tp372
Rp373
(I1
(I3
tp374
g14
(S'f8'
p375
I0
I1
tp376
Rp377
(I3
S'<'
p378
NNNI-1
I-1
I0
tp379
bI00
S'\x00\x00\x00@\nW\x12\xc0\x00\x00\x00\x00\x000L@\x00\x00\x00 \\\xef4\xc0'
p380
tp381
bsS'secnames'
p382
S'Cell[2].axon[26]'
p383
sI102
I130
tp384
a(F2.458154139091079
S'Cell[1].dend[5] syn_ = new FastInhib(0.3)'
p385
I1
(dp386
g367
F0.5
sg368
F6.0
sg369
I150
sg370
g7
(g8
(I0
tp387
g10
tp388
Rp389
(I1
(I3
tp390
g377
I00
S'K\x00\x00 G\xe1\xfe\xbf\x00\x00\x00\xa0p\x1dB@\x01\x00\x00 \x85\xeb\xe1?'
p391
tp392
bsg382
S'Cell[3].soma[0]'
p393
sI150
I82
tp394
a(F2.4271292252014702
S'Cell[1].dend[29] syn_ = new FastInhib(0.5)'
p395
I1
(dp396
g367
F0.5
sg368
F6.0
sg369
I150
sg370
g7
(g8
(I0
tp397
g10
tp398
Rp399
(I1
(I3
tp400
g377
I00
S'\x1c\xec\xdb\x97\xe4{O\xc0\xc0\xdf={=\xb41@\x00\x00\x00\x80\x14\xee>\xc0'
p401
tp402
bsg382
S'Cell[3].axon[61]'
p403
sI150
I82
tp404
a(F1.9131483011816255
S'Cell[2].dend[52] syn_ = new FastInhib(0.5)'
p405
I2
(dp406
g367
F0.16666666666666666
sg368
F6.0
sg369
I150
sg370
g7
(g8
(I0
tp407
g10
tp408
Rp409
(I1
(I3
tp410
g377
I00
S'\x0b\xd9\xcb\xe1n\x1eR\xc0,\xe0j`\xb7\xe3\x16@\x00\x00\x00\x80\x14\xee>\xc0'
p411
tp412
bsg382
S'Cell[3].axon[79]'
p413
sI150
I130
tp414
a(F2.4686162858630176
S'Cell[3].apic[8] syn_ = new FastInhib(0.5)'
p415
I3
(dp416
S'seg'
p417
F0.5
sS'hostfrom'
p418
F7.0
sS'gid'
p419
I103
sS'coords'
p420
g7
(g8
(I0
tp421
g10
tp422
Rp423
(I1
(I3
tp424
g14
(S'f8'
p425
I0
I1
tp426
Rp427
(I3
S'<'
p428
NNNI-1
I-1
I0
tp429
bI00
S'R\x9bP\x1d9\x0c%@\x05\x98\xfe\x10\xd4\x90H\xc0\x00\x00\x00\xa0G\xe1\xf2?'
p430
tp431
bsS'secnames'
p432
S'Cell[2].axon[260]'
p433
sI103
I178
tp434
a(F1.8313566556631138
S'Cell[3].apic[3] syn_ = new FastInhib(0.166666666667)'
p435
I3
(dp436
g417
F0.5
sg418
F7.0
sg419
I103
sg420
g7
(g8
(I0
tp437
g10
tp438
Rp439
(I1
(I3
tp440
g427
I00
S'\x00\x00\x00\x10\xae\xc7/@\x00\x00\x00\x90\xc2\xd51\xc0\x00\x00\x00\xa0Ga#\xc0'
p441
tp442
bsg432
S'Cell[2].axon[379]'
p443
sI103
I178
tp444
a(F2.0842349737730665
S'Cell[2].dend[5] syn_ = new FastInhib(0.5)'
p445
I2
(dp446
g417
F0.16666666666666666
sg418
F7.0
sg419
I103
sg420
g7
(g8
(I0
tp447
g10
tp448
Rp449
(I1
(I3
tp450
g427
I00
S"6p\x82r\xe3\x965@\xa3(\xd5[Hk2\xc0l'fd\x00\x86\x1a\xc0"
p451
tp452
bsg432
S'Cell[2].axon[381]'
p453
sI103
I130
tp454
a(F2.3879505218669292
S'Cell[3].dend[56] syn_ = new FastInhib(0.833333333333)'
p455
I3
(dp456
g417
F0.21428571428571427
sg418
F7.0
sg419
I103
sg420
g7
(g8
(I0
tp457
g10
tp458
Rp459
(I1
(I3
tp460
g427
I00
S"r\x99\xa1\x1c'\x95+\xc0o\r\xcc\x90I\x8cT@\x00\x00\x00 \\\x8f$\xc0"
p461
tp462
bsg432
S'Cell[2].axon[439]'
p463
sI103
I178
tp464
a(F1.9070802372690303
S'Cell[1].dend[10] syn_ = new FastInhib(0.5)'
p465
I1
(dp466
g417
F0.16666666666666666
sg418
F7.0
sg419
I103
sg420
g7
(g8
(I0
tp467
g10
tp468
Rp469
(I1
(I3
tp470
g427
I00
S'J\x1c\xb26]\xc66\xc0E\x16\xc2\xaak\xf9\xed\xbfH\xc4\xc4o\x1a\xa1\t\xc0'
p471
tp472
bsg432
S'Cell[2].axon[445]'
p473
sI103
I82
tp474
a(F2.101150278477391
S'Cell[3].dend[58] syn_ = new FastInhib(0.166666666667)'
p475
I3
(dp476
S'seg'
p477
F0.8333333333333333
sS'hostfrom'
p478
F8.0
sS'gid'
p479
I152
sS'coords'
p480
g7
(g8
(I0
tp481
g10
tp482
Rp483
(I1
(I3
tp484
g14
(S'f8'
p485
I0
I1
tp486
Rp487
(I3
S'<'
p488
NNNI-1
I-1
I0
tp489
bI00
S"\xcc ;\xf5}H-\xc0\xde\x7f\x9c\x8a\xd7'X@\xe5\x116\xb9_:-\xc0"
p490
tp491
bsS'secnames'
p492
S'Cell[3].axon[23]'
p493
sI152
I178
tp494
a(F2.4007284107744775
S'Cell[0].apic[4] syn_ = new AmpaNmda(0.5)'
p495
I0
(dp496
g477
F0.16666666666666666
sg478
F8.0
sg479
I152
sg480
g7
(g8
(I0
tp497
g10
tp498
Rp499
(I1
(I3
tp500
g487
I00
S'@~!\x9bY\x17S@\xf4\xaf\x89r\xcb\x8fN@N0\xfc\xbd\xd2\xc2\x1f\xc0'
p501
tp502
bsg492
S'Cell[3].axon[413]'
p503
sI152
I34
tp504
a(F2.4070096464153186
S'Cell[1].dend[8] syn_ = new FastInhib(0.5)'
p505
I1
(dp506
g477
F0.8333333333333333
sg478
F8.0
sg479
I152
sg480
g7
(g8
(I0
tp507
g10
tp508
Rp509
(I1
(I3
tp510
g487
I00
S"2\xac-\xaeJ_F\xc0z\xb8\x8bf:\x87$@d\n\x04\x91\xbcG'@"
p511
tp512
bsg492
S'Cell[3].axon[508]'
p513
sI152
I82
tp514
a(F1.7447205212970427
S'Cell[2].dend[28] syn_ = new FastInhib(0.166666666667)'
p515
I2
(dp516
g477
F0.8333333333333333
sg478
F8.0
sg479
I152
sg480
g7
(g8
(I0
tp517
g10
tp518
Rp519
(I1
(I3
tp520
g487
I00
S'\xef7b\x10\x02\x813\xc0 \xb0\xe7dz\xce1@\xcd6K\tF\x12)\xc0'
p521
tp522
bsg492
S'Cell[3].axon[517]'
p523
sI152
I130
tp524
a(F1.894184651987673
S'Cell[3].apic[7] syn_ = new FastInhib(0.166666666667)'
p525
I3
(dp526
g477
F0.5
sg478
F8.0
sg479
I152
sg480
g7
(g8
(I0
tp527
g10
tp528
Rp529
(I1
(I3
tp530
g487
I00
S'6\x1f/\xc4*\xa7$@\x7f\x94\xa4 \xab\xb4;\xc0\xb8\x91"I\x93\xed\xfd\xbf'
p531
tp532
bsg492
S'Cell[3].axon[519]'
p533
sI152
I178
tp534
a(F2.0078851531165727
S'Cell[1].dend[30] syn_ = new FastInhib(0.5)'
p535
I1
(dp536
g477
F0.5
sg478
F8.0
sg479
I152
sg480
g7
(g8
(I0
tp537
g10
tp538
Rp539
(I1
(I3
tp540
g487
I00
S'\n`S\xcb\xc5DQ\xc0Cl\x97\xd1%\x9a)@\xd6\xd7_\x94\x9d\x1b;\xc0'
p541
tp542
bsg492
S'Cell[3].axon[571]'
p543
sI152
I82
tp544
a(F1.72708726574211
S'Cell[0].apic[5] syn_ = new AmpaNmda(0.166666666667)'
p545
I0
(dp546
g477
F0.8333333333333333
sg478
F8.0
sg479
I104
sg480
g7
(g8
(I0
tp547
g10
tp548
Rp549
(I1
(I3
tp550
g487
I00
S'>d\x84/\xb0\xe4R@\x1a\x93\xea\xde\xcf@U@4\x15\x1eP\xf7\x8c \xc0'
p551
tp552
bsg492
S'Cell[2].axon[159]'
p553
sI104
I34
tp554
a(F1.2228540007453377
S'Cell[2].dend[11] syn_ = new FastInhib(0.833333333333)'
p555
I2
(dp556
g477
F0.05555555555555555
sg478
F8.0
sg479
I104
sg480
g7
(g8
(I0
tp557
g10
tp558
Rp559
(I1
(I3
tp560
g487
I00
S'\xfae\xd1\xe1\x85\xcc]\xc0\xfeu\xa6\xbb\xba95\xc0\xf2\xf7R\x91\xac&J\xc0'
p561
tp562
bsg492
S'Cell[2].axon[192]'
p563
sI104
I130
tp564
a(F1.5315672718400057
S'Cell[1].dend[0] syn_ = new FastInhib(0.5)'
p565
I1
(dp566
g477
F0.16666666666666666
sg478
F8.0
sg479
I104
sg480
g7
(g8
(I0
tp567
g10
tp568
Rp569
(I1
(I3
tp570
g487
I00
S'$)\x04\xed\xd0\n1\xc0j;\xcf\xb9\xae7$\xc0\x0fW\xae\xea\xdc\x83\x02\xc0'
p571
tp572
bsg492
S'Cell[2].axon[338]'
p573
sI104
I82
tp574
a(F1.1867885222285883
S'Cell[2].dend[58] syn_ = new FastInhib(0.1)'
p575
I2
(dp576
g477
F0.5
sg478
F8.0
sg479
I104
sg480
g7
(g8
(I0
tp577
g10
tp578
Rp579
(I1
(I3
tp580
g487
I00
S'\x941\xdcC\xdc\xe9I\xc0\x94\x80m\xaa\x8a\xb94@\x95\xbcp\xf5\x08\x1fH\xc0'
p581
tp582
bsg492
S'Cell[2].axon[382]'
p583
sI104
I130
tp584
a(F2.2924272601924134
S'Cell[0].apic[23] syn_ = new ExpSid(0.3)'
p585
I0
(dp586
S'seg'
p587
F0.5
sS'hostfrom'
p588
F9.0
sS'gid'
p589
I153
sS'coords'
p590
g7
(g8
(I0
tp591
g10
tp592
Rp593
(I1
(I3
tp594
g14
(S'f8'
p595
I0
I1
tp596
Rp597
(I3
S'<'
p598
NNNI-1
I-1
I0
tp599
bI00
S']#[$\xa7\x9cG@\x86\x13\xc2\xdc\x16\xb39@\xcfsj-k\xe0(@'
p600
tp601
bsS'secnames'
p602
S'Cell[3].axon[6]'
p603
sI153
I34
tp604
a(F1.9021430677435838
S'Cell[1].apic[0] syn_ = new FastInhib(0.5)'
p605
I1
(dp606
g587
F0.5
sg588
F9.0
sg589
I9
sg590
g7
(g8
(I0
tp607
g10
tp608
Rp609
(I1
(I3
tp610
g597
I00
S'\xf8\xcc0w\xd1\xf50\xc0L\xe4\xae\xe3)\x0fC\xc0`k\x97\xebI\xaf\xf5?'
p611
tp612
bsg602
S'Cell[0].axon[0]'
p613
sI9
I82
tp614
a(F1.9185851411902566
S'Cell[1].dend[39] syn_ = new FastInhib(0.5)'
p615
I1
(dp616
S'seg'
p617
F0.5
sS'hostfrom'
p618
F10.0
sS'gid'
p619
I106
sS'coords'
p620
g7
(g8
(I0
tp621
g10
tp622
Rp623
(I1
(I3
tp624
g14
(S'f8'
p625
I0
I1
tp626
Rp627
(I3
S'<'
p628
NNNI-1
I-1
I0
tp629
bI00
S'\x01\x00\x00\xe0\xcc\xcc\x19@\x00\x00\x00\x80\xebQ\x14\xc0\x00\x00\x00\x80\x14\xae\r\xc0'
p630
tp631
bsS'secnames'
p632
S'Cell[2].soma[0]'
p633
sI106
I82
tp634
a(F2.406969811442165
S'Cell[3].apic[11] syn_ = new FastInhib(0.5)'
p635
I3
(dp636
g617
F0.16666666666666666
sg618
F10.0
sg619
I106
sg620
g7
(g8
(I0
tp637
g10
tp638
Rp639
(I1
(I3
tp640
g627
I00
S'?\xec\xf5\xed\x8a\x18"\xc0\xac\xc3\xe4E\xa6\x97^\xc0\x00\x00\x00\xc0\x1eeA\xc0'
p641
tp642
bsg632
S'Cell[2].axon[8]'
p643
sI106
I178
tp644
a(F2.206088122019036
S'Cell[3].dend[45] syn_ = new FastInhib(0.5)'
p645
I3
(dp646
g617
F0.5
sg618
F10.0
sg619
I106
sg620
g7
(g8
(I0
tp647
g10
tp648
Rp649
(I1
(I3
tp650
g627
I00
S'\xe8\xde\xfcZ\r\xe1,\xc0\x90\xc9,\r\xa9\xa5?@\xd0#b\xd2\x13\xb2)\xc0'
p651
tp652
bsg632
S'Cell[2].axon[24]'
p653
sI106
I178
tp654
a(F2.4526098236492673
S'Cell[3].dend[66] syn_ = new FastInhib(0.5)'
p655
I3
(dp656
g617
F0.16666666666666666
sg618
F10.0
sg619
I106
sg620
g7
(g8
(I0
tp657
g10
tp658
Rp659
(I1
(I3
tp660
g627
I00
S'[\xad\x9e\x19\x89\x191@\x16\x1a\xd3d\tb`@\xd0\xdf\xf6\xaaF}\x12\xc0'
p661
tp662
bsg632
S'Cell[2].axon[68]'
p663
sI106
I178
tp664
a(F1.7292685638425598
S'Cell[1].apic[2] syn_ = new FastInhib(0.833333333333)'
p665
I1
(dp666
g617
F0.5
sg618
F10.0
sg619
I106
sg620
g7
(g8
(I0
tp667
g10
tp668
Rp669
(I1
(I3
tp670
g627
I00
S'hG\xd8\x92\x0e&\x13\xc0\x90\xaf\x18\xc8\xe1\xd4P\xc0:\xbb\x9c\x07\x89\xa39\xc0'
p671
tp672
bsg632
S'Cell[2].axon[119]'
p673
sI106
I82
tp674
a(F0.5422955032869673
S'Cell[1].dend[32] syn_ = new FastInhib(0.5)'
p675
I1
(dp676
g617
F0.5
sg618
F10.0
sg619
I106
sg620
g7
(g8
(I0
tp677
g10
tp678
Rp679
(I1
(I3
tp680
g627
I00
S'&\x8a\xcb\xd2@\xc8G\xc0\xee\xd7\x19\x1a\xe8\xa05\xc0}\x0f[\xec$U!@'
p681
tp682
bsg632
S'Cell[2].axon[134]'
p683
sI106
I82
tp684
a(F1.9162366595717084
S'Cell[1].dend[27] syn_ = new FastInhib(0.5)'
p685
I1
(dp686
g617
F0.5
sg618
F10.0
sg619
I106
sg620
g7
(g8
(I0
tp687
g10
tp688
Rp689
(I1
(I3
tp690
g627
I00
S'\xde\x94i\xe8\xad\xce8\xc0\x83\x8b0\xa0\xebq3\xc0\x988\x97\x88\xb3]\xe9?'
p691
tp692
bsg632
S'Cell[2].axon[176]'
p693
sI106
I82
tp694
a(F1.6374411462257443
S'Cell[1].apic[2] syn_ = new FastInhib(0.166666666667)'
p695
I1
(dp696
g617
F0.5
sg618
F10.0
sg619
I106
sg620
g7
(g8
(I0
tp697
g10
tp698
Rp699
(I1
(I3
tp700
g627
I00
S"\xbd\x12\xccO\x1c\xb1'\xc0]\xa6l\xdc\xc1\xd0H\xc0\x84\x829\xa2K&\x00\xc0"
p701
tp702
bsg632
S'Cell[2].axon[264]'
p703
sI106
I82
tp704
a(F1.4629478324356449
S'Cell[0].apic[16] syn_ = new ExpSid(0.5)'
p705
I0
(dp706
S'seg'
p707
F0.07142857142857142
sS'hostfrom'
p708
F11.0
sS'gid'
p709
I59
sS'coords'
p710
g7
(g8
(I0
tp711
g10
tp712
Rp713
(I1
(I3
tp714
g14
(S'f8'
p715
I0
I1
tp716
Rp717
(I3
S'<'
p718
NNNI-1
I-1
I0
tp719
bI00
S'\x0c\xc8\xd6\xed\x03\xb1a@\xfc\xd2\x138\xcc\xfcR@\x00\x00\x00\x80\x14n=@'
p720
tp721
bsS'secnames'
p722
S'Cell[1].axon[15]'
p723
sI59
I34
tp724
a(F1.8482023652583264
S'Cell[2].dend[18] syn_ = new FastInhib(0.5)'
p725
I2
(dp726
g707
F0.5
sg708
F11.0
sg709
I155
sg710
g7
(g8
(I0
tp727
g10
tp728
Rp729
(I1
(I3
tp730
g717
I00
S'K\xe6Y\xa6\x99!R\xc0\x85\x14\xa0\xa6\xbdu0\xc0t\x87^B\x1a\xa0\x12@'
p731
tp732
bsg722
S'Cell[3].axon[154]'
p733
sI155
I130
tp734
a(F2.385077932618948
S'Cell[0].apic[23] syn_ = new ExpSid(0.7)'
p735
I0
(dp736
g707
F0.16666666666666666
sg708
F11.0
sg709
I155
sg710
g7
(g8
(I0
tp737
g10
tp738
Rp739
(I1
(I3
tp740
g717
I00
S"JT*\xa2R\xaa'@\xc2\xc2\x1f\xb1\xed^)@?\x1c\xc0\x80\xf8\x1a6@"
p741
tp742
bsg722
S'Cell[3].axon[170]'
p743
sI155
I34
tp744
a(F1.386839552787899
S'Cell[2].dend[33] syn_ = new FastInhib(0.1)'
p745
I2
(dp746
g707
F0.16666666666666666
sg708
F11.0
sg709
I155
sg710
g7
(g8
(I0
tp747
g10
tp748
Rp749
(I1
(I3
tp750
g717
I00
S'zD\xf8ib\xd8M\xc0$\xe1\xcf\x00h\xbdR@\xf4\xd5I\x96\x05\x97;\xc0'
p751
tp752
bsg722
S'Cell[3].axon[277]'
p753
sI155
I130
tp754
a(F1.673825575262365
S'Cell[3].dend[22] syn_ = new FastInhib(0.166666666667)'
p755
I3
(dp756
S'seg'
p757
F0.5
sS'hostfrom'
p758
F12.0
sS'gid'
p759
I156
sS'coords'
p760
g7
(g8
(I0
tp761
g10
tp762
Rp763
(I1
(I3
tp764
g14
(S'f8'
p765
I0
I1
tp766
Rp767
(I3
S'<'
p768
NNNI-1
I-1
I0
tp769
bI00
S'\xbaLS\xb5\x80sL\xc00[\xfd\x80:\xddG@\x00\x00\x00`\xb8\x9e%\xc0'
p770
tp771
bsS'secnames'
p772
S'Cell[3].axon[627]'
p773
sI156
I178
tp774
a(F1.2892957552905828
S'Cell[3].dend[22] syn_ = new FastInhib(0.5)'
p775
I3
(dp776
g757
F0.8333333333333333
sg758
F12.0
sg759
I156
sg760
g7
(g8
(I0
tp777
g10
tp778
Rp779
(I1
(I3
tp780
g767
I00
S'\x1b\xf2\x92^{\x1aM\xc0\xea\n7H\xe4\xdaM@pd\x12\xc0\xb3\x95&\xc0'
p781
tp782
bsg772
S'Cell[3].axon[627]'
p783
sI156
I178
tp784
a(F1.108861052250333
S'Cell[2].dend[58] syn_ = new FastInhib(0.5)'
p785
I2
(dp786
g757
F0.16666666666666666
sg758
F12.0
sg759
I108
sg760
g7
(g8
(I0
tp787
g10
tp788
Rp789
(I1
(I3
tp790
g767
I00
S'<\x07\x15\xba\xa1\x0f7\xc0W\x972\xdb\xfd\\\xea?\xbe\xc3O\xeb\xb7\xbaC\xc0'
p791
tp792
bsg772
S'Cell[2].axon[392]'
p793
sI108
I130
tp794
a(F0.42342733664519416
S'Cell[3].dend[7] syn_ = new FastInhib(0.833333333333)'
p795
I3
(dp796
g757
F0.5
sg758
F12.0
sg759
I108
sg760
g7
(g8
(I0
tp797
g10
tp798
Rp799
(I1
(I3
tp800
g767
I00
S'Rq\xa9\xec\r\x17T\xc0\xd2\xf7Z\x1a\xe8\xc9@@\xfe\xbb\x1e_\xf9\xb5*@'
p801
tp802
bsg772
S'Cell[2].axon[406]'
p803
sI108
I178
tp804
a(F1.4536689442685535
S'Cell[1].dend[40] syn_ = new FastInhib(0.5)'
p805
I1
(dp806
S'seg'
p807
F0.5
sS'hostfrom'
p808
F13.0
sS'gid'
p809
I109
sS'coords'
p810
g7
(g8
(I0
tp811
g10
tp812
Rp813
(I1
(I3
tp814
g14
(S'f8'
p815
I0
I1
tp816
Rp817
(I3
S'<'
p818
NNNI-1
I-1
I0
tp819
bI00
S'\x1e\\L1Aq7@4^\xc3\xab\xbf\r(@\x00\x00\x00\xa0G\xe1;\xc0'
p820
tp821
bsS'secnames'
p822
S'Cell[2].axon[253]'
p823
sI109
I82
tp824
a(F1.600254595030139
S'Cell[3].apic[7] syn_ = new FastInhib(0.166666666667)'
p825
I3
(dp826
S'seg'
p827
F0.16666666666666666
sS'hostfrom'
p828
F14.0
sS'gid'
p829
I110
sS'coords'
p830
g7
(g8
(I0
tp831
g10
tp832
Rp833
(I1
(I3
tp834
g14
(S'f8'
p835
I0
I1
tp836
Rp837
(I3
S'<'
p838
NNNI-1
I-1
I0
tp839
bI00
S'\xda\xab\xe1@\xd6\x07"@\xdd\xc2\xec\x04\xc6\n=\xc0\x86\xa8\x9ffAJ\x06\xc0'
p840
tp841
bsS'secnames'
p842
S'Cell[2].axon[4]'
p843
sI110
I178
tp844
a(F2.25651868809054
S'Cell[2].dend[5] syn_ = new FastInhib(0.5)'
p845
I2
(dp846
g827
F0.5
sg828
F14.0
sg829
I110
sg830
g7
(g8
(I0
tp847
g10
tp848
Rp849
(I1
(I3
tp850
g837
I00
S'5\x89\x9c\x07\x88\xe95@\x86\xb2m\x0f\xd12/\xc0\x19\xc5\x1dAG\xb7"\xc0'
p851
tp852
bsg842
S'Cell[2].axon[9]'
p853
sI110
I130
tp854
a(F1.8550213610754778
S'Cell[1].dend[37] syn_ = new FastInhib(0.166666666667)'
p855
I1
(dp856
g827
F0.8333333333333333
sg828
F14.0
sg829
I110
sg830
g7
(g8
(I0
tp857
g10
tp858
Rp859
(I1
(I3
tp860
g837
I00
S'\xdccF\xed\xa6\xfbE@\x1a\xdd\xfb8\xab\x1c \xc0:\x9d\x8f^\x12z @'
p861
tp862
bsg842
S'Cell[2].axon[68]'
p863
sI110
I82
tp864
a(F1.42524364510568
S'Cell[2].dend[29] syn_ = new FastInhib(0.5)'
p865
I2
(dp866
S'seg'
p867
F0.16666666666666666
sS'hostfrom'
p868
F15.0
sS'gid'
p869
I159
sS'coords'
p870
g7
(g8
(I0
tp871
g10
tp872
Rp873
(I1
(I3
tp874
g14
(S'f8'
p875
I0
I1
tp876
Rp877
(I3
S'<'
p878
NNNI-1
I-1
I0
tp879
bI00
S"\x1am\xf3\xf2\xf0\xe65\xc0{\x9ap\xd2\x81\xd1@@\x1c\x06\x02\x1e\xa9\xf9'\xc0"
p880
tp881
bsS'secnames'
p882
S'Cell[3].axon[36]'
p883
sI159
I130
tp884
a(F1.8268699701801545
S'Cell[1].dend[35] syn_ = new FastInhib(0.5)'
p885
I1
(dp886
g867
F0.30000000000000004
sg868
F15.0
sg869
I159
sg870
g7
(g8
(I0
tp887
g10
tp888
Rp889
(I1
(I3
tp890
g877
I00
S"\xcf\xf7'\xb4\xc7\xf2$@\xbePG\xe4.\x0e0\xc0\xac\x8cb\xf0\xaa\x02\x1b@"
p891
tp892
bsg882
S'Cell[3].axon[80]'
p893
sI159
I82
tp894
a(F1.5370952133490856
S'Cell[0].dend[1] syn_ = new AmpaNmda(0.166666666667)'
p895
I0
(dp896
S'seg'
p897
F0.5
sS'hostfrom'
p898
F16.0
sS'gid'
p899
I112
sS'coords'
p900
g7
(g8
(I0
tp901
g10
tp902
Rp903
(I1
(I3
tp904
g14
(S'f8'
p905
I0
I1
tp906
Rp907
(I3
S'<'
p908
NNNI-1
I-1
I0
tp909
bI00
S'\xe6\xb9\x82\xac\r\xcc5@$l\xadN@r\x0e@\x00\x00\x00@\xe1\xfa(\xc0'
p910
tp911
bsS'secnames'
p912
S'Cell[2].axon[97]'
p913
sI112
I34
tp914
a(F1.9534074703313218
S'Cell[1].dend[13] syn_ = new FastInhib(0.5)'
p915
I1
(dp916
g897
F0.8333333333333333
sg898
F16.0
sg899
I112
sg900
g7
(g8
(I0
tp917
g10
tp918
Rp919
(I1
(I3
tp920
g907
I00
S'\x0b\xa8\xe0f\xc3v"@\x9e\xb5\xc1\xe9P\x7fA@v\x81\xdasY\xdb8\xc0'
p921
tp922
bsg912
S'Cell[2].axon[132]'
p923
sI112
I82
tp924
a(F1.2558818876744944
S'Cell[1].dend[25] syn_ = new FastInhib(0.5)'
p925
I1
(dp926
g897
F0.49999999999999994
sg898
F16.0
sg899
I112
sg900
g7
(g8
(I0
tp927
g10
tp928
Rp929
(I1
(I3
tp930
g907
I00
S'\x84\xb2\xc52\xe3-%\xc02t\xc4\xd8M\x8d\x1a\xc0\x16\xf0\x7f\xab\xaa\xb5G\xc0'
p931
tp932
bsg912
S'Cell[2].axon[201]'
p933
sI112
I82
tp934
a(F1.460883836606588
S'Cell[0].apic[10] syn_ = new AmpaNmda(0.5)'
p935
I0
(dp936
g897
F0.49999999999999994
sg898
F16.0
sg899
I112
sg900
g7
(g8
(I0
tp937
g10
tp938
Rp939
(I1
(I3
tp940
g907
I00
S'\x84+%\xe4\xf1\x8fP@\xe0\xd6\xe1\x14~\xfca@^\xf0\xf1\xa8\xc6\xb1\x0e@'
p941
tp942
bsg912
S'Cell[2].axon[259]'
p943
sI112
I34
tp944
a(F2.401903612159642
S'Cell[3].apic[21] syn_ = new FastInhib(0.5)'
p945
I3
(dp946
S'seg'
p947
F0.5
sS'hostfrom'
p948
F17.0
sS'gid'
p949
I113
sS'coords'
p950
g7
(g8
(I0
tp951
g10
tp952
Rp953
(I1
(I3
tp954
g14
(S'f8'
p955
I0
I1
tp956
Rp957
(I3
S'<'
p958
NNNI-1
I-1
I0
tp959
bI00
S'\xbekO\x06\xf0\xc1O@4\x90\xb3\xaf@se\xc0\xc4/c\x94\xbc\xe9\x02@'
p960
tp961
bsS'secnames'
p962
S'Cell[2].axon[420]'
p963
sI113
I178
tp964
a(F1.3825297749507133
S'Cell[3].apic[11] syn_ = new FastInhib(0.5)'
p965
I3
(dp966
g947
F0.5
sg948
F17.0
sg949
I113
sg950
g7
(g8
(I0
tp967
g10
tp968
Rp969
(I1
(I3
tp970
g957
I00
S'\xbf\x94\x9e\xa5\xe8\x82$\xc0\xb8\t5\xdb\xc9\x92^\xc0\x052\xcdX\x02SB\xc0'
p971
tp972
bsg962
S'Cell[2].axon[639]'
p973
sI113
I178
tp974
a(F2.349251730027264
S'Cell[2].dend[43] syn_ = new FastInhib(0.166666666667)'
p975
I2
(dp976
g947
F0.5
sg948
F17.0
sg949
I161
sg950
g7
(g8
(I0
tp977
g10
tp978
Rp979
(I1
(I3
tp980
g957
I00
S'\xe8P\xf9\xa6\xf8gE\xc0-z/\xab\x86\x90P@\x941\x0b\x11\x97\xaaP\xc0'
p981
tp982
bsg962
S'Cell[3].axon[139]'
p983
sI161
I130
tp984
a(F2.1534631576383547
S'Cell[1].apic[0] syn_ = new FastInhib(0.5)'
p985
I1
(dp986
S'seg'
p987
F0.5
sS'hostfrom'
p988
F18.0
sS'gid'
p989
I114
sS'coords'
p990
g7
(g8
(I0
tp991
g10
tp992
Rp993
(I1
(I3
tp994
g14
(S'f8'
p995
I0
I1
tp996
Rp997
(I3
S'<'
p998
NNNI-1
I-1
I0
tp999
bI00
S'\xd5i\xfc\x8d\xd6A.\xc0A\x17UU\rLD\xc0\xee\xfb\xc6\xfd\xb8R\x08@'
p1000
tp1001
bsS'secnames'
p1002
S'Cell[2].axon[0]'
p1003
sI114
I82
tp1004
a(F2.0891105775680847
S'Cell[1].dend[37] syn_ = new FastInhib(0.5)'
p1005
I1
(dp1006
g987
F0.16666666666666666
sg988
F18.0
sg989
I114
sg990
g7
(g8
(I0
tp1007
g10
tp1008
Rp1009
(I1
(I3
tp1010
g997
I00
S'lT\xcd\xdb\x99\xa8N@\xa2\x90\x8f\xaf.\xa2+\xc03\x00\xe2/\xc0g\x15@'
p1011
tp1012
bsg1002
S'Cell[2].axon[85]'
p1013
sI114
I82
tp1014
a(F2.4840882360525853
S'Cell[2].dend[20] syn_ = new FastInhib(0.5)'
p1015
I2
(dp1016
g987
F0.16666666666666666
sg988
F18.0
sg989
I114
sg990
g7
(g8
(I0
tp1017
g10
tp1018
Rp1019
(I1
(I3
tp1020
g997
I00
S'51qr\x10uQ\xc0\xb4\x9a\xd2\x89H\xd6A\xc0\x02\xa6c\xf3\xd4\x0f(@'
p1021
tp1022
bsg1002
S'Cell[2].axon[98]'
p1023
sI114
I130
tp1024
a(F2.159760257318249
S'Cell[1].dend[17] syn_ = new FastInhib(0.9)'
p1025
I1
(dp1026
g987
F0.30000000000000004
sg988
F18.0
sg989
I162
sg990
g7
(g8
(I0
tp1027
g10
tp1028
Rp1029
(I1
(I3
tp1030
g997
I00
S'\xa7\x95\xdc\xf1Kb5\xc0\x93\xf5N\x8bD\xf8Z@\xe3Q\xfcAK\xfcD\xc0'
p1031
tp1032
bsg1002
S'Cell[3].axon[145]'
p1033
sI162
I82
tp1034
a(F1.8692013857741843
S'Cell[2].dend[40] syn_ = new FastInhib(0.5)'
p1035
I2
(dp1036
S'seg'
p1037
F0.1
sS'hostfrom'
p1038
F19.0
sS'gid'
p1039
I115
sS'coords'
p1040
g7
(g8
(I0
tp1041
g10
tp1042
Rp1043
(I1
(I3
tp1044
g14
(S'f8'
p1045
I0
I1
tp1046
Rp1047
(I3
S'<'
p1048
NNNI-1
I-1
I0
tp1049
bI00
S'\x15\xd3Zu\x95\x14I\xc0El\x0c\xdc\xb9oR@\x90w\x83x\xae~<\xc0'
p1050
tp1051
bsS'secnames'
p1052
S'Cell[2].axon[81]'
p1053
sI115
I130
tp1054
a(F0.8693691119513057
S'Cell[3].dend[16] syn_ = new FastInhib(0.5)'
p1055
I3
(dp1056
g1037
F0.5
sg1038
F19.0
sg1039
I115
sg1040
g7
(g8
(I0
tp1057
g10
tp1058
Rp1059
(I1
(I3
tp1060
g1047
I00
S'\x00\x00\x00\x00\x00\\b\xc0\x00\x00\x00P\xb8\xd2c@\x00\x00\x00\xd0\xcc\x1cO\xc0'
p1061
tp1062
bsg1052
S'Cell[2].axon[217]'
p1063
sI115
I178
tp1064
a(F2.204223643398105
S'Cell[3].apic[9] syn_ = new FastInhib(0.5)'
p1065
I3
(dp1066
g1037
F0.5
sg1038
F19.0
sg1039
I67
sg1040
g7
(g8
(I0
tp1067
g10
tp1068
Rp1069
(I1
(I3
tp1070
g1047
I00
S"\x00\x00\x00P\xe1:'@\x00\x00\x00\x90\xebAU\xc0\x00\x00\x00\x00\x1f\x85\xe7\xbf"
p1071
tp1072
bsg1052
S'Cell[1].axon[36]'
p1073
sI67
I178
tp1074
a(F1.8859425099982947
S'Cell[3].apic[8] syn_ = new FastInhib(0.5)'
p1075
I3
(dp1076
S'seg'
p1077
F0.5
sS'hostfrom'
p1078
F20.0
sS'gid'
p1079
I68
sS'coords'
p1080
g7
(g8
(I0
tp1081
g10
tp1082
Rp1083
(I1
(I3
tp1084
g14
(S'f8'
p1085
I0
I1
tp1086
Rp1087
(I3
S'<'
p1088
NNNI-1
I-1
I0
tp1089
bI00
S'\x97\n\xf8\xfeN\x17%@\xa5\x06\xb8\xfbwAH\xc0\x00\x00\x00\xa0\x99\x99\xf1?'
p1090
tp1091
bsS'secnames'
p1092
S'Cell[1].axon[29]'
p1093
sI68
I178
tp1094
a(F2.0388985459184457
S'Cell[1].dend[13] syn_ = new FastInhib(0.5)'
p1095
I1
(dp1096
S'seg'
p1097
F0.5
sS'hostfrom'
p1098
F21.0
sS'gid'
p1099
I117
sS'coords'
p1100
g7
(g8
(I0
tp1101
g10
tp1102
Rp1103
(I1
(I3
tp1104
g14
(S'f8'
p1105
I0
I1
tp1106
Rp1107
(I3
S'<'
p1108
NNNI-1
I-1
I0
tp1109
bI00
S'\x00\x00\x0083\xf3!@\x00\x00\x00\x10\xd7\xf3B@\x00\x00\x00\x80\xc2u9\xc0'
p1110
tp1111
bsS'secnames'
p1112
S'Cell[2].axon[4]'
p1113
sI117
I82
tp1114
a(F1.4500644319615732
S'Cell[0].apic[14] syn_ = new ExpSid(0.5)'
p1115
I0
(dp1116
g1097
F0.5
sg1098
F21.0
sg1099
I117
sg1100
g7
(g8
(I0
tp1117
g10
tp1118
Rp1119
(I1
(I3
tp1120
g1107
I00
S'^5\xe0\x1b\x19oV@-c\x86\xc5\xd9\xbaW@\x00\x00\x00\x80\xc2u9\xc0'
p1121
tp1122
bsg1112
S'Cell[2].axon[49]'
p1123
sI117
I34
tp1124
a(F2.3751766525114335
S'Cell[1].dend[17] syn_ = new FastInhib(0.5)'
p1125
I1
(dp1126
g1097
F0.5
sg1098
F21.0
sg1099
I117
sg1100
g7
(g8
(I0
tp1127
g10
tp1128
Rp1129
(I1
(I3
tp1130
g1107
I00
S'\x80*\x87f\xc9\xf34\xc0=g#\x96\xa4hO@\x00\x00\x00\x80\xc2u9\xc0'
p1131
tp1132
bsg1112
S'Cell[2].axon[343]'
p1133
sI117
I82
tp1134
a(F2.1844965358801893
S'Cell[1].dend[17] syn_ = new FastInhib(0.5)'
p1135
I1
(dp1136
g1097
F0.5
sg1098
F21.0
sg1099
I117
sg1100
g7
(g8
(I0
tp1137
g10
tp1138
Rp1139
(I1
(I3
tp1140
g1107
I00
S'\xc6\xe2\xca\x9b!\xba4\xc0\x9c\x9f\xf4\xb3\xf8\xfcN@\x00\x00\x00\x80\xc2u9\xc0'
p1141
tp1142
bsg1112
S'Cell[2].axon[344]'
p1143
sI117
I82
tp1144
a(F2.2680682901016804
S'Cell[3].dend[8] syn_ = new FastInhib(0.5)'
p1145
I3
(dp1146
g1097
F0.7222222222222223
sg1098
F21.0
sg1099
I69
sg1100
g7
(g8
(I0
tp1147
g10
tp1148
Rp1149
(I1
(I3
tp1150
g1107
I00
S'3b\xb0\xe6\xa4\x8eG\xc0\xa6o\xf9\xfd\x89p@@"40\rBx!\xc0'
p1151
tp1152
bsg1112
S'Cell[1].axon[4]'
p1153
sI69
I178
tp1154
a(F1.65130981873949
S'Cell[3].dend[73] syn_ = new FastInhib(0.5)'
p1155
I3
(dp1156
S'seg'
p1157
F0.1
sS'hostfrom'
p1158
F22.0
sS'gid'
p1159
I166
sS'coords'
p1160
g7
(g8
(I0
tp1161
g10
tp1162
Rp1163
(I1
(I3
tp1164
g14
(S'f8'
p1165
I0
I1
tp1166
Rp1167
(I3
S'<'
p1168
NNNI-1
I-1
I0
tp1169
bI00
S'\xcbOe\x7fC\x98F@\x92\x01\xb6\xa4\x91\xcdc@\xf4\x95\xd3\xfd\xdd\x04(@'
p1170
tp1171
bsS'secnames'
p1172
S'Cell[3].axon[92]'
p1173
sI166
I178
tp1174
a(F2.470406349814613
S'Cell[1].dend[1] syn_ = new FastInhib(0.5)'
p1175
I1
(dp1176
g1157
F0.1
sg1158
F22.0
sg1159
I166
sg1160
g7
(g8
(I0
tp1177
g10
tp1178
Rp1179
(I1
(I3
tp1180
g1167
I00
S'\xd1[\xe4\xcb/\xff.\xc0r\xdeQ\xe8\xb6\x8b\x16\xc0N\xc8\x91\x0c@\xc8\xea?'
p1181
tp1182
bsg1172
S'Cell[3].axon[149]'
p1183
sI166
I82
tp1184
a(F2.2239184666445295
S'Cell[1].dend[30] syn_ = new FastInhib(0.5)'
p1185
I1
(dp1186
g1157
F0.07142857142857142
sg1158
F22.0
sg1159
I166
sg1160
g7
(g8
(I0
tp1187
g10
tp1188
Rp1189
(I1
(I3
tp1190
g1167
I00
S'\xf0Jc*\x00+Q\xc0\xb3\xe2_@\xb6 "@\xb5\xdc\xf0i\xa359\xc0'
p1191
tp1192
bsg1172
S'Cell[3].axon[183]'
p1193
sI166
I82
tp1194
a(F2.4101154420769246
S'Cell[1].dend[7] syn_ = new FastInhib(0.5)'
p1195
I1
(dp1196
S'seg'
p1197
F0.2777777777777778
sS'hostfrom'
p1198
F23.0
sS'gid'
p1199
I167
sS'coords'
p1200
g7
(g8
(I0
tp1201
g10
tp1202
Rp1203
(I1
(I3
tp1204
g14
(S'f8'
p1205
I0
I1
tp1206
Rp1207
(I3
S'<'
p1208
NNNI-1
I-1
I0
tp1209
bI00
S'\x14\xbeY\xbb\xbd]A\xc0\x1b\xbf\x05Wt\x91\x05\xc0\x00\x00\x00\xe0\xa3p\x14@'
p1210
tp1211
bsS'secnames'
p1212
S'Cell[3].axon[1]'
p1213
sI167
I82
tp1214
a(F2.4835032765884626
S'Cell[1].dend[10] syn_ = new FastInhib(0.5)'
p1215
I1
(dp1216
g1197
F0.5
sg1198
F23.0
sg1199
I167
sg1200
g7
(g8
(I0
tp1217
g10
tp1218
Rp1219
(I1
(I3
tp1220
g1207
I00
S'\xd0\xec\x03X\xc7 7\xc0\nD\xa0\x88-\xbc\x00\xc0B\xf0\xfa\xc2\xcd\xec\xf3\xbf'
p1221
tp1222
bsg1212
S'Cell[3].axon[184]'
p1223
sI167
I82
tp1224
a(F2.2271295393777226
S'Cell[1].dend[43] syn_ = new FastInhib(0.166666666667)'
p1225
I1
(dp1226
S'seg'
p1227
F0.1
sS'hostfrom'
p1228
F24.0
sS'gid'
p1229
I24
sS'coords'
p1230
g7
(g8
(I0
tp1231
g10
tp1232
Rp1233
(I1
(I3
tp1234
g14
(S'f8'
p1235
I0
I1
tp1236
Rp1237
(I3
S'<'
p1238
NNNI-1
I-1
I0
tp1239
bI00
S'\x06v&\x06\x88\x17+@\xfc\xcb&&9\xcb%\xc0\x00\x00\x00\xe0Q\xb8#\xc0'
p1240
tp1241
bsS'secnames'
p1242
S'Cell[0].axon[0]'
p1243
sI24
I82
tp1244
a(F1.708021790829527
S'Cell[3].dend[22] syn_ = new FastInhib(0.5)'
p1245
I3
(dp1246
g1227
F0.16666666666666666
sg1228
F24.0
sg1229
I120
sg1230
g7
(g8
(I0
tp1247
g10
tp1248
Rp1249
(I1
(I3
tp1250
g1237
I00
S'\xfc\tW\xa9\x12mM\xc0\xc5\xaaf\xd1\xf8\x04N@\t\x14|\x9b\xd8\xc6$\xc0'
p1251
tp1252
bsg1242
S'Cell[2].axon[50]'
p1253
sI120
I178
tp1254
a(F2.2646659905533233
S'Cell[3].apic[14] syn_ = new FastInhib(0.5)'
p1255
I3
(dp1256
g1227
F0.16666666666666666
sg1228
F24.0
sg1229
I120
sg1230
g7
(g8
(I0
tp1257
g10
tp1258
Rp1259
(I1
(I3
tp1260
g1237
I00
S'F\x06\xdbk\xcb\xb1Q@H\x0f\xb2\xabD\xb6^\xc0\xf8\x83\xbb\xec\xf6\x1bJ\xc0'
p1261
tp1262
bsg1242
S'Cell[2].axon[96]'
p1263
sI120
I178
tp1264
a(F0.57062771648001
S'Cell[1].apic[8] syn_ = new FastInhib(0.5)'
p1265
I1
(dp1266
g1227
F0.5
sg1228
F24.0
sg1229
I120
sg1230
g7
(g8
(I0
tp1267
g10
tp1268
Rp1269
(I1
(I3
tp1270
g1237
I00
S'nMg\x01aj0\xc0\x89\x82L\xe7\xa6rN\xc0\xd0\xd5\x0e\xa0)r\x1c@'
p1271
tp1272
bsg1242
S'Cell[2].axon[135]'
p1273
sI120
I82
tp1274
a(F2.3597538631492507
S'Cell[3].apic[24] syn_ = new FastInhib(0.833333333333)'
p1275
I3
(dp1276
S'seg'
p1277
F0.16666666666666666
sS'hostfrom'
p1278
F25.0
sS'gid'
p1279
I25
sS'coords'
p1280
g7
(g8
(I0
tp1281
g10
tp1282
Rp1283
(I1
(I3
tp1284
g14
(S'f8'
p1285
I0
I1
tp1286
Rp1287
(I3
S'<'
p1288
NNNI-1
I-1
I0
tp1289
bI00
S'\xb5`\xa0\xdd^H@@\x97\xfd\x14\xbb^\xaep\xc0\xfbK\xb9\x0e\xb9\x06\x0e@'
p1290
tp1291
bsS'secnames'
p1292
S'Cell[0].axon[21]'
p1293
sI25
I178
tp1294
a(F1.6689373828789813
S'Cell[2].dend[30] syn_ = new FastInhib(0.833333333333)'
p1295
I2
(dp1296
g1277
F0.16666666666666666
sg1278
F25.0
sg1279
I121
sg1280
g7
(g8
(I0
tp1297
g10
tp1298
Rp1299
(I1
(I3
tp1300
g1287
I00
S"bN\xc9\xba\x81\xd8!@\r\xec\xff\xec\x18\x99Q@\xc5\xb6'1h\xcd3\xc0"
p1301
tp1302
bsg1292
S'Cell[2].axon[32]'
p1303
sI121
I130
tp1304
a(F2.0254032881153092
S'Cell[2].dend[10] syn_ = new FastInhib(0.5)'
p1305
I2
(dp1306
g1277
F0.5
sg1278
F25.0
sg1279
I121
sg1280
g7
(g8
(I0
tp1307
g10
tp1308
Rp1309
(I1
(I3
tp1310
g1287
I00
S'\x00\x00\x00\xd0\xcc<L\xc0\x00\x00\x00\xe8z\x940@\x00\x00\x00\x10\xd7c6\xc0'
p1311
tp1312
bsg1292
S'Cell[2].axon[155]'
p1313
sI121
I130
tp1314
a(F2.489974513996763
S'Cell[2].dend[20] syn_ = new FastInhib(0.5)'
p1315
I2
(dp1316
g1277
F0.5
sg1278
F25.0
sg1279
I121
sg1280
g7
(g8
(I0
tp1317
g10
tp1318
Rp1319
(I1
(I3
tp1320
g1287
I00
S"\x00\x00\x00pfVQ\xc0\x00\x00\x00\xd0\xcc<B\xc0\x00\x00\x00\xd0\xa3\xb0'@"
p1321
tp1322
bsg1292
S'Cell[2].axon[248]'
p1323
sI121
I130
tp1324
a(F1.9412773917796557
S'Cell[2].dend[55] syn_ = new FastInhib(0.5)'
p1325
I2
(dp1326
g1277
F0.5
sg1278
F25.0
sg1279
I121
sg1280
g7
(g8
(I0
tp1327
g10
tp1328
Rp1329
(I1
(I3
tp1330
g1287
I00
S'\x19\x84@&=\x96]\xc0\n\x00\x0c\xf2D\x13(\xc0\x7fM\x1d]b\xdf"\xc0'
p1331
tp1332
bsg1292
S'Cell[2].axon[334]'
p1333
sI121
I130
tp1334
a(F1.9977815093315139
S'Cell[0].apic[8] syn_ = new AmpaNmda(0.5)'
p1335
I0
(dp1336
S'seg'
p1337
F0.5
sS'hostfrom'
p1338
F26.0
sS'gid'
p1339
I26
sS'coords'
p1340
g7
(g8
(I0
tp1341
g10
tp1342
Rp1343
(I1
(I3
tp1344
g14
(S'f8'
p1345
I0
I1
tp1346
Rp1347
(I3
S'<'
p1348
NNNI-1
I-1
I0
tp1349
bI00
S'\x00\x00\x00p=\xeaN@\x00\x00\x00\xb0G\xbdt@\x00\x00\x00\xc0\xcc\xcc\x10\xc0'
p1350
tp1351
bsS'secnames'
p1352
S'Cell[0].axon[11]'
p1353
sI26
I34
tp1354
a(F2.4509471962398734
S'Cell[1].dend[18] syn_ = new FastInhib(0.5)'
p1355
I1
(dp1356
g1337
F0.21428571428571427
sg1338
F26.0
sg1339
I26
sg1340
g7
(g8
(I0
tp1357
g10
tp1358
Rp1359
(I1
(I3
tp1360
g1347
I00
S'\xa5\xf9\xb7g\xe9\x908\xc0T\xbd\xe6\r\x80\xc3\xf1?Dl+\x11\xae\x0f\x05\xc0'
p1361
tp1362
bsg1352
S'Cell[0].axon[63]'
p1363
sI26
I82
tp1364
a(F2.043451720104846
S'Cell[2].dend[28] syn_ = new FastInhib(0.166666666667)'
p1365
I2
(dp1366
g1337
F0.3571428571428571
sg1338
F26.0
sg1339
I26
sg1340
g7
(g8
(I0
tp1367
g10
tp1368
Rp1369
(I1
(I3
tp1370
g1347
I00
S'n\xa0K+oA6\xc0\x94\x97H\xe4\x9b\x004@\x0c\xe0w\x08"\x87&\xc0'
p1371
tp1372
bsg1352
S'Cell[0].axon[63]'
p1373
sI26
I130
tp1374
a(F1.604534553499076
S'Cell[1].apic[12] syn_ = new FastInhib(0.5)'
p1375
I1
(dp1376
g1337
F0.5
sg1338
F26.0
sg1339
I122
sg1340
g7
(g8
(I0
tp1377
g10
tp1378
Rp1379
(I1
(I3
tp1380
g1347
I00
S'\x10\xcc\xe1R\x8d\xd0\'\xc0\xdb\x8c(\x14\x8a\xca\\\xc0b"er\x19\xcf-@'
p1381
tp1382
bsg1352
S'Cell[2].axon[12]'
p1383
sI122
I82
tp1384
a(F1.1025922127577743
S'Cell[3].dend[58] syn_ = new FastInhib(0.833333333333)'
p1385
I3
(dp1386
g1337
F0.5
sg1338
F26.0
sg1339
I170
sg1340
g7
(g8
(I0
tp1387
g10
tp1388
Rp1389
(I1
(I3
tp1390
g1347
I00
S'E\xf5R\xe3J\xad\x10\xc0\xb1\xd2\x99\xdfj\x17a@\xe5\x08\x1f\xd9t\x1f\x11\xc0'
p1391
tp1392
bsg1352
S'Cell[3].axon[314]'
p1393
sI170
I178
tp1394
a(F2.0908669790948076
S'Cell[0].dend[4] syn_ = new AmpaNmda(0.5)'
p1395
I0
(dp1396
g1337
F0.1
sg1338
F26.0
sg1339
I170
sg1340
g7
(g8
(I0
tp1397
g10
tp1398
Rp1399
(I1
(I3
tp1400
g1347
I00
S'\x90\x7f\xd6y\x88\x8c=\xc0\x17\xe7|\xf8\x95\x80G@\x00\x00\x00\x80=J;\xc0'
p1401
tp1402
bsg1352
S'Cell[3].axon[507]'
p1403
sI170
I34
tp1404
a(F2.0159988177891606
S'Cell[2].dend[17] syn_ = new FastInhib(0.833333333333)'
p1405
I2
(dp1406
S'seg'
p1407
F0.5
sS'hostfrom'
p1408
F27.0
sS'gid'
p1409
I123
sS'coords'
p1410
g7
(g8
(I0
tp1411
g10
tp1412
Rp1413
(I1
(I3
tp1414
g14
(S'f8'
p1415
I0
I1
tp1416
Rp1417
(I3
S'<'
p1418
NNNI-1
I-1
I0
tp1419
bI00
S'\xf6wyA\xa2\x1bZ\xc0\x947=]\xa1\xe8?\xc0\x00\x00\x00@33\x07\xc0'
p1420
tp1421
bsS'secnames'
p1422
S'Cell[2].axon[44]'
p1423
sI123
I130
tp1424
a(F1.2445223496148716
S'Cell[2].dend[11] syn_ = new FastInhib(0.166666666667)'
p1425
I2
(dp1426
g1407
F0.3571428571428571
sg1408
F27.0
sg1409
I123
sg1410
g7
(g8
(I0
tp1427
g10
tp1428
Rp1429
(I1
(I3
tp1430
g1417
I00
S']\xe2\x13\xbe\xcd0T\xc0\x01\n\x9a\xaa4h\x11@\x93-\xe7&+Z:\xc0'
p1431
tp1432
bsg1422
S'Cell[2].axon[49]'
p1433
sI123
I130
tp1434
a(F1.8855732562429242
S'Cell[1].apic[0] syn_ = new FastInhib(0.5)'
p1435
I1
(dp1436
g1407
F0.8333333333333333
sg1408
F27.0
sg1409
I27
sg1410
g7
(g8
(I0
tp1437
g10
tp1438
Rp1439
(I1
(I3
tp1440
g1417
I00
S'\x1b;/\x08\x1f~-\xc0\x19\xb1;\xbb\xb6!C\xc0\xa2\xc2\xcb\x95\xea\x0c\xb4?'
p1441
tp1442
bsg1422
S'Cell[0].axon[6]'
p1443
sI27
I82
tp1444
a(F2.4432566459375584
S'Cell[1].dend[38] syn_ = new FastInhib(0.5)'
p1445
I1
(dp1446
g1407
F0.7
sg1408
F27.0
sg1409
I171
sg1410
g7
(g8
(I0
tp1447
g10
tp1448
Rp1449
(I1
(I3
tp1450
g1417
I00
S'h\xaa\xd5\xd4&\x81\x00\xc0\xc3#\xeb\xfd\x19e0\xc0\x80\xf3:\xbd\x14\xad\x05\xc0'
p1451
tp1452
bsg1422
S'Cell[3].axon[21]'
p1453
sI171
I82
tp1454
a(F1.7468821455128094
S'Cell[0].dend[2] syn_ = new AmpaNmda(0.5)'
p1455
I0
(dp1456
S'seg'
p1457
F0.5
sS'hostfrom'
p1458
F28.0
sS'gid'
p1459
I172
sS'coords'
p1460
g7
(g8
(I0
tp1461
g10
tp1462
Rp1463
(I1
(I3
tp1464
g14
(S'f8'
p1465
I0
I1
tp1466
Rp1467
(I3
S'<'
p1468
NNNI-1
I-1
I0
tp1469
bI00
S'\xbe\x03\\\x0e(\xecO\xc0\x98\xfd\xdf\xcb\x88\xac3\xc0+\xf5\xabP\xddo\x14@'
p1470
tp1471
bsS'secnames'
p1472
S'Cell[3].axon[40]'
p1473
sI172
I34
tp1474
a(F2.4522332094786288
S'Cell[1].dend[31] syn_ = new FastInhib(0.5)'
p1475
I1
(dp1476
g1457
F0.7
sg1458
F28.0
sg1459
I172
sg1460
g7
(g8
(I0
tp1477
g10
tp1478
Rp1479
(I1
(I3
tp1480
g1467
I00
S'\xbb\xdc\x0fg\xaf\x99A\xc0F\x13\x18\x05h<0\xc0\xcc*\xb4%\r,\n@'
p1481
tp1482
bsg1472
S'Cell[3].axon[67]'
p1483
sI172
I82
tp1484
a(F1.7755914714870842
S'Cell[3].apic[13] syn_ = new FastInhib(0.166666666667)'
p1485
I3
(dp1486
g1457
F0.5
sg1458
F28.0
sg1459
I124
sg1460
g7
(g8
(I0
tp1487
g10
tp1488
Rp1489
(I1
(I3
tp1490
g1467
I00
S'\xe7\x94\x0c\x9f\xdb"D@\xcc\xf7~\x9d\x80\xd6X\xc0\x06!,e\x94\xe50\xc0'
p1491
tp1492
bsg1472
S'Cell[2].axon[75]'
p1493
sI124
I178
tp1494
a(F2.236211809666026
S'Cell[3].dend[56] syn_ = new FastInhib(0.833333333333)'
p1495
I3
(dp1496
S'seg'
p1497
F0.8333333333333333
sS'hostfrom'
p1498
F29.0
sS'gid'
p1499
I173
sS'coords'
p1500
g7
(g8
(I0
tp1501
g10
tp1502
Rp1503
(I1
(I3
tp1504
g14
(S'f8'
p1505
I0
I1
tp1506
Rp1507
(I3
S'<'
p1508
NNNI-1
I-1
I0
tp1509
bI00
S'\xe9\xb2\xbcL\xa3\n*\xc0)\x9eA\xf2\xb8\xfbT@\xc42\xb7\x8f\xfe\x0f(\xc0'
p1510
tp1511
bsS'secnames'
p1512
S'Cell[3].axon[37]'
p1513
sI173
I178
tp1514
a(F2.054028223096064
S'Cell[0].dend[8] syn_ = new ExpSid(0.5)'
p1515
I0
(dp1516
g1497
F0.5
sg1498
F29.0
sg1499
I125
sg1500
g7
(g8
(I0
tp1517
g10
tp1518
Rp1519
(I1
(I3
tp1520
g1507
I00
S'\x1e\x14\xc8\xb1\xc5\xd5Q@\x82\x15\x05\xe7r\xb3.\xc0\x00\x00\x00\x00)\x9c9\xc0'
p1521
tp1522
bsg1512
S'Cell[2].axon[175]'
p1523
sI125
I34
tp1524
a(F2.351322459502428
S'Cell[3].apic[22] syn_ = new FastInhib(0.166666666667)'
p1525
I3
(dp1526
g1497
F0.1
sg1498
F29.0
sg1499
I77
sg1500
g7
(g8
(I0
tp1527
g10
tp1528
Rp1529
(I1
(I3
tp1530
g1507
I00
S'\xf7`@\xc5u\x89A@\r\\\x92)\xf7oc\xc0\x00\x00\x00\x00\xd7\xa3\x1c\xc0'
p1531
tp1532
bsg1512
S'Cell[1].axon[26]'
p1533
sI77
I178
tp1534
a(F1.775738492702866
S'Cell[1].apic[4] syn_ = new FastInhib(0.166666666667)'
p1535
I1
(dp1536
S'seg'
p1537
F0.16666666666666666
sS'hostfrom'
p1538
F30.0
sS'gid'
p1539
I126
sS'coords'
p1540
g7
(g8
(I0
tp1541
g10
tp1542
Rp1543
(I1
(I3
tp1544
g14
(S'f8'
p1545
I0
I1
tp1546
Rp1547
(I3
S'<'
p1548
NNNI-1
I-1
I0
tp1549
bI00
S'H\x13\xec\x89*\xff\x17@k;qr\xc6\xd5Q\xc0\x00\x00\x00\x00\x00`@\xc0'
p1550
tp1551
bsS'secnames'
p1552
S'Cell[2].axon[97]'
p1553
sI126
I82
tp1554
a(F0.46280384232863314
S'Cell[2].dend[8] syn_ = new FastInhib(0.833333333333)'
p1555
I2
(dp1556
g1537
F0.16666666666666666
sg1538
F30.0
sg1539
I30
sg1540
g7
(g8
(I0
tp1557
g10
tp1558
Rp1559
(I1
(I3
tp1560
g1547
I00
S'\x86Rv\xca\x0e\x10D\xc0\xef\xa0J\xde\x84qU\xc0\xb9\x7f\x01uc.7\xc0'
p1561
tp1562
bsg1552
S'Cell[0].axon[5]'
p1563
sI30
I130
tp1564
a(F1.956128209269576
S'Cell[3].apic[13] syn_ = new FastInhib(0.166666666667)'
p1565
I3
(dp1566
S'seg'
p1567
F0.8333333333333333
sS'hostfrom'
p1568
F31.0
sS'gid'
p1569
I127
sS'coords'
p1570
g7
(g8
(I0
tp1571
g10
tp1572
Rp1573
(I1
(I3
tp1574
g14
(S'f8'
p1575
I0
I1
tp1576
Rp1577
(I3
S'<'
p1578
NNNI-1
I-1
I0
tp1579
bI00
S'\x94\x88[\xc4\xcf\xf1D@\xb9,\xca\xee\xb9{X\xc0m1\xe1\xed_\xc5,\xc0'
p1580
tp1581
bsS'secnames'
p1582
S'Cell[2].axon[25]'
p1583
sI127
I178
tp1584
a(F0.8978340337173111
S'Cell[1].apic[5] syn_ = new FastInhib(0.833333333333)'
p1585
I1
(dp1586
g1567
F0.5
sg1568
F31.0
sg1569
I175
sg1570
g7
(g8
(I0
tp1587
g10
tp1588
Rp1589
(I1
(I3
tp1590
g1577
I00
S'\xe2\xfa\x17\x87\xdc$\xf7?`\x98\xe0\x11{NV\xc0\xa7i\x7fo\x8a\xc4\x07\xc0'
p1591
tp1592
bsg1582
S'Cell[3].axon[118]'
p1593
sI175
I82
tp1594
a(F1.8611894297340998
S'Cell[3].apic[22] syn_ = new FastInhib(0.166666666667)'
p1595
I3
(dp1596
S'seg'
p1597
F0.8333333333333333
sS'hostfrom'
p1598
F32.0
sS'gid'
p1599
I176
sS'coords'
p1600
g7
(g8
(I0
tp1601
g10
tp1602
Rp1603
(I1
(I3
tp1604
g14
(S'f8'
p1605
I0
I1
tp1606
Rp1607
(I3
S'<'
p1608
NNNI-1
I-1
I0
tp1609
bI00
S'\x9c\x82\xef\x1f/\x00C@\x0c\x8b,\xa6D3c\xc0^\xdfW\x84\xb4w"\xc0'
p1610
tp1611
bsS'secnames'
p1612
S'Cell[3].axon[61]'
p1613
sI176
I178
tp1614
a(F1.9708654807111323
S'Cell[0].apic[15] syn_ = new AmpaNmda(0.166666666667)'
p1615
I0
(dp1616
g1597
F0.7
sg1598
F32.0
sg1599
I176
sg1600
g7
(g8
(I0
tp1617
g10
tp1618
Rp1619
(I1
(I3
tp1620
g1607
I00
S':\x07\xfe\x8a\xbd\x80U@\xb8\xa9\xeb\x91W?K@\x00\x00\x00\xc0\xcc\xcc\x16\xc0'
p1621
tp1622
bsg1612
S'Cell[3].axon[113]'
p1623
sI176
I34
tp1624
a(F1.6991643616586833
S'Cell[3].dend[56] syn_ = new FastInhib(0.833333333333)'
p1625
I3
(dp1626
S'seg'
p1627
F0.5
sS'hostfrom'
p1628
F33.0
sS'gid'
p1629
I129
sS'coords'
p1630
g7
(g8
(I0
tp1631
g10
tp1632
Rp1633
(I1
(I3
tp1634
g14
(S'f8'
p1635
I0
I1
tp1636
Rp1637
(I3
S'<'
p1638
NNNI-1
I-1
I0
tp1639
bI00
S'\x00\x00\x00\x80=\n(\xc0\xc72\xa1py\x1dU@\x00\x00\x00\xc0\xcc\xcc \xc0'
p1640
tp1641
bsS'secnames'
p1642
S'Cell[2].axon[3]'
p1643
sI129
I178
tp1644
a(F2.190954870945755
S'Cell[2].dend[32] syn_ = new FastInhib(0.5)'
p1645
I2
(dp1646
g1627
F0.16666666666666666
sg1628
F33.0
sg1629
I129
sg1630
g7
(g8
(I0
tp1647
g10
tp1648
Rp1649
(I1
(I3
tp1650
g1637
I00
S'$\x91~\xf4\xf0\xf7I\xc06\xb8.\x01yYP@\x9b\x06K\x07\xb9\xe28\xc0'
p1651
tp1652
bsg1642
S'Cell[2].axon[31]'
p1653
sI129
I130
tp1654
a(F2.103523708075028
S'Cell[0].apic[2] syn_ = new ExpSid(0.5)'
p1655
I0
(dp1656
g1627
F0.07142857142857142
sg1628
F33.0
sg1629
I177
sg1630
g7
(g8
(I0
tp1657
g10
tp1658
Rp1659
(I1
(I3
tp1660
g1637
I00
S'R\x12\xc5\xa2?\x8dR@\xe4\xf1\xec\xbf\xd4\xf6@@\xb4\xeb\xc3\x88\x94|\x03\xc0'
p1661
tp1662
bsg1642
S'Cell[3].axon[23]'
p1663
sI177
I34
tp1664
a(F1.9695138849960774
S'Cell[3].dend[37] syn_ = new FastInhib(0.5)'
p1665
I3
(dp1666
g1627
F0.3888888888888889
sg1628
F33.0
sg1629
I177
sg1630
g7
(g8
(I0
tp1667
g10
tp1668
Rp1669
(I1
(I3
tp1670
g1637
I00
S'\x93[E\x02iKN\xc0\x9cu\x08\x94/je@\x05^\xba\xca\x8e+2\xc0'
p1671
tp1672
bsg1642
S'Cell[3].axon[106]'
p1673
sI177
I178
tp1674
a(F1.8542306787217915
S'Cell[1].apic[1] syn_ = new FastInhib(0.5)'
p1675
I1
(dp1676
S'seg'
p1677
F0.8333333333333333
sS'hostfrom'
p1678
F35.0
sS'gid'
p1679
I83
sS'coords'
p1680
g7
(g8
(I0
tp1681
g10
tp1682
Rp1683
(I1
(I3
tp1684
g14
(S'f8'
p1685
I0
I1
tp1686
Rp1687
(I3
S'<'
p1688
NNNI-1
I-1
I0
tp1689
bI00
S'\xb5\\\x06B\x86\xc2*\xc0ET\x1aSW\xa8F\xc0*\xfb\xb7\x04\x89\xcf\x17@'
p1690
tp1691
bsS'secnames'
p1692
S'Cell[1].axon[3]'
p1693
sI83
I82
tp1694
a(F1.9490556948894258
S'Cell[1].apic[8] syn_ = new FastInhib(0.5)'
p1695
I1
(dp1696
g1677
F0.16666666666666666
sg1678
F35.0
sg1679
I83
sg1680
g7
(g8
(I0
tp1697
g10
tp1698
Rp1699
(I1
(I3
tp1700
g1687
I00
S"\xf4_\x06M{(0\xc0\x1e_'6B\x13O\xc0\xb5\x8f\x8e\x87f\x11\x18@"
p1701
tp1702
bsg1692
S'Cell[1].axon[7]'
p1703
sI83
I82
tp1704
a(F2.4753349189760305
S'Cell[3].apic[11] syn_ = new FastInhib(0.166666666667)'
p1705
I3
(dp1706
g1677
F0.5
sg1678
F35.0
sg1679
I83
sg1680
g7
(g8
(I0
tp1707
g10
tp1708
Rp1709
(I1
(I3
tp1710
g1687
I00
S'\x9a\xbe\x1bCDR\x19@A\xfal\xdd\xd3d]\xc0\x06\xf3\xc2\xf1|\x9d1\xc0'
p1711
tp1712
bsg1692
S'Cell[1].axon[78]'
p1713
sI83
I178
tp1714
a(F1.642378654014161
S'Cell[3].dend[67] syn_ = new FastInhib(0.5)'
p1715
I3
(dp1716
S'seg'
p1717
F0.5
sS'hostfrom'
p1718
F36.0
sS'gid'
p1719
I84
sS'coords'
p1720
g7
(g8
(I0
tp1721
g10
tp1722
Rp1723
(I1
(I3
tp1724
g14
(S'f8'
p1725
I0
I1
tp1726
Rp1727
(I3
S'<'
p1728
NNNI-1
I-1
I0
tp1729
bI00
S'\xa8\xd5c>\xcb\xbc#@\xb2\xe4\xf3\x03\x10Ec@~\x9eG\x03`&1@'
p1730
tp1731
bsS'secnames'
p1732
S'Cell[1].axon[406]'
p1733
sI84
I178
tp1734
a(F2.40652993959759
S'Cell[1].dend[17] syn_ = new FastInhib(0.5)'
p1735
I1
(dp1736
g1717
F0.5
sg1718
F36.0
sg1719
I84
sg1720
g7
(g8
(I0
tp1737
g10
tp1738
Rp1739
(I1
(I3
tp1740
g1727
I00
S'\x80\xaf\x92\xdc\xd4\x1e3\xc0.\xdb\xcb\xccx*P@k\x82\xbf\x8d\x82Y8\xc0'
p1741
tp1742
bsg1732
S'Cell[1].axon[476]'
p1743
sI84
I82
tp1744
a(F2.121048092896673
S'Cell[2].dend[24] syn_ = new FastInhib(0.833333333333)'
p1745
I2
(dp1746
g1717
F0.8333333333333333
sg1718
F36.0
sg1719
I84
sg1720
g7
(g8
(I0
tp1747
g10
tp1748
Rp1749
(I1
(I3
tp1750
g1727
I00
S'p594\xc9\x07"@\xbe\x95w \xf5\xbc8@h0)\x9at\xfeP\xc0'
p1751
tp1752
bsg1732
S'Cell[1].axon[559]'
p1753
sI84
I130
tp1754
a(F1.9489552664310865
S'Cell[0].dend[1] syn_ = new AmpaNmda(0.5)'
p1755
I0
(dp1756
g1717
F0.49999999999999994
sg1718
F36.0
sg1719
I132
sg1720
g7
(g8
(I0
tp1757
g10
tp1758
Rp1759
(I1
(I3
tp1760
g1727
I00
S'$\xe3S(\r\x89\x03@\x90\xbcS\xb0\xe8>\xec?\x00\x00\x00@\xe1\xfa!\xc0'
p1761
tp1762
bsg1732
S'Cell[2].axon[28]'
p1763
sI132
I34
tp1764
a(F1.5183140184364918
S'Cell[1].dend[5] syn_ = new FastInhib(0.7)'
p1765
I1
(dp1766
g1717
F0.5
sg1718
F36.0
sg1719
I132
sg1720
g7
(g8
(I0
tp1767
g10
tp1768
Rp1769
(I1
(I3
tp1770
g1727
I00
S'\x94{v+MI\x15@\xc0\x0e\xcd\xe8\xf2\x98S@x\x97\xa3\xa08\xd8-\xc0'
p1771
tp1772
bsg1732
S'Cell[2].axon[142]'
p1773
sI132
I82
tp1774
a(F2.4648371038831316
S'Cell[0].apic[23] syn_ = new AmpaNmda(0.5)'
p1775
I0
(dp1776
g1717
F0.16666666666666666
sg1718
F36.0
sg1719
I132
sg1720
g7
(g8
(I0
tp1777
g10
tp1778
Rp1779
(I1
(I3
tp1780
g1727
I00
S'j\x8b\x86\xf8\xdeb<@Z\xcd\xc1V\xc4\x89$@"!\xe0\x84\xa6\xa52@'
p1781
tp1782
bsg1732
S'Cell[2].axon[163]'
p1783
sI132
I34
tp1784
a(F2.2387621705519156
S'Cell[3].apic[21] syn_ = new FastInhib(0.5)'
p1785
I3
(dp1786
g1717
F0.42307692307692313
sg1718
F36.0
sg1719
I132
sg1720
g7
(g8
(I0
tp1787
g10
tp1788
Rp1789
(I1
(I3
tp1790
g1727
I00
S'\x8e\r\xa6\x8e\x95\xebO@\xbb\x9c8\xacn\xc5e\xc0\x178rl+\n\x10@'
p1791
tp1792
bsg1732
S'Cell[2].axon[171]'
p1793
sI132
I178
tp1794
a(F1.334675620994435
S'Cell[3].dend[11] syn_ = new FastInhib(0.833333333333)'
p1795
I3
(dp1796
g1717
F0.5
sg1718
F36.0
sg1719
I180
sg1720
g7
(g8
(I0
tp1797
g10
tp1798
Rp1799
(I1
(I3
tp1800
g1727
I00
S'\xfa\xb8MNguZ\xc0$\xdcbQ\x8e!M@\xae\x1f\xb2\xe0\xe1\xbcP\xc0'
p1801
tp1802
bsg1732
S'Cell[3].axon[153]'
p1803
sI180
I178
tp1804
a(F0.9901174108188927
S'Cell[3].dend[65] syn_ = new FastInhib(0.833333333333)'
p1805
I3
(dp1806
g1717
F0.8333333333333333
sg1718
F36.0
sg1719
I180
sg1720
g7
(g8
(I0
tp1807
g10
tp1808
Rp1809
(I1
(I3
tp1810
g1727
I00
S'8\x11\xa9\xf9\x9c\x843@\xce\xab\xd5\x03\xcd\xe3Z@~g\xb4\xd2t\xab\x1a\xc0'
p1811
tp1812
bsg1732
S'Cell[3].axon[206]'
p1813
sI180
I178
tp1814
a(F0.46951499507392686
S'Cell[3].dend[60] syn_ = new FastInhib(0.5)'
p1815
I3
(dp1816
S'seg'
p1817
F0.22727272727272727
sS'hostfrom'
p1818
F37.0
sS'gid'
p1819
I181
sS'coords'
p1820
g7
(g8
(I0
tp1821
g10
tp1822
Rp1823
(I1
(I3
tp1824
g14
(S'f8'
p1825
I0
I1
tp1826
Rp1827
(I3
S'<'
p1828
NNNI-1
I-1
I0
tp1829
bI00
S'\xf5!\x0f/`4\x11@ \xfc\xed\x91\x88ib@\xf8\xc1g\xda\xc4!\xfd\xbf'
p1830
tp1831
bsS'secnames'
p1832
S'Cell[3].axon[7]'
p1833
sI181
I178
tp1834
a(F2.201021198199034
S'Cell[1].dend[6] syn_ = new FastInhib(0.5)'
p1835
I1
(dp1836
g1817
F0.07142857142857142
sg1818
F37.0
sg1819
I85
sg1820
g7
(g8
(I0
tp1837
g10
tp1838
Rp1839
(I1
(I3
tp1840
g1827
I00
S'\xeb\xa4\xeb\xaa\x9a\xf81\xc0\xe7R\xaa/"6\x1b\xc0\xa9\xc8q\x08\x9d\xbc\xe7\xbf'
p1841
tp1842
bsg1832
S'Cell[1].axon[230]'
p1843
sI85
I82
tp1844
a(F1.1413567490194079
S'Cell[3].dend[22] syn_ = new FastInhib(0.166666666667)'
p1845
I3
(dp1846
S'seg'
p1847
F0.16666666666666666
sS'hostfrom'
p1848
F38.0
sS'gid'
p1849
I182
sS'coords'
p1850
g7
(g8
(I0
tp1851
g10
tp1852
Rp1853
(I1
(I3
tp1854
g14
(S'f8'
p1855
I0
I1
tp1856
Rp1857
(I3
S'<'
p1858
NNNI-1
I-1
I0
tp1859
bI00
S'\xc4mE\xeb\x15\xd4L\xc0S\xf0x\x13\x83?G@P\x15u>\xab\xcd#\xc0'
p1860
tp1861
bsS'secnames'
p1862
S'Cell[3].axon[154]'
p1863
sI182
I178
tp1864
a(F1.7804653326445083
S'Cell[3].dend[72] syn_ = new FastInhib(0.166666666667)'
p1865
I3
(dp1866
g1847
F0.16666666666666666
sg1848
F38.0
sg1849
I182
sg1850
g7
(g8
(I0
tp1867
g10
tp1868
Rp1869
(I1
(I3
tp1870
g1857
I00
S'H\x80\x10U\x06^6@\x1ezL\x1b\x04\xece@\x0b]\x83 |\x15\x10@'
p1871
tp1872
bsg1862
S'Cell[3].axon[186]'
p1873
sI182
I178
tp1874
a(F2.2594975208367982
S'Cell[3].dend[66] syn_ = new FastInhib(0.5)'
p1875
I3
(dp1876
g1847
F0.5
sg1848
F38.0
sg1849
I182
sg1850
g7
(g8
(I0
tp1877
g10
tp1878
Rp1879
(I1
(I3
tp1880
g1857
I00
S'-H\xefH\x05\x93-@~\x9cF\x83.\x9c`@\xf0d\x0c\r\xf9\xe5\x12\xc0'
p1881
tp1882
bsg1862
S'Cell[3].axon[305]'
p1883
sI182
I178
tp1884
a(F2.2448729542627603
S'Cell[0].dend[0] syn_ = new ExpSid(0.5)'
p1885
I0
(dp1886
S'seg'
p1887
F0.5
sS'hostfrom'
p1888
F39.0
sS'gid'
p1889
I87
sS'coords'
p1890
g7
(g8
(I0
tp1891
g10
tp1892
Rp1893
(I1
(I3
tp1894
g14
(S'f8'
p1895
I0
I1
tp1896
Rp1897
(I3
S'<'
p1898
NNNI-1
I-1
I0
tp1899
bI00
S'\x00\x00\x00\x10\xd7cG@\x00\x00\x00\xd0\xcc\xcc\x01@\x00\x00\x00\x00\xd7\xa3!\xc0'
p1900
tp1901
bsS'secnames'
p1902
S'Cell[1].axon[98]'
p1903
sI87
I34
tp1904
a(F1.7974659137404732
S'Cell[0].dend[4] syn_ = new ExpSid(0.214285714286)'
p1905
I0
(dp1906
g1887
F0.30000000000000004
sg1888
F39.0
sg1889
I183
sg1890
g7
(g8
(I0
tp1907
g10
tp1908
Rp1909
(I1
(I3
tp1910
g1897
I00
S'B\xf0)\x99`\xe9"@\x0c\x1b\xeb\xa3U\x9e<@b\x9d(XV\xc04\xc0'
p1911
tp1912
bsg1902
S'Cell[3].axon[31]'
p1913
sI183
I34
tp1914
a(F2.2515322956940254
S'Cell[3].dend[7] syn_ = new FastInhib(0.833333333333)'
p1915
I3
(dp1916
g1887
F0.49999999999999994
sg1888
F39.0
sg1889
I183
sg1890
g7
(g8
(I0
tp1917
g10
tp1918
Rp1919
(I1
(I3
tp1920
g1897
I00
S'\xda\xf5\x18\xe1\xec\x05T\xc0\xa3\xff\x04\x8dd;?@\xbb\xe3\x1b\xcd\xf9()@'
p1921
tp1922
bsg1902
S'Cell[3].axon[131]'
p1923
sI183
I178
tp1924
a(F2.3908218083845276
S'Cell[3].apic[19] syn_ = new FastInhib(0.5)'
p1925
I3
(dp1926
g1887
F0.5
sg1888
F39.0
sg1889
I39
sg1890
g7
(g8
(I0
tp1927
g10
tp1928
Rp1929
(I1
(I3
tp1930
g1897
I00
S'\xa9\x0bXm\xf3\x88F@\xe3\xb4\xbaR\xa9\x87b\xc0\x14)\xd5t\xd2\xa3\x1f@'
p1931
tp1932
bsg1902
S'Cell[0].axon[16]'
p1933
sI39
I178
tp1934
a(F2.3959901363694724
S'Cell[2].dend[46] syn_ = new FastInhib(0.833333333333)'
p1935
I2
(dp1936
S'seg'
p1937
F0.8333333333333333
sS'hostfrom'
p1938
F40.0
sS'gid'
p1939
I88
sS'coords'
p1940
g7
(g8
(I0
tp1941
g10
tp1942
Rp1943
(I1
(I3
tp1944
g14
(S'f8'
p1945
I0
I1
tp1946
Rp1947
(I3
S'<'
p1948
NNNI-1
I-1
I0
tp1949
bI00
S'\xf6T\xb8_j\xce#@\xe1\xbf\xa61\xea\xd0X@\x8e\xe8\xfd#\xc4d@\xc0'
p1950
tp1951
bsS'secnames'
p1952
S'Cell[1].axon[71]'
p1953
sI88
I130
tp1954
a(F1.8423948897348013
S'Cell[1].dend[15] syn_ = new FastInhib(0.5)'
p1955
I1
(dp1956
g1937
F0.16666666666666666
sg1938
F40.0
sg1939
I88
sg1940
g7
(g8
(I0
tp1957
g10
tp1958
Rp1959
(I1
(I3
tp1960
g1947
I00
S'\x0c\xc2\xda\x1c\x16\xaf&\xc0\xb8\xe2\xef}\x14\x83?@\x00\x00\x00\xa0G\xc1@\xc0'
p1961
tp1962
bsg1952
S'Cell[1].axon[103]'
p1963
sI88
I82
tp1964
a(F2.2298008357301673
S'Cell[2].dend[46] syn_ = new FastInhib(0.166666666667)'
p1965
I2
(dp1966
g1937
F0.1
sg1938
F40.0
sg1939
I88
sg1940
g7
(g8
(I0
tp1967
g10
tp1968
Rp1969
(I1
(I3
tp1970
g1947
I00
S'dJ\x0f1\x83FD\xc0\xe8Fl\x83\xe2VU@.\xcf\x0e\xbbF\xdf=\xc0'
p1971
tp1972
bsg1952
S'Cell[1].axon[121]'
p1973
sI88
I130
tp1974
a(F2.324422208745311
S'Cell[1].apic[2] syn_ = new FastInhib(0.166666666667)'
p1975
I1
(dp1976
g1937
F0.8333333333333333
sg1938
F40.0
sg1939
I88
sg1940
g7
(g8
(I0
tp1977
g10
tp1978
Rp1979
(I1
(I3
tp1980
g1947
I00
S'\xcaP\xc5\xb2Cj(\xc0\x10\xd6$\xac\x86\xcaH\xc0\xeb{:\xb3\xd6\xae\x0c\xc0'
p1981
tp1982
bsg1952
S'Cell[1].axon[157]'
p1983
sI88
I82
tp1984
a(F2.4071131828342875
S'Cell[2].dend[26] syn_ = new FastInhib(0.166666666667)'
p1985
I2
(dp1986
g1937
F0.21428571428571427
sg1938
F40.0
sg1939
I88
sg1940
g7
(g8
(I0
tp1987
g10
tp1988
Rp1989
(I1
(I3
tp1990
g1947
I00
S'\x88\x8a(\xb2\xdf0)@\x9fW\n\x1dL6B@\x1d\rT\xff#\xccT\xc0'
p1991
tp1992
bsg1952
S'Cell[1].axon[202]'
p1993
sI88
I130
tp1994
a(F1.8414055930033766
S'Cell[3].dend[65] syn_ = new FastInhib(0.166666666667)'
p1995
I3
(dp1996
g1937
F0.1
sg1938
F40.0
sg1939
I88
sg1940
g7
(g8
(I0
tp1997
g10
tp1998
Rp1999
(I1
(I3
tp2000
g1947
I00
S'\x80\xd7\xdaD\x05\x1f!\xc0@(\xec\x89\xc9\xc0H@\xa8\x8b\x87\xe9\x18\n \xc0'
p2001
tp2002
bsg1952
S'Cell[1].axon[252]'
p2003
sI88
I178
tp2004
a(F1.931237061310055
S'Cell[1].dend[44] syn_ = new FastInhib(0.166666666667)'
p2005
I1
(dp2006
g1937
F0.1
sg1938
F40.0
sg1939
I88
sg1940
g7
(g8
(I0
tp2007
g10
tp2008
Rp2009
(I1
(I3
tp2010
g1947
I00
S'\xe1x\xd6\xc0\xb7\x8b"@\xeb\xea~\x1d\xb0\xc5\xf4\xbf"\x1b\x97)\x10*\x07\xc0'
p2011
tp2012
bsg1952
S'Cell[1].axon[313]'
p2013
sI88
I82
tp2014
a(F2.1243614277378566
S'Cell[0].apic[30] syn_ = new AmpaNmda(0.1)'
p2015
I0
(dp2016
g1937
F0.16666666666666666
sg1938
F40.0
sg1939
I88
sg1940
g7
(g8
(I0
tp2017
g10
tp2018
Rp2019
(I1
(I3
tp2020
g1947
I00
S"$\x0f+x\x1b6V@\xe3_&\x1c\x9b='@F\xb3\xb8\xfb]\xa1,\xc0"
p2021
tp2022
bsg1952
S'Cell[1].axon[356]'
p2023
sI88
I34
tp2024
a(F2.341707220334784
S'Cell[2].dend[24] syn_ = new FastInhib(0.5)'
p2025
I2
(dp2026
g1937
F0.5
sg1938
F40.0
sg1939
I136
sg1940
g7
(g8
(I0
tp2027
g10
tp2028
Rp2029
(I1
(I3
tp2030
g1947
I00
S'\x94V\x82|\xf4\xd6\x1d\xc0\x19U\xaf<nP:@\x17,t\x11p\xb8K\xc0'
p2031
tp2032
bsg1952
S'Cell[2].axon[3]'
p2033
sI136
I130
tp2034
a(F2.2894451526290442
S'Cell[1].dend[14] syn_ = new FastInhib(0.5)'
p2035
I1
(dp2036
S'seg'
p2037
F0.16666666666666666
sS'hostfrom'
p2038
F41.0
sS'gid'
p2039
I185
sS'coords'
p2040
g7
(g8
(I0
tp2041
g10
tp2042
Rp2043
(I1
(I3
tp2044
g14
(S'f8'
p2045
I0
I1
tp2046
Rp2047
(I3
S'<'
p2048
NNNI-1
I-1
I0
tp2049
bI00
S'\xb5\xfa\xca\x98\xb5\xc5$\xc0b\xfc\xff~^\xb6)@, \x8b\x04\x9bu0\xc0'
p2050
tp2051
bsS'secnames'
p2052
S'Cell[3].axon[89]'
p2053
sI185
I82
tp2054
a(F2.4288573291224673
S'Cell[3].dend[46] syn_ = new FastInhib(0.5)'
p2055
I3
(dp2056
g2037
F0.16666666666666666
sg2038
F41.0
sg2039
I185
sg2040
g7
(g8
(I0
tp2057
g10
tp2058
Rp2059
(I1
(I3
tp2060
g2047
I00
S'\x94\x9c\xe9\x0c`\xe0-\xc0f\xeb\xe3\x9e\xf0\xa6G@%\xb28\xe1\xbd!3\xc0'
p2061
tp2062
bsg2052
S'Cell[3].axon[104]'
p2063
sI185
I178
tp2064
a(F2.3973074453962315
S'Cell[2].dend[50] syn_ = new FastInhib(0.5)'
p2065
I2
(dp2066
g2037
F0.16666666666666666
sg2038
F41.0
sg2039
I185
sg2040
g7
(g8
(I0
tp2067
g10
tp2068
Rp2069
(I1
(I3
tp2070
g2047
I00
S'\x8cx\x18\xb8\xf2\xccL\xc0\x0e\x0c@\x8c8\x837@\xbc\xc6\xa4PHwC\xc0'
p2071
tp2072
bsg2052
S'Cell[3].axon[127]'
p2073
sI185
I130
tp2074
a(F0.9718618289814086
S'Cell[2].dend[51] syn_ = new FastInhib(0.5)'
p2075
I2
g2066
I185
I130
tp2076
a(F1.224781910326386
S'Cell[2].dend[57] syn_ = new FastInhib(0.1)'
p2077
I2
(dp2078
g2037
F0.8333333333333333
sg2038
F41.0
sg2039
I185
sg2040
g7
(g8
(I0
tp2079
g10
tp2080
Rp2081
(I1
(I3
tp2082
g2047
I00
S'O\xeb]\xb9<\xceN\xc0\xdb\x9f\xde&\x08\x12\x1a@\xd0\xc8QP9\xf1B\xc0'
p2083
tp2084
bsg2052
S'Cell[3].axon[127]'
p2085
sI185
I130
tp2086
a(F1.1872288540600262
S'Cell[2].dend[2] syn_ = new FastInhib(0.5)'
p2087
I2
(dp2088
g2037
F0.5
sg2038
F41.0
sg2039
I185
sg2040
g7
(g8
(I0
tp2089
g10
tp2090
Rp2091
(I1
(I3
tp2092
g2047
I00
S'z\xce8\x95\x19\x98\x0e\xc0\xba\x11\xe8\x9d\x85\xc5&@\x00\x00\x00\x80\xc2u \xc0'
p2093
tp2094
bsg2052
S'Cell[3].axon[216]'
p2095
sI185
I130
tp2096
a(F2.4304602498977235
S'Cell[3].dend[47] syn_ = new FastInhib(0.5)'
p2097
I3
(dp2098
g2037
F0.16666666666666666
sg2038
F41.0
sg2039
I185
sg2040
g7
(g8
(I0
tp2099
g10
tp2100
Rp2101
(I1
(I3
tp2102
g2047
I00
S'kN\x89\x0f\xe5\xc8 \xc0\xd1(\xcc-q\xd2P@\t\xeb\xa0 :\xdc3\xc0'
p2103
tp2104
bsg2052
S'Cell[3].axon[237]'
p2105
sI185
I178
tp2106
a(F1.9300066663626472
S'Cell[0].dend[4] syn_ = new ExpSid(0.5)'
p2107
I0
(dp2108
g2037
F0.30000000000000004
sg2038
F41.0
sg2039
I185
sg2040
g7
(g8
(I0
tp2109
g10
tp2110
Rp2111
(I1
(I3
tp2112
g2047
I00
S'z\x9f\xd0\x91\x15I>\xc0[-\xd7\xcf\x03MF@u~\x15\xe1\xcbD>\xc0'
p2113
tp2114
bsg2052
S'Cell[3].axon[260]'
p2115
sI185
I34
tp2116
a(F2.0835014084101386
S'Cell[1].apic[2] syn_ = new FastInhib(0.5)'
p2117
I1
(dp2118
g2037
F0.3888888888888889
sg2038
F41.0
sg2039
I89
sg2040
g7
(g8
(I0
tp2119
g10
tp2120
Rp2121
(I1
(I3
tp2122
g2047
I00
S'\xb3\r\xd4\xee~\x9d!\xc0\xc4\x05\xe2\x81z\x02M\xc0-K\xea\x9e\xc7\xe5.\xc0'
p2123
tp2124
bsg2052
S'Cell[1].axon[155]'
p2125
sI89
I82
tp2126
a(F1.5192918889955478
S'Cell[3].apic[12] syn_ = new FastInhib(0.5)'
p2127
I3
(dp2128
S'seg'
p2129
F0.16666666666666666
sS'hostfrom'
p2130
F42.0
sS'gid'
p2131
I90
sS'coords'
p2132
g7
(g8
(I0
tp2133
g10
tp2134
Rp2135
(I1
(I3
tp2136
g14
(S'f8'
p2137
I0
I1
tp2138
Rp2139
(I3
S'<'
p2140
NNNI-1
I-1
I0
tp2141
bI00
S'\xe2?\xca\x96\x8c\xae8@\x1d\x04\xb1%\x1f~T\xc0\xad\xd0|\x9e\xb0\xc0\x14\xc0'
p2142
tp2143
bsS'secnames'
p2144
S'Cell[1].axon[134]'
p2145
sI90
I178
tp2146
a(F2.1298907818727177
S'Cell[3].dend[12] syn_ = new FastInhib(0.833333333333)'
p2147
I3
(dp2148
g2129
F0.5
sg2130
F42.0
sg2131
I90
sg2132
g7
(g8
(I0
tp2149
g10
tp2150
Rp2151
(I1
(I3
tp2152
g2139
I00
S"H\\1T\xfa\xadR\xc0\xfe'\xe2\x0eYQU@\xcfu\xb9x\xb8.>@"
p2153
tp2154
bsg2144
S'Cell[1].axon[168]'
p2155
sI90
I178
tp2156
a(F1.8454620237730268
S'Cell[1].dend[9] syn_ = new FastInhib(0.166666666667)'
p2157
I1
(dp2158
g2129
F0.16666666666666666
sg2130
F42.0
sg2131
I138
sg2132
g7
(g8
(I0
tp2159
g10
tp2160
Rp2161
(I1
(I3
tp2162
g2139
I00
S'\xab\x90\xb5\xf1@:C\xc01\t\x86\x1c^\xaa+@w9\xc8Y\x82\xd1&@'
p2163
tp2164
bsg2144
S'Cell[2].axon[65]'
p2165
sI138
I82
tp2166
a(F1.6304274616410026
S'Cell[0].apic[10] syn_ = new ExpSid(0.5)'
p2167
I0
(dp2168
S'seg'
p2169
F0.16666666666666666
sS'hostfrom'
p2170
F43.0
sS'gid'
p2171
I91
sS'coords'
p2172
g7
(g8
(I0
tp2173
g10
tp2174
Rp2175
(I1
(I3
tp2176
g14
(S'f8'
p2177
I0
I1
tp2178
Rp2179
(I3
S'<'
p2180
NNNI-1
I-1
I0
tp2181
bI00
S'8\xb8!5<\xf6O@k\x19\xbe;+\xefa@IV\xc7\xf2\x16\xa9\x06@'
p2182
tp2183
bsS'secnames'
p2184
S'Cell[1].axon[327]'
p2185
sI91
I34
tp2186
a(F1.2664589332509082
S'Cell[1].dend[41] syn_ = new FastInhib(0.9)'
p2187
I1
(dp2188
g2169
F0.5
sg2170
F43.0
sg2171
I91
sg2172
g7
(g8
(I0
tp2189
g10
tp2190
Rp2191
(I1
(I3
tp2192
g2179
I00
S'\xa8*Lc\x05\xdeH@u\xcai#N\xb6S@\x17\xdf?Y\xfa\xe9-\xc0'
p2193
tp2194
bsg2184
S'Cell[1].axon[329]'
p2195
sI91
I82
tp2196
a(F1.6801093940165461
S'Cell[1].dend[17] syn_ = new FastInhib(0.5)'
p2197
I1
(dp2198
g2169
F0.5
sg2170
F43.0
sg2171
I91
sg2172
g7
(g8
(I0
tp2199
g10
tp2200
Rp2201
(I1
(I3
tp2202
g2179
I00
S"kK']\xfa\r3\xc0\x9bV\x99&\xdf\x96O@\n&\\\xcd.\xad:\xc0"
p2203
tp2204
bsg2184
S'Cell[1].axon[529]'
p2205
sI91
I82
tp2206
a(F2.34752033756616
S'Cell[3].apic[15] syn_ = new FastInhib(0.5)'
p2207
I3
(dp2208
g2169
F0.5
sg2170
F43.0
sg2171
I139
sg2172
g7
(g8
(I0
tp2209
g10
tp2210
Rp2211
(I1
(I3
tp2212
g2179
I00
S'\x00\x00\x00`f\x8eR@\x00\x00\x00 \x85#`\xc0\x00\x00\x00\xb0\x1eUN\xc0'
p2213
tp2214
bsg2184
S'Cell[2].axon[241]'
p2215
sI139
I178
tp2216
a(F1.6260395333280326
S'Cell[3].apic[12] syn_ = new FastInhib(0.833333333333)'
p2217
I3
(dp2218
g2169
F0.5
sg2170
F43.0
sg2171
I187
sg2172
g7
(g8
(I0
tp2219
g10
tp2220
Rp2221
(I1
(I3
tp2222
g2179
I00
S'\xd2dx\x83\x02S;@\x1a\xafW\xa1VmW\xc0v\x10A0\x9e\x0e\x1f\xc0'
p2223
tp2224
bsg2184
S'Cell[3].axon[39]'
p2225
sI187
I178
tp2226
a(F2.0347855151821954
S'Cell[0].apic[14] syn_ = new ExpSid(0.833333333333)'
p2227
I0
(dp2228
g2169
F0.5
sg2170
F43.0
sg2171
I187
sg2172
g7
(g8
(I0
tp2229
g10
tp2230
Rp2231
(I1
(I3
tp2232
g2179
I00
S'\xaa\xb0\xa8\xc8Q\xe4W@\x9d\xb7\xc4G\xbf\x83\\@\xcd\x99\xca\xfb\xbc\xbdA\xc0'
p2233
tp2234
bsg2184
S'Cell[3].axon[76]'
p2235
sI187
I34
tp2236
a(F1.6114124109333217
S'Cell[3].apic[2] syn_ = new FastInhib(0.5)'
p2237
I3
(dp2238
S'seg'
p2239
F0.5
sS'hostfrom'
p2240
F44.0
sS'gid'
p2241
I188
sS'coords'
p2242
g7
(g8
(I0
tp2243
g10
tp2244
Rp2245
(I1
(I3
tp2246
g14
(S'f8'
p2247
I0
I1
tp2248
Rp2249
(I3
S'<'
p2250
NNNI-1
I-1
I0
tp2251
bI00
S'\x01\x00\x00`\xe1z\x16@\x00\x00\x00\x00\x00\x80#\xc0\x00\x00\x00@33\xf3\xbf'
p2252
tp2253
bsS'secnames'
p2254
S'Cell[3].soma[0]'
p2255
sI188
I178
tp2256
a(F2.341364691466544
S'Cell[0].dend[2] syn_ = new AmpaNmda(0.833333333333)'
p2257
I0
(dp2258
g2239
F0.7
sg2240
F44.0
sg2241
I188
sg2242
g7
(g8
(I0
tp2259
g10
tp2260
Rp2261
(I1
(I3
tp2262
g2249
I00
S'\xbe\xea7a\x82\x04X\xc0\xe8\x1b\x06c\xe0F@\xc0\x82|\xaf/\xf02\x14@'
p2263
tp2264
bsg2254
S'Cell[3].axon[15]'
p2265
sI188
I34
tp2266
a(F2.3497746003297872
S'Cell[1].dend[10] syn_ = new FastInhib(0.5)'
p2267
I1
(dp2268
g2239
F0.16666666666666666
sg2240
F44.0
sg2241
I188
sg2242
g7
(g8
(I0
tp2269
g10
tp2270
Rp2271
(I1
(I3
tp2272
g2249
I00
S'\x1c\xe6b\x83\xb4\xd75\xc0h&\x0e\xeb$\xe4\x13\xc0\x17\x19X\x02M\xa5\r\xc0'
p2273
tp2274
bsg2254
S'Cell[3].axon[38]'
p2275
sI188
I82
tp2276
a(F1.6287351224873639
S'Cell[3].apic[9] syn_ = new FastInhib(0.166666666667)'
p2277
I3
(dp2278
g2239
F0.8333333333333333
sg2240
F44.0
sg2241
I188
sg2242
g7
(g8
(I0
tp2279
g10
tp2280
Rp2281
(I1
(I3
tp2282
g2249
I00
S"Z\xc1q\xcd\t\xdf'@\xcbA\x99\xedd\x92R\xc0^KJ\x03\xb4\xee\x04@"
p2283
tp2284
bsg2254
S'Cell[3].axon[61]'
p2285
sI188
I178
tp2286
a(F2.1098570952125253
S'Cell[3].dend[50] syn_ = new FastInhib(0.5)'
p2287
I3
(dp2288
g2239
F0.3571428571428571
sg2240
F44.0
sg2241
I188
sg2242
g7
(g8
(I0
tp2289
g10
tp2290
Rp2291
(I1
(I3
tp2292
g2249
I00
S'\x02\x15\x82\x920;\x14@#\x97\xa6\xdb\x1cxa@\xc2\x02\x08B\xe0iI\xc0'
p2293
tp2294
bsg2254
S'Cell[3].axon[108]'
p2295
sI188
I178
tp2296
a(F1.845446256476778
S'Cell[3].dend[23] syn_ = new FastInhib(0.166666666667)'
p2297
I3
(dp2298
g2239
F0.1
sg2240
F44.0
sg2241
I188
sg2242
g7
(g8
(I0
tp2299
g10
tp2300
Rp2301
(I1
(I3
tp2302
g2249
I00
S'\x1eB\x9fVBHQ\xc0\xc6(\x8cW_\xbbV@\nI\xfd\x17\x9b9\x1f\xc0'
p2303
tp2304
bsg2254
S'Cell[3].axon[189]'
p2305
sI188
I178
tp2306
a(F2.205870512030064
S'Cell[0].apic[30] syn_ = new AmpaNmda(0.5)'
p2307
I0
(dp2308
g2239
F0.5
sg2240
F44.0
sg2241
I188
sg2242
g7
(g8
(I0
tp2309
g10
tp2310
Rp2311
(I1
(I3
tp2312
g2249
I00
S'\x00R\xf2\xc8\xf1\x17^@@\xa4\x0e\xf7\n\x87\x1e@\x00\x00\x00\xe0Q\x98B\xc0'
p2313
tp2314
bsg2254
S'Cell[3].axon[211]'
p2315
sI188
I34
tp2316
a(F2.032910660221821
S'Cell[2].dend[7] syn_ = new FastInhib(0.5)'
p2317
I2
(dp2318
S'seg'
p2319
F0.5
sS'hostfrom'
p2320
F45.0
sS'gid'
p2321
I141
sS'coords'
p2322
g7
(g8
(I0
tp2323
g10
tp2324
Rp2325
(I1
(I3
tp2326
g14
(S'f8'
p2327
I0
I1
tp2328
Rp2329
(I3
S'<'
p2330
NNNI-1
I-1
I0
tp2331
bI00
S'\xf1\xc6\x11\xd1\x7f\x99J\xc0\xccyf\xd8\x0e.\x15\xc0\x00\x00\x00\x00\x00\x80A\xc0'
p2332
tp2333
bsS'secnames'
p2334
S'Cell[2].axon[16]'
p2335
sI141
I130
tp2336
a(F0.8412968461311601
S'Cell[0].dend[1] syn_ = new ExpSid(0.166666666667)'
p2337
I0
(dp2338
g2319
F0.5
sg2320
F45.0
sg2321
I141
sg2322
g7
(g8
(I0
tp2339
g10
tp2340
Rp2341
(I1
(I3
tp2342
g2329
I00
S'\x85\xd2K\xa9K\x854@jfW\x12\xfeH\x04@\xd7\xad\x809\xac"(\xc0'
p2343
tp2344
bsg2334
S'Cell[2].axon[70]'
p2345
sI141
I34
tp2346
a(F1.276718497947452
S'Cell[2].dend[18] syn_ = new FastInhib(0.833333333333)'
p2347
I2
(dp2348
g2319
F0.8333333333333333
sg2320
F45.0
sg2321
I189
sg2322
g7
(g8
(I0
tp2349
g10
tp2350
Rp2351
(I1
(I3
tp2352
g2329
I00
S'\xc0c\xfd\xc8W\xd9P\xc0D\xea\x0bE\x15\x949\xc0\x00\x00\x00@\xe1z\x18@'
p2353
tp2354
bsg2334
S'Cell[3].axon[6]'
p2355
sI189
I130
tp2356
a(F2.3309679124330693
S'Cell[3].apic[9] syn_ = new FastInhib(0.833333333333)'
p2357
I3
(dp2358
g2319
F0.6818181818181819
sg2320
F45.0
sg2321
I189
sg2322
g7
(g8
(I0
tp2359
g10
tp2360
Rp2361
(I1
(I3
tp2362
g2329
I00
S'No\x9c\xda+\xde\x15@\xee\x0bsy\x01-Y\xc0hATpE\x1c.\xc0'
p2363
tp2364
bsg2334
S'Cell[3].axon[88]'
p2365
sI189
I178
tp2366
a(F1.8462131602065244
S'Cell[2].dend[32] syn_ = new FastInhib(0.5)'
p2367
I2
(dp2368
g2319
F0.1
sg2320
F45.0
sg2321
I93
sg2322
g7
(g8
(I0
tp2369
g10
tp2370
Rp2371
(I1
(I3
tp2372
g2329
I00
S'>\xc5*+\xa2tI\xc0\xdb4\xfa\x8b\xf1\x92P@t\xa2\x11\x88&\x8c6\xc0'
p2373
tp2374
bsg2334
S'Cell[1].axon[191]'
p2375
sI93
I130
tp2376
a(F2.1217924325403232
S'Cell[1].dend[17] syn_ = new FastInhib(0.1)'
p2377
I1
(dp2378
g2319
F0.30000000000000004
sg2320
F45.0
sg2321
I93
sg2322
g7
(g8
(I0
tp2379
g10
tp2380
Rp2381
(I1
(I3
tp2382
g2329
I00
S'D\xb5\x81\xe1W\xb53\xc0\x98\x15\xcfK\xfd\x8e5@+Xsp\xf1{(\xc0'
p2383
tp2384
bsg2334
S'Cell[1].axon[194]'
p2385
sI93
I82
tp2386
a(F1.2721048873461596
S'Cell[1].dend[39] syn_ = new FastInhib(0.5)'
p2387
I1
(dp2388
S'seg'
p2389
F0.5
sS'hostfrom'
p2390
F46.0
sS'gid'
p2391
I94
sS'coords'
p2392
g7
(g8
(I0
tp2393
g10
tp2394
Rp2395
(I1
(I3
tp2396
g14
(S'f8'
p2397
I0
I1
tp2398
Rp2399
(I3
S'<'
p2400
NNNI-1
I-1
I0
tp2401
bI00
S'\x0c\x00\x00\xa0\xf5(\x19@\x00\x00\x00\xa0G\xe1\x1b\xc0\x00\x00\x00@\xe1z\xf8\xbf'
p2402
tp2403
bsS'secnames'
p2404
S'Cell[1].soma[0]'
p2405
sI94
I82
tp2406
a(F2.249971406585706
S'Cell[1].dend[23] syn_ = new FastInhib(0.166666666667)'
p2407
I1
(dp2408
g2389
F0.5
sg2390
F46.0
sg2391
I94
sg2392
g7
(g8
(I0
tp2409
g10
tp2410
Rp2411
(I1
(I3
tp2412
g2399
I00
S'\x85\xe2\x13\xc0\x1dT6\xc0\xc9\xe9\xb4\x0f\r F@\x9e\xc3\xe43\xf0\xd5*\xc0'
p2413
tp2414
bsg2404
S'Cell[1].axon[315]'
p2415
sI94
I82
tp2416
a(F2.171800214903466
S'Cell[3].dend[1] syn_ = new FastInhib(0.5)'
p2417
I3
(dp2418
g2389
F0.16666666666666666
sg2390
F46.0
sg2391
I94
sg2392
g7
(g8
(I0
tp2419
g10
tp2420
Rp2421
(I1
(I3
tp2422
g2399
I00
S'\xea\xb3\xae\x13N\x16F\xc0\x07\x11\t\x86\xed\x8b?@\x00\x00\x00@\n\xd7\x1a\xc0'
p2423
tp2424
bsg2404
S'Cell[1].axon[348]'
p2425
sI94
I178
tp2426
a(F1.1089354187445593
S'Cell[3].apic[21] syn_ = new FastInhib(0.5)'
p2427
I3
(dp2428
g2389
F0.5
sg2390
F46.0
sg2391
I142
sg2392
g7
(g8
(I0
tp2429
g10
tp2430
Rp2431
(I1
(I3
tp2432
g2399
I00
S'\x00\x00\x00\xd0\xcc\xfcN@\x00\x00\x00`\x8f~e\xc0\x00\x00\x00 \xaeG\x14@'
p2433
tp2434
bsg2404
S'Cell[2].axon[50]'
p2435
sI142
I178
tp2436
a(F1.9360244220579983
S'Cell[1].dend[17] syn_ = new FastInhib(0.1)'
p2437
I1
(dp2438
S'seg'
p2439
F0.1
sS'hostfrom'
p2440
F47.0
sS'gid'
p2441
I143
sS'coords'
p2442
g7
(g8
(I0
tp2443
g10
tp2444
Rp2445
(I1
(I3
tp2446
g14
(S'f8'
p2447
I0
I1
tp2448
Rp2449
(I3
S'<'
p2450
NNNI-1
I-1
I0
tp2451
bI00
S'\xab\x953#\xd8\xee2\xc0\xb5\xdb\x1d\xb6t\x8f4@\x18\xd8\x92\xe2\x0f\x0c)\xc0'
p2452
tp2453
bsS'secnames'
p2454
S'Cell[2].axon[84]'
p2455
sI143
I82
tp2456
a(F0.8736982163049636
S'Cell[0].dend[3] syn_ = new ExpSid(0.166666666667)'
p2457
I0
(dp2458
g2439
F0.5
sg2440
F47.0
sg2441
I143
sg2442
g7
(g8
(I0
tp2459
g10
tp2460
Rp2461
(I1
(I3
tp2462
g2449
I00
S'o\x12\xe3i4~A\xc03\xf6p\xbe\xe8\xf8-@\x00\x00\x00`\xb8\x1e\xf1?'
p2463
tp2464
bsg2454
S'Cell[2].axon[92]'
p2465
sI143
I34
tp2466
a(F1.9615548656933075
S'Cell[0].apic[0] syn_ = new ExpSid(0.5)'
p2467
I0
(dp2468
g2439
F0.30000000000000004
sg2440
F47.0
sg2441
I143
sg2442
g7
(g8
(I0
tp2469
g10
tp2470
Rp2471
(I1
(I3
tp2472
g2449
I00
S'\x13\xd1B|\xb8\xa7R@\xe01\xeb\x0c,^\x1a@\xc4\xac\xfd\x03a\x87\x14\xc0'
p2473
tp2474
bsg2454
S'Cell[2].axon[180]'
p2475
sI143
I34
tp2476
a(F2.2135975270807187
S'Cell[3].dend[47] syn_ = new FastInhib(0.166666666667)'
p2477
I3
(dp2478
g2439
F0.5
sg2440
F47.0
sg2441
I143
sg2442
g7
(g8
(I0
tp2479
g10
tp2480
Rp2481
(I1
(I3
tp2482
g2449
I00
S"'H\xd5\xd4\xd9\xa8&\xc0z\xb3@\r\\\xb0K@\xc6,-Q\xa5\xf6'\xc0"
p2483
tp2484
bsg2454
S'Cell[2].axon[198]'
p2485
sI143
I178
tp2486
a.