(lp0
(F2.075896751462632
S'Cell[0].dend[21] syn_ = new ExpSid(0.5)'
p1
I0
(dp2
S'seg'
p3
F0.5
sS'hostfrom'
p4
F1.0
sS'gid'
p5
I145
sS'coords'
p6
cnumpy.core.multiarray
_reconstruct
p7
(cnumpy
ndarray
p8
(I0
tp9
S'b'
p10
tp11
Rp12
(I1
(I3
tp13
cnumpy
dtype
p14
(S'f8'
p15
I0
I1
tp16
Rp17
(I3
S'<'
p18
NNNI-1
I-1
I0
tp19
bI00
S'\x00\x00\x00P\x8f"A\xc0\x00\x00\x00p\x14^C@\x00\x00\x00\x10\xd7;Y\xc0'
p20
tp21
bsS'secnames'
p22
S'Cell[3].axon[74]'
p23
sI145
I28
tp24
a(F2.260313690993326
S'Cell[3].dend[10] syn_ = new FastInhib(0.166666666667)'
p25
I3
(dp26
g3
F0.5
sg4
F1.0
sg5
I97
sg6
g7
(g8
(I0
tp27
g10
tp28
Rp29
(I1
(I3
tp30
g17
I00
S"XY\xc2T\x0f\xc8'@\xb5A\xe1\xa9/\x98?\xc0:\xe7g\x07hR#\xc0"
p31
tp32
bsg22
S'Cell[2].axon[27]'
p33
sI97
I172
tp34
a(F2.0083805759193316
S'Cell[0].dend[13] syn_ = new ExpSid(0.5)'
p35
I0
(dp36
g3
F0.8333333333333333
sg4
F1.0
sg5
I97
sg6
g7
(g8
(I0
tp37
g10
tp38
Rp39
(I1
(I3
tp40
g17
I00
S'\x85T\xcb=\xff\x9eC@%H\x9af\xc1\xedL@\xad\xb0\x98\n\x88\xbaI\xc0'
p41
tp42
bsg22
S'Cell[2].axon[72]'
p43
sI97
I28
tp44
a(F1.945250008531857
S'Cell[0].apic[31] syn_ = new AmpaNmda(0.5)'
p45
I0
(dp46
S'seg'
p47
F0.5
sS'hostfrom'
p48
F2.0
sS'gid'
p49
I98
sS'coords'
p50
g7
(g8
(I0
tp51
g10
tp52
Rp53
(I1
(I3
tp54
g14
(S'f8'
p55
I0
I1
tp56
Rp57
(I3
S'<'
p58
NNNI-1
I-1
I0
tp59
bI00
S'\xb0H\xd8\x826\xc5@\xc0\xed\x05\x9c60&`@R\xb1"o\xdf\x92\x17\xc0'
p60
tp61
bsS'secnames'
p62
S'Cell[2].axon[283]'
p63
sI98
I28
tp64
a(F2.1849850922281187
S'Cell[0].dend[8] syn_ = new AmpaNmda(0.166666666667)'
p65
I0
(dp66
g47
F0.5
sg48
F2.0
sg49
I98
sg50
g7
(g8
(I0
tp67
g10
tp68
Rp69
(I1
(I3
tp70
g57
I00
S'0\xa5\xbb\x1c\x8cO \xc0|\x07\x8d\x08\x92\xa3R@P\x1f!\xd0 \x9b\x01@'
p71
tp72
bsg62
S'Cell[2].axon[368]'
p73
sI98
I28
tp74
a(F2.488400328610924
S'Cell[0].dend[16] syn_ = new AmpaNmda(0.5)'
p75
I0
(dp76
g47
F0.16666666666666666
sg48
F2.0
sg49
I98
sg50
g7
(g8
(I0
tp77
g10
tp78
Rp79
(I1
(I3
tp80
g57
I00
S'\x92\xa1G\xd6\x93\x9a.@\xf5\xdaz\x0b\xe4"L@H\xf9\xa3\x9f\x08\x82=\xc0'
p81
tp82
bsg62
S'Cell[2].axon[414]'
p83
sI98
I28
tp84
a(F1.945250008531857
S'Cell[0].apic[31] syn_ = new ExpSid(0.5)'
p85
I0
(dp86
S'seg'
p87
F0.5
sS'hostfrom'
p88
F3.0
sS'gid'
p89
I99
sS'coords'
p90
g7
(g8
(I0
tp91
g10
tp92
Rp93
(I1
(I3
tp94
g14
(S'f8'
p95
I0
I1
tp96
Rp97
(I3
S'<'
p98
NNNI-1
I-1
I0
tp99
bI00
S'\xb0H\xd8\x826\xc5@\xc0\xed\x05\x9c60&`@R\xb1"o\xdf\x92\x17\xc0'
p100
tp101
bsS'secnames'
p102
S'Cell[2].axon[283]'
p103
sI99
I28
tp104
a(F2.1849850922281187
S'Cell[0].dend[8] syn_ = new ExpSid(0.166666666667)'
p105
I0
(dp106
g87
F0.5
sg88
F3.0
sg89
I99
sg90
g7
(g8
(I0
tp107
g10
tp108
Rp109
(I1
(I3
tp110
g97
I00
S'0\xa5\xbb\x1c\x8cO \xc0|\x07\x8d\x08\x92\xa3R@P\x1f!\xd0 \x9b\x01@'
p111
tp112
bsg102
S'Cell[2].axon[368]'
p113
sI99
I28
tp114
a(F2.488400328610924
S'Cell[0].dend[16] syn_ = new ExpSid(0.5)'
p115
I0
(dp116
g87
F0.16666666666666666
sg88
F3.0
sg89
I99
sg90
g7
(g8
(I0
tp117
g10
tp118
Rp119
(I1
(I3
tp120
g97
I00
S'\x92\xa1G\xd6\x93\x9a.@\xf5\xdaz\x0b\xe4"L@H\xf9\xa3\x9f\x08\x82=\xc0'
p121
tp122
bsg102
S'Cell[2].axon[414]'
p123
sI99
I28
tp124
a(F1.7881576797197871
S'Cell[1].apic[13] syn_ = new AmpaNmda(0.5)'
p125
I1
(dp126
S'seg'
p127
F0.045454545454545456
sS'hostfrom'
p128
F4.0
sS'gid'
p129
I148
sS'coords'
p130
g7
(g8
(I0
tp131
g10
tp132
Rp133
(I1
(I3
tp134
g14
(S'f8'
p135
I0
I1
tp136
Rp137
(I3
S'<'
p138
NNNI-1
I-1
I0
tp139
bI00
S'\t\xb8\xfa/\x0e\x93P@\x8d\xf7kg\xf3j(@\xde\xc1X=3\xc9\xe9\xbf'
p140
tp141
bsS'secnames'
p142
S'Cell[3].axon[329]'
p143
sI148
I76
tp144
a(F0.8566960264013209
S'Cell[3].apic[1] syn_ = new FastInhib(0.681818181818)'
p145
I3
(dp146
S'seg'
p147
F0.9285714285714284
sS'hostfrom'
p148
F6.0
sS'gid'
p149
I102
sS'coords'
p150
g7
(g8
(I0
tp151
g10
tp152
Rp153
(I1
(I3
tp154
g14
(S'f8'
p155
I0
I1
tp156
Rp157
(I3
S'<'
p158
NNNI-1
I-1
I0
tp159
bI00
S'\xba0\xd9\xeaM\x0e8\xc0\xf62\x84\xa0\t\xeaq\xc0U\xdd,\xd7:\xc3>\xc0'
p160
tp161
bsS'secnames'
p162
S'Cell[2].axon[61]'
p163
sI102
I172
tp164
a(F1.6925783769291616
S'Cell[0].apic[32] syn_ = new ExpSid(0.5)'
p165
I0
(dp166
S'seg'
p167
F0.5
sS'hostfrom'
p168
F7.0
sS'gid'
p169
I103
sS'coords'
p170
g7
(g8
(I0
tp171
g10
tp172
Rp173
(I1
(I3
tp174
g14
(S'f8'
p175
I0
I1
tp176
Rp177
(I3
S'<'
p178
NNNI-1
I-1
I0
tp179
bI00
S'pmI\x15)LB\xc0\xb26M&\xf0\xe9Y@\xb8\x19\xd48\xd2\xff\x18\xc0'
p180
tp181
bsS'secnames'
p182
S'Cell[2].axon[94]'
p183
sI103
I28
tp184
a(F2.4492915929923473
S'Cell[0].apic[9] syn_ = new ExpSid(0.833333333333)'
p185
I0
(dp186
g167
F0.8999999999999999
sg168
F7.0
sg169
I103
sg170
g7
(g8
(I0
tp187
g10
tp188
Rp189
(I1
(I3
tp190
g177
I00
S'U\xf8&ln\x065@\xc2\xc3Z\xce\xfdkl@\x00\x00\x00\x80\x14\xae\x16\xc0'
p191
tp192
bsg182
S'Cell[2].axon[337]'
p193
sI103
I28
tp194
a(F2.2961422714299484
S'Cell[3].dend[15] syn_ = new FastInhib(0.5)'
p195
I3
(dp196
g167
F0.49999999999999994
sg168
F7.0
sg169
I151
sg170
g7
(g8
(I0
tp197
g10
tp198
Rp199
(I1
(I3
tp200
g177
I00
S'\x98(\x10B,\xe1C\xc0\xbd\xffHw8\xf91\xc0\xb8\xb9T\x1a/[C\xc0'
p201
tp202
bsg182
S'Cell[3].axon[60]'
p203
sI151
I172
tp204
a(F1.6373874813786562
S'Cell[0].dend[2] syn_ = new ExpSid(0.5)'
p205
I0
(dp206
g167
F0.8999999999999999
sg168
F7.0
sg169
I151
sg170
g7
(g8
(I0
tp207
g10
tp208
Rp209
(I1
(I3
tp210
g177
I00
S'\xb0N\xc7\x08\x16\x86\x85\xbf\x84<\x1b}\xa6\xc9P@\xcf\xc6O\x99e\xa9\x15@'
p211
tp212
bsg182
S'Cell[3].axon[223]'
p213
sI151
I28
tp214
a(F1.5628691271468191
S'Cell[2].dend[13] syn_ = new FastInhib(0.7)'
p215
I2
(dp216
S'seg'
p217
F0.7857142857142856
sS'hostfrom'
p218
F8.0
sS'gid'
p219
I56
sS'coords'
p220
g7
(g8
(I0
tp221
g10
tp222
Rp223
(I1
(I3
tp224
g14
(S'f8'
p225
I0
I1
tp226
Rp227
(I3
S'<'
p228
NNNI-1
I-1
I0
tp229
bI00
S'z\x02\x9a\x1d\x06|U@\x10\x1d\xb5(h\xc1D\xc0\xfa\x12\xd1\xfaw\x1eP\xc0'
p230
tp231
bsS'secnames'
p232
S'Cell[1].axon[11]'
p233
sI56
I124
tp234
a(F1.7232919989136248
S'Cell[0].dend[30] syn_ = new AmpaNmda(0.5)'
p235
I0
(dp236
g217
F0.30000000000000004
sg218
F8.0
sg219
I152
sg220
g7
(g8
(I0
tp237
g10
tp238
Rp239
(I1
(I3
tp240
g227
I00
S'I\xc2\xc1\xe6[\xbc?@\xfb\x90\xe7\xc6\x86\xf6U@\x00\x00\x00@\xe1z\xec\xbf'
p241
tp242
bsg232
S'Cell[3].axon[2]'
p243
sI152
I28
tp244
a(F1.9798188978443783
S'Cell[0].apic[28] syn_ = new AmpaNmda(0.166666666667)'
p245
I0
(dp246
g217
F0.5
sg218
F8.0
sg219
I152
sg220
g7
(g8
(I0
tp247
g10
tp248
Rp249
(I1
(I3
tp250
g227
I00
S'o\xc8\xb4\x8b\x0c\x800@\xd0\x1bx\x8a\xc7\xf3_@C\x03\x89tcb\x0f\xc0'
p251
tp252
bsg232
S'Cell[3].axon[6]'
p253
sI152
I28
tp254
a(F1.1223540431243455
S'Cell[0].apic[6] syn_ = new AmpaNmda(0.5)'
p255
I0
(dp256
g217
F0.8333333333333333
sg218
F8.0
sg219
I152
sg220
g7
(g8
(I0
tp257
g10
tp258
Rp259
(I1
(I3
tp260
g227
I00
S'\x03\x0c#O\xfaS\'@\x10"-\xf3\x1d\xe3]@\x00\x00\x00@\xe1z\x14\xc0'
p261
tp262
bsg232
S'Cell[3].axon[147]'
p263
sI152
I28
tp264
a(F2.2727146000804317
S'Cell[0].apic[8] syn_ = new AmpaNmda(0.5)'
p265
I0
(dp266
g217
F0.5
sg218
F8.0
sg219
I104
sg220
g7
(g8
(I0
tp267
g10
tp268
Rp269
(I1
(I3
tp270
g227
I00
S'\xc1Z\x02o\x10\xcb\x1f@\xfc_\xb3^\x94Fc@\x9e^)\xa5h.\x15\xc0'
p271
tp272
bsg232
S'Cell[2].axon[404]'
p273
sI104
I28
tp274
a(F1.0128991647039232
S'Cell[0].apic[27] syn_ = new AmpaNmda(0.5)'
p275
I0
(dp276
g217
F0.5
sg218
F8.0
sg219
I104
sg220
g7
(g8
(I0
tp277
g10
tp278
Rp279
(I1
(I3
tp280
g227
I00
S'.\xd8;C\x95\x18D@JX\xf4\x11,pa@\xd6KU\x96q\xf1\x15\xc0'
p281
tp282
bsg232
S'Cell[2].axon[428]'
p283
sI104
I28
tp284
a(F1.9270256960515457
S'Cell[0].dend[17] syn_ = new ExpSid(0.833333333333)'
p285
I0
(dp286
S'seg'
p287
F0.8333333333333333
sS'hostfrom'
p288
F9.0
sS'gid'
p289
I105
sS'coords'
p290
g7
(g8
(I0
tp291
g10
tp292
Rp293
(I1
(I3
tp294
g14
(S'f8'
p295
I0
I1
tp296
Rp297
(I3
S'<'
p298
NNNI-1
I-1
I0
tp299
bI00
S'\x8eA#\x07f\x8a\x16@\xa6\x9al\xc6O\xa2-\xc0\xd6\xc0\xe0\xf5\x08\x8c7\xc0'
p300
tp301
bsS'secnames'
p302
S'Cell[2].axon[5]'
p303
sI105
I28
tp304
a(F1.1923220189682058
S'Cell[2].dend[7] syn_ = new FastInhib(0.5)'
p305
I2
(dp306
g287
F0.8333333333333333
sg288
F9.0
sg289
I105
sg290
g7
(g8
(I0
tp307
g10
tp308
Rp309
(I1
(I3
tp310
g297
I00
S';\xf8\x808\xcdc\x16\xc0\xb6\x05CZ\x92#V\xc0\xe2C\x13+\xc7\xcb7\xc0'
p311
tp312
bsg302
S'Cell[2].axon[85]'
p313
sI105
I124
tp314
a(F2.1140074253800347
S'Cell[0].dend[8] syn_ = new AmpaNmda(0.833333333333)'
p315
I0
(dp316
S'seg'
p317
F0.8333333333333333
sS'hostfrom'
p318
F10.0
sS'gid'
p319
I106
sS'coords'
p320
g7
(g8
(I0
tp321
g10
tp322
Rp323
(I1
(I3
tp324
g14
(S'f8'
p325
I0
I1
tp326
Rp327
(I3
S'<'
p328
NNNI-1
I-1
I0
tp329
bI00
S'\x87S:L\xd1\x0f4\xc0\x8d\xdc0#\x15rT@\tUMj\xb8\xd75@'
p330
tp331
bsS'secnames'
p332
S'Cell[2].axon[229]'
p333
sI106
I28
tp334
a(F1.5267258617342476
S'Cell[0].apic[40] syn_ = new AmpaNmda(0.5)'
p335
I0
(dp336
g317
F0.30000000000000004
sg318
F10.0
sg319
I106
sg320
g7
(g8
(I0
tp337
g10
tp338
Rp339
(I1
(I3
tp340
g327
I00
S'\x0e\x91\xa0\x0b\xfa\x1cB@\xe2y\xc0\x12\x01"U@\xdf\xed\xa1\xb7@h\x18\xc0'
p341
tp342
bsg332
S'Cell[2].axon[308]'
p343
sI106
I28
tp344
a(F2.410957825527762
S'Cell[1].dend[5] syn_ = new AmpaNmda(0.833333333333)'
p345
I1
(dp346
g317
F0.5
sg318
F10.0
sg319
I106
sg320
g7
(g8
(I0
tp347
g10
tp348
Rp349
(I1
(I3
tp350
g327
I00
S'\x0e\x1a\x89/\x9foI@Z\x10\xfe\x1cV\xa6\x10\xc0\x0eD4\x08\x0fD\\\xc0'
p351
tp352
bsg332
S'Cell[2].axon[374]'
p353
sI106
I76
tp354
a(F2.408742895298773
S'Cell[3].dend[10] syn_ = new FastInhib(0.166666666667)'
p355
I3
(dp356
g317
F0.5
sg318
F10.0
sg319
I58
sg320
g7
(g8
(I0
tp357
g10
tp358
Rp359
(I1
(I3
tp360
g327
I00
S'&j\x11\xd7|\x13(@\xf4\x08\xaedz\xed=\xc0A\xb2\xcf\x1f\x81J$\xc0'
p361
tp362
bsg332
S'Cell[1].axon[2]'
p363
sI58
I172
tp364
a(F2.1968290986022136
S'Cell[3].dend[3] syn_ = new FastInhib(0.5)'
p365
I3
(dp366
S'seg'
p367
F0.8333333333333333
sS'hostfrom'
p368
F11.0
sS'gid'
p369
I59
sS'coords'
p370
g7
(g8
(I0
tp371
g10
tp372
Rp373
(I1
(I3
tp374
g14
(S'f8'
p375
I0
I1
tp376
Rp377
(I3
S'<'
p378
NNNI-1
I-1
I0
tp379
bI00
S'@\xe1\xda\xf1;\x14%@\xba4DRi\x87Q\xc0N\xe0\x05\xc6\xad\xa6"@'
p380
tp381
bsS'secnames'
p382
S'Cell[1].axon[7]'
p383
sI59
I172
tp384
a(F1.4622339017366388
S'Cell[2].dend[12] syn_ = new FastInhib(0.3)'
p385
I2
(dp386
g367
F0.7
sg368
F11.0
sg369
I155
sg370
g7
(g8
(I0
tp387
g10
tp388
Rp389
(I1
(I3
tp390
g377
I00
S'\xd7\x96\xefU \xb6K@\x93\x01\x07\x80b\x06S\xc0\xf9\xa0a\xd6\x08A6\xc0'
p391
tp392
bsg382
S'Cell[3].axon[23]'
p393
sI155
I124
tp394
a(F2.1236285934616057
S'Cell[0].dend[9] syn_ = new ExpSid(0.5)'
p395
I0
(dp396
g367
F0.30000000000000004
sg368
F11.0
sg369
I155
sg370
g7
(g8
(I0
tp397
g10
tp398
Rp399
(I1
(I3
tp400
g377
I00
S'&F\xde\xeb\x7f\xe66\xc0\xfa\x9e\x05.\xff\xfcK@\xb8\xf4X\xc7\xd0LG\xc0'
p401
tp402
bsg382
S'Cell[3].axon[66]'
p403
sI155
I28
tp404
a(F2.361724236844611
S'Cell[1].dend[35] syn_ = new AmpaNmda(0.5)'
p405
I1
(dp406
S'seg'
p407
F0.3571428571428571
sS'hostfrom'
p408
F12.0
sS'gid'
p409
I60
sS'coords'
p410
g7
(g8
(I0
tp411
g10
tp412
Rp413
(I1
(I3
tp414
g14
(S'f8'
p415
I0
I1
tp416
Rp417
(I3
S'<'
p418
NNNI-1
I-1
I0
tp419
bI00
S'\x9ea\x86\xcb.BV@\x07\xeb\x03\xc3\x96\x7f6\xc0\xab6K\xc1\x0f\xe3\x13@'
p420
tp421
bsS'secnames'
p422
S'Cell[1].axon[82]'
p423
sI60
I76
tp424
a(F1.5352746688643357
S'Cell[0].dend[24] syn_ = new AmpaNmda(0.5)'
p425
I0
(dp426
g407
F0.5
sg408
F12.0
sg409
I108
sg410
g7
(g8
(I0
tp427
g10
tp428
Rp429
(I1
(I3
tp430
g417
I00
S'\x00\x00\x00 \x85+:@\x00\x00\x00 \x85CP@\x00\x00\x00\xf0Q8)\xc0'
p431
tp432
bsg422
S'Cell[2].axon[3]'
p433
sI108
I28
tp434
a(F2.4613289854645264
S'Cell[1].dend[43] syn_ = new AmpaNmda(0.5)'
p435
I1
(dp436
g407
F0.5
sg408
F12.0
sg409
I108
sg410
g7
(g8
(I0
tp437
g10
tp438
Rp439
(I1
(I3
tp440
g417
I00
S'\x90u\xd6I2_S@\r\x1b\xe7\x9c\xa4\xa86@o\xe82\x02W\x15"@'
p441
tp442
bsg422
S'Cell[2].axon[19]'
p443
sI108
I76
tp444
a(F1.3115415868276414
S'Cell[2].apic[13] syn_ = new FastInhib(0.5)'
p445
I2
(dp446
S'seg'
p447
F0.5
sS'hostfrom'
p448
F13.0
sS'gid'
p449
I109
sS'coords'
p450
g7
(g8
(I0
tp451
g10
tp452
Rp453
(I1
(I3
tp454
g14
(S'f8'
p455
I0
I1
tp456
Rp457
(I3
S'<'
p458
NNNI-1
I-1
I0
tp459
bI00
S'N\xa3\xc1;\x92ZB@Dy\xc1\xa4\x18.F@Dy\xc1\x04\xfaH8@'
p460
tp461
bsS'secnames'
p462
S'Cell[2].axon[97]'
p463
sI109
I124
tp464
a(F1.9314385454160645
S'Cell[2].apic[20] syn_ = new FastInhib(0.5)'
p465
I2
(dp466
g447
F0.5
sg448
F13.0
sg449
I109
sg450
g7
(g8
(I0
tp467
g10
tp468
Rp469
(I1
(I3
tp470
g457
I00
S'h\t\xfcju\x9dB\xc0\xff\xf3P\xda=-f@\x06\xc3p\xe4#\x0e5@'
p471
tp472
bsg462
S'Cell[2].axon[274]'
p473
sI109
I124
tp474
a(F1.7602349369291348
S'Cell[1].dend[10] syn_ = new ExpSid(0.0714285714286)'
p475
I1
(dp476
g447
F0.8333333333333333
sg448
F13.0
sg449
I61
sg450
g7
(g8
(I0
tp477
g10
tp478
Rp479
(I1
(I3
tp480
g457
I00
S'\xe2\x0b\x95\x07i\xa2E@\x10Q\x9a\xb4|"C\xc0\xae\xb6X\x9cy};\xc0'
p481
tp482
bsg462
S'Cell[1].axon[35]'
p483
sI61
I76
tp484
a(F1.74105300584051
S'Cell[2].dend[13] syn_ = new FastInhib(0.3)'
p485
I2
(dp486
S'seg'
p487
F0.7
sS'hostfrom'
p488
F14.0
sS'gid'
p489
I110
sS'coords'
p490
g7
(g8
(I0
tp491
g10
tp492
Rp493
(I1
(I3
tp494
g14
(S'f8'
p495
I0
I1
tp496
Rp497
(I3
S'<'
p498
NNNI-1
I-1
I0
tp499
bI00
S'\x8b-\xe9\xbc\x08\x9eQ@E\x86\xa7\xfd\x1a\x1eD\xc0\x14R\x99%uV=\xc0'
p500
tp501
bsS'secnames'
p502
S'Cell[2].axon[32]'
p503
sI110
I124
tp504
a(F1.8789546125392922
S'Cell[1].dend[10] syn_ = new AmpaNmda(0.357142857143)'
p505
I1
(dp506
g487
F0.5
sg488
F14.0
sg489
I110
sg490
g7
(g8
(I0
tp507
g10
tp508
Rp509
(I1
(I3
tp510
g497
I00
S'Z\x98]\xd7\x0356@\xdeI\xe2z2[M\xc0\x98\xd3\x8b\x01]\x91P\xc0'
p511
tp512
bsg502
S'Cell[2].axon[53]'
p513
sI110
I76
tp514
a(F2.3237639132251973
S'Cell[0].dend[25] syn_ = new ExpSid(0.3)'
p515
I0
(dp516
S'seg'
p517
F0.8333333333333333
sS'hostfrom'
p518
F15.0
sS'gid'
p519
I111
sS'coords'
p520
g7
(g8
(I0
tp521
g10
tp522
Rp523
(I1
(I3
tp524
g14
(S'f8'
p525
I0
I1
tp526
Rp527
(I3
S'<'
p528
NNNI-1
I-1
I0
tp529
bI00
S'a\x8a\x13O\x90YF@\x83\x18?\xd6\xdf\xf5R@\xecZ\xceXI6I\xc0'
p530
tp531
bsS'secnames'
p532
S'Cell[2].axon[163]'
p533
sI111
I28
tp534
a(F2.468746430390657
S'Cell[1].dend[2] syn_ = new ExpSid(0.5)'
p535
I1
(dp536
g517
F0.8333333333333333
sg518
F15.0
sg519
I111
sg520
g7
(g8
(I0
tp537
g10
tp538
Rp539
(I1
(I3
tp540
g527
I00
S'\xcdL\x90\xa5*CL@\t:\x18b\x03\x073\xc0n\xd1p{\xfftD\xc0'
p541
tp542
bsg532
S'Cell[2].axon[328]'
p543
sI111
I76
tp544
a(F2.192648889626642
S'Cell[1].apic[11] syn_ = new ExpSid(0.5)'
p545
I1
(dp546
g517
F0.3571428571428571
sg518
F15.0
sg519
I111
sg520
g7
(g8
(I0
tp547
g10
tp548
Rp549
(I1
(I3
tp550
g527
I00
S'\xe4\xa8UT\x88\xba\x1b\xc0bR\xd3\x0fuT\x14\xc0te\xbeG\xedw5\xc0'
p551
tp552
bsg532
S'Cell[2].axon[379]'
p553
sI111
I76
tp554
a(F1.3018063089061807
S'Cell[0].apic[26] syn_ = new ExpSid(0.166666666667)'
p555
I0
(dp556
g517
F0.16666666666666666
sg518
F15.0
sg519
I159
sg520
g7
(g8
(I0
tp557
g10
tp558
Rp559
(I1
(I3
tp560
g527
I00
S'x\xd8\xd7\xf12\x8f;@\x81i\xadRu\x1fb@\x1c\xdd\xd7\xb55J\x18\xc0'
p561
tp562
bsg532
S'Cell[3].axon[418]'
p563
sI159
I28
tp564
a(F2.266894514302335
S'Cell[2].dend[16] syn_ = new FastInhib(0.1)'
p565
I2
(dp566
S'seg'
p567
F0.5
sS'hostfrom'
p568
F16.0
sS'gid'
p569
I160
sS'coords'
p570
g7
(g8
(I0
tp571
g10
tp572
Rp573
(I1
(I3
tp574
g14
(S'f8'
p575
I0
I1
tp576
Rp577
(I3
S'<'
p578
NNNI-1
I-1
I0
tp579
bI00
S'Q\xbb\xdd\x9e\x1cXR@\x9bd\x8e\x9c\x024K\xc0\xbe@\x95\xe1\xc0Z7@'
p580
tp581
bsS'secnames'
p582
S'Cell[3].axon[63]'
p583
sI160
I124
tp584
a(F1.3198897913015444
S'Cell[3].dend[12] syn_ = new FastInhib(0.5)'
p585
I3
(dp586
g567
F0.045454545454545456
sg568
F16.0
sg569
I160
sg570
g7
(g8
(I0
tp587
g10
tp588
Rp589
(I1
(I3
tp590
g577
I00
S"d\x9c'\xbcx\x8b=\xc0r\xab\x08\xfcU,B\xc0H\xc0\xb9\xf4;\xb0<\xc0"
p591
tp592
bsg582
S'Cell[3].axon[76]'
p593
sI160
I172
tp594
a(F1.7707457925112249
S'Cell[0].apic[3] syn_ = new AmpaNmda(0.5)'
p595
I0
(dp596
g567
F0.5
sg568
F16.0
sg569
I112
sg570
g7
(g8
(I0
tp597
g10
tp598
Rp599
(I1
(I3
tp600
g577
I00
S'\xa4\x97\xebb\xc0\x18*@=\x03\x94\x11\xe5$W@Sv\xbc\x85\xbc\xc1\x12\xc0'
p601
tp602
bsg582
S'Cell[2].axon[258]'
p603
sI112
I28
tp604
a(F2.415074461187956
S'Cell[0].apic[34] syn_ = new AmpaNmda(0.166666666667)'
p605
I0
g596
I112
I28
tp606
a(F2.1947145279247042
S'Cell[2].dend[6] syn_ = new FastInhib(0.5)'
p607
I2
(dp608
S'seg'
p609
F0.8333333333333333
sS'hostfrom'
p610
F17.0
sS'gid'
p611
I113
sS'coords'
p612
g7
(g8
(I0
tp613
g10
tp614
Rp615
(I1
(I3
tp616
g14
(S'f8'
p617
I0
I1
tp618
Rp619
(I3
S'<'
p620
NNNI-1
I-1
I0
tp621
bI00
S'\xc0\x88y\x0b\xd8,\xfb\xbf\xeak\xe2\x81s\x95Y\xc0\x00\x00\x00\x80\x14\xae\x11\xc0'
p622
tp623
bsS'secnames'
p624
S'Cell[2].axon[77]'
p625
sI113
I124
tp626
a(F2.223238690441748
S'Cell[3].apic[2] syn_ = new FastInhib(0.5)'
p627
I3
(dp628
g609
F0.5
sg610
F17.0
sg611
I113
sg612
g7
(g8
(I0
tp629
g10
tp630
Rp631
(I1
(I3
tp632
g619
I00
S'\xaa^\xf9\x8a\xdd\xc3H\xc0 \xb2`\xe2\xea\xf1\\\xc0d\x96\xbb\x92\x81F5\xc0'
p633
tp634
bsg624
S'Cell[2].axon[646]'
p635
sI113
I172
tp636
a(F1.9129466942024849
S'Cell[1].dend[27] syn_ = new ExpSid(0.7)'
p637
I1
(dp638
g609
F0.5
sg610
F17.0
sg611
I113
sg612
g7
(g8
(I0
tp639
g10
tp640
Rp641
(I1
(I3
tp642
g619
I00
S'\x1aZ\x84+&\xca]@\x9dv\xc1\xcd\x97\x11W\xc0\x90[\xf22\x12\x85Q\xc0'
p643
tp644
bsg624
S'Cell[2].axon[705]'
p645
sI113
I76
tp646
a(F2.2195762706715616
S'Cell[1].dend[26] syn_ = new ExpSid(0.3)'
p647
I1
(dp648
g609
F0.16666666666666666
sg610
F17.0
sg611
I113
sg612
g7
(g8
(I0
tp649
g10
tp650
Rp651
(I1
(I3
tp652
g619
I00
S'\xd7\xcb_7x\xe1V@\x9ai\xd0\x1d\xa4\x96S\xc0r\x0b\x8e\x95r@B\xc0'
p653
tp654
bsg624
S'Cell[2].axon[732]'
p655
sI113
I76
tp656
a(F1.3439262712487805
S'Cell[2].dend[22] syn_ = new FastInhib(0.166666666667)'
p657
I2
(dp658
S'seg'
p659
F0.1
sS'hostfrom'
p660
F18.0
sS'gid'
p661
I114
sS'coords'
p662
g7
(g8
(I0
tp663
g10
tp664
Rp665
(I1
(I3
tp666
g14
(S'f8'
p667
I0
I1
tp668
Rp669
(I3
S'<'
p670
NNNI-1
I-1
I0
tp671
bI00
S'J\xef2I\x1d9:@\x7f]o\xfd8q;\xc0\x07>9\x1c \x1e2@'
p672
tp673
bsS'secnames'
p674
S'Cell[2].axon[87]'
p675
sI114
I124
tp676
a(F1.961064504184307
S'Cell[2].dend[9] syn_ = new FastInhib(0.5)'
p677
I2
(dp678
g659
F0.16666666666666666
sg660
F18.0
sg661
I114
sg662
g7
(g8
(I0
tp679
g10
tp680
Rp681
(I1
(I3
tp682
g669
I00
S'n\xef*\x02\xbf\xf4F@\xd8\xb3\xf6\xcf\xc7XE\xc0\xae\x82$\xf3\xd1\x08\x11\xc0'
p683
tp684
bsg674
S'Cell[2].axon[175]'
p685
sI114
I124
tp686
a(F2.340619891237236
S'Cell[2].dend[12] syn_ = new FastInhib(0.5)'
p687
I2
(dp688
g659
F0.8333333333333333
sg660
F18.0
sg661
I162
sg662
g7
(g8
(I0
tp689
g10
tp690
Rp691
(I1
(I3
tp692
g669
I00
S'4Q\x84\xfb\xfa9H@\x88\xeb\x88\x15\x08\x16X\xc0\xfa\xb4S\xc9)\x839\xc0'
p693
tp694
bsg674
S'Cell[3].axon[7]'
p695
sI162
I124
tp696
a(F2.3148356387236038
S'Cell[2].dend[8] syn_ = new FastInhib(0.1)'
p697
I2
(dp698
S'seg'
p699
F0.5
sS'hostfrom'
p700
F20.0
sS'gid'
p701
I68
sS'coords'
p702
g7
(g8
(I0
tp703
g10
tp704
Rp705
(I1
(I3
tp706
g14
(S'f8'
p707
I0
I1
tp708
Rp709
(I3
S'<'
p710
NNNI-1
I-1
I0
tp711
bI00
S'\xfd\xb0\xfdm:\xff3@L\xc1M\\\xd3UE\xc0\x00\x00\x00\xc0\xcc\xcc\x1a@'
p712
tp713
bsS'secnames'
p714
S'Cell[1].axon[28]'
p715
sI68
I124
tp716
a(F1.6030707196003153
S'Cell[3].apic[2] syn_ = new FastInhib(0.5)'
p717
I3
(dp718
S'seg'
p719
F0.07142857142857142
sS'hostfrom'
p720
F21.0
sS'gid'
p721
I165
sS'coords'
p722
g7
(g8
(I0
tp723
g10
tp724
Rp725
(I1
(I3
tp726
g14
(S'f8'
p727
I0
I1
tp728
Rp729
(I3
S'<'
p730
NNNI-1
I-1
I0
tp731
bI00
S'\xaa\xc5\x80\xd4\xc4\x90I\xc0\x1cy\x86\xfc\x003\\\xc0l\xb9p\xab\xed*4\xc0'
p732
tp733
bsS'secnames'
p734
S'Cell[3].axon[90]'
p735
sI165
I172
tp736
a(F1.8630799586148379
S'Cell[2].dend[10] syn_ = new FastInhib(0.7)'
p737
I2
(dp738
g719
F0.30000000000000004
sg720
F21.0
sg721
I21
sg722
g7
(g8
(I0
tp739
g10
tp740
Rp741
(I1
(I3
tp742
g729
I00
S'\x03\xb2\x00RS\xc2X@MR}\xbbL\r`\xc0C\xa3\xf1 Zy-@'
p743
tp744
bsg734
S'Cell[0].axon[26]'
p745
sI21
I124
tp746
a(F1.563136430134202
S'Cell[0].apic[36] syn_ = new AmpaNmda(0.5)'
p747
I0
(dp748
S'seg'
p749
F0.8999999999999999
sS'hostfrom'
p750
F22.0
sS'gid'
p751
I22
sS'coords'
p752
g7
(g8
(I0
tp753
g10
tp754
Rp755
(I1
(I3
tp756
g14
(S'f8'
p757
I0
I1
tp758
Rp759
(I3
S'<'
p760
NNNI-1
I-1
I0
tp761
bI00
S'\xf7\x86h\xf7\x1f\x001@\x9a\x9e\x99l\xb6&^@, \xa3\x0b\x99o\x0b\xc0'
p762
tp763
bsS'secnames'
p764
S'Cell[0].axon[0]'
p765
sI22
I28
tp766
a(F2.145290884694292
S'Cell[0].dend[4] syn_ = new AmpaNmda(0.166666666667)'
p767
I0
(dp768
g749
F0.5
sg750
F22.0
sg751
I166
sg752
g7
(g8
(I0
tp769
g10
tp770
Rp771
(I1
(I3
tp772
g759
I00
S'\xafhT\xa8\xf8\xc7B\xc0\xdc\xec\n\xebHDB@O1\x8a\x93\xban)@'
p773
tp774
bsg764
S'Cell[3].axon[151]'
p775
sI166
I28
tp776
a(F1.3435862578522495
S'Cell[0].dend[9] syn_ = new AmpaNmda(0.166666666667)'
p777
I0
(dp778
g749
F0.5
sg750
F22.0
sg751
I166
sg752
g7
(g8
(I0
tp779
g10
tp780
Rp781
(I1
(I3
tp782
g759
I00
S'Q\xcd\x89\xb2\x9c\xc1\x01\xc0\x8b\xdb\\\x05\xd8FP@\x00\x00\x00 \x85\xab0\xc0'
p783
tp784
bsg764
S'Cell[3].axon[201]'
p785
sI166
I28
tp786
a(F2.1159750070932124
S'Cell[1].dend[25] syn_ = new AmpaNmda(0.5)'
p787
I1
(dp788
S'seg'
p789
F0.1
sS'hostfrom'
p790
F24.0
sS'gid'
p791
I120
sS'coords'
p792
g7
(g8
(I0
tp793
g10
tp794
Rp795
(I1
(I3
tp796
g14
(S'f8'
p797
I0
I1
tp798
Rp799
(I3
S'<'
p800
NNNI-1
I-1
I0
tp801
bI00
S'\x84\xae\tM\xf2iT@/fpu\x02uD\xc02w\xdc>\xee\x9bA\xc0'
p802
tp803
bsS'secnames'
p804
S'Cell[2].axon[254]'
p805
sI120
I76
tp806
a(F1.9260162456919825
S'Cell[0].dend[2] syn_ = new AmpaNmda(0.5)'
p807
I0
(dp808
S'seg'
p809
F0.5
sS'hostfrom'
p810
F26.0
sS'gid'
p811
I26
sS'coords'
p812
g7
(g8
(I0
tp813
g10
tp814
Rp815
(I1
(I3
tp816
g14
(S'f8'
p817
I0
I1
tp818
Rp819
(I3
S'<'
p820
NNNI-1
I-1
I0
tp821
bI00
S'\x00\x00\x00\x80\xebQ\x00@\x00\x00\x00@\xe1zP@\x00\x00\x00\x00\xd7\xa3\x19@'
p822
tp823
bsS'secnames'
p824
S'Cell[0].soma[0]'
p825
sI26
I28
tp826
a(F2.1208572773128096
S'Cell[0].apic[33] syn_ = new AmpaNmda(0.833333333333)'
p827
I0
(dp828
g809
F0.16666666666666666
sg810
F26.0
sg811
I170
sg812
g7
(g8
(I0
tp829
g10
tp830
Rp831
(I1
(I3
tp832
g819
I00
S'\xd5x:\xac\xcf\x05K\xc0\xd11\x9e%{2_@\x00\x00\x00\xc0\xcc\xcc\x0c\xc0'
p833
tp834
bsg824
S'Cell[3].axon[291]'
p835
sI170
I28
tp836
a(F1.4290635845213926
S'Cell[0].apic[39] syn_ = new AmpaNmda(0.166666666667)'
p837
I0
g828
I170
I28
tp838
a(F2.1956989651926544
S'Cell[0].dend[29] syn_ = new AmpaNmda(0.5)'
p839
I0
(dp840
g809
F0.5
sg810
F26.0
sg811
I170
sg812
g7
(g8
(I0
tp841
g10
tp842
Rp843
(I1
(I3
tp844
g819
I00
S'\xc1\xbe\xb1c\x12.7@,\x87X\x9fU\xedQ@\x00\x00\x00\xa0\x99\x99"@'
p845
tp846
bsg824
S'Cell[3].axon[452]'
p847
sI170
I28
tp848
a(F2.3753840782286284
S'Cell[0].dend[3] syn_ = new AmpaNmda(0.833333333333)'
p849
I0
(dp850
g809
F0.16666666666666666
sg810
F26.0
sg811
I170
sg812
g7
(g8
(I0
tp851
g10
tp852
Rp853
(I1
(I3
tp854
g819
I00
S'\x8a\xc7ZC\xb5\x1e8\xc0N\x14E\x9f\xa8\x1eH@\x9fa?\x15\xf7\xaa-@'
p855
tp856
bsg824
S'Cell[3].axon[495]'
p857
sI170
I28
tp858
a(F1.851282817909342
S'Cell[0].dend[17] syn_ = new AmpaNmda(0.5)'
p859
I0
(dp860
g809
F0.7
sg810
F26.0
sg811
I170
sg812
g7
(g8
(I0
tp861
g10
tp862
Rp863
(I1
(I3
tp864
g819
I00
S'4\x80\xee L\xd9\x08@\xbf\xd9v\xb1\x86\xee(@\xc4\x16=\xf48\xf38\xc0'
p865
tp866
bsg824
S'Cell[3].axon[507]'
p867
sI170
I28
tp868
a(F2.419888985884896
S'Cell[0].apic[30] syn_ = new ExpSid(0.5)'
p869
I0
(dp870
S'seg'
p871
F0.8333333333333333
sS'hostfrom'
p872
F27.0
sS'gid'
p873
I171
sS'coords'
p874
g7
(g8
(I0
tp875
g10
tp876
Rp877
(I1
(I3
tp878
g14
(S'f8'
p879
I0
I1
tp880
Rp881
(I3
S'<'
p882
NNNI-1
I-1
I0
tp883
bI00
S'\x01\x00\x00`\xb8\x1e\x1e@\x93\xc6^~D\xbe[@\xc9C\xf7\x8f\x10\x1d\x11\xc0'
p884
tp885
bsS'secnames'
p886
S'Cell[3].axon[4]'
p887
sI171
I28
tp888
a(F1.4174189855651822
S'Cell[0].apic[4] syn_ = new ExpSid(0.5)'
p889
I0
(dp890
g871
F0.5
sg872
F27.0
sg873
I171
sg874
g7
(g8
(I0
tp891
g10
tp892
Rp893
(I1
(I3
tp894
g881
I00
S'P\xabNE\xe3\xf7$@SV\xfe{[!Z@\x00\x00\x00@33\x15\xc0'
p895
tp896
bsg886
S'Cell[3].axon[33]'
p897
sI171
I28
tp898
a(F2.300185457482647
S'Cell[1].apic[15] syn_ = new ExpSid(0.0714285714286)'
p899
I1
(dp900
S'seg'
p901
F0.8999999999999999
sS'hostfrom'
p902
F29.0
sS'gid'
p903
I125
sS'coords'
p904
g7
(g8
(I0
tp905
g10
tp906
Rp907
(I1
(I3
tp908
g14
(S'f8'
p909
I0
I1
tp910
Rp911
(I3
S'<'
p912
NNNI-1
I-1
I0
tp913
bI00
S'OrZ\xea+xG@\x8e\x88\xfb\xc5d4C@:Y+\xd5CN8\xc0'
p914
tp915
bsS'secnames'
p916
S'Cell[2].axon[173]'
p917
sI125
I76
tp918
a(F2.284522767677117
S'Cell[1].apic[9] syn_ = new AmpaNmda(0.9)'
p919
I1
(dp920
S'seg'
p921
F0.9285714285714284
sS'hostfrom'
p922
F30.0
sS'gid'
p923
I126
sS'coords'
p924
g7
(g8
(I0
tp925
g10
tp926
Rp927
(I1
(I3
tp928
g14
(S'f8'
p929
I0
I1
tp930
Rp931
(I3
S'<'
p932
NNNI-1
I-1
I0
tp933
bI00
S'NGCj\xa6\xd5Z@V:\x18\xa4\xc6$8@V\xed\x98\xd8\x87^V\xc0'
p934
tp935
bsS'secnames'
p936
S'Cell[2].axon[31]'
p937
sI126
I76
tp938
a(F1.982659707210258
S'Cell[3].dend[23] syn_ = new FastInhib(0.5)'
p939
I3
(dp940
g921
F0.2692307692307693
sg922
F30.0
sg923
I30
sg924
g7
(g8
(I0
tp941
g10
tp942
Rp943
(I1
(I3
tp944
g931
I00
S'\xce\xf8 >\x0b\x06V\xc0\xa2\x8fd/\x82\xd1K\xc0pE\xc9\x06\xc5\nF\xc0'
p945
tp946
bsg936
S'Cell[0].axon[4]'
p947
sI30
I172
tp948
a(F2.4633039041618954
S'Cell[2].dend[2] syn_ = new FastInhib(0.5)'
p949
I2
(dp950
g921
F0.8333333333333333
sg922
F30.0
sg923
I174
sg924
g7
(g8
(I0
tp951
g10
tp952
Rp953
(I1
(I3
tp954
g931
I00
S'l\xday?X\xdcK\xc0\xfa\xea\x16\x85\xc4<$\xc0\xaf\xb7\xbe\xdb\xd2\xcf1\xc0'
p955
tp956
bsg936
S'Cell[3].axon[146]'
p957
sI174
I124
tp958
a(F2.144835806157271
S'Cell[0].dend[17] syn_ = new AmpaNmda(0.166666666667)'
p959
I0
(dp960
g921
F0.5
sg922
F30.0
sg923
I174
sg924
g7
(g8
(I0
tp961
g10
tp962
Rp963
(I1
(I3
tp964
g931
I00
S'\xf7j\xcc\x08\xdb\xea @\x1b\x01\x82\xf8\xe5\xbeA@\x00\x00\x00`ff;\xc0'
p965
tp966
bsg936
S'Cell[3].axon[152]'
p967
sI174
I28
tp968
a(F2.309752956735333
S'Cell[2].apic[6] syn_ = new FastInhib(0.3)'
p969
I2
g960
I174
I124
tp970
a(F2.3098272225761627
S'Cell[1].dend[25] syn_ = new ExpSid(0.5)'
p971
I1
(dp972
S'seg'
p973
F0.8333333333333333
sS'hostfrom'
p974
F31.0
sS'gid'
p975
I127
sS'coords'
p976
g7
(g8
(I0
tp977
g10
tp978
Rp979
(I1
(I3
tp980
g14
(S'f8'
p981
I0
I1
tp982
Rp983
(I3
S'<'
p984
NNNI-1
I-1
I0
tp985
bI00
S'\xc7\xd8\xb0Aq\xf3T@\xdc\xcdp\x89\xa0\x94C\xc0\xe3}\xe2\x18B\x9dA\xc0'
p986
tp987
bsS'secnames'
p988
S'Cell[2].axon[7]'
p989
sI127
I76
tp990
a(F2.179551823707729
S'Cell[2].dend[6] syn_ = new FastInhib(0.5)'
p991
I2
(dp992
S'seg'
p993
F0.16666666666666666
sS'hostfrom'
p994
F32.0
sS'gid'
p995
I176
sS'coords'
p996
g7
(g8
(I0
tp997
g10
tp998
Rp999
(I1
(I3
tp1000
g14
(S'f8'
p1001
I0
I1
tp1002
Rp1003
(I3
S'<'
p1004
NNNI-1
I-1
I0
tp1005
bI00
S'(\tj#\x85}\x03\xc05\xcfD\xecCvY\xc0\xff\xff\xff_ff\x1f\xc0'
p1006
tp1007
bsS'secnames'
p1008
S'Cell[3].axon[96]'
p1009
sI176
I124
tp1010
a(F0.9334508741811821
S'Cell[2].dend[11] syn_ = new FastInhib(0.5)'
p1011
I2
(dp1012
g993
F0.5
sg994
F32.0
sg995
I176
sg996
g7
(g8
(I0
tp1013
g10
tp1014
Rp1015
(I1
(I3
tp1016
g1003
I00
S"\xd6d\x11\x17\x9bNK@\xce\xc3\xd3G\xcbnI\xc0\x00\x00\x00\x00\xd7\xa3'\xc0"
p1017
tp1018
bsg1008
S'Cell[3].axon[108]'
p1019
sI176
I124
tp1020
a(F1.5804725712058518
S'Cell[0].apic[40] syn_ = new ExpSid(0.166666666667)'
p1021
I0
(dp1022
S'seg'
p1023
F0.5
sS'hostfrom'
p1024
F33.0
sS'gid'
p1025
I129
sS'coords'
p1026
g7
(g8
(I0
tp1027
g10
tp1028
Rp1029
(I1
(I3
tp1030
g14
(S'f8'
p1031
I0
I1
tp1032
Rp1033
(I3
S'<'
p1034
NNNI-1
I-1
I0
tp1035
bI00
S'e\x00[\xcc\xd6\x8a6@~\x0b\xac\x02\x9f\xceS@d\x9e\xda<+\xd4\x18\xc0'
p1036
tp1037
bsS'secnames'
p1038
S'Cell[2].axon[94]'
p1039
sI129
I28
tp1040
a(F1.7340136735112057
S'Cell[0].apic[26] syn_ = new ExpSid(0.166666666667)'
p1041
I0
(dp1042
g1023
F0.5
sg1024
F33.0
sg1025
I177
sg1026
g7
(g8
(I0
tp1043
g10
tp1044
Rp1045
(I1
(I3
tp1046
g1033
I00
S'"ys\x82\xd2\x1f<@\tQC\x1d\xdb5b@\xe8\xb9@\x14?\xde\x19\xc0'
p1047
tp1048
bsg1038
S'Cell[3].axon[67]'
p1049
sI177
I28
tp1050
a(F1.6284923543838064
S'Cell[0].dend[7] syn_ = new AmpaNmda(0.3)'
p1051
I0
(dp1052
S'seg'
p1053
F0.5
sS'hostfrom'
p1054
F34.0
sS'gid'
p1055
I82
sS'coords'
p1056
g7
(g8
(I0
tp1057
g10
tp1058
Rp1059
(I1
(I3
tp1060
g14
(S'f8'
p1061
I0
I1
tp1062
Rp1063
(I3
S'<'
p1064
NNNI-1
I-1
I0
tp1065
bI00
S'\xc5U\x83s(<5\xc0n\xffk=\xbb\xb0W@\x00\x00\x00\x00\x00\x00\xf0\xbf'
p1066
tp1067
bsS'secnames'
p1068
S'Cell[1].axon[51]'
p1069
sI82
I28
tp1070
a(F1.4524671696423568
S'Cell[1].dend[13] syn_ = new AmpaNmda(0.5)'
p1071
I1
(dp1072
g1053
F0.1
sg1054
F34.0
sg1055
I178
sg1056
g7
(g8
(I0
tp1073
g10
tp1074
Rp1075
(I1
(I3
tp1076
g1063
I00
S'\x04\x04\xf4\xbd\xe3\x9eR@6\xb6\x17oc\xeb\x02@0\xde\xc9\xbf\n\x94T\xc0'
p1077
tp1078
bsg1068
S'Cell[3].axon[23]'
p1079
sI178
I76
tp1080
a(F2.369340398603373
S'Cell[3].dend[10] syn_ = new FastInhib(0.166666666667)'
p1081
I3
(dp1082
S'seg'
p1083
F0.5
sS'hostfrom'
p1084
F35.0
sS'gid'
p1085
I83
sS'coords'
p1086
g7
(g8
(I0
tp1087
g10
tp1088
Rp1089
(I1
(I3
tp1090
g14
(S'f8'
p1091
I0
I1
tp1092
Rp1093
(I3
S'<'
p1094
NNNI-1
I-1
I0
tp1095
bI00
S'\xa1/\xcd;6\x8a"@\x1f\x13\xc4U%+=\xc0b\xc2\xb53\xbaF \xc0'
p1096
tp1097
bsS'secnames'
p1098
S'Cell[1].axon[2]'
p1099
sI83
I172
tp1100
a(F1.4439263527938966
S'Cell[3].dend[1] syn_ = new FastInhib(0.166666666667)'
p1101
I3
(dp1102
g1083
F0.5
sg1084
F35.0
sg1085
I35
sg1086
g7
(g8
(I0
tp1103
g10
tp1104
Rp1105
(I1
(I3
tp1106
g1093
I00
S'\x00\x00\x00\xb03s(\xc0\x00\x00\x00\xa0\x99\xa9M\xc0\x00\x00\x00033\x18@'
p1107
tp1108
bsg1098
S'Cell[0].axon[7]'
p1109
sI35
I172
tp1110
a(F2.467673606256742
S'Cell[3].dend[2] syn_ = new FastInhib(0.5)'
p1111
I3
(dp1112
g1083
F0.5
sg1084
F35.0
sg1085
I35
sg1086
g7
(g8
(I0
tp1113
g10
tp1114
Rp1115
(I1
(I3
tp1116
g1093
I00
S"\xbaOo\x0bO).\xc0\x836x\x80\x1axR\xc0\xf6 'z\xe9\xb1\xf5?"
p1117
tp1118
bsg1098
S'Cell[0].axon[9]'
p1119
sI35
I172
tp1120
a(F2.145192297942484
S'Cell[3].dend[15] syn_ = new FastInhib(0.5)'
p1121
I3
(dp1122
g1083
F0.5
sg1084
F35.0
sg1085
I179
sg1086
g7
(g8
(I0
tp1123
g10
tp1124
Rp1125
(I1
(I3
tp1126
g1093
I00
S'\x8a\x87o\xb5\x1f\xf2C\xc0\x8b\xaa*\xa3\xaf|2\xc0\xb4\xf8\xa0\x1d\xee\xf0C\xc0'
p1127
tp1128
bsg1098
S'Cell[3].axon[177]'
p1129
sI179
I172
tp1130
a(F1.6334797259246596
S'Cell[3].dend[22] syn_ = new FastInhib(0.5)'
p1131
I3
(dp1132
S'seg'
p1133
F0.2777777777777778
sS'hostfrom'
p1134
F36.0
sS'gid'
p1135
I84
sS'coords'
p1136
g7
(g8
(I0
tp1137
g10
tp1138
Rp1139
(I1
(I3
tp1140
g14
(S'f8'
p1141
I0
I1
tp1142
Rp1143
(I3
S'<'
p1144
NNNI-1
I-1
I0
tp1145
bI00
S'b0`\xc3\xfd\x9bA\xc0\xad\xcb\xb1\x8aHR<\xc0\x00\x00\x00`\x8f\xc2;\xc0'
p1146
tp1147
bsS'secnames'
p1148
S'Cell[1].axon[434]'
p1149
sI84
I172
tp1150
a(F1.7965707883342839
S'Cell[0].apic[4] syn_ = new AmpaNmda(0.5)'
p1151
I0
(dp1152
g1133
F0.5
sg1134
F36.0
sg1135
I132
sg1136
g7
(g8
(I0
tp1153
g10
tp1154
Rp1155
(I1
(I3
tp1156
g1143
I00
S'\xb5|\xd6\x06\xfa~$@i\xbd\xa4u\xb8,Z@\x1f\x84\xf6|\xf1\x9b\x18\xc0'
p1157
tp1158
bsg1148
S'Cell[2].axon[76]'
p1159
sI132
I28
tp1160
a(F2.152575269795663
S'Cell[1].dend[37] syn_ = new AmpaNmda(0.5)'
p1161
I1
(dp1162
g1133
F0.8333333333333333
sg1134
F36.0
sg1135
I132
sg1136
g7
(g8
(I0
tp1163
g10
tp1164
Rp1165
(I1
(I3
tp1166
g1143
I00
S'\xaa ?P\xc1q^@#1\xd5\x1b\x97\xdbB\xc0\x90o\xed\xfdq\xd1!@'
p1167
tp1168
bsg1148
S'Cell[2].axon[117]'
p1169
sI132
I76
tp1170
a(F2.3895873013943083
S'Cell[1].dend[8] syn_ = new AmpaNmda(0.3)'
p1171
I1
(dp1172
g1133
F0.30000000000000004
sg1134
F36.0
sg1135
I180
sg1136
g7
(g8
(I0
tp1173
g10
tp1174
Rp1175
(I1
(I3
tp1176
g1143
I00
S'??d\xe10\xdf5@\xb2\x00L+\x19\x98,\xc0v\xdf\x87\x95\xf7\xe4O\xc0'
p1177
tp1178
bsg1148
S'Cell[3].axon[26]'
p1179
sI180
I76
tp1180
a(F2.324490440239065
S'Cell[2].dend[8] syn_ = new FastInhib(0.1)'
p1181
I2
(dp1182
g1133
F0.5
sg1134
F36.0
sg1135
I36
sg1136
g7
(g8
(I0
tp1183
g10
tp1184
Rp1185
(I1
(I3
tp1186
g1143
I00
S'\x08\x00\x00\x10\x85\xab3@\x00\x00\x00@\nwD\xc0\x00\x00\x00`\xb8\x1e @'
p1187
tp1188
bsg1148
S'Cell[0].soma[0]'
p1189
sI36
I124
tp1190
a(F1.3451627620066011
S'Cell[3].dend[3] syn_ = new FastInhib(0.833333333333)'
p1191
I3
(dp1192
g1133
F0.16666666666666666
sg1134
F36.0
sg1135
I36
sg1136
g7
(g8
(I0
tp1193
g10
tp1194
Rp1195
(I1
(I3
tp1196
g1143
I00
S'g\xa7\xa6\xeb\xfcA7@\x9e\x9f_P\xcb&Q\xc0N\x9dm\xec\xf0\x8b%@'
p1197
tp1198
bsg1148
S'Cell[0].axon[0]'
p1199
sI36
I172
tp1200
a(F1.164498985489249
S'Cell[2].apic[16] syn_ = new FastInhib(0.166666666667)'
p1201
I2
(dp1202
S'seg'
p1203
F0.5
sS'hostfrom'
p1204
F37.0
sS'gid'
p1205
I133
sS'coords'
p1206
g7
(g8
(I0
tp1207
g10
tp1208
Rp1209
(I1
(I3
tp1210
g14
(S'f8'
p1211
I0
I1
tp1212
Rp1213
(I3
S'<'
p1214
NNNI-1
I-1
I0
tp1215
bI00
S'\x87\xf3w\xb7\xe6\xc7\xe0\xbf\x10\xecQ\x011\xa6\\@\xed\x91\x80\x90\xee:2@'
p1216
tp1217
bsS'secnames'
p1218
S'Cell[2].axon[7]'
p1219
sI133
I124
tp1220
a(F1.6862502510041701
S'Cell[0].apic[10] syn_ = new ExpSid(0.5)'
p1221
I0
(dp1222
g1203
F0.5
sg1204
F37.0
sg1205
I181
sg1206
g7
(g8
(I0
tp1223
g10
tp1224
Rp1225
(I1
(I3
tp1226
g1213
I00
S'c\xf2T\x05]\x88F@\xb4\x1e\xad\xcdbGo@\xd7\xb5\xd7\x08\xae\x99\n\xc0'
p1227
tp1228
bsg1218
S'Cell[3].axon[60]'
p1229
sI181
I28
tp1230
a(F2.0762590464533672
S'Cell[2].apic[25] syn_ = new FastInhib(0.5)'
p1231
I2
(dp1232
g1203
F0.5
sg1204
F37.0
sg1205
I181
sg1206
g7
(g8
(I0
tp1233
g10
tp1234
Rp1235
(I1
(I3
tp1236
g1213
I00
S'\xb0\xb2!\x8bReH@\x94\xa4\xdd\xac5\x88Z@\xb7\x18c%\xb8\xb70@'
p1237
tp1238
bsg1218
S'Cell[3].axon[211]'
p1239
sI181
I124
tp1240
a(F1.5911566241780808
S'Cell[3].dend[3] syn_ = new FastInhib(0.833333333333)'
p1241
I3
(dp1242
g1203
F0.30000000000000004
sg1204
F37.0
sg1205
I37
sg1206
g7
(g8
(I0
tp1243
g10
tp1244
Rp1245
(I1
(I3
tp1246
g1213
I00
S'\xd1\x95\x1b\x93\xb1\x1a8@\x12\x9b|\xbc_\\Q\xc0Fj\x98E\x06\xae @'
p1247
tp1248
bsg1218
S'Cell[0].axon[4]'
p1249
sI37
I172
tp1250
a(F1.1516147427028858
S'Cell[2].apic[7] syn_ = new FastInhib(0.166666666667)'
p1251
I2
(dp1252
S'seg'
p1253
F0.16666666666666666
sS'hostfrom'
p1254
F38.0
sS'gid'
p1255
I182
sS'coords'
p1256
g7
(g8
(I0
tp1257
g10
tp1258
Rp1259
(I1
(I3
tp1260
g14
(S'f8'
p1261
I0
I1
tp1262
Rp1263
(I3
S'<'
p1264
NNNI-1
I-1
I0
tp1265
bI00
S'\xd6\x16\\r[\x1c8@e\x9fcv\xcfg.@\xee\xbe.\x87\xb2\xff\x1d\xc0'
p1266
tp1267
bsS'secnames'
p1268
S'Cell[3].axon[216]'
p1269
sI182
I124
tp1270
a(F0.7703599911064943
S'Cell[0].apic[27] syn_ = new AmpaNmda(0.166666666667)'
p1271
I0
(dp1272
g1253
F0.5
sg1254
F38.0
sg1255
I182
sg1256
g7
(g8
(I0
tp1273
g10
tp1274
Rp1275
(I1
(I3
tp1276
g1263
I00
S'\x00\x00\x00\xc0\x1e\xa56@\x00\x00\x00`f:a@\x00\x00\x00hff\x15\xc0'
p1277
tp1278
bsg1268
S'Cell[3].axon[306]'
p1279
sI182
I28
tp1280
a(F2.420273371905824
S'Cell[0].apic[27] syn_ = new AmpaNmda(0.166666666667)'
p1281
I0
(dp1282
g1253
F0.5
sg1254
F38.0
sg1255
I182
sg1256
g7
(g8
(I0
tp1283
g10
tp1284
Rp1285
(I1
(I3
tp1286
g1263
I00
S'\x00\x00\x00\xe0\xa3\xd05@\x00\x00\x00\xe0zTa@\x00\x00\x00\xa0\x99\x99\x1b\xc0'
p1287
tp1288
bsg1268
S'Cell[3].axon[307]'
p1289
sI182
I28
tp1290
a(F2.1995447692731216
S'Cell[2].apic[3] syn_ = new FastInhib(0.166666666667)'
p1291
I2
(dp1292
g1253
F0.16666666666666666
sg1254
F38.0
sg1255
I86
sg1256
g7
(g8
(I0
tp1293
g10
tp1294
Rp1295
(I1
(I3
tp1296
g1263
I00
S'0\xa9\xe9\xeaS\xaeZ@:(\x1c\x0f\xbd:<\xc0\x1e\xd8\xf1\xf3\xca\xa9P\xc0'
p1297
tp1298
bsg1268
S'Cell[1].axon[153]'
p1299
sI86
I124
tp1300
a(F1.6530468032789878
S'Cell[2].apic[12] syn_ = new FastInhib(0.5)'
p1301
I2
(dp1302
S'seg'
p1303
F0.30000000000000004
sS'hostfrom'
p1304
F39.0
sS'gid'
p1305
I183
sS'coords'
p1306
g7
(g8
(I0
tp1307
g10
tp1308
Rp1309
(I1
(I3
tp1310
g14
(S'f8'
p1311
I0
I1
tp1312
Rp1313
(I3
S'<'
p1314
NNNI-1
I-1
I0
tp1315
bI00
S'\x08\xc9\xe7\x94\x1f\x80E@\x94\xa4\xc1\x05b\xd0@@\x8f\x03V\x99\x05} @'
p1316
tp1317
bsS'secnames'
p1318
S'Cell[3].axon[61]'
p1319
sI183
I124
tp1320
a(F1.8194848916467417
S'Cell[0].dend[11] syn_ = new ExpSid(0.5)'
p1321
I0
(dp1322
g1303
F0.5
sg1304
F39.0
sg1305
I183
sg1306
g7
(g8
(I0
tp1323
g10
tp1324
Rp1325
(I1
(I3
tp1326
g1313
I00
S'\x00\x00\x00\xb0G\xe15@\x00\x00\x00 \x85KL@\x00\x00\x00\xc0G\xa1:\xc0'
p1327
tp1328
bsg1318
S'Cell[3].axon[62]'
p1329
sI183
I28
tp1330
a(F2.4299966785801645
S'Cell[2].dend[12] syn_ = new FastInhib(0.7)'
p1331
I2
(dp1332
g1303
F0.30000000000000004
sg1304
F39.0
sg1305
I183
sg1306
g7
(g8
(I0
tp1333
g10
tp1334
Rp1335
(I1
(I3
tp1336
g1313
I00
S'\xde7Mm\xa2\xe0D@\x1e\xe2\x7f\x06\xd1\x8c[\xc0\x90`;\x83\xba;B\xc0'
p1337
tp1338
bsg1318
S'Cell[3].axon[67]'
p1339
sI183
I124
tp1340
a(F2.0210539261184732
S'Cell[2].dend[6] syn_ = new FastInhib(0.833333333333)'
p1341
I2
(dp1342
g1303
F0.07142857142857142
sg1304
F39.0
sg1305
I39
sg1306
g7
(g8
(I0
tp1343
g10
tp1344
Rp1345
(I1
(I3
tp1346
g1313
I00
S"V\xd9\x87\xe5\xca\x15'\xc02\x05\xc6\xd7\x8b\n[\xc0\x00\xea\x1e\x19#[\x18\xc0"
p1347
tp1348
bsg1318
S'Cell[0].axon[2]'
p1349
sI39
I124
tp1350
a(F1.9330336214034045
S'Cell[2].dend[6] syn_ = new FastInhib(0.166666666667)'
p1351
I2
(dp1352
S'seg'
p1353
F0.1
sS'hostfrom'
p1354
F40.0
sS'gid'
p1355
I40
sS'coords'
p1356
g7
(g8
(I0
tp1357
g10
tp1358
Rp1359
(I1
(I3
tp1360
g14
(S'f8'
p1361
I0
I1
tp1362
Rp1363
(I3
S'<'
p1364
NNNI-1
I-1
I0
tp1365
bI00
S'\xedcL\xf0n\xc5\x14@\xef\xa4\xb6\xd5l;U\xc0N\xbe\xa7\x96\x82{+\xc0'
p1366
tp1367
bsS'secnames'
p1368
S'Cell[0].axon[14]'
p1369
sI40
I124
tp1370
a(F1.4810071842581758
S'Cell[3].dend[9] syn_ = new FastInhib(0.5)'
p1371
I3
(dp1372
g1353
F0.1
sg1354
F40.0
sg1355
I88
sg1356
g7
(g8
(I0
tp1373
g10
tp1374
Rp1375
(I1
(I3
tp1376
g1363
I00
S'E\xf1\x8eY\xe7\xe9\x19\xc0\xf6\r\xcd\x96n\xa7C\xc0\xc6\x7f\xfa\xbaoE$\xc0'
p1377
tp1378
bsg1368
S'Cell[1].axon[161]'
p1379
sI88
I172
tp1380
a(F1.9451373288656018
S'Cell[0].apic[28] syn_ = new AmpaNmda(0.166666666667)'
p1381
I0
(dp1382
g1353
F0.5
sg1354
F40.0
sg1355
I88
sg1356
g7
(g8
(I0
tp1383
g10
tp1384
Rp1385
(I1
(I3
tp1386
g1363
I00
S'\xb4\xfa\x87]\xe5G3@\xab\xa0\xb6\xd8\xb2\xac_@\x08\n{\xe8\x85\xaf\x0c\xc0'
p1387
tp1388
bsg1368
S'Cell[1].axon[183]'
p1389
sI88
I28
tp1390
a(F2.0288803911274824
S'Cell[1].dend[1] syn_ = new AmpaNmda(0.0714285714286)'
p1391
I1
(dp1392
g1353
F0.16666666666666666
sg1354
F40.0
sg1355
I88
sg1356
g7
(g8
(I0
tp1393
g10
tp1394
Rp1395
(I1
(I3
tp1396
g1363
I00
S')\xb9F\xdd\x0c1O@\x0fF\x02\x07U%5\xc0\x95\x03\x00\x10\xaa0I\xc0'
p1397
tp1398
bsg1368
S'Cell[1].axon[360]'
p1399
sI88
I76
tp1400
a(F1.94500144776241
S'Cell[3].dend[23] syn_ = new FastInhib(0.1)'
p1401
I3
(dp1402
g1353
F0.5
sg1354
F40.0
sg1355
I136
sg1356
g7
(g8
(I0
tp1403
g10
tp1404
Rp1405
(I1
(I3
tp1406
g1363
I00
S'\x8b"\xee\xa5\xd0\xceB\xc0$\xba~\xd83\xd9H\xc0\x840P|\x07"2\xc0'
p1407
tp1408
bsg1368
S'Cell[2].axon[98]'
p1409
sI136
I172
tp1410
a(F1.7902524049631725
S'Cell[2].dend[3] syn_ = new FastInhib(0.833333333333)'
p1411
I2
(dp1412
S'seg'
p1413
F0.8333333333333333
sS'hostfrom'
p1414
F41.0
sS'gid'
p1415
I185
sS'coords'
p1416
g7
(g8
(I0
tp1417
g10
tp1418
Rp1419
(I1
(I3
tp1420
g14
(S'f8'
p1421
I0
I1
tp1422
Rp1423
(I3
S'<'
p1424
NNNI-1
I-1
I0
tp1425
bI00
S'\x9e\x8d\xf5\x98\xf8cR\xc0 \xcdA\xd0\xfd\xca6@\x00\x00\x00\xe0z\x14(\xc0'
p1426
tp1427
bsS'secnames'
p1428
S'Cell[3].axon[107]'
p1429
sI185
I124
tp1430
a(F2.261165931603641
S'Cell[1].apic[14] syn_ = new ExpSid(0.5)'
p1431
I1
(dp1432
g1413
F0.16666666666666666
sg1414
F41.0
sg1415
I185
sg1416
g7
(g8
(I0
tp1433
g10
tp1434
Rp1435
(I1
(I3
tp1436
g1423
I00
S'\xb1\x9e\rU\xbb\x1dF@\x12\xe4\x0f&&="@~9\\\xa2\xaa"-\xc0'
p1437
tp1438
bsg1428
S'Cell[3].axon[115]'
p1439
sI185
I76
tp1440
a(F1.7180897442913965
S'Cell[0].dend[24] syn_ = new ExpSid(0.5)'
p1441
I0
(dp1442
g1413
F0.5
sg1414
F41.0
sg1415
I185
sg1416
g7
(g8
(I0
tp1443
g10
tp1444
Rp1445
(I1
(I3
tp1446
g1423
I00
S'i\xbe\xeb\x90\x00\x889@~<S\x83\x0f0P@\xad9r\x10\x9b@(\xc0'
p1447
tp1448
bsg1428
S'Cell[3].axon[217]'
p1449
sI185
I28
tp1450
a(F2.256979174941415
S'Cell[3].apic[1] syn_ = new FastInhib(0.954545454545)'
p1451
I3
(dp1452
g1413
F0.5
sg1414
F41.0
sg1415
I185
sg1416
g7
(g8
(I0
tp1453
g10
tp1454
Rp1455
(I1
(I3
tp1456
g1423
I00
S'\xe6\xedwW,\xea0\xc0\xa7N\x15\x83\x00Au\xc0\x00\x00\x00\x00\x00\x00\x1a@'
p1457
tp1458
bsg1428
S'Cell[3].axon[250]'
p1459
sI185
I172
tp1460
a(F1.9305742966709312
S'Cell[0].dend[10] syn_ = new ExpSid(0.5)'
p1461
I0
(dp1462
g1413
F0.5
sg1414
F41.0
sg1415
I89
sg1416
g7
(g8
(I0
tp1463
g10
tp1464
Rp1465
(I1
(I3
tp1466
g1423
I00
S'<\xf6j\xfb\x19\xf90@vE\x12\xd9\xc2iM@\x00\x00\x00@3\xf34\xc0'
p1467
tp1468
bsg1428
S'Cell[1].axon[156]'
p1469
sI89
I28
tp1470
a(F2.4461616791801517
S'Cell[1].dend[8] syn_ = new ExpSid(0.1)'
p1471
I1
(dp1472
g1413
F0.13636363636363635
sg1414
F41.0
sg1415
I89
sg1416
g7
(g8
(I0
tp1473
g10
tp1474
Rp1475
(I1
(I3
tp1476
g1423
I00
S'\xa5\xeb\x89\x17-nE@\xb4@\x9a\xb8\x8b61\xc0\x93\xbc\xe5\x1b\xc8\xeaK\xc0'
p1477
tp1478
bsg1428
S'Cell[1].axon[199]'
p1479
sI89
I76
tp1480
a(F2.2695443589505047
S'Cell[0].dend[28] syn_ = new AmpaNmda(0.166666666667)'
p1481
I0
(dp1482
S'seg'
p1483
F0.8333333333333333
sS'hostfrom'
p1484
F42.0
sS'gid'
p1485
I138
sS'coords'
p1486
g7
(g8
(I0
tp1487
g10
tp1488
Rp1489
(I1
(I3
tp1490
g14
(S'f8'
p1491
I0
I1
tp1492
Rp1493
(I3
S'<'
p1494
NNNI-1
I-1
I0
tp1495
bI00
S'\xee\x019\x12\x99\xc0N@\x1dkU)\xdd\x17I@\x00\x00\x00\xe0Q\xb8\x0c\xc0'
p1496
tp1497
bsS'secnames'
p1498
S'Cell[2].axon[29]'
p1499
sI138
I28
tp1500
a(F1.9002503703198086
S'Cell[0].apic[40] syn_ = new AmpaNmda(0.166666666667)'
p1501
I0
(dp1502
g1483
F0.5
sg1484
F42.0
sg1485
I138
sg1486
g7
(g8
(I0
tp1503
g10
tp1504
Rp1505
(I1
(I3
tp1506
g1493
I00
S'~\xbbhx\xc7\xe35@\xa2xj\xae\x94:S@\x00\x00\x00\x00\x00\x00\x11\xc0'
p1507
tp1508
bsg1498
S'Cell[2].axon[41]'
p1509
sI138
I28
tp1510
a(F1.5782362061904107
S'Cell[0].apic[39] syn_ = new AmpaNmda(0.833333333333)'
p1511
I0
(dp1512
g1483
F0.3571428571428571
sg1484
F42.0
sg1485
I138
sg1486
g7
(g8
(I0
tp1513
g10
tp1514
Rp1515
(I1
(I3
tp1516
g1493
I00
S'%\xf3p\xd4\xf0\xaaS\xc0&\\Y\xd7*\xa1`@Q\xba\xef\xdc>\x86\x14\xc0'
p1517
tp1518
bsg1498
S'Cell[2].axon[91]'
p1519
sI138
I28
tp1520
a(F2.3950025951531857
S'Cell[1].dend[39] syn_ = new AmpaNmda(0.833333333333)'
p1521
I1
(dp1522
g1483
F0.30000000000000004
sg1484
F42.0
sg1485
I138
sg1486
g7
(g8
(I0
tp1523
g10
tp1524
Rp1525
(I1
(I3
tp1526
g1493
I00
S'\xd85\x07\xb9o\xf7Z@lu\x9a\xfeE\xb0\x03\xc0_\x01\xc3~\xe0\x01$@'
p1527
tp1528
bsg1498
S'Cell[2].axon[133]'
p1529
sI138
I76
tp1530
a(F1.7189240755243294
S'Cell[2].apic[26] syn_ = new FastInhib(0.833333333333)'
p1531
I2
(dp1532
S'seg'
p1533
F0.1
sS'hostfrom'
p1534
F43.0
sS'gid'
p1535
I91
sS'coords'
p1536
g7
(g8
(I0
tp1537
g10
tp1538
Rp1539
(I1
(I3
tp1540
g14
(S'f8'
p1541
I0
I1
tp1542
Rp1543
(I3
S'<'
p1544
NNNI-1
I-1
I0
tp1545
bI00
S'\x94q\xc7R\xac\xb9N@mWO\xc8(}`@\xdb\xab\xe5\xce\x8e\xb5\x1a\xc0'
p1546
tp1547
bsS'secnames'
p1548
S'Cell[1].axon[328]'
p1549
sI91
I124
tp1550
a(F1.0658694067787053
S'Cell[0].dend[31] syn_ = new ExpSid(0.5)'
p1551
I0
(dp1552
g1533
F0.5
sg1534
F43.0
sg1535
I91
sg1536
g7
(g8
(I0
tp1553
g10
tp1554
Rp1555
(I1
(I3
tp1556
g1543
I00
S'\xdd\x98\x85QM\x07M@\x86M\x93x)\x85Y@\xb3\x8d\xc2\xd4\xdf\xf72\xc0'
p1557
tp1558
bsg1548
S'Cell[1].axon[495]'
p1559
sI91
I28
tp1560
a(F1.4906531696873997
S'Cell[0].apic[34] syn_ = new ExpSid(0.166666666667)'
p1561
I0
(dp1562
g1533
F0.5
sg1534
F43.0
sg1535
I187
sg1536
g7
(g8
(I0
tp1563
g10
tp1564
Rp1565
(I1
(I3
tp1566
g1543
I00
S'\xd03,\xc4b\x12.@T\xbb\x15\x00!\x18W@&\xc3e~\xde\xc5\x14\xc0'
p1567
tp1568
bsg1548
S'Cell[3].axon[135]'
p1569
sI187
I28
tp1570
a(F1.9330900622940412
S'Cell[3].dend[14] syn_ = new FastInhib(0.7)'
p1571
I3
(dp1572
g1533
F0.5
sg1534
F43.0
sg1535
I187
sg1536
g7
(g8
(I0
tp1573
g10
tp1574
Rp1575
(I1
(I3
tp1576
g1543
I00
S'\x0f\xfbt}\x8d\xc2]\xc0z\xeeO\xf6\\O.\xc0\x00\x00\x00\xe0\xa3\x10P\xc0'
p1577
tp1578
bsg1548
S'Cell[3].axon[209]'
p1579
sI187
I172
tp1580
a(F2.2267673684809854
S'Cell[0].dend[25] syn_ = new AmpaNmda(0.1)'
p1581
I0
(dp1582
S'seg'
p1583
F0.5
sS'hostfrom'
p1584
F44.0
sS'gid'
p1585
I188
sS'coords'
p1586
g7
(g8
(I0
tp1587
g10
tp1588
Rp1589
(I1
(I3
tp1590
g14
(S'f8'
p1591
I0
I1
tp1592
Rp1593
(I3
S'<'
p1594
NNNI-1
I-1
I0
tp1595
bI00
S'\nw3:\xd8xA@v\x87\xca\xa5\xf1)R@\x00}\x90\xd4\xe8\x04=\xc0'
p1596
tp1597
bsS'secnames'
p1598
S'Cell[3].axon[95]'
p1599
sI188
I28
tp1600
a(F2.4770718195554546
S'Cell[2].apic[14] syn_ = new FastInhib(0.5)'
p1601
I2
(dp1602
g1583
F0.16666666666666666
sg1584
F44.0
sg1585
I188
sg1586
g7
(g8
(I0
tp1603
g10
tp1604
Rp1605
(I1
(I3
tp1606
g1593
I00
S'\x1f\x8d\x02j\x8c\x95A@cK/\xc5\xa6\x05R@\x00\x00\x00\xc0\x1eE4@'
p1607
tp1608
bsg1598
S'Cell[3].axon[206]'
p1609
sI188
I124
tp1610
a(F1.8658269033060735
S'Cell[2].apic[12] syn_ = new FastInhib(0.5)'
p1611
I2
(dp1612
g1583
F0.5
sg1584
F44.0
sg1585
I188
sg1586
g7
(g8
(I0
tp1613
g10
tp1614
Rp1615
(I1
(I3
tp1616
g1593
I00
S'\xcc\\U\x8d\xb9\xa5D@\xcf\xc2\xb5{M\x84@@x\xfe\xf2#x\x86$@'
p1617
tp1618
bsg1598
S'Cell[3].axon[226]'
p1619
sI188
I124
tp1620
a(F1.5839350447608893
S'Cell[1].dend[4] syn_ = new ExpSid(0.5)'
p1621
I1
(dp1622
S'seg'
p1623
F0.5
sS'hostfrom'
p1624
F45.0
sS'gid'
p1625
I141
sS'coords'
p1626
g7
(g8
(I0
tp1627
g10
tp1628
Rp1629
(I1
(I3
tp1630
g14
(S'f8'
p1631
I0
I1
tp1632
Rp1633
(I3
S'<'
p1634
NNNI-1
I-1
I0
tp1635
bI00
S'\xec\xbe>?\x8a8Q@\xac\xe2\x99\xbb\xe6\xd52\xc0GJ\xc88fWV\xc0'
p1636
tp1637
bsS'secnames'
p1638
S'Cell[2].axon[86]'
p1639
sI141
I76
tp1640
a(F1.9374926381702604
S'Cell[2].dend[5] syn_ = new FastInhib(0.166666666667)'
p1641
I2
(dp1642
g1623
F0.1
sg1624
F45.0
sg1625
I141
sg1626
g7
(g8
(I0
tp1643
g10
tp1644
Rp1645
(I1
(I3
tp1646
g1633
I00
S'\xcd|4jJ\xd02@Q^\x1cZ\x05\x1fF\xc0\x952\xd7\xb2\x00\x933\xc0'
p1647
tp1648
bsg1638
S'Cell[2].axon[181]'
p1649
sI141
I124
tp1650
a(F2.0282891795313693
S'Cell[2].apic[8] syn_ = new FastInhib(0.5)'
p1651
I2
(dp1652
g1623
F0.07142857142857142
sg1624
F45.0
sg1625
I141
sg1626
g7
(g8
(I0
tp1653
g10
tp1654
Rp1655
(I1
(I3
tp1656
g1633
I00
S'\x87\x8e\xb1*\xbf\xe70\xc0\x12\x88}\x1f\xcc\r1\xc0\x94\x02/)\x86\xcbB\xc0'
p1657
tp1658
bsg1638
S'Cell[2].axon[221]'
p1659
sI141
I124
tp1660
a(F2.1466651351688917
S'Cell[3].dend[10] syn_ = new FastInhib(0.833333333333)'
p1661
I3
(dp1662
g1623
F0.5
sg1624
F45.0
sg1625
I141
sg1626
g7
(g8
(I0
tp1663
g10
tp1664
Rp1665
(I1
(I3
tp1666
g1633
I00
S'\xae\xff9\xf7t\xd0C@0\xa9\x80\\\x19[\xf6?/\x9f\xf29\x9c%0\xc0'
p1667
tp1668
bsg1638
S'Cell[2].axon[464]'
p1669
sI141
I172
tp1670
a(F2.0515944304850695
S'Cell[2].apic[5] syn_ = new FastInhib(0.5)'
p1671
I2
(dp1672
g1623
F0.8333333333333333
sg1624
F45.0
sg1625
I93
sg1626
g7
(g8
(I0
tp1673
g10
tp1674
Rp1675
(I1
(I3
tp1676
g1633
I00
S'R\x01\xaf\x16yt@@a\xdda\xbb\x9f\xd54@\xc8\x1c;\xa3\xc7\x90\xf5\xbf'
p1677
tp1678
bsg1638
S'Cell[1].axon[67]'
p1679
sI93
I124
tp1680
a(F0.6521817792865326
S'Cell[0].dend[32] syn_ = new AmpaNmda(0.5)'
p1681
I0
(dp1682
S'seg'
p1683
F0.5
sS'hostfrom'
p1684
F46.0
sS'gid'
p1685
I94
sS'coords'
p1686
g7
(g8
(I0
tp1687
g10
tp1688
Rp1689
(I1
(I3
tp1690
g14
(S'f8'
p1691
I0
I1
tp1692
Rp1693
(I3
S'<'
p1694
NNNI-1
I-1
I0
tp1695
bI00
S'\xfd\xba\xeb@\xcd\x1bL@3\x7f7\x93n\xbbU@\xe7imd\xc4\xf8I\xc0'
p1696
tp1697
bsS'secnames'
p1698
S'Cell[1].axon[293]'
p1699
sI94
I28
tp1700
a(F1.6991319450967541
S'Cell[3].dend[10] syn_ = new FastInhib(0.833333333333)'
p1701
I3
(dp1702
S'seg'
p1703
F0.5
sS'hostfrom'
p1704
F47.0
sS'gid'
p1705
I95
sS'coords'
p1706
g7
(g8
(I0
tp1707
g10
tp1708
Rp1709
(I1
(I3
tp1710
g14
(S'f8'
p1711
I0
I1
tp1712
Rp1713
(I3
S'<'
p1714
NNNI-1
I-1
I0
tp1715
bI00
S'\x00\x00\x00\x08\xd7cC@\xff\xff\xff\xbf\x1e\x85\xfb\xbf\x00\x00\x00\x80=\n2\xc0'
p1716
tp1717
bsS'secnames'
p1718
S'Cell[1].soma[0]'
p1719
sI95
I172
tp1720
a(F1.6819201568144262
S'Cell[1].dend[28] syn_ = new ExpSid(0.1)'
p1721
I1
(dp1722
g1703
F0.16666666666666666
sg1704
F47.0
sg1705
I95
sg1706
g7
(g8
(I0
tp1723
g10
tp1724
Rp1725
(I1
(I3
tp1726
g1713
I00
S'mf\xe2ZU\xb9W@Z\x88x#jB8\xc0\xf9jk\x14.\xfdB\xc0'
p1727
tp1728
bsg1718
S'Cell[1].axon[108]'
p1729
sI95
I76
tp1730
a(F2.3783250349135185
S'Cell[1].dend[2] syn_ = new ExpSid(0.5)'
p1731
I1
(dp1732
g1703
F0.16666666666666666
sg1704
F47.0
sg1705
I95
sg1706
g7
(g8
(I0
tp1733
g10
tp1734
Rp1735
(I1
(I3
tp1736
g1713
I00
S"\xf2';*\x13\xdaK@D\x01\x00\x90B\xbf3\xc0\x00\x00\x00@\n\x17E\xc0"
p1737
tp1738
bsg1718
S'Cell[1].axon[212]'
p1739
sI95
I76
tp1740
a(F2.3263000170899604
S'Cell[0].apic[28] syn_ = new ExpSid(0.5)'
p1741
I0
(dp1742
g1703
F0.3571428571428571
sg1704
F47.0
sg1705
I143
sg1706
g7
(g8
(I0
tp1743
g10
tp1744
Rp1745
(I1
(I3
tp1746
g1713
I00
S'\x0e\xb0!\xfa\xa1\xe0>@@r\xab%\x85%a@\\)\xc7\x15i\xa9\x1a\xc0'
p1747
tp1748
bsg1718
S'Cell[2].axon[140]'
p1749
sI143
I28
tp1750
a.