(lp0
(F1.9273076305887369
S'Cell[1].apic[1] syn_ = new ExpSid(0.5)'
p1
I1
(dp2
S'seg'
p3
F0.5
sS'hostfrom'
p4
F1.0
sS'gid'
p5
I97
sS'coords'
p6
cnumpy.core.multiarray
_reconstruct
p7
(cnumpy
ndarray
p8
(I0
tp9
S'b'
p10
tp11
Rp12
(I1
(I3
tp13
cnumpy
dtype
p14
(S'f8'
p15
I0
I1
tp16
Rp17
(I3
S'<'
p18
NNNI-1
I-1
I0
tp19
bI00
S'\xd5\xa1e\xce\xfd?I@d\xbc\x14\x8c\x16\xcf!@\x00\x00\x00\x80\x14\xae\x01@'
p20
tp21
bsS'secnames'
p22
S'Cell[2].axon[70]'
p23
sI97
I62
tp24
a(F2.399409655076313
S'Cell[2].dend[20] syn_ = new FastInhib(0.5)'
p25
I2
(dp26
g3
F0.5
sg4
F1.0
sg5
I97
sg6
g7
(g8
(I0
tp27
g10
tp28
Rp29
(I1
(I3
tp30
g17
I00
S'F\xb1\x06\xebF\xd1\x1f\xc0\xe4`d\xb0\x99\xfaH@U\xa9V\xc5\xc9\x904\xc0'
p31
tp32
bsg22
S'Cell[2].axon[178]'
p33
sI97
I110
tp34
a(F1.4557770798896008
S'Cell[0].dend[34] syn_ = new AmpaNmda(0.5)'
p35
I0
(dp36
S'seg'
p37
F0.5
sS'hostfrom'
p38
F2.0
sS'gid'
p39
I98
sS'coords'
p40
g7
(g8
(I0
tp41
g10
tp42
Rp43
(I1
(I3
tp44
g14
(S'f8'
p45
I0
I1
tp46
Rp47
(I3
S'<'
p48
NNNI-1
I-1
I0
tp49
bI00
S"^\xe1\x9d\xb8\xd2 A@'C\x8b\xa0;\xcd=@Z\xd9\x0f\n\x1e\\ @"
p50
tp51
bsS'secnames'
p52
S'Cell[2].axon[8]'
p53
sI98
I14
tp54
a(F2.413268991950383
S'Cell[1].apic[166] syn_ = new AmpaNmda(0.5)'
p55
I1
(dp56
g37
F0.16666666666666666
sg38
F2.0
sg39
I98
sg40
g7
(g8
(I0
tp57
g10
tp58
Rp59
(I1
(I3
tp60
g47
I00
S'\xc89\x91\x04v\r=@Z\x90Xs\xc7PS@\x00\x00\x00\x80\x14.4\xc0'
p61
tp62
bsg52
S'Cell[2].axon[93]'
p63
sI98
I62
tp64
a(F0.9601325808347884
S'Cell[2].dend[30] syn_ = new FastInhib(0.0714285714286)'
p65
I2
(dp66
g37
F0.5
sg38
F2.0
sg39
I98
sg40
g7
(g8
(I0
tp67
g10
tp68
Rp69
(I1
(I3
tp70
g47
I00
S'\x00\x00\x00\x90\xebQ\x1f\xc0\x00\x00\x00P\xb8^Q@\x00\x00\x00\x10\x85\xab4\xc0'
p71
tp72
bsg52
S'Cell[2].axon[296]'
p73
sI98
I110
tp74
a(F1.1834157441495594
S'Cell[0].dend[9] syn_ = new AmpaNmda(0.833333333333)'
p75
I0
(dp76
g37
F0.5
sg38
F2.0
sg39
I146
sg40
g7
(g8
(I0
tp77
g10
tp78
Rp79
(I1
(I3
tp80
g47
I00
S'\x7f0)\xd0\x90[K\xc0\xca\x1b\xb5\xd0\xab@Y\xc0\x00\xdey\xcf\x96e5@'
p81
tp82
bsg52
S'Cell[3].axon[17]'
p83
sI146
I14
tp84
a(F1.5850376339516903
S'Cell[0].dend[28] syn_ = new AmpaNmda(0.5)'
p85
I0
(dp86
g37
F0.5
sg38
F2.0
sg39
I146
sg40
g7
(g8
(I0
tp87
g10
tp88
Rp89
(I1
(I3
tp90
g47
I00
S'!\x00\x9eD\xc2m;@6\xbb<\x89\xd7\x15T\xc0T\xb8)\xd0\xacE:@'
p91
tp92
bsg52
S'Cell[3].axon[81]'
p93
sI146
I14
tp94
a(F1.4557770798896008
S'Cell[0].dend[34] syn_ = new ExpSid(0.5)'
p95
I0
(dp96
S'seg'
p97
F0.5
sS'hostfrom'
p98
F3.0
sS'gid'
p99
I99
sS'coords'
p100
g7
(g8
(I0
tp101
g10
tp102
Rp103
(I1
(I3
tp104
g14
(S'f8'
p105
I0
I1
tp106
Rp107
(I3
S'<'
p108
NNNI-1
I-1
I0
tp109
bI00
S"^\xe1\x9d\xb8\xd2 A@'C\x8b\xa0;\xcd=@Z\xd9\x0f\n\x1e\\ @"
p110
tp111
bsS'secnames'
p112
S'Cell[2].axon[8]'
p113
sI99
I14
tp114
a(F2.413268991950383
S'Cell[1].apic[166] syn_ = new ExpSid(0.5)'
p115
I1
(dp116
g97
F0.16666666666666666
sg98
F3.0
sg99
I99
sg100
g7
(g8
(I0
tp117
g10
tp118
Rp119
(I1
(I3
tp120
g107
I00
S'\xc89\x91\x04v\r=@Z\x90Xs\xc7PS@\x00\x00\x00\x80\x14.4\xc0'
p121
tp122
bsg112
S'Cell[2].axon[93]'
p123
sI99
I62
tp124
a(F0.9601325808347884
S'Cell[2].dend[30] syn_ = new FastInhib(0.0714285714286)'
p125
I2
(dp126
g97
F0.5
sg98
F3.0
sg99
I99
sg100
g7
(g8
(I0
tp127
g10
tp128
Rp129
(I1
(I3
tp130
g107
I00
S'\x00\x00\x00\x90\xebQ\x1f\xc0\x00\x00\x00P\xb8^Q@\x00\x00\x00\x10\x85\xab4\xc0'
p131
tp132
bsg112
S'Cell[2].axon[296]'
p133
sI99
I110
tp134
a(F2.2061681339011856
S'Cell[0].dend[19] syn_ = new ExpSid(0.5)'
p135
I0
(dp136
g97
F0.49999999999999994
sg98
F3.0
sg99
I147
sg100
g7
(g8
(I0
tp137
g10
tp138
Rp139
(I1
(I3
tp140
g107
I00
S'\xb0\x1f\xa6\x91V\x986@\x10\x0c\xfc\x12\xb5:\xee\xbf\xda#&\xa7\xfb\x0e#@'
p141
tp142
bsg112
S'Cell[3].axon[136]'
p143
sI147
I14
tp144
a(F1.9206325320035882
S'Cell[1].dend[42] syn_ = new ExpSid(0.5)'
p145
I1
(dp146
S'seg'
p147
F0.5
sS'hostfrom'
p148
F7.0
sS'gid'
p149
I103
sS'coords'
p150
g7
(g8
(I0
tp151
g10
tp152
Rp153
(I1
(I3
tp154
g14
(S'f8'
p155
I0
I1
tp156
Rp157
(I3
S'<'
p158
NNNI-1
I-1
I0
tp159
bI00
S"\xa4o\x9e\xc0\xe9AT@\xc0*\xfd\xab\x92' \xc0\x00\x00\x00 \\\x8f\xfa\xbf"
p160
tp161
bsS'secnames'
p162
S'Cell[2].axon[356]'
p163
sI103
I62
tp164
a(F2.2526180022900135
S'Cell[1].dend[43] syn_ = new ExpSid(0.5)'
p165
I1
(dp166
g147
F0.5
sg148
F7.0
sg149
I103
sg150
g7
(g8
(I0
tp167
g10
tp168
Rp169
(I1
(I3
tp170
g157
I00
S'\'\xb6i\x9d\\\x8dS@\xe5\xa2q\xc6o&2\xc0\xd9I\x96"p\x8f\x04\xc0'
p171
tp172
bsg162
S'Cell[2].axon[358]'
p173
sI103
I62
tp174
a(F2.1119317575798453
S'Cell[0].dend[2] syn_ = new ExpSid(0.1)'
p175
I0
(dp176
g147
F0.8333333333333333
sg148
F7.0
sg149
I103
sg150
g7
(g8
(I0
tp177
g10
tp178
Rp179
(I1
(I3
tp180
g157
I00
S'\xfa\r=\xcbjt1\xc0\x0e\xed\xa4\x1a\xef\x011@\xb9\xaeN\xf8\xaa\xbe\x10@'
p181
tp182
bsg162
S'Cell[2].axon[402]'
p183
sI103
I14
tp184
a(F2.2269673883666243
S'Cell[0].apic[18] syn_ = new ExpSid(0.5)'
p185
I0
(dp186
g147
F0.5
sg148
F7.0
sg149
I151
sg150
g7
(g8
(I0
tp187
g10
tp188
Rp189
(I1
(I3
tp190
g157
I00
S'\xeb\x8e\x9d\x99&\x8d"@U\xc0 D\xbc\xdf`@R\x8ckV\x11\x053@'
p191
tp192
bsg162
S'Cell[3].axon[227]'
p193
sI151
I14
tp194
a(F0.6104331360711384
S'Cell[1].apic[163] syn_ = new AmpaNmda(0.1)'
p195
I1
(dp196
S'seg'
p197
F0.16666666666666666
sS'hostfrom'
p198
F8.0
sS'gid'
p199
I152
sS'coords'
p200
g7
(g8
(I0
tp201
g10
tp202
Rp203
(I1
(I3
tp204
g14
(S'f8'
p205
I0
I1
tp206
Rp207
(I3
S'<'
p208
NNNI-1
I-1
I0
tp209
bI00
S"\xd6)\xcd{\xc4\xd8D@g!\x05K!\x93S@\xd9&N\xd1\xba'6@"
p210
tp211
bsS'secnames'
p212
S'Cell[3].axon[410]'
p213
sI152
I62
tp214
a(F1.6325970525403326
S'Cell[1].apic[147] syn_ = new AmpaNmda(0.833333333333)'
p215
I1
(dp216
g197
F0.5
sg198
F8.0
sg199
I152
sg200
g7
(g8
(I0
tp217
g10
tp218
Rp219
(I1
(I3
tp220
g207
I00
S'\x00\x00\x00\xb0\x1e\x15Z@\x00\x00\x00@\n\x17a@\x00\x00\x00\x80\x8f\xc2\xc5?'
p221
tp222
bsg212
S'Cell[3].axon[473]'
p223
sI152
I62
tp224
a(F1.6834868377048091
S'Cell[3].apic[21] syn_ = new FastInhib(0.1)'
p225
I3
(dp226
g197
F0.21428571428571427
sg198
F8.0
sg199
I104
sg200
g7
(g8
(I0
tp227
g10
tp228
Rp229
(I1
(I3
tp230
g207
I00
S'\xea\xc2Z=B\x1a`@\xea\xe6\x99\xf4\x0b\xc4@\xc0\xb1cr\x92:T4@'
p231
tp232
bsg212
S'Cell[2].axon[103]'
p233
sI104
I158
tp234
a(F1.8854252781334981
S'Cell[2].dend[1] syn_ = new FastInhib(0.7)'
p235
I2
(dp236
S'seg'
p237
F0.5
sS'hostfrom'
p238
F9.0
sS'gid'
p239
I105
sS'coords'
p240
g7
(g8
(I0
tp241
g10
tp242
Rp243
(I1
(I3
tp244
g14
(S'f8'
p245
I0
I1
tp246
Rp247
(I3
S'<'
p248
NNNI-1
I-1
I0
tp249
bI00
S"*76\xf9_\xc2F\xc0\x11`b\x05}'N\xc0\xdf\xfb&\x15N\x9f+@"
p250
tp251
bsS'secnames'
p252
S'Cell[2].axon[248]'
p253
sI105
I110
tp254
a(F2.4266577245976904
S'Cell[0].dend[0] syn_ = new AmpaNmda(0.5)'
p255
I0
(dp256
S'seg'
p257
F0.5
sS'hostfrom'
p258
F10.0
sS'gid'
p259
I10
sS'coords'
p260
g7
(g8
(I0
tp261
g10
tp262
Rp263
(I1
(I3
tp264
g14
(S'f8'
p265
I0
I1
tp266
Rp267
(I3
S'<'
p268
NNNI-1
I-1
I0
tp269
bI00
S'8?\x1f \x07R\x02\xc0m\xb9R(\xc8\x146@\x13s\xf3\x8f\x12u#@'
p270
tp271
bsS'secnames'
p272
S'Cell[0].axon[4]'
p273
sI10
I14
tp274
a(F2.4640001495315134
S'Cell[1].dend[26] syn_ = new AmpaNmda(0.833333333333)'
p275
I1
(dp276
g257
F0.5
sg258
F10.0
sg259
I58
sg260
g7
(g8
(I0
tp277
g10
tp278
Rp279
(I1
(I3
tp280
g267
I00
S'\x00c-\xce\x9d\xc0,@ZG\xce~\xb2\xccZ\xc0]h\x90\xc9\xeepA@'
p281
tp282
bsg272
S'Cell[1].axon[16]'
p283
sI58
I62
tp284
a(F2.363109269587884
S'Cell[2].dend[6] syn_ = new FastInhib(0.833333333333)'
p285
I2
(dp286
g257
F0.6428571428571428
sg258
F10.0
sg259
I58
sg260
g7
(g8
(I0
tp287
g10
tp288
Rp289
(I1
(I3
tp290
g267
I00
S'9\x87kZ\xc9d\t@`\xe9\x9e\x8b\xe3+l\xc0\xd2_\xdb\x16$\x89&@'
p291
tp292
bsg272
S'Cell[1].axon[19]'
p293
sI58
I110
tp294
a(F2.2425730045235333
S'Cell[0].dend[33] syn_ = new ExpSid(0.944444444444)'
p295
I0
(dp296
S'seg'
p297
F0.5
sS'hostfrom'
p298
F11.0
sS'gid'
p299
I107
sS'coords'
p300
g7
(g8
(I0
tp301
g10
tp302
Rp303
(I1
(I3
tp304
g14
(S'f8'
p305
I0
I1
tp306
Rp307
(I3
S'<'
p308
NNNI-1
I-1
I0
tp309
bI00
S'J\x86j5+\x8ek@\x8854&\xce\xc69\xc0X|\xb1q\xbcz.@'
p310
tp311
bsS'secnames'
p312
S'Cell[2].axon[110]'
p313
sI107
I14
tp314
a(F0.7604762385624189
S'Cell[1].apic[167] syn_ = new ExpSid(0.9)'
p315
I1
(dp316
g297
F0.5
sg298
F11.0
sg299
I155
sg300
g7
(g8
(I0
tp317
g10
tp318
Rp319
(I1
(I3
tp320
g307
I00
S'}\xf1\x94KqB>\xc0\xe0\xffV\x07b\xa1Q\xc0\x08S.=\x88\t%\xc0'
p321
tp322
bsg312
S'Cell[3].axon[221]'
p323
sI155
I62
tp324
a(F1.6364711310006732
S'Cell[2].dend[4] syn_ = new FastInhib(0.357142857143)'
p325
I2
(dp326
S'seg'
p327
F0.7
sS'hostfrom'
p328
F12.0
sS'gid'
p329
I156
sS'coords'
p330
g7
(g8
(I0
tp331
g10
tp332
Rp333
(I1
(I3
tp334
g14
(S'f8'
p335
I0
I1
tp336
Rp337
(I3
S'<'
p338
NNNI-1
I-1
I0
tp339
bI00
S'\x90\x13 \xccV\xe3\xf7?\x93\xb6\xcaG\xf6fW\xc0"\xb3\x15\xcc\x06\x07\x01\xc0'
p340
tp341
bsS'secnames'
p342
S'Cell[3].axon[10]'
p343
sI156
I110
tp344
a(F2.4844017028495404
S'Cell[0].apic[10] syn_ = new ExpSid(0.5)'
p345
I0
(dp346
S'seg'
p347
F0.1
sS'hostfrom'
p348
F13.0
sS'gid'
p349
I109
sS'coords'
p350
g7
(g8
(I0
tp351
g10
tp352
Rp353
(I1
(I3
tp354
g14
(S'f8'
p355
I0
I1
tp356
Rp357
(I3
S'<'
p358
NNNI-1
I-1
I0
tp359
bI00
S"\x073\x94\xff\xa4^%@\xec\xe3\xde;\xcdUS@\xa7\xd0'\xb8\x08}(@"
p360
tp361
bsS'secnames'
p362
S'Cell[2].axon[4]'
p363
sI109
I14
tp364
a(F1.9510318791110022
S'Cell[1].dend[3] syn_ = new ExpSid(0.5)'
p365
I1
(dp366
g347
F0.8333333333333333
sg348
F13.0
sg349
I109
sg350
g7
(g8
(I0
tp367
g10
tp368
Rp369
(I1
(I3
tp370
g357
I00
S'*) q\x1cy9@\x97\xe2ld\x1d27\xc0\x13\xd7A,\x16\xf5=@'
p371
tp372
bsg362
S'Cell[2].axon[98]'
p373
sI109
I62
tp374
a(F1.7500572495246667
S'Cell[1].apic[167] syn_ = new AmpaNmda(0.3)'
p375
I1
(dp376
S'seg'
p377
F0.5
sS'hostfrom'
p378
F14.0
sS'gid'
p379
I110
sS'coords'
p380
g7
(g8
(I0
tp381
g10
tp382
Rp383
(I1
(I3
tp384
g14
(S'f8'
p385
I0
I1
tp386
Rp387
(I3
S'<'
p388
NNNI-1
I-1
I0
tp389
bI00
S'\x03\xdd\xf0\xf7\xb5+7@\xcf\x1b:x:\xa9%\xc0\xb3\xce\x80\x9d(7$\xc0'
p390
tp391
bsS'secnames'
p392
S'Cell[2].axon[8]'
p393
sI110
I62
tp394
a(F1.9433620611644624
S'Cell[1].dend[49] syn_ = new AmpaNmda(0.166666666667)'
p395
I1
(dp396
g377
F0.8333333333333333
sg378
F14.0
sg379
I110
sg380
g7
(g8
(I0
tp397
g10
tp398
Rp399
(I1
(I3
tp400
g387
I00
S'\x11,\xcdo6FY@\x15\xef\xb9B\x0eyB\xc0\x00\x00\x00\x00\xd7\xa38@'
p401
tp402
bsg392
S'Cell[2].axon[101]'
p403
sI110
I62
tp404
a(F2.029538878884597
S'Cell[2].dend[21] syn_ = new FastInhib(0.9)'
p405
I2
(dp406
S'seg'
p407
F0.5
sS'hostfrom'
p408
F15.0
sS'gid'
p409
I111
sS'coords'
p410
g7
(g8
(I0
tp411
g10
tp412
Rp413
(I1
(I3
tp414
g14
(S'f8'
p415
I0
I1
tp416
Rp417
(I3
S'<'
p418
NNNI-1
I-1
I0
tp419
bI00
S'\x08\xd8A\xc9\xae\x16H@H\xceO\xcc\xdcfD@\xd8\xf5\xf5x\xccMJ\xc0'
p420
tp421
bsS'secnames'
p422
S'Cell[2].axon[225]'
p423
sI111
I110
tp424
a(F2.311337504219226
S'Cell[3].dend[15] syn_ = new FastInhib(0.833333333333)'
p425
I3
(dp426
g407
F0.05555555555555555
sg408
F15.0
sg409
I111
sg410
g7
(g8
(I0
tp427
g10
tp428
Rp429
(I1
(I3
tp430
g417
I00
S'\x80\x1d\xce\x8b\xb2/V@\xacx+\xfb\x03\xacT@\x96\x7fM\xa60\xe75\xc0'
p431
tp432
bsg422
S'Cell[2].axon[340]'
p433
sI111
I158
tp434
a(F1.761417929734118
S'Cell[1].apic[168] syn_ = new ExpSid(0.5)'
p435
I1
(dp436
g407
F0.5
sg408
F15.0
sg409
I63
sg410
g7
(g8
(I0
tp437
g10
tp438
Rp439
(I1
(I3
tp440
g417
I00
S'L:\xd8\xe0@)F\xc000\xb9\xf4>(R\xc0\xf1\x96\x0e\x1c\xac^%\xc0'
p441
tp442
bsg422
S'Cell[1].axon[42]'
p443
sI63
I62
tp444
a(F1.7687565712210034
S'Cell[1].apic[163] syn_ = new AmpaNmda(0.1)'
p445
I1
(dp446
S'seg'
p447
F0.5
sS'hostfrom'
p448
F16.0
sS'gid'
p449
I112
sS'coords'
p450
g7
(g8
(I0
tp451
g10
tp452
Rp453
(I1
(I3
tp454
g14
(S'f8'
p455
I0
I1
tp456
Rp457
(I3
S'<'
p458
NNNI-1
I-1
I0
tp459
bI00
S'+LL\xb5\xf0\xf3C@!b\xad[x\x8fS@K\xb42\x8fg\xe55@'
p460
tp461
bsS'secnames'
p462
S'Cell[2].axon[107]'
p463
sI112
I62
tp464
a(F1.8691400736263657
S'Cell[3].apic[3] syn_ = new FastInhib(0.166666666667)'
p465
I3
(dp466
g447
F0.07142857142857142
sg448
F16.0
sg449
I112
sg450
g7
(g8
(I0
tp467
g10
tp468
Rp469
(I1
(I3
tp470
g457
I00
S'\xf84\xe5\xf8t\xd6]@\xb6\xf0T\x929\n=\xc0\x00\x00\x00\xa0Ga-\xc0'
p471
tp472
bsg462
S'Cell[2].axon[126]'
p473
sI112
I158
tp474
a(F2.4346538941882345
S'Cell[0].dend[2] syn_ = new ExpSid(0.7)'
p475
I0
(dp476
S'seg'
p477
F0.16666666666666666
sS'hostfrom'
p478
F17.0
sS'gid'
p479
I17
sS'coords'
p480
g7
(g8
(I0
tp481
g10
tp482
Rp483
(I1
(I3
tp484
g14
(S'f8'
p485
I0
I1
tp486
Rp487
(I3
S'<'
p488
NNNI-1
I-1
I0
tp489
bI00
S'\xf4\xfd+\xc0H\xe9U\xc0\xbeh\xd1^\xa5\xc4*@\xb5^\xfe\xe3\xed\xdb\x1d@'
p490
tp491
bsS'secnames'
p492
S'Cell[0].axon[12]'
p493
sI17
I14
tp494
a(F2.2705725762311593
S'Cell[1].apic[167] syn_ = new ExpSid(0.5)'
p495
I1
(dp496
g477
F0.5
sg478
F17.0
sg479
I113
sg480
g7
(g8
(I0
tp497
g10
tp498
Rp499
(I1
(I3
tp500
g487
I00
S'\x00\x00\x00\xc0\xccL\x1e@\x00\x00\x00\xc0G!?\xc0\x00\x00\x00\xf0Q\xb8\x1d\xc0'
p501
tp502
bsg492
S'Cell[2].axon[495]'
p503
sI113
I62
tp504
a(F2.0002387585067662
S'Cell[0].apic[7] syn_ = new ExpSid(0.166666666667)'
p505
I0
(dp506
g477
F0.5
sg478
F17.0
sg479
I161
sg480
g7
(g8
(I0
tp507
g10
tp508
Rp509
(I1
(I3
tp510
g487
I00
S'\x00\x00\x00@\n\xd7\x1d@\x00\x00\x00\xc0\xf5\x08P@\x00\x00x\x14\xae\x07"@'
p511
tp512
bsg492
S'Cell[3].axon[1]'
p513
sI161
I14
tp514
a(F2.4845862078122805
S'Cell[2].dend[20] syn_ = new FastInhib(0.5)'
p515
I2
(dp516
g477
F0.5
sg478
F17.0
sg479
I161
sg480
g7
(g8
(I0
tp517
g10
tp518
Rp519
(I1
(I3
tp520
g487
I00
S'?:`kR\xf0$\xc0\xbe\x080\x14c\xebG@\xb1\xa2r\xa4B\x927\xc0'
p521
tp522
bsg492
S'Cell[3].axon[49]'
p523
sI161
I110
tp524
a(F1.3936894159136555
S'Cell[1].dend[5] syn_ = new AmpaNmda(0.5)'
p525
I1
(dp526
S'seg'
p527
F0.30000000000000004
sS'hostfrom'
p528
F20.0
sS'gid'
p529
I164
sS'coords'
p530
g7
(g8
(I0
tp531
g10
tp532
Rp533
(I1
(I3
tp534
g14
(S'f8'
p535
I0
I1
tp536
Rp537
(I3
S'<'
p538
NNNI-1
I-1
I0
tp539
bI00
S'\x14\x8be\xd0\xff)6@{\x0c \xef\xbf\xfd3\xc0\xa6OK]\xc6\x9f5@'
p540
tp541
bsS'secnames'
p542
S'Cell[3].axon[0]'
p543
sI164
I62
tp544
a(F2.34289989127072
S'Cell[1].dend[42] syn_ = new ExpSid(0.5)'
p545
I1
(dp546
S'seg'
p547
F0.5
sS'hostfrom'
p548
F21.0
sS'gid'
p549
I117
sS'coords'
p550
g7
(g8
(I0
tp551
g10
tp552
Rp553
(I1
(I3
tp554
g14
(S'f8'
p555
I0
I1
tp556
Rp557
(I3
S'<'
p558
NNNI-1
I-1
I0
tp559
bI00
S'\xbe \x8b&oMT@\xae#\xc3\xe6\xd0\x17\x18\xc0\xa5\x81\xb8\x88\xe0\xbc\x13\xc0'
p560
tp561
bsS'secnames'
p562
S'Cell[2].axon[27]'
p563
sI117
I62
tp564
a(F2.199287915944673
S'Cell[1].apic[166] syn_ = new ExpSid(0.833333333333)'
p565
I1
(dp566
g547
F0.5
sg548
F21.0
sg549
I117
sg550
g7
(g8
(I0
tp567
g10
tp568
Rp569
(I1
(I3
tp570
g557
I00
S'\x00\x00\x00\x80\xc2U5@\x00\x00\x00pfvU@\x00\x00\x00\x80\xc2u9\xc0'
p571
tp572
bsg562
S'Cell[2].axon[281]'
p573
sI117
I62
tp574
a(F1.3136101593169975
S'Cell[1].apic[137] syn_ = new ExpSid(0.9)'
p575
I1
(dp576
g547
F0.8999999999999999
sg548
F21.0
sg549
I117
sg550
g7
(g8
(I0
tp577
g10
tp578
Rp579
(I1
(I3
tp580
g557
I00
S'k\xea0\x12\x1c}b@1b+\x880\x94e@\x00\x00\x00\x80\xc2u9\xc0'
p581
tp582
bsg562
S'Cell[2].axon[475]'
p583
sI117
I62
tp584
a(F1.5607186310909833
S'Cell[1].dend[0] syn_ = new ExpSid(0.5)'
p585
I1
(dp586
g547
F0.9285714285714284
sg548
F21.0
sg549
I21
sg550
g7
(g8
(I0
tp587
g10
tp588
Rp589
(I1
(I3
tp590
g557
I00
S'\xf3\xacH\xdew%C@\x8aOo\x0e\x9f\xc66\xc0\xae\x0ft\xd0\xbb\xce7@'
p591
tp592
bsg562
S'Cell[0].axon[29]'
p593
sI21
I62
tp594
a(F1.8304505730806506
S'Cell[0].dend[29] syn_ = new ExpSid(0.1)'
p595
I0
g586
I21
I14
tp596
a(F2.4648491239563226
S'Cell[1].apic[1] syn_ = new AmpaNmda(0.5)'
p597
I1
(dp598
S'seg'
p599
F0.5
sS'hostfrom'
p600
F22.0
sS'gid'
p601
I166
sS'coords'
p602
g7
(g8
(I0
tp603
g10
tp604
Rp605
(I1
(I3
tp606
g14
(S'f8'
p607
I0
I1
tp608
Rp609
(I3
S'<'
p610
NNNI-1
I-1
I0
tp611
bI00
S'z\xcb2<\x88\xbdH@\xa1S\r\x89q\xbe&@ \x98\xb1\x8dd\x0e\xf7?'
p612
tp613
bsS'secnames'
p614
S'Cell[3].axon[293]'
p615
sI166
I62
tp616
a(F2.499786335896484
S'Cell[0].dend[33] syn_ = new AmpaNmda(0.277777777778)'
p617
I0
(dp618
g599
F0.8333333333333333
sg600
F22.0
sg601
I166
sg602
g7
(g8
(I0
tp619
g10
tp620
Rp621
(I1
(I3
tp622
g609
I00
S'\xfe+\xa5\xd0\xf8GW@\xc2\x88\x18?\x81a\x1e\xc0Uj\xb2\xb9\xad\x88+@'
p623
tp624
bsg614
S'Cell[3].axon[320]'
p625
sI166
I14
tp626
a(F0.9390883071090209
S'Cell[2].dend[0] syn_ = new FastInhib(0.833333333333)'
p627
I2
(dp628
S'seg'
p629
F0.8333333333333333
sS'hostfrom'
p630
F23.0
sS'gid'
p631
I167
sS'coords'
p632
g7
(g8
(I0
tp633
g10
tp634
Rp635
(I1
(I3
tp636
g14
(S'f8'
p637
I0
I1
tp638
Rp639
(I3
S'<'
p640
NNNI-1
I-1
I0
tp641
bI00
S'gu{\x97\xffr?\xc0\x17G\r\x90\xb8\x99H\xc0\\f\x19;\x02sC\xc0'
p642
tp643
bsS'secnames'
p644
S'Cell[3].axon[28]'
p645
sI167
I110
tp646
a(F1.2158458282977413
S'Cell[1].apic[167] syn_ = new ExpSid(0.9)'
p647
I1
(dp648
g629
F0.038461538461538464
sg630
F23.0
sg631
I167
sg632
g7
(g8
(I0
tp649
g10
tp650
Rp651
(I1
(I3
tp652
g639
I00
S'\xd66\x06\xfd\xfb*=\xc0\x85\xec\x9b\xd6\x9b\xd5Q\xc0\x9dy\xfbU\xa5\xa5"\xc0'
p653
tp654
bsg644
S'Cell[3].axon[159]'
p655
sI167
I62
tp656
a(F2.1932434564522074
S'Cell[1].apic[130] syn_ = new ExpSid(0.5)'
p657
I1
(dp658
g629
F0.07142857142857142
sg630
F23.0
sg631
I23
sg632
g7
(g8
(I0
tp659
g10
tp660
Rp661
(I1
(I3
tp662
g639
I00
S'\x86i9\x91L\xa9C@\x96\xc5\xe1\xc9\xf7\xf4k@\x12\xe7\xf9l\xa8\t\x15@'
p663
tp664
bsg644
S'Cell[0].axon[11]'
p665
sI23
I62
tp666
a(F2.473340801454185
S'Cell[1].apic[0] syn_ = new AmpaNmda(0.5)'
p667
I1
(dp668
S'seg'
p669
F0.5
sS'hostfrom'
p670
F24.0
sS'gid'
p671
I72
sS'coords'
p672
g7
(g8
(I0
tp673
g10
tp674
Rp675
(I1
(I3
tp676
g14
(S'f8'
p677
I0
I1
tp678
Rp679
(I3
S'<'
p680
NNNI-1
I-1
I0
tp681
bI00
S'\x00\x00\x00\x80\xeb\xf1H@\x00\x00\x00\x80\xb8\x1e\xdd?\x00\x00\x00(\x85\xeb\xfb?'
p682
tp683
bsS'secnames'
p684
S'Cell[1].soma[3]'
p685
sI72
I62
tp686
a(F2.0033389564114508
S'Cell[3].apic[21] syn_ = new FastInhib(0.1)'
p687
I3
(dp688
g669
F0.5
sg670
F24.0
sg671
I120
sg672
g7
(g8
(I0
tp689
g10
tp690
Rp691
(I1
(I3
tp692
g679
I00
S'\x0e2\xad\t7)`@\xe0\xeea\x9fV\xe8?\xc0\xaa\x02\xb2\xf9\xa8w2@'
p693
tp694
bsg684
S'Cell[2].axon[28]'
p695
sI120
I158
tp696
a(F2.049860699735904
S'Cell[0].dend[9] syn_ = new ExpSid(0.5)'
p697
I0
(dp698
S'seg'
p699
F0.5
sS'hostfrom'
p700
F25.0
sS'gid'
p701
I121
sS'coords'
p702
g7
(g8
(I0
tp703
g10
tp704
Rp705
(I1
(I3
tp706
g14
(S'f8'
p707
I0
I1
tp708
Rp709
(I3
S'<'
p710
NNNI-1
I-1
I0
tp711
bI00
S'\x815\xc3\xf6\x07\xa7H\xc0H\x88\xc8\x8d\x05\x8aU\xc0\xd7\xe3\x1f(\x1a\xea4@'
p712
tp713
bsS'secnames'
p714
S'Cell[2].axon[225]'
p715
sI121
I14
tp716
a(F2.1349029515413265
S'Cell[1].dend[4] syn_ = new ExpSid(0.5)'
p717
I1
(dp718
g699
F0.16666666666666666
sg700
F25.0
sg701
I73
sg702
g7
(g8
(I0
tp719
g10
tp720
Rp721
(I1
(I3
tp722
g709
I00
S'\xfc\x88\xc4\x0b\x17\xec#@\x82q\x05\xdaX\xed2\xc0x\x94\x8d\x95\n#<@'
p723
tp724
bsg714
S'Cell[1].axon[8]'
p725
sI73
I62
tp726
a(F1.173918961780983
S'Cell[2].dend[1] syn_ = new FastInhib(0.3)'
p727
I2
(dp728
S'seg'
p729
F0.8333333333333333
sS'hostfrom'
p730
F26.0
sS'gid'
p731
I74
sS'coords'
p732
g7
(g8
(I0
tp733
g10
tp734
Rp735
(I1
(I3
tp736
g14
(S'f8'
p737
I0
I1
tp738
Rp739
(I3
S'<'
p740
NNNI-1
I-1
I0
tp741
bI00
S"\xe5\x84\n\xa4h\xfb=\xc0I\xd1'\x19]\x83@\xc0\x88\x02\xc0\xeeN\x9d#@"
p742
tp743
bsS'secnames'
p744
S'Cell[1].axon[0]'
p745
sI74
I110
tp746
a(F1.2274648045978878
S'Cell[0].dend[5] syn_ = new AmpaNmda(0.7)'
p747
I0
(dp748
g729
F0.5
sg730
F26.0
sg731
I170
sg732
g7
(g8
(I0
tp749
g10
tp750
Rp751
(I1
(I3
tp752
g739
I00
S'\x00\x00\x00\xd0\xcc\xa4P\xc0\x00\x00\x00\x90\x14\xeeO@\x00\x00\x00\xe0\xa305@'
p753
tp754
bsg744
S'Cell[3].axon[265]'
p755
sI170
I14
tp756
a(F1.8754736199195232
S'Cell[0].dend[33] syn_ = new ExpSid(0.166666666667)'
p757
I0
(dp758
S'seg'
p759
F0.16666666666666666
sS'hostfrom'
p760
F27.0
sS'gid'
p761
I75
sS'coords'
p762
g7
(g8
(I0
tp763
g10
tp764
Rp765
(I1
(I3
tp766
g14
(S'f8'
p767
I0
I1
tp768
Rp769
(I3
S'<'
p770
NNNI-1
I-1
I0
tp771
bI00
S'\x9418\xb8\n\xf8Q@i\xe1\xae\x8c\x0c5\xc9?\x03\x0ey:\x08\xec$@'
p772
tp773
bsS'secnames'
p774
S'Cell[1].axon[5]'
p775
sI75
I14
tp776
a(F2.1103593699574748
S'Cell[0].apic[14] syn_ = new ExpSid(0.833333333333)'
p777
I0
(dp778
g759
F0.5
sg760
F27.0
sg761
I171
sg762
g7
(g8
(I0
tp779
g10
tp780
Rp781
(I1
(I3
tp782
g769
I00
S'N*29qB6\xc0\x83\xfdD\xe7[zY@o+\xfa\xef\x06Y1@'
p783
tp784
bsg774
S'Cell[3].axon[83]'
p785
sI171
I14
tp786
a(F2.428273234303005
S'Cell[1].dend[41] syn_ = new AmpaNmda(0.5)'
p787
I1
(dp788
S'seg'
p789
F0.5
sS'hostfrom'
p790
F28.0
sS'gid'
p791
I76
sS'coords'
p792
g7
(g8
(I0
tp793
g10
tp794
Rp795
(I1
(I3
tp796
g14
(S'f8'
p797
I0
I1
tp798
Rp799
(I3
S'<'
p800
NNNI-1
I-1
I0
tp801
bI00
S'm\x96}\xe6\xa0\xecQ@E|s\x9a.Q9\xc0\x0en\x19\xed\x848\x13@'
p802
tp803
bsS'secnames'
p804
S'Cell[1].axon[20]'
p805
sI76
I62
tp806
a(F1.5339132931892845
S'Cell[2].dend[14] syn_ = new FastInhib(0.5)'
p807
I2
(dp808
S'seg'
p809
F0.8333333333333333
sS'hostfrom'
p810
F30.0
sS'gid'
p811
I126
sS'coords'
p812
g7
(g8
(I0
tp813
g10
tp814
Rp815
(I1
(I3
tp816
g14
(S'f8'
p817
I0
I1
tp818
Rp819
(I3
S'<'
p820
NNNI-1
I-1
I0
tp821
bI00
S"\xb3\x8d\xd0\xc8<\xbf#\xc0\xe0\xd4\x90&\x8b'@@S\xf0\x0f\xfcOs$\xc0"
p822
tp823
bsS'secnames'
p824
S'Cell[2].axon[49]'
p825
sI126
I110
tp826
a(F1.778972167571252
S'Cell[1].apic[168] syn_ = new AmpaNmda(0.5)'
p827
I1
(dp828
g809
F0.8333333333333333
sg810
F30.0
sg811
I174
sg812
g7
(g8
(I0
tp829
g10
tp830
Rp831
(I1
(I3
tp832
g819
I00
S'\x86\xb3kb\xc2qF\xc0\xc1\xfe\xd0\xf1G\x1eR\xc0\x00\x00\x00`\xb8\x1e&\xc0'
p833
tp834
bsg824
S'Cell[3].axon[0]'
p835
sI174
I62
tp836
a(F2.1355433791226384
S'Cell[2].dend[3] syn_ = new FastInhib(0.5)'
p837
I2
(dp838
S'seg'
p839
F0.5
sS'hostfrom'
p840
F32.0
sS'gid'
p841
I176
sS'coords'
p842
g7
(g8
(I0
tp843
g10
tp844
Rp845
(I1
(I3
tp846
g14
(S'f8'
p847
I0
I1
tp848
Rp849
(I3
S'<'
p850
NNNI-1
I-1
I0
tp851
bI00
S'8\xc7\x10c\xe5K \xc0"aX\xa8\xe5\xe78\xc0\xcd\x91\xee0\xd3]\x15@'
p852
tp853
bsS'secnames'
p854
S'Cell[3].axon[12]'
p855
sI176
I110
tp856
a(F1.499941330501642
S'Cell[3].apic[11] syn_ = new FastInhib(0.5)'
p857
I3
(dp858
S'seg'
p859
F0.3571428571428571
sS'hostfrom'
p860
F33.0
sS'gid'
p861
I81
sS'coords'
p862
g7
(g8
(I0
tp863
g10
tp864
Rp865
(I1
(I3
tp866
g14
(S'f8'
p867
I0
I1
tp868
Rp869
(I3
S'<'
p870
NNNI-1
I-1
I0
tp871
bI00
S',|t\x1f\xbd\x8b?@\x16\xb8\x9b\x93\x16\xb9\\\xc0\x00\x00\x00\x00\xd7\xa30\xc0'
p872
tp873
bsS'secnames'
p874
S'Cell[1].axon[4]'
p875
sI81
I158
tp876
a(F2.1872084881653397
S'Cell[0].dend[2] syn_ = new AmpaNmda(0.5)'
p877
I0
(dp878
S'seg'
p879
F0.30000000000000004
sS'hostfrom'
p880
F34.0
sS'gid'
p881
I130
sS'coords'
p882
g7
(g8
(I0
tp883
g10
tp884
Rp885
(I1
(I3
tp886
g14
(S'f8'
p887
I0
I1
tp888
Rp889
(I3
S'<'
p890
NNNI-1
I-1
I0
tp891
bI00
S'\x95\x9f\x8bg\x19wP\xc0i\xab\t\x9bbQ3@m\xb3\xeb\xc6"\xe1#@'
p892
tp893
bsS'secnames'
p894
S'Cell[2].axon[44]'
p895
sI130
I14
tp896
a(F1.8509807083862475
S'Cell[1].dend[13] syn_ = new ExpSid(0.5)'
p897
I1
(dp898
S'seg'
p899
F0.16666666666666666
sS'hostfrom'
p900
F35.0
sS'gid'
p901
I83
sS'coords'
p902
g7
(g8
(I0
tp903
g10
tp904
Rp905
(I1
(I3
tp906
g14
(S'f8'
p907
I0
I1
tp908
Rp909
(I3
S'<'
p910
NNNI-1
I-1
I0
tp911
bI00
S'_\x1b Uy$O@\xf2!\xa8w\x9b\xdd2\xc0\x7f\x0e@\xb2\x1f\xef8@'
p912
tp913
bsS'secnames'
p914
S'Cell[1].axon[155]'
p915
sI83
I62
tp916
a(F1.6898133974091614
S'Cell[2].dend[17] syn_ = new FastInhib(0.3)'
p917
I2
(dp918
S'seg'
p919
F0.8333333333333333
sS'hostfrom'
p920
F36.0
sS'gid'
p921
I84
sS'coords'
p922
g7
(g8
(I0
tp923
g10
tp924
Rp925
(I1
(I3
tp926
g14
(S'f8'
p927
I0
I1
tp928
Rp929
(I3
S'<'
p930
NNNI-1
I-1
I0
tp931
bI00
S'\x19\xbb\xb1*\x06~\x1c\xc0#\x8c\x99<\xcb\xeaS@\xe9V\xbci\x1c`#\xc0'
p932
tp933
bsS'secnames'
p934
S'Cell[1].axon[477]'
p935
sI84
I110
tp936
a(F2.3013321199959065
S'Cell[0].apic[5] syn_ = new AmpaNmda(0.5)'
p937
I0
(dp938
g919
F0.5
sg920
F36.0
sg921
I132
sg922
g7
(g8
(I0
tp939
g10
tp940
Rp941
(I1
(I3
tp942
g929
I00
S'\xb0\xe6&\xc4\xcf++@\x837\xf8\x08X\xf7M@\x06\x02\nKfg\x15@'
p943
tp944
bsg934
S'Cell[2].axon[32]'
p945
sI132
I14
tp946
a(F1.2667171136260318
S'Cell[0].dend[21] syn_ = new AmpaNmda(0.166666666667)'
p947
I0
(dp948
g919
F0.5
sg920
F36.0
sg921
I180
sg922
g7
(g8
(I0
tp949
g10
tp950
Rp951
(I1
(I3
tp952
g929
I00
S'L\xea\t\xf9u\xe71@\xf1sq\xecIt6\xc0\x00\x00\x00\x80\xc254@'
p953
tp954
bsg934
S'Cell[3].axon[130]'
p955
sI180
I14
tp956
a(F2.2250832812897614
S'Cell[2].dend[14] syn_ = new FastInhib(0.5)'
p957
I2
(dp958
S'seg'
p959
F0.8999999999999999
sS'hostfrom'
p960
F37.0
sS'gid'
p961
I133
sS'coords'
p962
g7
(g8
(I0
tp963
g10
tp964
Rp965
(I1
(I3
tp966
g14
(S'f8'
p967
I0
I1
tp968
Rp969
(I3
S'<'
p970
NNNI-1
I-1
I0
tp971
bI00
S'\xa4\x80z\xf6\x10\\"\xc0\xc2\x98\xa7\x86\xd9(A@\x9bm;5\xe3+\x1d\xc0'
p972
tp973
bsS'secnames'
p974
S'Cell[2].axon[105]'
p975
sI133
I110
tp976
a(F2.414074497748931
S'Cell[0].apic[28] syn_ = new ExpSid(0.5)'
p977
I0
(dp978
g959
F0.5
sg960
F37.0
sg961
I181
sg962
g7
(g8
(I0
tp979
g10
tp980
Rp981
(I1
(I3
tp982
g969
I00
S'\xf2\x12\x1d5Q\x9a&@\x0f\x10\x87\x0e`\\i@24\x15\x9b"^7@'
p983
tp984
bsg974
S'Cell[3].axon[119]'
p985
sI181
I14
tp986
a(F1.1228277692762787
S'Cell[0].apic[16] syn_ = new ExpSid(0.5)'
p987
I0
(dp988
g959
F0.16666666666666666
sg960
F37.0
sg961
I85
sg962
g7
(g8
(I0
tp989
g10
tp990
Rp991
(I1
(I3
tp992
g969
I00
S"\xd7C%:\x96\x1c'@\xdcV\xa1GL\xee[@o\xe5\x8f\xf9\xb8\x841@"
p993
tp994
bsg974
S'Cell[1].axon[3]'
p995
sI85
I14
tp996
a(F2.3028970004755034
S'Cell[1].apic[166] syn_ = new AmpaNmda(0.833333333333)'
p997
I1
(dp998
S'seg'
p999
F0.16666666666666666
sS'hostfrom'
p1000
F38.0
sS'gid'
p1001
I182
sS'coords'
p1002
g7
(g8
(I0
tp1003
g10
tp1004
Rp1005
(I1
(I3
tp1006
g14
(S'f8'
p1007
I0
I1
tp1008
Rp1009
(I3
S'<'
p1010
NNNI-1
I-1
I0
tp1011
bI00
S'\xce\xae\x03l\x84\x119@~$\xd7\xe0\xf2\xdeU@u\xab\xd8\xac\xf5\x07;\xc0'
p1012
tp1013
bsS'secnames'
p1014
S'Cell[3].axon[215]'
p1015
sI182
I62
tp1016
a(F1.6084038603445747
S'Cell[1].dend[9] syn_ = new ExpSid(0.5)'
p1017
I1
(dp1018
S'seg'
p1019
F0.5
sS'hostfrom'
p1020
F39.0
sS'gid'
p1021
I87
sS'coords'
p1022
g7
(g8
(I0
tp1023
g10
tp1024
Rp1025
(I1
(I3
tp1026
g14
(S'f8'
p1027
I0
I1
tp1028
Rp1029
(I3
S'<'
p1030
NNNI-1
I-1
I0
tp1031
bI00
S'o\xde\t\xa3\xebwE@#\xb1\xaa\t\xa1Q5\xc0\xeb"\xb4\xca~$;@'
p1032
tp1033
bsS'secnames'
p1034
S'Cell[1].axon[91]'
p1035
sI87
I62
tp1036
a(F1.6897581424158696
S'Cell[0].dend[30] syn_ = new ExpSid(0.5)'
p1037
I0
(dp1038
g1019
F0.5
sg1020
F39.0
sg1021
I183
sg1022
g7
(g8
(I0
tp1039
g10
tp1040
Rp1041
(I1
(I3
tp1042
g1029
I00
S'$\xb20vmq>@\xac\xb2\xec&\x19^\xc8\xbf6\xb3\x0e\xc1\xb8\x161@'
p1043
tp1044
bsg1034
S'Cell[3].axon[58]'
p1045
sI183
I14
tp1046
a(F1.9621745229381842
S'Cell[1].apic[167] syn_ = new AmpaNmda(0.7)'
p1047
I1
(dp1048
S'seg'
p1049
F0.8333333333333333
sS'hostfrom'
p1050
F40.0
sS'gid'
p1051
I88
sS'coords'
p1052
g7
(g8
(I0
tp1053
g10
tp1054
Rp1055
(I1
(I3
tp1056
g14
(S'f8'
p1057
I0
I1
tp1058
Rp1059
(I3
S'<'
p1060
NNNI-1
I-1
I0
tp1061
bI00
S'\xcaP\xc5\xb2Cj(\xc0\x10\xd6$\xac\x86\xcaH\xc0\xeb{:\xb3\xd6\xae\x0c\xc0'
p1062
tp1063
bsS'secnames'
p1064
S'Cell[1].axon[157]'
p1065
sI88
I62
tp1066
a(F1.57180849120136
S'Cell[0].apic[12] syn_ = new AmpaNmda(0.5)'
p1067
I0
(dp1068
g1049
F0.8333333333333333
sg1050
F40.0
sg1051
I88
sg1052
g7
(g8
(I0
tp1069
g10
tp1070
Rp1071
(I1
(I3
tp1072
g1059
I00
S'^\xb4\xa1\x02\xfb\x10(@\xd1\x07\xe4\xd6\xb0MW@\xad\x15\xac\xf4\xf7\xce-@'
p1073
tp1074
bsg1064
S'Cell[1].axon[192]'
p1075
sI88
I14
tp1076
a(F1.5030793093383732
S'Cell[0].apic[13] syn_ = new AmpaNmda(0.5)'
p1077
I0
(dp1078
g1049
F0.8999999999999999
sg1050
F40.0
sg1051
I136
sg1052
g7
(g8
(I0
tp1079
g10
tp1080
Rp1081
(I1
(I3
tp1082
g1059
I00
S'\xd2\xde\xc3Q{\x04\x0e@;\x86\xc9a\xf0\x9cX@\xb0\xe1\xbb\xb1\xbd\x08)@'
p1083
tp1084
bsg1064
S'Cell[2].axon[27]'
p1085
sI136
I14
tp1086
a(F1.2723942175027148
S'Cell[0].dend[4] syn_ = new AmpaNmda(0.5)'
p1087
I0
(dp1088
g1049
F0.5
sg1050
F40.0
sg1051
I184
sg1052
g7
(g8
(I0
tp1089
g10
tp1090
Rp1091
(I1
(I3
tp1092
g1059
I00
S'#Z\x89\xa9H\xf63\xc0\xb7\xb7j\xc99T,@C/+1\x8d\x934@'
p1093
tp1094
bsg1064
S'Cell[3].axon[19]'
p1095
sI184
I14
tp1096
a(F1.7611447734495427
S'Cell[1].apic[163] syn_ = new ExpSid(0.7)'
p1097
I1
(dp1098
S'seg'
p1099
F0.5
sS'hostfrom'
p1100
F41.0
sS'gid'
p1101
I185
sS'coords'
p1102
g7
(g8
(I0
tp1103
g10
tp1104
Rp1105
(I1
(I3
tp1106
g14
(S'f8'
p1107
I0
I1
tp1108
Rp1109
(I3
S'<'
p1110
NNNI-1
I-1
I0
tp1111
bI00
S'\xd8\x1f\x88\x90&-$@\x078\xca\x16Yr^@U\x17\x1b0;\xd8$\xc0'
p1112
tp1113
bsS'secnames'
p1114
S'Cell[3].axon[45]'
p1115
sI185
I62
tp1116
a(F2.466094027223062
S'Cell[2].dend[0] syn_ = new FastInhib(0.166666666667)'
p1117
I2
(dp1118
g1099
F0.8999999999999999
sg1100
F41.0
sg1101
I185
sg1102
g7
(g8
(I0
tp1119
g10
tp1120
Rp1121
(I1
(I3
tp1122
g1109
I00
S'K/O)]5-\xc0\xf6\xa4\x8c\xae\xdf~0\xc0\x00\x00\x00@\xe1z%\xc0'
p1123
tp1124
bsg1114
S'Cell[3].axon[216]'
p1125
sI185
I110
tp1126
a(F2.2827174437463826
S'Cell[1].apic[165] syn_ = new ExpSid(0.833333333333)'
p1127
I1
(dp1128
g1099
F0.30000000000000004
sg1100
F41.0
sg1101
I89
sg1102
g7
(g8
(I0
tp1129
g10
tp1130
Rp1131
(I1
(I3
tp1132
g1109
I00
S'\xae@\xf1J8\x9e#@x[\x82#]\x1dY@\x00\x00\x00\x80\xc2u.\xc0'
p1133
tp1134
bsg1114
S'Cell[1].axon[94]'
p1135
sI89
I62
tp1136
a(F1.9956485628803102
S'Cell[3].apic[14] syn_ = new FastInhib(0.833333333333)'
p1137
I3
(dp1138
S'seg'
p1139
F0.3571428571428571
sS'hostfrom'
p1140
F42.0
sS'gid'
p1141
I90
sS'coords'
p1142
g7
(g8
(I0
tp1143
g10
tp1144
Rp1145
(I1
(I3
tp1146
g14
(S'f8'
p1147
I0
I1
tp1148
Rp1149
(I3
S'<'
p1150
NNNI-1
I-1
I0
tp1151
bI00
S'\t\xabz\x008\xb0\x1e\xc0\x0e\xf9\xc1\xb9\x0f\x19\\\xc0\xd4\xda\x83\x12\xe7\xfbB@'
p1152
tp1153
bsS'secnames'
p1154
S'Cell[1].axon[54]'
p1155
sI90
I158
tp1156
a(F1.2878070088786309
S'Cell[1].dend[65] syn_ = new AmpaNmda(0.166666666667)'
p1157
I1
(dp1158
g1139
F0.7857142857142856
sg1140
F42.0
sg1141
I90
sg1142
g7
(g8
(I0
tp1159
g10
tp1160
Rp1161
(I1
(I3
tp1162
g1149
I00
S'\x1c\xfd\x1f\xeeI\xc4Q@\x8f\xf2\xe6\xa6ie\x10\xc0\x86}(\x91ZE\x0c\xc0'
p1163
tp1164
bsg1154
S'Cell[1].axon[241]'
p1165
sI90
I62
tp1166
a(F2.367662658780225
S'Cell[1].apic[166] syn_ = new AmpaNmda(0.166666666667)'
p1167
I1
(dp1168
g1139
F0.16666666666666666
sg1140
F42.0
sg1141
I138
sg1142
g7
(g8
(I0
tp1169
g10
tp1170
Rp1171
(I1
(I3
tp1172
g1149
I00
S'?\xf4\x18\xf7\x99N?@]\xa8\xde\x05r\x04R@Q\xe7&\xa5\xb0\x08\x19\xc0'
p1173
tp1174
bsg1154
S'Cell[2].axon[19]'
p1175
sI138
I62
tp1176
a(F2.3167350217794986
S'Cell[0].dend[13] syn_ = new AmpaNmda(0.9)'
p1177
I0
(dp1178
g1139
F0.7
sg1140
F42.0
sg1141
I138
sg1142
g7
(g8
(I0
tp1179
g10
tp1180
Rp1181
(I1
(I3
tp1182
g1149
I00
S'\x8e\xbe\xf9\x05\x8a\x13Q\xc0\xe3\x9a\x1c\x88\x07\xd8=\xc0\x00\x00\x00\xe0Q8,@'
p1183
tp1184
bsg1154
S'Cell[2].axon[169]'
p1185
sI138
I14
tp1186
a(F2.0448471571878506
S'Cell[0].apic[41] syn_ = new AmpaNmda(0.166666666667)'
p1187
I0
(dp1188
g1139
F0.30000000000000004
sg1140
F42.0
sg1141
I138
sg1142
g7
(g8
(I0
tp1189
g10
tp1190
Rp1191
(I1
(I3
tp1192
g1149
I00
S'5\xafT\xd0\xf8v4@\xa0\x19\xd3\xd96rt@\xdb\x97\xea\xf2l\x9a\x11@'
p1193
tp1194
bsg1154
S'Cell[2].axon[253]'
p1195
sI138
I14
tp1196
a(F1.8492240250026832
S'Cell[1].apic[170] syn_ = new ExpSid(0.1)'
p1197
I1
(dp1198
S'seg'
p1199
F0.8333333333333333
sS'hostfrom'
p1200
F43.0
sS'gid'
p1201
I91
sS'coords'
p1202
g7
(g8
(I0
tp1203
g10
tp1204
Rp1205
(I1
(I3
tp1206
g14
(S'f8'
p1207
I0
I1
tp1208
Rp1209
(I3
S'<'
p1210
NNNI-1
I-1
I0
tp1211
bI00
S'\xca\xcf\x15\xe8\x18[D@\x9a=\xa9G)|3@`!\x1c\xf2G\xd6\xc7?'
p1212
tp1213
bsS'secnames'
p1214
S'Cell[1].axon[121]'
p1215
sI91
I62
tp1216
a(F2.368772772926415
S'Cell[3].dend[10] syn_ = new FastInhib(0.214285714286)'
p1217
I3
(dp1218
g1199
F0.7
sg1200
F43.0
sg1201
I187
sg1202
g7
(g8
(I0
tp1219
g10
tp1220
Rp1221
(I1
(I3
tp1222
g1209
I00
S'\x83-\xb0\x94F\xc2`@\x16\x93\x0c\x16`OR@\xbe)\xee\xc7\xaa-\x13@'
p1223
tp1224
bsg1214
S'Cell[3].axon[162]'
p1225
sI187
I158
tp1226
a(F1.7897228240756078
S'Cell[0].dend[34] syn_ = new AmpaNmda(0.166666666667)'
p1227
I0
(dp1228
S'seg'
p1229
F0.30000000000000004
sS'hostfrom'
p1230
F44.0
sS'gid'
p1231
I188
sS'coords'
p1232
g7
(g8
(I0
tp1233
g10
tp1234
Rp1235
(I1
(I3
tp1236
g14
(S'f8'
p1237
I0
I1
tp1238
Rp1239
(I3
S'<'
p1240
NNNI-1
I-1
I0
tp1241
bI00
S'\xf9\x05\xee\xb3n\xae9@\xc2@\xe5^M\xe7:@\x00\x00\x00\x00\x00\x80"@'
p1242
tp1243
bsS'secnames'
p1244
S'Cell[3].axon[65]'
p1245
sI188
I14
tp1246
a(F1.525971726559646
S'Cell[3].apic[10] syn_ = new FastInhib(0.5)'
p1247
I3
(dp1248
S'seg'
p1249
F0.16666666666666666
sS'hostfrom'
p1250
F45.0
sS'gid'
p1251
I141
sS'coords'
p1252
g7
(g8
(I0
tp1253
g10
tp1254
Rp1255
(I1
(I3
tp1256
g14
(S'f8'
p1257
I0
I1
tp1258
Rp1259
(I3
S'<'
p1260
NNNI-1
I-1
I0
tp1261
bI00
S'\xfbZ/\x96\xd0u[@\x1a\xae\x1dMf8E\xc0\xd0\xb0!"wG2@'
p1262
tp1263
bsS'secnames'
p1264
S'Cell[2].axon[286]'
p1265
sI141
I158
tp1266
a(F1.919141850340224
S'Cell[0].dend[33] syn_ = new ExpSid(0.0555555555556)'
p1267
I0
(dp1268
g1249
F0.16666666666666666
sg1250
F45.0
sg1251
I189
sg1252
g7
(g8
(I0
tp1269
g10
tp1270
Rp1271
(I1
(I3
tp1272
g1259
I00
S"U\x19\xc2\xc6\xf0\x00J@\x17R\xb6fV\xe5&@F,'\xe8_\x13*@"
p1273
tp1274
bsg1264
S'Cell[3].axon[51]'
p1275
sI189
I14
tp1276
a(F1.5373625558929522
S'Cell[1].apic[147] syn_ = new ExpSid(0.833333333333)'
p1277
I1
(dp1278
g1249
F0.8333333333333333
sg1250
F45.0
sg1251
I93
sg1252
g7
(g8
(I0
tp1279
g10
tp1280
Rp1281
(I1
(I3
tp1282
g1259
I00
S'|6\x07v7\x86Y@\x7f\xbb.\xb9\x82\xfa`@,\xe4\xdc\xea\x00\xf2\xfd\xbf'
p1283
tp1284
bsg1264
S'Cell[1].axon[33]'
p1285
sI93
I62
tp1286
a(F1.6920400859995643
S'Cell[2].dend[14] syn_ = new FastInhib(0.5)'
p1287
I2
(dp1288
g1249
F0.5
sg1250
F45.0
sg1251
I93
sg1252
g7
(g8
(I0
tp1289
g10
tp1290
Rp1291
(I1
(I3
tp1292
g1259
I00
S'\x00\x00\x00P\xb8\x9e$\xc0\x00\x00\x00 \x85\xeb@@\x00\x00\x00\x00\x00@$\xc0'
p1293
tp1294
bsg1264
S'Cell[1].axon[164]'
p1295
sI93
I110
tp1296
a(F1.3748142176769995
S'Cell[3].dend[17] syn_ = new FastInhib(0.9)'
p1297
I3
(dp1298
g1249
F0.16666666666666666
sg1250
F45.0
sg1251
I93
sg1252
g7
(g8
(I0
tp1299
g10
tp1300
Rp1301
(I1
(I3
tp1302
g1259
I00
S'h\xc6\xe6\xc0\xa6AQ@,\xd7]P\x916f@\x00\x00\x00\xc0\xcc\xcc\x0e\xc0'
p1303
tp1304
bsg1264
S'Cell[1].axon[282]'
p1305
sI93
I158
tp1306
a(F2.085433960142141
S'Cell[2].dend[21] syn_ = new FastInhib(0.7)'
p1307
I2
(dp1308
S'seg'
p1309
F0.5
sS'hostfrom'
p1310
F46.0
sS'gid'
p1311
I94
sS'coords'
p1312
g7
(g8
(I0
tp1313
g10
tp1314
Rp1315
(I1
(I3
tp1316
g14
(S'f8'
p1317
I0
I1
tp1318
Rp1319
(I3
S'<'
p1320
NNNI-1
I-1
I0
tp1321
bI00
S'z\xc6E\x01pwC@\xa1\xceQ\xbd\x9f\xedF@\xca,\xe2\x8dz\xb1G\xc0'
p1322
tp1323
bsS'secnames'
p1324
S'Cell[1].axon[282]'
p1325
sI94
I110
tp1326
a(F0.6284811257246975
S'Cell[1].apic[164] syn_ = new ExpSid(0.5)'
p1327
I1
(dp1328
S'seg'
p1329
F0.8333333333333333
sS'hostfrom'
p1330
F47.0
sS'gid'
p1331
I95
sS'coords'
p1332
g7
(g8
(I0
tp1333
g10
tp1334
Rp1335
(I1
(I3
tp1336
g14
(S'f8'
p1337
I0
I1
tp1338
Rp1339
(I3
S'<'
p1340
NNNI-1
I-1
I0
tp1341
bI00
S"\xaeC\xcc/\xf3\xf9G@\x90\xa3\xce\xb6\xa4'L@\xdc\xf2X>\xc7\x05\xf2?"
p1342
tp1343
bsS'secnames'
p1344
S'Cell[1].axon[175]'
p1345
sI95
I62
tp1346
a(F1.743579847511851
S'Cell[1].apic[147] syn_ = new ExpSid(0.833333333333)'
p1347
I1
(dp1348
g1329
F0.6428571428571428
sg1330
F47.0
sg1331
I143
sg1332
g7
(g8
(I0
tp1349
g10
tp1350
Rp1351
(I1
(I3
tp1352
g1339
I00
S'\x112\x95\x94\xbb\x91Y@y\xc8\xdbYi&a@&\x00\xfcy\xd9\x90\xff\xbf'
p1353
tp1354
bsg1344
S'Cell[2].axon[178]'
p1355
sI143
I62
tp1356
a.