(lp0
(F2.013095119939547
S'Cell[2].dend[1] syn_ = new FastInhib(0.5)'
p1
I2
(dp2
S'seg'
p3
F0.5
sS'hostfrom'
p4
F1.0
sS'gid'
p5
I145
sS'coords'
p6
cnumpy.core.multiarray
_reconstruct
p7
(cnumpy
ndarray
p8
(I0
tp9
S'b'
p10
tp11
Rp12
(I1
(I3
tp13
cnumpy
dtype
p14
(S'f8'
p15
I0
I1
tp16
Rp17
(I3
S'<'
p18
NNNI-1
I-1
I0
tp19
bI00
S'"\x19J\xef=\x96=\xc0\x1a)\\\x99\x88\xc8@\xc0\x17\xc5/\x04\xb19\x01@'
p20
tp21
bsS'secnames'
p22
S'Cell[3].axon[132]'
p23
sI145
I116
tp24
a(F2.3772660182358956
S'Cell[2].dend[51] syn_ = new FastInhib(0.3)'
p25
I2
(dp26
g3
F0.30000000000000004
sg4
F1.0
sg5
I97
sg6
g7
(g8
(I0
tp27
g10
tp28
Rp29
(I1
(I3
tp30
g17
I00
S'!]\x19\xb5JS!\xc0\xdf\xf0\xfa\x1c#\x94,@\x9e\x0fV+1O;\xc0'
p31
tp32
bsg22
S'Cell[2].axon[13]'
p33
sI97
I116
tp34
a(F0.7250012656448382
S'Cell[2].dend[60] syn_ = new FastInhib(0.5)'
p35
I2
(dp36
g3
F0.5
sg4
F1.0
sg5
I97
sg6
g7
(g8
(I0
tp37
g10
tp38
Rp39
(I1
(I3
tp40
g17
I00
S'\xcc?J\x01\xd8\xa1E\xc0(`a"f\xd9F@\x16\xe2\xf92\x8e|\x12@'
p41
tp42
bsg22
S'Cell[2].axon[181]'
p43
sI97
I116
tp44
a(F2.2268147982528195
S'Cell[0].dend[7] syn_ = new ExpSid(0.5)'
p45
I0
(dp46
g3
F0.1
sg4
F1.0
sg5
I97
sg6
g7
(g8
(I0
tp47
g10
tp48
Rp49
(I1
(I3
tp50
g17
I00
S'%\xac\x9e\x14\xf3_&@\xe2\x07\xb3a>\x18P@8\xd5\x7f\x8d\xd4\x0c\t@'
p51
tp52
bsg22
S'Cell[2].axon[223]'
p53
sI97
I20
tp54
a(F1.9647923507242069
S'Cell[0].dend[5] syn_ = new AmpaNmda(0.5)'
p55
I0
(dp56
S'seg'
p57
F0.8333333333333333
sS'hostfrom'
p58
F2.0
sS'gid'
p59
I98
sS'coords'
p60
g7
(g8
(I0
tp61
g10
tp62
Rp63
(I1
(I3
tp64
g14
(S'f8'
p65
I0
I1
tp66
Rp67
(I3
S'<'
p68
NNNI-1
I-1
I0
tp69
bI00
S'AQ\xa0\x1b\x8bL\x07@\x0ct_\xed\x18\xaeJ@\xa3#T\x01!\xe3\x17@'
p70
tp71
bsS'secnames'
p72
S'Cell[2].axon[372]'
p73
sI98
I20
tp74
a(F2.4032039521555917
S'Cell[2].dend[49] syn_ = new FastInhib(0.5)'
p75
I2
(dp76
g57
F0.16666666666666666
sg58
F2.0
sg59
I98
sg60
g7
(g8
(I0
tp77
g10
tp78
Rp79
(I1
(I3
tp80
g67
I00
S'\x92\xa1G\xd6\x93\x9a.@\xf5\xdaz\x0b\xe4"L@H\xf9\xa3\x9f\x08\x82=\xc0'
p81
tp82
bsg72
S'Cell[2].axon[414]'
p83
sI98
I116
tp84
a(F1.990711235480897
S'Cell[1].dend[15] syn_ = new AmpaNmda(0.1)'
p85
I1
(dp86
g57
F0.5
sg58
F2.0
sg59
I146
sg60
g7
(g8
(I0
tp87
g10
tp88
Rp89
(I1
(I3
tp90
g67
I00
S'\xa3\xd6\xf7+\xb8\x15+@N\xf71A{\xc4E@\x00\x00\x00\xa0\x99\x99(\xc0'
p91
tp92
bsg72
S'Cell[3].axon[177]'
p93
sI146
I68
tp94
a(F1.5840027072874523
S'Cell[2].dend[39] syn_ = new FastInhib(0.5)'
p95
I2
(dp96
g57
F0.5
sg58
F2.0
sg59
I146
sg60
g7
(g8
(I0
tp97
g10
tp98
Rp99
(I1
(I3
tp100
g67
I00
S'(\xad7\xc9\xb1\rS\xc0sr\xb6\xd7`!\xf0?\xb5\xeb\x128\x08\xdc4\xc0'
p101
tp102
bsg72
S'Cell[3].axon[236]'
p103
sI146
I116
tp104
a(F1.9647923507242069
S'Cell[0].dend[5] syn_ = new ExpSid(0.5)'
p105
I0
(dp106
S'seg'
p107
F0.8333333333333333
sS'hostfrom'
p108
F3.0
sS'gid'
p109
I99
sS'coords'
p110
g7
(g8
(I0
tp111
g10
tp112
Rp113
(I1
(I3
tp114
g14
(S'f8'
p115
I0
I1
tp116
Rp117
(I3
S'<'
p118
NNNI-1
I-1
I0
tp119
bI00
S'AQ\xa0\x1b\x8bL\x07@\x0ct_\xed\x18\xaeJ@\xa3#T\x01!\xe3\x17@'
p120
tp121
bsS'secnames'
p122
S'Cell[2].axon[372]'
p123
sI99
I20
tp124
a(F2.4032039521555917
S'Cell[2].dend[49] syn_ = new FastInhib(0.5)'
p125
I2
(dp126
g107
F0.16666666666666666
sg108
F3.0
sg109
I99
sg110
g7
(g8
(I0
tp127
g10
tp128
Rp129
(I1
(I3
tp130
g117
I00
S'\x92\xa1G\xd6\x93\x9a.@\xf5\xdaz\x0b\xe4"L@H\xf9\xa3\x9f\x08\x82=\xc0'
p131
tp132
bsg122
S'Cell[2].axon[414]'
p133
sI99
I116
tp134
a(F1.3535357341277157
S'Cell[3].dend[3] syn_ = new FastInhib(0.833333333333)'
p135
I3
(dp136
g107
F0.7857142857142856
sg108
F3.0
sg109
I3
sg110
g7
(g8
(I0
tp137
g10
tp138
Rp139
(I1
(I3
tp140
g117
I00
S'\xfa\xee\x10\xa6\xeah\x1c@\xe1JE3\xf5VO\xc0\x050=y\xc7\xdbE@'
p141
tp142
bsg122
S'Cell[0].axon[77]'
p143
sI3
I164
tp144
a(F2.2455188876266203
S'Cell[0].dend[39] syn_ = new ExpSid(0.833333333333)'
p145
I0
(dp146
g107
F0.8333333333333333
sg108
F3.0
sg109
I147
sg110
g7
(g8
(I0
tp147
g10
tp148
Rp149
(I1
(I3
tp150
g117
I00
S'\x1ck\x19\x19\xd73<\xc08@"FZTC@\xee3\xd0\xa5!\xe63@'
p151
tp152
bsg122
S'Cell[3].axon[2]'
p153
sI147
I20
tp154
a(F2.3776316896729863
S'Cell[0].dend[40] syn_ = new ExpSid(0.833333333333)'
p155
I0
(dp156
g107
F0.7
sg108
F3.0
sg109
I147
sg110
g7
(g8
(I0
tp157
g10
tp158
Rp159
(I1
(I3
tp160
g117
I00
S'\xd6\xb1\x7fI3\x93V\xc0/\xb3\x90\x11\xf2\x96\xf4\xbf+@\x03K\xae\xa5 @'
p161
tp162
bsg122
S'Cell[3].axon[142]'
p163
sI147
I20
tp164
a(F2.120475271162549
S'Cell[1].dend[17] syn_ = new AmpaNmda(0.5)'
p165
I1
(dp166
S'seg'
p167
F0.8333333333333333
sS'hostfrom'
p168
F4.0
sS'gid'
p169
I100
sS'coords'
p170
g7
(g8
(I0
tp171
g10
tp172
Rp173
(I1
(I3
tp174
g14
(S'f8'
p175
I0
I1
tp176
Rp177
(I3
S'<'
p178
NNNI-1
I-1
I0
tp179
bI00
S'6\x87z\\j\xab-\xc0&\xc0\x89\xbcz\xf6(\xc0@\xfd\xb2\xb0I\x14,\xc0'
p180
tp181
bsS'secnames'
p182
S'Cell[2].axon[116]'
p183
sI100
I68
tp184
a(F1.7930571412400478
S'Cell[1].dend[22] syn_ = new ExpSid(0.1)'
p185
I1
(dp186
S'seg'
p187
F0.5
sS'hostfrom'
p188
F5.0
sS'gid'
p189
I149
sS'coords'
p190
g7
(g8
(I0
tp191
g10
tp192
Rp193
(I1
(I3
tp194
g14
(S'f8'
p195
I0
I1
tp196
Rp197
(I3
S'<'
p198
NNNI-1
I-1
I0
tp199
bI00
S"\xd8]\x15A\xf6\xfd\x05@\xdd\xba]\x8ei\xb6A@=\xda*\xcb\xadt'@"
p200
tp201
bsS'secnames'
p202
S'Cell[3].axon[12]'
p203
sI149
I68
tp204
a(F2.4061411445291956
S'Cell[1].apic[7] syn_ = new ExpSid(0.5)'
p205
I1
(dp206
g187
F0.16666666666666666
sg188
F5.0
sg189
I5
sg190
g7
(g8
(I0
tp207
g10
tp208
Rp209
(I1
(I3
tp210
g197
I00
S"22'\x88\xbfi@\xc02\x14\xf4}U9`@\x11,U>\x8eW\x00@"
p211
tp212
bsg202
S'Cell[0].axon[24]'
p213
sI5
I68
tp214
a(F1.4272862325191786
S'Cell[2].dend[23] syn_ = new FastInhib(0.5)'
p215
I2
(dp216
S'seg'
p217
F0.5
sS'hostfrom'
p218
F7.0
sS'gid'
p219
I103
sS'coords'
p220
g7
(g8
(I0
tp221
g10
tp222
Rp223
(I1
(I3
tp224
g14
(S'f8'
p225
I0
I1
tp226
Rp227
(I3
S'<'
p228
NNNI-1
I-1
I0
tp229
bI00
S"\xa9D\x80E\xfb\xccP\xc0\x90u\xd0\xebf\xa2B@\xe3'\xa4\x00\x95x\x1e\xc0"
p230
tp231
bsS'secnames'
p232
S'Cell[2].axon[179]'
p233
sI103
I116
tp234
a(F1.756288812451781
S'Cell[1].dend[36] syn_ = new ExpSid(0.833333333333)'
p235
I1
(dp236
g217
F0.30000000000000004
sg218
F7.0
sg219
I103
sg220
g7
(g8
(I0
tp237
g10
tp238
Rp239
(I1
(I3
tp240
g227
I00
S'\xbd(+\x08k\x12\\@\xe4\xbd\xa5\xc7\xac\xa99\xc0:V\xb6\x9b\xb3\x91(\xc0'
p241
tp242
bsg232
S'Cell[2].axon[351]'
p243
sI103
I68
tp244
a(F1.762000149322465
S'Cell[2].dend[62] syn_ = new FastInhib(0.5)'
p245
I2
(dp246
g217
F0.5
sg218
F7.0
sg219
I103
sg220
g7
(g8
(I0
tp247
g10
tp248
Rp249
(I1
(I3
tp250
g227
I00
S'\x85\xc8\x82\x0f\xc2r6\xc0 \x8c\xb2EY\xdd2@\xb8\x19#\t\x0f\xe1"\xc0'
p251
tp252
bsg232
S'Cell[2].axon[445]'
p253
sI103
I116
tp254
a(F2.2750777709527896
S'Cell[1].dend[22] syn_ = new AmpaNmda(0.9)'
p255
I1
(dp256
S'seg'
p257
F0.8333333333333333
sS'hostfrom'
p258
F8.0
sS'gid'
p259
I152
sS'coords'
p260
g7
(g8
(I0
tp261
g10
tp262
Rp263
(I1
(I3
tp264
g14
(S'f8'
p265
I0
I1
tp266
Rp267
(I3
S'<'
p268
NNNI-1
I-1
I0
tp269
bI00
S'f\x96\xd9\xbfnfT\xc0\xea%\xfaD6)B@\x00\x00\x00\x00\xd7#2@'
p270
tp271
bsS'secnames'
p272
S'Cell[3].axon[81]'
p273
sI152
I68
tp274
a(F0.9265060213207807
S'Cell[1].dend[39] syn_ = new AmpaNmda(0.166666666667)'
p275
I1
(dp276
g257
F0.8333333333333333
sg258
F8.0
sg259
I152
sg260
g7
(g8
(I0
tp277
g10
tp278
Rp279
(I1
(I3
tp280
g267
I00
S'\x9a9*>j\xc8U@6\xbf\x8d\xddU"D@\x98\x8e\x97\xaa\xb6\xdb\x04\xc0'
p281
tp282
bsg272
S'Cell[3].axon[418]'
p283
sI152
I68
tp284
a(F2.3081653197518066
S'Cell[2].dend[12] syn_ = new FastInhib(0.5)'
p285
I2
(dp286
g257
F0.8333333333333333
sg258
F8.0
sg259
I104
sg260
g7
(g8
(I0
tp287
g10
tp288
Rp289
(I1
(I3
tp290
g267
I00
S'\x95P\xe0\xf4\xc6.*@\xd4.\x9a\x89\xcdM?\xc0\xc7\xa1"\xd1vV2@'
p291
tp292
bsg272
S'Cell[2].axon[120]'
p293
sI104
I116
tp294
a(F2.370618624216899
S'Cell[3].dend[9] syn_ = new FastInhib(0.5)'
p295
I3
(dp296
S'seg'
p297
F0.8333333333333333
sS'hostfrom'
p298
F10.0
sS'gid'
p299
I106
sS'coords'
p300
g7
(g8
(I0
tp301
g10
tp302
Rp303
(I1
(I3
tp304
g14
(S'f8'
p305
I0
I1
tp306
Rp307
(I3
S'<'
p308
NNNI-1
I-1
I0
tp309
bI00
S'\xa1\xab\x85\x99\xe3\x1a>@\xb4\x03F\x85\x18\xc3_@\xa2\x13\xc1\xf4\xed\x97.\xc0'
p310
tp311
bsS'secnames'
p312
S'Cell[2].axon[68]'
p313
sI106
I164
tp314
a(F1.4841555573544651
S'Cell[2].dend[49] syn_ = new FastInhib(0.166666666667)'
p315
I2
(dp316
g297
F0.16666666666666666
sg298
F10.0
sg299
I106
sg300
g7
(g8
(I0
tp317
g10
tp318
Rp319
(I1
(I3
tp320
g307
I00
S'\xc5\xc6\x8c\xf1\xa0\xda1@\xe3t\x00(C\xb2H@\x1a\xc4g\xdf<\xd4;\xc0'
p321
tp322
bsg312
S'Cell[2].axon[75]'
p323
sI106
I116
tp324
a(F2.0102609350768574
S'Cell[1].dend[20] syn_ = new AmpaNmda(0.5)'
p325
I1
(dp326
g297
F0.5
sg298
F10.0
sg299
I106
sg300
g7
(g8
(I0
tp327
g10
tp328
Rp329
(I1
(I3
tp330
g307
I00
S':\xe87\xf2z\xd9-@%8\xeb\r\xb7\x9eD@\x00\x00\x00\xc0\xf5\xa81@'
p331
tp332
bsg312
S'Cell[2].axon[193]'
p333
sI106
I68
tp334
a(F1.0090996914600352
S'Cell[2].dend[48] syn_ = new FastInhib(0.5)'
p335
I2
(dp336
g297
F0.8333333333333333
sg298
F10.0
sg299
I106
sg300
g7
(g8
(I0
tp337
g10
tp338
Rp339
(I1
(I3
tp340
g307
I00
S'\x17\x19&\xbf\x1d\xf0E@k\x82\x8c\x85\x03|E@Yu\x05\xa4X\xad;\xc0'
p341
tp342
bsg312
S'Cell[2].axon[220]'
p343
sI106
I116
tp344
a(F2.273278243464172
S'Cell[2].dend[14] syn_ = new FastInhib(0.166666666667)'
p345
I2
(dp346
g297
F0.16666666666666666
sg298
F10.0
sg299
I106
sg300
g7
(g8
(I0
tp347
g10
tp348
Rp349
(I1
(I3
tp350
g307
I00
S'=t>o8 2\xc0C/\x02\xb1p\x03G\xc0\xc5\xba\xeal8s\x12\xc0'
p351
tp352
bsg312
S'Cell[2].axon[275]'
p353
sI106
I116
tp354
a(F2.3508054124838407
S'Cell[2].dend[6] syn_ = new FastInhib(0.5)'
p355
I2
(dp356
g297
F0.5
sg298
F10.0
sg299
I58
sg300
g7
(g8
(I0
tp357
g10
tp358
Rp359
(I1
(I3
tp360
g307
I00
S'&j\x11\xd7|\x13(@\xf4\x08\xaedz\xed=\xc0A\xb2\xcf\x1f\x81J$\xc0'
p361
tp362
bsg312
S'Cell[1].axon[2]'
p363
sI58
I116
tp364
a(F2.081592738370478
S'Cell[2].dend[43] syn_ = new FastInhib(0.5)'
p365
I2
(dp366
S'seg'
p367
F0.8333333333333333
sS'hostfrom'
p368
F11.0
sS'gid'
p369
I59
sS'coords'
p370
g7
(g8
(I0
tp371
g10
tp372
Rp373
(I1
(I3
tp374
g14
(S'f8'
p375
I0
I1
tp376
Rp377
(I3
S'<'
p378
NNNI-1
I-1
I0
tp379
bI00
S'\\\x7f\xcc\xb8srC\xc0\x19Q\xea\\\x9br&@o\x16\x17\x10\xa8\xfe\x1b\xc0'
p380
tp381
bsS'secnames'
p382
S'Cell[1].axon[60]'
p383
sI59
I116
tp384
a(F1.5525233182639415
S'Cell[2].dend[61] syn_ = new FastInhib(0.5)'
p385
I2
(dp386
g367
F0.5
sg368
F11.0
sg369
I155
sg370
g7
(g8
(I0
tp387
g10
tp388
Rp389
(I1
(I3
tp390
g377
I00
S'\xe3\xfb\x1f\x01\xd7\xebR\xc0m\x1a\x92/\xf3h>@\xd7\xd5\x18\xcf\xa4t\x11\xc0'
p391
tp392
bsg382
S'Cell[3].axon[275]'
p393
sI155
I116
tp394
a(F2.386860374145471
S'Cell[3].dend[8] syn_ = new FastInhib(0.166666666667)'
p395
I3
(dp396
S'seg'
p397
F0.8333333333333333
sS'hostfrom'
p398
F12.0
sS'gid'
p399
I108
sS'coords'
p400
g7
(g8
(I0
tp401
g10
tp402
Rp403
(I1
(I3
tp404
g14
(S'f8'
p405
I0
I1
tp406
Rp407
(I3
S'<'
p408
NNNI-1
I-1
I0
tp409
bI00
S'\x1d\xa5XnB\xf17@\x84m\xf7\xc7;nQ@\xcfH\xb7\xc5\xfdU\xd5\xbf'
p410
tp411
bsS'secnames'
p412
S'Cell[2].axon[54]'
p413
sI108
I164
tp414
a(F1.5374025673077272
S'Cell[0].dend[2] syn_ = new ExpSid(0.5)'
p415
I0
(dp416
S'seg'
p417
F0.16666666666666666
sS'hostfrom'
p418
F13.0
sS'gid'
p419
I109
sS'coords'
p420
g7
(g8
(I0
tp421
g10
tp422
Rp423
(I1
(I3
tp424
g14
(S'f8'
p425
I0
I1
tp426
Rp427
(I3
S'<'
p428
NNNI-1
I-1
I0
tp429
bI00
S'\x00x\x90E\xb6\xa7"@\xeby\xa1\xb8\x03\xddL@\xf1\xc1[\xd2\x1d\xf9%@'
p430
tp431
bsS'secnames'
p432
S'Cell[2].axon[102]'
p433
sI109
I20
tp434
a(F1.6114272002234198
S'Cell[0].dend[19] syn_ = new ExpSid(0.833333333333)'
p435
I0
(dp436
g417
F0.16666666666666666
sg418
F13.0
sg419
I109
sg420
g7
(g8
(I0
tp437
g10
tp438
Rp439
(I1
(I3
tp440
g427
I00
S'\x0e\xf7\x00\x0b#\xf40@\xf3\xb1X\xe6b\x9dm@\n!\xf5\xb1\x1e%A@'
p441
tp442
bsg432
S'Cell[2].axon[162]'
p443
sI109
I20
tp444
a(F1.6632154474521563
S'Cell[1].dend[11] syn_ = new ExpSid(0.5)'
p445
I1
(dp446
S'seg'
p447
F0.1
sS'hostfrom'
p448
F15.0
sS'gid'
p449
I159
sS'coords'
p450
g7
(g8
(I0
tp451
g10
tp452
Rp453
(I1
(I3
tp454
g14
(S'f8'
p455
I0
I1
tp456
Rp457
(I3
S'<'
p458
NNNI-1
I-1
I0
tp459
bI00
S'\xb2m\xd4\xd8o\xc3\x0c@\tq\xc8\xe3\x8f\xe9E@\xfb\xaaY\x87\xf0\x12#@'
p460
tp461
bsS'secnames'
p462
S'Cell[3].axon[282]'
p463
sI159
I68
tp464
a(F2.445843012504981
S'Cell[1].dend[7] syn_ = new AmpaNmda(0.5)'
p465
I1
(dp466
S'seg'
p467
F0.5
sS'hostfrom'
p468
F16.0
sS'gid'
p469
I112
sS'coords'
p470
g7
(g8
(I0
tp471
g10
tp472
Rp473
(I1
(I3
tp474
g14
(S'f8'
p475
I0
I1
tp476
Rp477
(I3
S'<'
p478
NNNI-1
I-1
I0
tp479
bI00
S'\xb5\xb3\x8d\x15YF3@\xa8\x15\x1ay\x1doF@\xf8w\x92\xc9\x8d7!@'
p480
tp481
bsS'secnames'
p482
S'Cell[2].axon[0]'
p483
sI112
I68
tp484
a(F2.460992328995759
S'Cell[2].dend[37] syn_ = new FastInhib(0.5)'
p485
I2
(dp486
g467
F0.16666666666666666
sg468
F16.0
sg469
I112
sg470
g7
(g8
(I0
tp487
g10
tp488
Rp489
(I1
(I3
tp490
g477
I00
S'.*\x1a\x93{aN\xc0\xd0\xcc<\xf2\x85\x7f\xfb?\x860%\xda\xdf\x88/\xc0'
p491
tp492
bsg482
S'Cell[2].axon[33]'
p493
sI112
I116
tp494
a(F1.6063192757376599
S'Cell[1].apic[0] syn_ = new ExpSid(0.5)'
p495
I1
(dp496
S'seg'
p497
F0.8333333333333333
sS'hostfrom'
p498
F17.0
sS'gid'
p499
I161
sS'coords'
p500
g7
(g8
(I0
tp501
g10
tp502
Rp503
(I1
(I3
tp504
g14
(S'f8'
p505
I0
I1
tp506
Rp507
(I3
S'<'
p508
NNNI-1
I-1
I0
tp509
bI00
S'8m\xef\\\x95X@@\xb0,\xe4\x98\xc9\xc8L@\x94^7g\xd2\x90\x17@'
p510
tp511
bsS'secnames'
p512
S'Cell[3].axon[6]'
p513
sI161
I68
tp514
a(F1.0571206939527988
S'Cell[2].dend[44] syn_ = new FastInhib(0.5)'
p515
I2
(dp516
S'seg'
p517
F0.8333333333333333
sS'hostfrom'
p518
F18.0
sS'gid'
p519
I114
sS'coords'
p520
g7
(g8
(I0
tp521
g10
tp522
Rp523
(I1
(I3
tp524
g14
(S'f8'
p525
I0
I1
tp526
Rp527
(I3
S'<'
p528
NNNI-1
I-1
I0
tp529
bI00
S'h\xa8\xcb\xbdu\xedB\xc0\xe8\xe1\x95\xa7s\xd44@\x1eG\x8d\xb8\x98\xba/\xc0'
p530
tp531
bsS'secnames'
p532
S'Cell[2].axon[48]'
p533
sI114
I116
tp534
a(F2.0974428185408382
S'Cell[2].dend[5] syn_ = new FastInhib(0.5)'
p535
I2
(dp536
g517
F0.5
sg518
F18.0
sg519
I114
sg520
g7
(g8
(I0
tp537
g10
tp538
Rp539
(I1
(I3
tp540
g527
I00
S'g^\x05G\xf8\x06*\xc0\xc4\xbdu\xfd\xa5\x9aF\xc0\x00\x00\x00\xe0\xa3p\x01@'
p541
tp542
bsg532
S'Cell[2].axon[80]'
p543
sI114
I116
tp544
a(F2.129411562511773
S'Cell[2].dend[12] syn_ = new FastInhib(0.5)'
p545
I2
(dp546
g517
F0.5
sg518
F18.0
sg519
I114
sg520
g7
(g8
(I0
tp547
g10
tp548
Rp549
(I1
(I3
tp550
g527
I00
S"\xf0\xe2\x84\x85x|*@'\x02\x99d3\xc1@\xc0\xae\x14\x00\xe6\xe0n0@"
p551
tp552
bsg532
S'Cell[2].axon[86]'
p553
sI114
I116
tp554
a(F1.7453462121901417
S'Cell[3].dend[0] syn_ = new FastInhib(0.5)'
p555
I3
(dp556
g517
F0.8333333333333333
sg518
F18.0
sg519
I162
sg520
g7
(g8
(I0
tp557
g10
tp558
Rp559
(I1
(I3
tp560
g527
I00
S'?\xce\xb1\xa4\xdf\x1f5@\x0e\x9d\xbf\xcfI\xe6=@\xd3\xbd\xcc\x0bn\x166@'
p561
tp562
bsg532
S'Cell[3].axon[64]'
p563
sI162
I164
tp564
a(F1.5825313325475507
S'Cell[1].apic[0] syn_ = new AmpaNmda(0.5)'
p565
I1
(dp566
g517
F0.5
sg518
F18.0
sg519
I162
sg520
g7
(g8
(I0
tp567
g10
tp568
Rp569
(I1
(I3
tp570
g527
I00
S"p\x15J\xe6\x83'?@\xa4W\xf5\xfa\x99\xefL@\xf0Q\xa4\x82b\xae\x16@"
p571
tp572
bsg532
S'Cell[3].axon[218]'
p573
sI162
I68
tp574
a(F2.1949945471396126
S'Cell[2].dend[9] syn_ = new FastInhib(0.7)'
p575
I2
(dp576
S'seg'
p577
F0.7
sS'hostfrom'
p578
F21.0
sS'gid'
p579
I165
sS'coords'
p580
g7
(g8
(I0
tp581
g10
tp582
Rp583
(I1
(I3
tp584
g14
(S'f8'
p585
I0
I1
tp586
Rp587
(I3
S'<'
p588
NNNI-1
I-1
I0
tp589
bI00
S'a\xe1gCZ\xea @\xd8e[\xa7\x81\xb3T\xc0Zc3B>\xaeE\xc0'
p590
tp591
bsS'secnames'
p592
S'Cell[3].axon[105]'
p593
sI165
I116
tp594
a(F2.4642596425786554
S'Cell[1].dend[32] syn_ = new ExpSid(0.166666666667)'
p595
I1
(dp596
g577
F0.5
sg578
F21.0
sg579
I165
sg580
g7
(g8
(I0
tp597
g10
tp598
Rp599
(I1
(I3
tp600
g587
I00
S'J\xcf\xa2q\xbb\xe0R@\x14\x9bay\xd6\xe30\xc0\xc01i\xc9|eG\xc0'
p601
tp602
bsg592
S'Cell[3].axon[284]'
p603
sI165
I68
tp604
a(F1.9177097437675192
S'Cell[2].dend[51] syn_ = new FastInhib(0.3)'
p605
I2
(dp606
g577
F0.5
sg578
F21.0
sg579
I117
sg580
g7
(g8
(I0
tp607
g10
tp608
Rp609
(I1
(I3
tp610
g587
I00
S'P?\xc6Sa\xac\x1d\xc0\xdd\xd4\x1d\xb5|\x020@\x00\x00\x00\x80\xc2u9\xc0'
p611
tp612
bsg592
S'Cell[2].axon[7]'
p613
sI117
I116
tp614
a(F1.6851382645133084
S'Cell[1].dend[15] syn_ = new ExpSid(0.5)'
p615
I1
(dp616
g577
F0.5
sg578
F21.0
sg579
I117
sg580
g7
(g8
(I0
tp617
g10
tp618
Rp619
(I1
(I3
tp620
g587
I00
S'\x84\n3N\x0e\xfe\xcf?d+\xc2?a\xaaI@\x00\x00\x00\x80\xc2u9\xc0'
p621
tp622
bsg592
S'Cell[2].axon[275]'
p623
sI117
I68
tp624
a(F2.311289191395113
S'Cell[1].apic[1] syn_ = new AmpaNmda(0.3)'
p625
I1
(dp626
S'seg'
p627
F0.8333333333333333
sS'hostfrom'
p628
F22.0
sS'gid'
p629
I166
sS'coords'
p630
g7
(g8
(I0
tp631
g10
tp632
Rp633
(I1
(I3
tp634
g14
(S'f8'
p635
I0
I1
tp636
Rp637
(I3
S'<'
p638
NNNI-1
I-1
I0
tp639
bI00
S'\xff8Q\xb2h<2@\xbfv\xfa\x01\x16OQ@\x00\x00\x00\x80=\x8a2\xc0'
p640
tp641
bsS'secnames'
p642
S'Cell[3].axon[201]'
p643
sI166
I68
tp644
a(F1.0485988716242134
S'Cell[0].dend[38] syn_ = new ExpSid(0.166666666667)'
p645
I0
(dp646
S'seg'
p647
F0.5
sS'hostfrom'
p648
F23.0
sS'gid'
p649
I119
sS'coords'
p650
g7
(g8
(I0
tp651
g10
tp652
Rp653
(I1
(I3
tp654
g14
(S'f8'
p655
I0
I1
tp656
Rp657
(I3
S'<'
p658
NNNI-1
I-1
I0
tp659
bI00
S'\n\x87\xf6X\x17\x94=@\x86\xfd\r\xcc$\xdbR@\xa1\xb8\xc9\x1d\x84\xbcD@'
p660
tp661
bsS'secnames'
p662
S'Cell[2].axon[115]'
p663
sI119
I20
tp664
a(F1.0347908940144863
S'Cell[2].dend[2] syn_ = new FastInhib(0.5)'
p665
I2
(dp666
g647
F0.5
sg648
F23.0
sg649
I167
sg650
g7
(g8
(I0
tp667
g10
tp668
Rp669
(I1
(I3
tp670
g657
I00
S'\xf9\xf5#\x95 -9\xc06\xc1%?\xf0\xc0C\xc0\xf6g\xa0\x8f\xe8\x81\xd4\xbf'
p671
tp672
bsg662
S'Cell[3].axon[156]'
p673
sI167
I116
tp674
a(F2.285981919432831
S'Cell[1].dend[15] syn_ = new ExpSid(0.5)'
p675
I1
(dp676
g647
F0.8333333333333333
sg648
F23.0
sg649
I167
sg650
g7
(g8
(I0
tp677
g10
tp678
Rp679
(I1
(I3
tp680
g657
I00
S'\x9c\x90~\x14\t\xe5\x02\xc0\x11-\x9e\x11\xba\x01I@%\x88\xd0\x80\xb0/8\xc0'
p681
tp682
bsg662
S'Cell[3].axon[167]'
p683
sI167
I68
tp684
a(F2.2077983503003082
S'Cell[0].dend[40] syn_ = new AmpaNmda(0.833333333333)'
p685
I0
(dp686
S'seg'
p687
F0.16666666666666666
sS'hostfrom'
p688
F24.0
sS'gid'
p689
I168
sS'coords'
p690
g7
(g8
(I0
tp691
g10
tp692
Rp693
(I1
(I3
tp694
g14
(S'f8'
p695
I0
I1
tp696
Rp697
(I3
S'<'
p698
NNNI-1
I-1
I0
tp699
bI00
S'\x17[\xa3\x8a\xa9hV\xc0\xea\xc8]\x1cV\xbf\xf4\xbf\xde\xb7%\x97\x9c\xf8!@'
p700
tp701
bsS'secnames'
p702
S'Cell[3].axon[595]'
p703
sI168
I20
tp704
a(F2.0303534249001434
S'Cell[2].dend[3] syn_ = new FastInhib(0.5)'
p705
I2
(dp706
g687
F0.5
sg688
F24.0
sg689
I120
sg690
g7
(g8
(I0
tp707
g10
tp708
Rp709
(I1
(I3
tp710
g697
I00
S'^\xdd\xdd\x94\xf2\xb06\xc0\xadm\xb0\xfa4\xb7C\xc0\x9e\xd0e\xa3\x1dW\x0c\xc0'
p711
tp712
bsg702
S'Cell[2].axon[125]'
p713
sI120
I116
tp714
a(F1.9581456912468451
S'Cell[1].dend[22] syn_ = new ExpSid(0.3)'
p715
I1
(dp716
S'seg'
p717
F0.8333333333333333
sS'hostfrom'
p718
F25.0
sS'gid'
p719
I169
sS'coords'
p720
g7
(g8
(I0
tp721
g10
tp722
Rp723
(I1
(I3
tp724
g14
(S'f8'
p725
I0
I1
tp726
Rp727
(I3
S'<'
p728
NNNI-1
I-1
I0
tp729
bI00
S'd\xd1\x01 Q\xbc2\xc06\xd6\xe1)\xe9\x8b>@\x00\x00\x00\xa0G!0@'
p730
tp731
bsS'secnames'
p732
S'Cell[3].axon[238]'
p733
sI169
I68
tp734
a(F2.0905195979157125
S'Cell[1].dend[11] syn_ = new AmpaNmda(0.5)'
p735
I1
(dp736
S'seg'
p737
F0.16666666666666666
sS'hostfrom'
p738
F26.0
sS'gid'
p739
I26
sS'coords'
p740
g7
(g8
(I0
tp741
g10
tp742
Rp743
(I1
(I3
tp744
g14
(S'f8'
p745
I0
I1
tp746
Rp747
(I3
S'<'
p748
NNNI-1
I-1
I0
tp749
bI00
S'\xfb\x04\x9d\x13kl\x11@\x86HUV\xb3kE@v\xcd8g\xacz"@'
p750
tp751
bsS'secnames'
p752
S'Cell[0].axon[0]'
p753
sI26
I68
tp754
a(F2.0145770385376074
S'Cell[1].dend[15] syn_ = new AmpaNmda(0.1)'
p755
I1
(dp756
g737
F0.5
sg738
F26.0
sg739
I170
sg740
g7
(g8
(I0
tp757
g10
tp758
Rp759
(I1
(I3
tp760
g747
I00
S'\xc0\x05\xac\x0f,\xfd*@\x91\xfc\xcd\xd2)?E@\xf4\x10\xbd\x7f\xd5I$\xc0'
p761
tp762
bsg752
S'Cell[3].axon[472]'
p763
sI170
I68
tp764
a(F1.8933791508110605
S'Cell[1].dend[27] syn_ = new AmpaNmda(0.166666666667)'
p765
I1
(dp766
g737
F0.5
sg738
F26.0
sg739
I170
sg740
g7
(g8
(I0
tp767
g10
tp768
Rp769
(I1
(I3
tp770
g747
I00
S'\xe6\xd7Q\xd8X\x975@D\x1a)\xe0\xbfh;@\x14\x1c\xd4\x1735?@'
p771
tp772
bsg752
S'Cell[3].axon[502]'
p773
sI170
I68
tp774
a(F1.6851175944140353
S'Cell[1].dend[22] syn_ = new ExpSid(0.9)'
p775
I1
(dp776
S'seg'
p777
F0.8333333333333333
sS'hostfrom'
p778
F27.0
sS'gid'
p779
I123
sS'coords'
p780
g7
(g8
(I0
tp781
g10
tp782
Rp783
(I1
(I3
tp784
g14
(S'f8'
p785
I0
I1
tp786
Rp787
(I3
S'<'
p788
NNNI-1
I-1
I0
tp789
bI00
S'\x93xZ\xe4T\xc0T\xc0\xf3\x04\x19}L\xabA@\xe34]\xd8!\x7f2@'
p790
tp791
bsS'secnames'
p792
S'Cell[2].axon[48]'
p793
sI123
I68
tp794
a(F1.8057657682519204
S'Cell[0].dend[7] syn_ = new ExpSid(0.5)'
p795
I0
(dp796
g777
F0.5
sg778
F27.0
sg779
I171
sg780
g7
(g8
(I0
tp797
g10
tp798
Rp799
(I1
(I3
tp800
g787
I00
S'<\x9f\xf3\x13\xd8\xb2&@\xcf\xe7\xfc\x8c\xca\x1aO@\x00\x00\x00\x00)\\\x0f@'
p801
tp802
bsg792
S'Cell[3].axon[0]'
p803
sI171
I20
tp804
a(F2.0078936523196336
S'Cell[2].dend[50] syn_ = new FastInhib(0.3)'
p805
I2
(dp806
S'seg'
p807
F0.5
sS'hostfrom'
p808
F30.0
sS'gid'
p809
I126
sS'coords'
p810
g7
(g8
(I0
tp811
g10
tp812
Rp813
(I1
(I3
tp814
g14
(S'f8'
p815
I0
I1
tp816
Rp817
(I3
S'<'
p818
NNNI-1
I-1
I0
tp819
bI00
S'\x9e.%=\x1ae-@c\xc7\n\xa0\xf8[M@\xac\xb3\x87\x10\x13)J\xc0'
p820
tp821
bsS'secnames'
p822
S'Cell[2].axon[48]'
p823
sI126
I116
tp824
a(F1.7163098370708803
S'Cell[1].dend[18] syn_ = new AmpaNmda(0.1)'
p825
I1
(dp826
g807
F0.8333333333333333
sg808
F30.0
sg809
I126
sg810
g7
(g8
(I0
tp827
g10
tp828
Rp829
(I1
(I3
tp830
g817
I00
S"\xb3\x8d\xd0\xc8<\xbf#\xc0\xe0\xd4\x90&\x8b'@@S\xf0\x0f\xfcOs$\xc0"
p831
tp832
bsg822
S'Cell[2].axon[49]'
p833
sI126
I68
tp834
a(F1.9250713068024525
S'Cell[3].dend[8] syn_ = new FastInhib(0.833333333333)'
p835
I3
(dp836
g807
F0.1
sg808
F30.0
sg809
I126
sg810
g7
(g8
(I0
tp837
g10
tp838
Rp839
(I1
(I3
tp840
g817
I00
S'6\x85\x89V\xff67@\xef\xe9A\xe0\x99zY@!\x00\xf0\xef\x96\xc0$\xc0'
p841
tp842
bsg822
S'Cell[2].axon[176]'
p843
sI126
I164
tp844
a(F1.907661402732253
S'Cell[2].dend[62] syn_ = new FastInhib(0.5)'
p845
I2
(dp846
g807
F0.5
sg808
F30.0
sg809
I174
sg810
g7
(g8
(I0
tp847
g10
tp848
Rp849
(I1
(I3
tp850
g817
I00
S'\xa3\xe3\x13QZ\n7\xc0 \xfff\x89\x97\xad2@c\xae\xcex\x7fG"\xc0'
p851
tp852
bsg822
S'Cell[3].axon[373]'
p853
sI174
I116
tp854
a(F2.3143943292730422
S'Cell[2].dend[38] syn_ = new FastInhib(0.5)'
p855
I2
(dp856
S'seg'
p857
F0.5
sS'hostfrom'
p858
F31.0
sS'gid'
p859
I175
sS'coords'
p860
g7
(g8
(I0
tp861
g10
tp862
Rp863
(I1
(I3
tp864
g14
(S'f8'
p865
I0
I1
tp866
Rp867
(I3
S'<'
p868
NNNI-1
I-1
I0
tp869
bI00
S'_\xcc^\x14j\x86Y\xc0\x1f\x97\x1d]*W\xce?\x18 \xd9_\x06\xf9L\xc0'
p870
tp871
bsS'secnames'
p872
S'Cell[3].axon[217]'
p873
sI175
I116
tp874
a(F2.4117248208734927
S'Cell[0].dend[6] syn_ = new AmpaNmda(0.9)'
p875
I0
(dp876
S'seg'
p877
F0.5
sS'hostfrom'
p878
F32.0
sS'gid'
p879
I176
sS'coords'
p880
g7
(g8
(I0
tp881
g10
tp882
Rp883
(I1
(I3
tp884
g14
(S'f8'
p885
I0
I1
tp886
Rp887
(I3
S'<'
p888
NNNI-1
I-1
I0
tp889
bI00
S'\xa7P2*\xe0\xc4W@\x96Q\x18\xcbC\xe78@\xf63\xd7\xdac\x14%@'
p890
tp891
bsS'secnames'
p892
S'Cell[3].axon[116]'
p893
sI176
I20
tp894
a(F2.3763011871003283
S'Cell[1].apic[3] syn_ = new ExpSid(0.9)'
p895
I1
(dp896
S'seg'
p897
F0.30000000000000004
sS'hostfrom'
p898
F33.0
sS'gid'
p899
I129
sS'coords'
p900
g7
(g8
(I0
tp901
g10
tp902
Rp903
(I1
(I3
tp904
g14
(S'f8'
p905
I0
I1
tp906
Rp907
(I3
S'<'
p908
NNNI-1
I-1
I0
tp909
bI00
S'\xd8r\xba\x00\xb9\xd5\\@\n\x8cq\x02\xe7\xe3b@\xf2w\x01\t\xa5t!\xc0'
p910
tp911
bsS'secnames'
p912
S'Cell[2].axon[91]'
p913
sI129
I68
tp914
a(F2.1623753514276274
S'Cell[1].apic[3] syn_ = new ExpSid(0.3)'
p915
I1
(dp916
g897
F0.5
sg898
F33.0
sg899
I177
sg900
g7
(g8
(I0
tp917
g10
tp918
Rp919
(I1
(I3
tp920
g907
I00
S'\xb0T\x8f<\xf0\xafM@=+`M\xc8\xbb[@Iq3*\xc7\xab\xf0\xbf'
p921
tp922
bsg912
S'Cell[3].axon[39]'
p923
sI177
I68
tp924
a(F2.474469616973673
S'Cell[2].dend[8] syn_ = new FastInhib(0.833333333333)'
p925
I2
(dp926
S'seg'
p927
F0.16666666666666666
sS'hostfrom'
p928
F34.0
sS'gid'
p929
I178
sS'coords'
p930
g7
(g8
(I0
tp931
g10
tp932
Rp933
(I1
(I3
tp934
g14
(S'f8'
p935
I0
I1
tp936
Rp937
(I3
S'<'
p938
NNNI-1
I-1
I0
tp939
bI00
S'\xf2\xa7\xc5\xb8+\xf4E@\xb4\xdf\xe5,\xbb\xb4\x02\xc0{\x03\xa9\xe4\x15yE\xc0'
p940
tp941
bsS'secnames'
p942
S'Cell[3].axon[98]'
p943
sI178
I116
tp944
a(F2.421147466072149
S'Cell[1].dend[5] syn_ = new ExpSid(0.833333333333)'
p945
I1
(dp946
S'seg'
p947
F0.5
sS'hostfrom'
p948
F35.0
sS'gid'
p949
I83
sS'coords'
p950
g7
(g8
(I0
tp951
g10
tp952
Rp953
(I1
(I3
tp954
g14
(S'f8'
p955
I0
I1
tp956
Rp957
(I3
S'<'
p958
NNNI-1
I-1
I0
tp959
bI00
S'a\x0f=i\x16\x16L@\xfc\xfbZ\xb99\x06@\xc0\xea\xd2\x1b\xe6\xa8\x94\xc8?'
p960
tp961
bsS'secnames'
p962
S'Cell[1].axon[191]'
p963
sI83
I68
tp964
a(F1.621820255757935
S'Cell[1].dend[15] syn_ = new AmpaNmda(0.3)'
p965
I1
(dp966
S'seg'
p967
F0.5
sS'hostfrom'
p968
F36.0
sS'gid'
p969
I84
sS'coords'
p970
g7
(g8
(I0
tp971
g10
tp972
Rp973
(I1
(I3
tp974
g14
(S'f8'
p975
I0
I1
tp976
Rp977
(I3
S'<'
p978
NNNI-1
I-1
I0
tp979
bI00
S'\xb2?\x9fJ\x066 @(\xd7\xbf\x04\xb1\xe1G@\x00\x00\x00 \xae\xc72\xc0'
p980
tp981
bsS'secnames'
p982
S'Cell[1].axon[225]'
p983
sI84
I68
tp984
a(F1.6061770741440988
S'Cell[2].dend[62] syn_ = new FastInhib(0.5)'
p985
I2
(dp986
g967
F0.8999999999999999
sg968
F36.0
sg969
I84
sg970
g7
(g8
(I0
tp987
g10
tp988
Rp989
(I1
(I3
tp990
g977
I00
S'>\x0fV]j\xf05\xc0\x12\xba\xba\x96\xca\xd00@`\xc1\x9f\xd4\x96\xcf\x1d\xc0'
p991
tp992
bsg982
S'Cell[1].axon[269]'
p993
sI84
I116
tp994
a(F2.4060008082532622
S'Cell[1].apic[1] syn_ = new AmpaNmda(0.7)'
p995
I1
(dp996
g967
F0.16666666666666666
sg968
F36.0
sg969
I84
sg970
g7
(g8
(I0
tp997
g10
tp998
Rp999
(I1
(I3
tp1000
g977
I00
S'>\xe5\xad\x18\xdbc-\xc0\xb9\xee"\x86@\x88M@\xdcE\xc7-\xb38=\xc0'
p1001
tp1002
bsg982
S'Cell[1].axon[498]'
p1003
sI84
I68
tp1004
a(F1.375704802663044
S'Cell[2].dend[50] syn_ = new FastInhib(0.3)'
p1005
I2
(dp1006
g967
F0.5
sg968
F36.0
sg969
I84
sg970
g7
(g8
(I0
tp1007
g10
tp1008
Rp1009
(I1
(I3
tp1010
g977
I00
S'\xbe\x96S\xed\x8eS,@\\\x86\xee\xed\xe3\xa9L@\xe8\xf1o\x90\x9c\xcbI\xc0'
p1011
tp1012
bsg982
S'Cell[1].axon[517]'
p1013
sI84
I116
tp1014
a(F2.2414823348880377
S'Cell[2].dend[58] syn_ = new FastInhib(0.5)'
p1015
I2
(dp1016
g967
F0.5
sg968
F36.0
sg969
I84
sg970
g7
(g8
(I0
tp1017
g10
tp1018
Rp1019
(I1
(I3
tp1020
g977
I00
S'\x93\xb0\x1f\t+\xd97\xc0\xae\x85$\xc3\xe9MU@\x00\x00\x00\x80\xeb\xb1M\xc0'
p1021
tp1022
bsg982
S'Cell[1].axon[554]'
p1023
sI84
I116
tp1024
a(F2.2054220649457608
S'Cell[0].dend[6] syn_ = new AmpaNmda(0.1)'
p1025
I0
(dp1026
g967
F0.5
sg968
F36.0
sg969
I132
sg970
g7
(g8
(I0
tp1027
g10
tp1028
Rp1029
(I1
(I3
tp1030
g977
I00
S')\x9f(J\xb1\xc1,@\x8cM0\xed\x87MI@st\\\xa8\xaa\x17\x1c@'
p1031
tp1032
bsg982
S'Cell[2].axon[33]'
p1033
sI132
I20
tp1034
a(F1.9776748708008125
S'Cell[1].dend[16] syn_ = new AmpaNmda(0.5)'
p1035
I1
(dp1036
g967
F0.5
sg968
F36.0
sg969
I132
sg970
g7
(g8
(I0
tp1037
g10
tp1038
Rp1039
(I1
(I3
tp1040
g977
I00
S'\xa0FX\xd2o\x89&@Z{O}\xd6\xb1A@\xd6\xfd:\x81\x13\xc6(\xc0'
p1041
tp1042
bsg982
S'Cell[2].axon[207]'
p1043
sI132
I68
tp1044
a(F1.1986476420064331
S'Cell[3].dend[10] syn_ = new FastInhib(0.166666666667)'
p1045
I3
(dp1046
S'seg'
p1047
F0.5
sS'hostfrom'
p1048
F38.0
sS'gid'
p1049
I182
sS'coords'
p1050
g7
(g8
(I0
tp1051
g10
tp1052
Rp1053
(I1
(I3
tp1054
g14
(S'f8'
p1055
I0
I1
tp1056
Rp1057
(I3
S'<'
p1058
NNNI-1
I-1
I0
tp1059
bI00
S'\xfdE\x1d"\x85\x9f7@\xcau\xa9\n\xcdY]@\x00\x00\x00\x00\xd7\xe32\xc0'
p1060
tp1061
bsS'secnames'
p1062
S'Cell[3].axon[203]'
p1063
sI182
I164
tp1064
a(F2.072362466883652
S'Cell[1].apic[3] syn_ = new AmpaNmda(0.3)'
p1065
I1
(dp1066
g1047
F0.5
sg1048
F38.0
sg1049
I182
sg1050
g7
(g8
(I0
tp1067
g10
tp1068
Rp1069
(I1
(I3
tp1070
g1057
I00
S'\x14V\xe7\xd6\x02\xf3M@p\xf4\x0b\x8fL\xb4[@\x00\x00\x00`ff\xf6\xbf'
p1071
tp1072
bsg1062
S'Cell[3].axon[284]'
p1073
sI182
I68
tp1074
a(F0.97265491507085
S'Cell[2].dend[9] syn_ = new FastInhib(0.9)'
p1075
I2
(dp1076
g1047
F0.5
sg1048
F38.0
sg1049
I86
sg1050
g7
(g8
(I0
tp1077
g10
tp1078
Rp1079
(I1
(I3
tp1080
g1057
I00
S'\x04\xd7W""\x1d2@C\xcf2\x9d@\xb7U\xc0\xb3fr\x01k\'L\xc0'
p1081
tp1082
bsg1062
S'Cell[1].axon[16]'
p1083
sI86
I116
tp1084
a(F1.7697334121192703
S'Cell[3].dend[6] syn_ = new FastInhib(0.5)'
p1085
I3
(dp1086
S'seg'
p1087
F0.5
sS'hostfrom'
p1088
F39.0
sS'gid'
p1089
I87
sS'coords'
p1090
g7
(g8
(I0
tp1091
g10
tp1092
Rp1093
(I1
(I3
tp1094
g14
(S'f8'
p1095
I0
I1
tp1096
Rp1097
(I3
S'<'
p1098
NNNI-1
I-1
I0
tp1099
bI00
S':\x1d\x8e\xc3Z\xd2:@\xd2)\xcey\xdfj>\xc0.\x0b\x7f\x10\x12\x9eE@'
p1100
tp1101
bsS'secnames'
p1102
S'Cell[1].axon[93]'
p1103
sI87
I164
tp1104
a(F1.492960051844196
S'Cell[1].dend[18] syn_ = new ExpSid(0.1)'
p1105
I1
(dp1106
g1087
F0.30000000000000004
sg1088
F39.0
sg1089
I87
sg1090
g7
(g8
(I0
tp1107
g10
tp1108
Rp1109
(I1
(I3
tp1110
g1097
I00
S'X!\xe0\x00\xaa8 \xc0\xdf\xfcE\x82\xb2\xc9?@\x00\x00\x00\x00\x00\x00&\xc0'
p1111
tp1112
bsg1102
S'Cell[1].axon[106]'
p1113
sI87
I68
tp1114
a(F2.1134262909315136
S'Cell[1].apic[5] syn_ = new ExpSid(0.833333333333)'
p1115
I1
(dp1116
g1087
F0.07142857142857142
sg1088
F39.0
sg1089
I183
sg1090
g7
(g8
(I0
tp1117
g10
tp1118
Rp1119
(I1
(I3
tp1120
g1097
I00
S'\n\x00\xb4\x19\x9e\xc5P@GJ\xe5\xdafJW@\xa7\xc0\x95\x00\x81>0@'
p1121
tp1122
bsg1102
S'Cell[3].axon[24]'
p1123
sI183
I68
tp1124
a(F1.8209548309569838
S'Cell[1].dend[22] syn_ = new ExpSid(0.9)'
p1125
I1
(dp1126
g1087
F0.1
sg1088
F39.0
sg1089
I183
sg1090
g7
(g8
(I0
tp1127
g10
tp1128
Rp1129
(I1
(I3
tp1130
g1097
I00
S'7)EjD\xd8T\xc0]w}P\xd1pB@\xc7~s\x06\x08S4@'
p1131
tp1132
bsg1102
S'Cell[3].axon[138]'
p1133
sI183
I68
tp1134
a(F1.8514573201618256
S'Cell[0].dend[40] syn_ = new ExpSid(0.166666666667)'
p1135
I0
(dp1136
g1087
F0.16666666666666666
sg1088
F39.0
sg1089
I183
sg1090
g7
(g8
(I0
tp1137
g10
tp1138
Rp1139
(I1
(I3
tp1140
g1097
I00
S"\x90\x7f\xb1\xcf\x88_D\xc0\xd2\xebs'\xa6\xf7=@\x9a?\x96pR\x89 @"
p1141
tp1142
bsg1102
S'Cell[3].axon[149]'
p1143
sI183
I20
tp1144
a(F1.3370130841138312
S'Cell[1].dend[15] syn_ = new ExpSid(0.9)'
p1145
I1
(dp1146
g1087
F0.5
sg1088
F39.0
sg1089
I183
sg1090
g7
(g8
(I0
tp1147
g10
tp1148
Rp1149
(I1
(I3
tp1150
g1097
I00
S'L/\xd8\xf2\xd6\xda,\xc0\xe9\x04W%\x174M@k\x1d\x1f\r\x84\x07M\xc0'
p1151
tp1152
bsg1102
S'Cell[3].axon[169]'
p1153
sI183
I68
tp1154
a(F2.4050947926801642
S'Cell[2].dend[38] syn_ = new FastInhib(0.3)'
p1155
I2
(dp1156
S'seg'
p1157
F0.5
sS'hostfrom'
p1158
F40.0
sS'gid'
p1159
I88
sS'coords'
p1160
g7
(g8
(I0
tp1161
g10
tp1162
Rp1163
(I1
(I3
tp1164
g14
(S'f8'
p1165
I0
I1
tp1166
Rp1167
(I3
S'<'
p1168
NNNI-1
I-1
I0
tp1169
bI00
S'\x80\x1cu\xbe\x83\xafW\xc0\xdf~\xac\xb8a\xda\x13@\xa6\x95\xb2\\;^D\xc0'
p1170
tp1171
bsS'secnames'
p1172
S'Cell[1].axon[19]'
p1173
sI88
I116
tp1174
a(F2.2922616973816616
S'Cell[1].apic[7] syn_ = new AmpaNmda(0.357142857143)'
p1175
I1
(dp1176
g1157
F0.8999999999999999
sg1158
F40.0
sg1159
I88
sg1160
g7
(g8
(I0
tp1177
g10
tp1178
Rp1179
(I1
(I3
tp1180
g1167
I00
S'\x1c\x9f!k\r9&\xc0\x9f\xf3\xa3-e\x10a@\xf8\xa6\x11\xc5\x03\xc9%@'
p1181
tp1182
bsg1172
S'Cell[1].axon[193]'
p1183
sI88
I68
tp1184
a(F1.306224567033334
S'Cell[1].dend[11] syn_ = new AmpaNmda(0.5)'
p1185
I1
(dp1186
g1157
F0.30000000000000004
sg1158
F40.0
sg1159
I88
sg1160
g7
(g8
(I0
tp1187
g10
tp1188
Rp1189
(I1
(I3
tp1190
g1167
I00
S'ontp=\x88\n@\x93\x0b\x07}\xb6 E@\x9e\xe38\xa6*~!@'
p1191
tp1192
bsg1172
S'Cell[1].axon[290]'
p1193
sI88
I68
tp1194
a(F2.3376470284826127
S'Cell[2].dend[58] syn_ = new FastInhib(0.1)'
p1195
I2
(dp1196
g1157
F0.8333333333333333
sg1158
F40.0
sg1159
I136
sg1160
g7
(g8
(I0
tp1197
g10
tp1198
Rp1199
(I1
(I3
tp1200
g1167
I00
S'\xb0&j}\xe0\x00=\xc0)\xe5\xf2\x8caEB@\x00\x00\x00 \xae\xa7G\xc0'
p1201
tp1202
bsg1172
S'Cell[2].axon[192]'
p1203
sI136
I116
tp1204
a(F1.3100151888411296
S'Cell[1].dend[20] syn_ = new ExpSid(0.5)'
p1205
I1
(dp1206
S'seg'
p1207
F0.16666666666666666
sS'hostfrom'
p1208
F41.0
sS'gid'
p1209
I185
sS'coords'
p1210
g7
(g8
(I0
tp1211
g10
tp1212
Rp1213
(I1
(I3
tp1214
g14
(S'f8'
p1215
I0
I1
tp1216
Rp1217
(I3
S'<'
p1218
NNNI-1
I-1
I0
tp1219
bI00
S'\xca1f\xe5\xbc\x8e+@`b\xe5\xdb\x1f\x17D@\x00\x00\x00\xc0\xf5(.@'
p1220
tp1221
bsS'secnames'
p1222
S'Cell[3].axon[274]'
p1223
sI185
I68
tp1224
a(F2.375913372457275
S'Cell[2].dend[37] syn_ = new FastInhib(0.5)'
p1225
I2
(dp1226
g1207
F0.5
sg1208
F41.0
sg1209
I89
sg1210
g7
(g8
(I0
tp1227
g10
tp1228
Rp1229
(I1
(I3
tp1230
g1217
I00
S'\x02\xba\x07\xee\xa3\xafM\xc0jGW\x8e\xf3L\x02@\xa8\xa0\x80\xbb&x+\xc0'
p1231
tp1232
bsg1222
S'Cell[1].axon[104]'
p1233
sI89
I116
tp1234
a(F1.8310006133182692
S'Cell[2].dend[10] syn_ = new FastInhib(0.5)'
p1235
I2
(dp1236
S'seg'
p1237
F0.029411764705882353
sS'hostfrom'
p1238
F42.0
sS'gid'
p1239
I90
sS'coords'
p1240
g7
(g8
(I0
tp1241
g10
tp1242
Rp1243
(I1
(I3
tp1244
g14
(S'f8'
p1245
I0
I1
tp1246
Rp1247
(I3
S'<'
p1248
NNNI-1
I-1
I0
tp1249
bI00
S'p\xde\x12\xca\xba\xef6\xc0\xf8T\xad\xbb\xd5\x0bE\xc0\xbd\xbf\xd8\xcdc<\xd2?'
p1250
tp1251
bsS'secnames'
p1252
S'Cell[1].axon[19]'
p1253
sI90
I116
tp1254
a(F2.027200697782111
S'Cell[0].dend[0] syn_ = new AmpaNmda(0.1)'
p1255
I0
(dp1256
g1237
F0.8333333333333333
sg1238
F42.0
sg1239
I90
sg1240
g7
(g8
(I0
tp1257
g10
tp1258
Rp1259
(I1
(I3
tp1260
g1247
I00
S'L\xfd\xecg\xe4\xb5\xeb?e\x9b\xa6\x12\x10\xbaE@\x81\x9fB\x1cf,=@'
p1261
tp1262
bsg1252
S'Cell[1].axon[208]'
p1263
sI90
I20
tp1264
a(F1.345028728584826
S'Cell[2].dend[9] syn_ = new FastInhib(0.7)'
p1265
I2
(dp1266
g1237
F0.5
sg1238
F42.0
sg1239
I186
sg1240
g7
(g8
(I0
tp1267
g10
tp1268
Rp1269
(I1
(I3
tp1270
g1247
I00
S'oQJ\x95\x1a\xc8\x15@\x98\xac~\x96/\x17U\xc0\xbb\x8d\xd0\x13\x8cxE\xc0'
p1271
tp1272
bsg1252
S'Cell[3].axon[37]'
p1273
sI186
I116
tp1274
a(F2.311502833570604
S'Cell[2].dend[5] syn_ = new FastInhib(0.5)'
p1275
I2
(dp1276
g1237
F0.8333333333333333
sg1238
F42.0
sg1239
I186
sg1240
g7
(g8
(I0
tp1277
g10
tp1278
Rp1279
(I1
(I3
tp1280
g1247
I00
S'\x19\x90D\xeb\xa7/"\xc0}O\x05\xa7\xf0\x10F\xc0\x00\x00\x00@\xe1z\xf8?'
p1281
tp1282
bsg1252
S'Cell[3].axon[68]'
p1283
sI186
I116
tp1284
a(F1.7657614009051137
S'Cell[2].dend[13] syn_ = new FastInhib(0.5)'
p1285
I2
(dp1286
g1237
F0.5
sg1238
F42.0
sg1239
I186
sg1240
g7
(g8
(I0
tp1287
g10
tp1288
Rp1289
(I1
(I3
tp1290
g1247
I00
S'h\rnk\x14\xe9\x13@*\x88wWy\x98M\xc0w\xd6/\x81P\x80*@'
p1291
tp1292
bsg1252
S'Cell[3].axon[84]'
p1293
sI186
I116
tp1294
a(F2.3752742728544614
S'Cell[2].dend[7] syn_ = new FastInhib(0.5)'
p1295
I2
(dp1296
S'seg'
p1297
F0.1
sS'hostfrom'
p1298
F43.0
sS'gid'
p1299
I139
sS'coords'
p1300
g7
(g8
(I0
tp1301
g10
tp1302
Rp1303
(I1
(I3
tp1304
g14
(S'f8'
p1305
I0
I1
tp1306
Rp1307
(I3
S'<'
p1308
NNNI-1
I-1
I0
tp1309
bI00
S'\xf2\x1a\xad\x04\x11\xe7<@f\n\xd9\x01\x9f\t,\xc0\x07\xf6\xea\th">\xc0'
p1310
tp1311
bsS'secnames'
p1312
S'Cell[2].axon[287]'
p1313
sI139
I116
tp1314
a(F1.4390127884073804
S'Cell[2].dend[9] syn_ = new FastInhib(0.5)'
p1315
I2
(dp1316
g1297
F0.30000000000000004
sg1298
F43.0
sg1299
I187
sg1300
g7
(g8
(I0
tp1317
g10
tp1318
Rp1319
(I1
(I3
tp1320
g1307
I00
S'\xcc\xacq\xa7\xe8=\xf2?\\X5-\xcd\xecR\xc0\x1e\xe1T\xac\xed\xf8<\xc0'
p1321
tp1322
bsg1312
S'Cell[3].axon[43]'
p1323
sI187
I116
tp1324
a(F2.256389235927002
S'Cell[2].dend[55] syn_ = new FastInhib(0.5)'
p1325
I2
(dp1326
g1297
F0.07142857142857142
sg1298
F43.0
sg1299
I187
sg1300
g7
(g8
(I0
tp1327
g10
tp1328
Rp1329
(I1
(I3
tp1330
g1307
I00
S'\x97\xe99\x0b\x87a6\xc0\xeb\x82\xeaAA\x88=@\x00\x00\x00`\xb8~E\xc0'
p1331
tp1332
bsg1312
S'Cell[3].axon[213]'
p1333
sI187
I116
tp1334
a(F1.3596283580429465
S'Cell[2].dend[12] syn_ = new FastInhib(0.5)'
p1335
I2
(dp1336
S'seg'
p1337
F0.7
sS'hostfrom'
p1338
F44.0
sS'gid'
p1339
I188
sS'coords'
p1340
g7
(g8
(I0
tp1341
g10
tp1342
Rp1343
(I1
(I3
tp1344
g14
(S'f8'
p1345
I0
I1
tp1346
Rp1347
(I3
S'<'
p1348
NNNI-1
I-1
I0
tp1349
bI00
S'.r\xa7.\xb5\xa3-@\x1f\x9a\xe9E\x03\xd2?\xc0"I\xab_yK.@'
p1350
tp1351
bsS'secnames'
p1352
S'Cell[3].axon[66]'
p1353
sI188
I116
tp1354
a(F2.2192425384936034
S'Cell[1].dend[15] syn_ = new AmpaNmda(0.1)'
p1355
I1
(dp1356
g1337
F0.8333333333333333
sg1338
F44.0
sg1339
I188
sg1340
g7
(g8
(I0
tp1357
g10
tp1358
Rp1359
(I1
(I3
tp1360
g1347
I00
S"l\x85qB\xb1\x95*@r\x01\x12\xda\x85RE@\x06|,\xf0q\xdb'\xc0"
p1361
tp1362
bsg1352
S'Cell[3].axon[126]'
p1363
sI188
I68
tp1364
a(F0.89064256867693
S'Cell[2].dend[48] syn_ = new FastInhib(0.833333333333)'
p1365
I2
(dp1366
S'seg'
p1367
F0.5
sS'hostfrom'
p1368
F45.0
sS'gid'
p1369
I141
sS'coords'
p1370
g7
(g8
(I0
tp1371
g10
tp1372
Rp1373
(I1
(I3
tp1374
g14
(S'f8'
p1375
I0
I1
tp1376
Rp1377
(I3
S'<'
p1378
NNNI-1
I-1
I0
tp1379
bI00
S'\x00\x00\x00`\x8f\xe2L@\x00\x00\x00pffA@\x00\x00\x00pff:\xc0'
p1380
tp1381
bsS'secnames'
p1382
S'Cell[2].axon[305]'
p1383
sI141
I116
tp1384
a(F1.1082767486667058
S'Cell[1].dend[29] syn_ = new ExpSid(0.5)'
p1385
I1
(dp1386
g1367
F0.16666666666666666
sg1368
F45.0
sg1369
I189
sg1370
g7
(g8
(I0
tp1387
g10
tp1388
Rp1389
(I1
(I3
tp1390
g1377
I00
S'\xfc\x82@\xf1n\x0fG@\xc1\xa3\x81\xa1t\xd1A@\x9a\x02\x11\xeciv$\xc0'
p1391
tp1392
bsg1382
S'Cell[3].axon[71]'
p1393
sI189
I68
tp1394
a(F2.09532001069476
S'Cell[1].dend[36] syn_ = new ExpSid(0.166666666667)'
p1395
I1
(dp1396
g1367
F0.5
sg1368
F45.0
sg1369
I189
sg1370
g7
(g8
(I0
tp1397
g10
tp1398
Rp1399
(I1
(I3
tp1400
g1377
I00
S'\xf8;\xa3\xcd\xfb\xb1T@\x04\xa9\xa4\xfc\xf4\xb6\x15@\x00\x00\x00\x80\xc2\xf5(\xc0'
p1401
tp1402
bsg1382
S'Cell[3].axon[85]'
p1403
sI189
I68
tp1404
a(F1.4030717164612174
S'Cell[1].apic[1] syn_ = new ExpSid(0.1)'
p1405
I1
(dp1406
g1367
F0.16666666666666666
sg1368
F45.0
sg1369
I93
sg1370
g7
(g8
(I0
tp1407
g10
tp1408
Rp1409
(I1
(I3
tp1410
g1377
I00
S'\x84\xb1\xeb\x83li@@\xf7\xc1\x0c\x9b\xd4\x19R@\x07\x13\xcb\xb4\x86h\x1a\xc0'
p1411
tp1412
bsg1382
S'Cell[1].axon[66]'
p1413
sI93
I68
tp1414
a(F1.747334247711309
S'Cell[1].apic[1] syn_ = new ExpSid(0.7)'
p1415
I1
(dp1416
g1367
F0.16666666666666666
sg1368
F45.0
sg1369
I93
sg1370
g7
(g8
(I0
tp1417
g10
tp1418
Rp1419
(I1
(I3
tp1420
g1377
I00
S"\xd7\x95\x14\xf4'\xf3/\xc0\xb20\xeey\xff\xc8M@\x9c8W\x16\xb7S=\xc0"
p1421
tp1422
bsg1382
S'Cell[1].axon[83]'
p1423
sI93
I68
tp1424
a(F1.4930921034259605
S'Cell[0].dend[0] syn_ = new ExpSid(0.5)'
p1425
I0
(dp1426
g1367
F0.8333333333333333
sg1368
F45.0
sg1369
I93
sg1370
g7
(g8
(I0
tp1427
g10
tp1428
Rp1429
(I1
(I3
tp1430
g1377
I00
S"uUL/\x92\x9b(@P\x01\xcb\xf0\x85\xe7'\xc0\xef\x8e\x9b\x94\r\xf8C@"
p1431
tp1432
bsg1382
S'Cell[1].axon[176]'
p1433
sI93
I20
tp1434
a(F2.471814515179786
S'Cell[2].dend[43] syn_ = new FastInhib(0.5)'
p1435
I2
(dp1436
S'seg'
p1437
F0.16666666666666666
sS'hostfrom'
p1438
F46.0
sS'gid'
p1439
I94
sS'coords'
p1440
g7
(g8
(I0
tp1441
g10
tp1442
Rp1443
(I1
(I3
tp1444
g14
(S'f8'
p1445
I0
I1
tp1446
Rp1447
(I3
S'<'
p1448
NNNI-1
I-1
I0
tp1449
bI00
S'\x88\xdfv\xd2\xf8\xd4B\xc0J\x8e\xef\xd7\xc3"*@\n\xe5\x9b3\xd5-%\xc0'
p1450
tp1451
bsS'secnames'
p1452
S'Cell[1].axon[309]'
p1453
sI94
I116
tp1454
a(F1.6795662339920916
S'Cell[0].dend[3] syn_ = new ExpSid(0.166666666667)'
p1455
I0
(dp1456
S'seg'
p1457
F0.16666666666666666
sS'hostfrom'
p1458
F47.0
sS'gid'
p1459
I143
sS'coords'
p1460
g7
(g8
(I0
tp1461
g10
tp1462
Rp1463
(I1
(I3
tp1464
g14
(S'f8'
p1465
I0
I1
tp1466
Rp1467
(I3
S'<'
p1468
NNNI-1
I-1
I0
tp1469
bI00
S'\x858\x01C>\xaa=@\x7f)S\xce@\xebM@\x8eQ\xadWb\xf6"@'
p1470
tp1471
bsS'secnames'
p1472
S'Cell[2].axon[90]'
p1473
sI143
I20
tp1474
a(F2.400883771363656
S'Cell[2].dend[21] syn_ = new FastInhib(0.5)'
p1475
I2
(dp1476
g1457
F0.5
sg1458
F47.0
sg1459
I143
sg1460
g7
(g8
(I0
tp1477
g10
tp1478
Rp1479
(I1
(I3
tp1480
g1467
I00
S"\xc81\xda\x85`[M\xc0b\xfc\xc7\xda\x07'6@\xded\x8fz\x07 +\xc0"
p1481
tp1482
bsg1472
S'Cell[2].axon[142]'
p1483
sI143
I116
tp1484
a(F1.9910249622525122
S'Cell[1].dend[15] syn_ = new ExpSid(0.5)'
p1485
I1
(dp1486
g1457
F0.5
sg1458
F47.0
sg1459
I143
sg1460
g7
(g8
(I0
tp1487
g10
tp1488
Rp1489
(I1
(I3
tp1490
g1467
I00
S'\x043\xa6\xe4\xdd\x9f\xe2\xbfD\xd2\x81\r\xefNI@\xa21\xed\xe7\xef\x0b6\xc0'
p1491
tp1492
bsg1472
S'Cell[2].axon[202]'
p1493
sI143
I68
tp1494
a.