(lp0
(F1.7321072656983938
S'Cell[1].dend[34] syn_ = new AmpaNmda(0.5)'
p1
I1
(dp2
S'seg'
p3
F0.8999999999999999
sS'hostfrom'
p4
F2.0
sS'gid'
p5
I98
sS'coords'
p6
cnumpy.core.multiarray
_reconstruct
p7
(cnumpy
ndarray
p8
(I0
tp9
S'b'
p10
tp11
Rp12
(I1
(I3
tp13
cnumpy
dtype
p14
(S'f8'
p15
I0
I1
tp16
Rp17
(I3
S'<'
p18
NNNI-1
I-1
I0
tp19
bI00
S'\x00\x00\x00\x00\xd7\xe3L@\xdcY\x19\x9b\xba\xf43\xc0\xca\xf4\x88\xf2\t,8@'
p20
tp21
bsS'secnames'
p22
S'Cell[2].axon[187]'
p23
sI98
I66
tp24
a(F2.3669844860625218
S'Cell[1].dend[12] syn_ = new AmpaNmda(0.5)'
p25
I1
(dp26
g3
F0.5
sg4
F2.0
sg5
I98
sg6
g7
(g8
(I0
tp27
g10
tp28
Rp29
(I1
(I3
tp30
g17
I00
S'\x9e\xf8\xcb\x87\x12\xed2\xc0\x08\xectDG\x0e<@cx2\xbb\xbe\xb39\xc0'
p31
tp32
bsg22
S'Cell[2].axon[304]'
p33
sI98
I66
tp34
a(F2.009703220230703
S'Cell[1].apic[18] syn_ = new AmpaNmda(0.166666666667)'
p35
I1
(dp36
g3
F0.16666666666666666
sg4
F2.0
sg5
I98
sg6
g7
(g8
(I0
tp37
g10
tp38
Rp39
(I1
(I3
tp40
g17
I00
S'\xa6\t\x1a,\xfc\xe0A@d\x06\x92\x97\x96\xa8N@9\x0e\x8d\x08\x96-\x11@'
p41
tp42
bsg22
S'Cell[2].axon[374]'
p43
sI98
I66
tp44
a(F1.7321072656983938
S'Cell[1].dend[34] syn_ = new ExpSid(0.5)'
p45
I1
(dp46
S'seg'
p47
F0.8999999999999999
sS'hostfrom'
p48
F3.0
sS'gid'
p49
I99
sS'coords'
p50
g7
(g8
(I0
tp51
g10
tp52
Rp53
(I1
(I3
tp54
g14
(S'f8'
p55
I0
I1
tp56
Rp57
(I3
S'<'
p58
NNNI-1
I-1
I0
tp59
bI00
S'\x00\x00\x00\x00\xd7\xe3L@\xdcY\x19\x9b\xba\xf43\xc0\xca\xf4\x88\xf2\t,8@'
p60
tp61
bsS'secnames'
p62
S'Cell[2].axon[187]'
p63
sI99
I66
tp64
a(F2.3669844860625218
S'Cell[1].dend[12] syn_ = new ExpSid(0.5)'
p65
I1
(dp66
g47
F0.5
sg48
F3.0
sg49
I99
sg50
g7
(g8
(I0
tp67
g10
tp68
Rp69
(I1
(I3
tp70
g57
I00
S'\x9e\xf8\xcb\x87\x12\xed2\xc0\x08\xectDG\x0e<@cx2\xbb\xbe\xb39\xc0'
p71
tp72
bsg62
S'Cell[2].axon[304]'
p73
sI99
I66
tp74
a(F2.009703220230703
S'Cell[1].apic[18] syn_ = new ExpSid(0.166666666667)'
p75
I1
(dp76
g47
F0.16666666666666666
sg48
F3.0
sg49
I99
sg50
g7
(g8
(I0
tp77
g10
tp78
Rp79
(I1
(I3
tp80
g57
I00
S'\xa6\t\x1a,\xfc\xe0A@d\x06\x92\x97\x96\xa8N@9\x0e\x8d\x08\x96-\x11@'
p81
tp82
bsg62
S'Cell[2].axon[374]'
p83
sI99
I66
tp84
a(F0.5477048590405311
S'Cell[2].dend[8] syn_ = new FastInhib(0.166666666667)'
p85
I2
(dp86
g47
F0.5
sg48
F3.0
sg49
I147
sg50
g7
(g8
(I0
tp87
g10
tp88
Rp89
(I1
(I3
tp90
g57
I00
S'R\x80\xfe\xc2\x8f\x8d\x13\xc0\x02\xa9_\xfa\xf9oJ@\x00\x00\x00\xe0\xa3p\x10@'
p91
tp92
bsg62
S'Cell[3].axon[4]'
p93
sI147
I114
tp94
a(F2.480114308551243
S'Cell[0].dend[22] syn_ = new ExpSid(0.5)'
p95
I0
(dp96
S'seg'
p97
F0.3
sS'hostfrom'
p98
F5.0
sS'gid'
p99
I5
sS'coords'
p100
g7
(g8
(I0
tp101
g10
tp102
Rp103
(I1
(I3
tp104
g14
(S'f8'
p105
I0
I1
tp106
Rp107
(I3
S'<'
p108
NNNI-1
I-1
I0
tp109
bI00
S'\x97\xee[p\x8f#E\xc0\x13\xcdo\x98\xcd\xf4%\xc0\x83V4\xf24\x9aQ@'
p110
tp111
bsS'secnames'
p112
S'Cell[0].axon[15]'
p113
sI5
I18
tp114
a(F0.9840335733985867
S'Cell[3].dend[15] syn_ = new FastInhib(0.5)'
p115
I3
(dp116
S'seg'
p117
F0.21428571428571427
sS'hostfrom'
p118
F6.0
sS'gid'
p119
I150
sS'coords'
p120
g7
(g8
(I0
tp121
g10
tp122
Rp123
(I1
(I3
tp124
g14
(S'f8'
p125
I0
I1
tp126
Rp127
(I3
S'<'
p128
NNNI-1
I-1
I0
tp129
bI00
S'\xc2\xa0\t\xfd<`;\xc0\xc23/i\xf1:\\@\x00\x00\x00\x80\x14\xee>\xc0'
p130
tp131
bsS'secnames'
p132
S'Cell[3].axon[97]'
p133
sI150
I162
tp134
a(F2.252229692678784
S'Cell[1].dend[22] syn_ = new AmpaNmda(0.5)'
p135
I1
(dp136
g117
F0.5
sg118
F6.0
sg119
I150
sg120
g7
(g8
(I0
tp137
g10
tp138
Rp139
(I1
(I3
tp140
g127
I00
S'\x89:["AHF@\xf6\x85\r\xee\x819\x04@\x00\x00\x00\x80\x14\xee>\xc0'
p141
tp142
bsg132
S'Cell[3].axon[178]'
p143
sI150
I66
tp144
a(F1.3606961370577482
S'Cell[0].apic[11] syn_ = new ExpSid(0.166666666667)'
p145
I0
(dp146
S'seg'
p147
F0.5
sS'hostfrom'
p148
F7.0
sS'gid'
p149
I103
sS'coords'
p150
g7
(g8
(I0
tp151
g10
tp152
Rp153
(I1
(I3
tp154
g14
(S'f8'
p155
I0
I1
tp156
Rp157
(I3
S'<'
p158
NNNI-1
I-1
I0
tp159
bI00
S'\xc9\xe7\xe3\xcf\xcb\xf0C\xc0\x8c\x05\xca\x83\xe4_H@\x00\x00\x00 \xae\xc7"\xc0'
p160
tp161
bsS'secnames'
p162
S'Cell[2].axon[90]'
p163
sI103
I18
tp164
a(F2.2311598284508527
S'Cell[2].dend[2] syn_ = new FastInhib(0.5)'
p165
I2
(dp166
g147
F0.5
sg148
F7.0
sg149
I103
sg150
g7
(g8
(I0
tp167
g10
tp168
Rp169
(I1
(I3
tp170
g157
I00
S'\xc0u,\x1bOb-?\x0cp\xa4\xa8\xf5\xc7+@\x00\x00\x00 \x85\xeb\x05@'
p171
tp172
bsg162
S'Cell[2].axon[263]'
p173
sI103
I114
tp174
a(F1.923236283522438
S'Cell[2].dend[1] syn_ = new FastInhib(0.3)'
p175
I2
(dp176
g147
F0.16666666666666666
sg148
F7.0
sg149
I103
sg150
g7
(g8
(I0
tp177
g10
tp178
Rp179
(I1
(I3
tp180
g157
I00
S'"J\xce[R\x0fC@gE\x84a\xf5\xb7#@?2[[5C\xb3\xbf'
p181
tp182
bsg162
S'Cell[2].axon[298]'
p183
sI103
I114
tp184
a(F1.3551591550687698
S'Cell[3].dend[20] syn_ = new FastInhib(0.166666666667)'
p185
I3
(dp186
g147
F0.16666666666666666
sg148
F7.0
sg149
I151
sg150
g7
(g8
(I0
tp187
g10
tp188
Rp189
(I1
(I3
tp190
g157
I00
S'\xec\xe9S\xb9Z\xd3\xe6\xbf\xf2\x036\x84\x92R9\xc0H\x81\x06\x00\n(!@'
p191
tp192
bsg162
S'Cell[3].axon[79]'
p193
sI151
I162
tp194
a(F2.0384176414384387
S'Cell[1].apic[18] syn_ = new AmpaNmda(0.166666666667)'
p195
I1
(dp196
S'seg'
p197
F0.5
sS'hostfrom'
p198
F8.0
sS'gid'
p199
I152
sS'coords'
p200
g7
(g8
(I0
tp201
g10
tp202
Rp203
(I1
(I3
tp204
g14
(S'f8'
p205
I0
I1
tp206
Rp207
(I3
S'<'
p208
NNNI-1
I-1
I0
tp209
bI00
S'\xc1\xb5U\x19p\xb6A@\x99\xe5hZ\x91\x91N@\x00\x00\x00\xc0\x1e\x05 @'
p210
tp211
bsS'secnames'
p212
S'Cell[3].axon[128]'
p213
sI152
I66
tp214
a(F1.5940516097834627
S'Cell[0].apic[20] syn_ = new AmpaNmda(0.5)'
p215
I0
(dp216
g197
F0.8999999999999999
sg198
F8.0
sg199
I104
sg200
g7
(g8
(I0
tp217
g10
tp218
Rp219
(I1
(I3
tp220
g207
I00
S'\xbcM\xccIzHB\xc0*V9\xad\x14wO@ZH\xfa\xd4\xd9\xbe5@'
p221
tp222
bsg212
S'Cell[2].axon[188]'
p223
sI104
I18
tp224
a(F1.5794741788829623
S'Cell[3].dend[0] syn_ = new FastInhib(0.833333333333)'
p225
I3
(dp226
g197
F0.16666666666666666
sg198
F8.0
sg199
I104
sg200
g7
(g8
(I0
tp227
g10
tp228
Rp229
(I1
(I3
tp230
g207
I00
S'\x02K>#+\xe05\xc0\xb8;h>o\xadL@l\x0b\xdcA\x86\x18:@'
p231
tp232
bsg212
S'Cell[2].axon[190]'
p233
sI104
I162
tp234
a(F1.935993854078966
S'Cell[0].dend[4] syn_ = new ExpSid(0.5)'
p235
I0
(dp236
S'seg'
p237
F0.5
sS'hostfrom'
p238
F9.0
sS'gid'
p239
I153
sS'coords'
p240
g7
(g8
(I0
tp241
g10
tp242
Rp243
(I1
(I3
tp244
g14
(S'f8'
p245
I0
I1
tp246
Rp247
(I3
S'<'
p248
NNNI-1
I-1
I0
tp249
bI00
S'{\xee\xa8Y)G\x03@,[\xed`\x9d\xdfC\xc0\xee`\xd8\xcb\xe8r3@'
p250
tp251
bsS'secnames'
p252
S'Cell[3].axon[24]'
p253
sI153
I18
tp254
a(F1.9181144476636656
S'Cell[2].dend[18] syn_ = new FastInhib(0.166666666667)'
p255
I2
(dp256
g237
F0.8333333333333333
sg238
F9.0
sg239
I9
sg240
g7
(g8
(I0
tp257
g10
tp258
Rp259
(I1
(I3
tp260
g247
I00
S'\n\xe2\xb3\xa9\xc6\xe5@\xc0u\xc3\xf3\xf3\x99rY@\\Y,\xe9\xaa\xa2\t@'
p261
tp262
bsg252
S'Cell[0].axon[7]'
p263
sI9
I114
tp264
a(F0.9916131830301778
S'Cell[1].dend[6] syn_ = new ExpSid(0.5)'
p265
I1
(dp266
S'seg'
p267
F0.8333333333333333
sS'hostfrom'
p268
F11.0
sS'gid'
p269
I59
sS'coords'
p270
g7
(g8
(I0
tp271
g10
tp272
Rp273
(I1
(I3
tp274
g14
(S'f8'
p275
I0
I1
tp276
Rp277
(I3
S'<'
p278
NNNI-1
I-1
I0
tp279
bI00
S'\x86\xf0s\x87i\xa31@\xa0b\xa4\x8c\x12\x85\x13@\x00\x00\x00 \x85k(@'
p280
tp281
bsS'secnames'
p282
S'Cell[1].axon[0]'
p283
sI59
I66
tp284
a(F2.2298943744856485
S'Cell[1].apic[17] syn_ = new ExpSid(0.3)'
p285
I1
(dp286
g267
F0.8333333333333333
sg268
F11.0
sg269
I155
sg270
g7
(g8
(I0
tp287
g10
tp288
Rp289
(I1
(I3
tp290
g277
I00
S'O\xd9<\xe5l\x05A\xc0\xa5I\x1eYC\x0cL@\x00\x00\x00\xa0G\xe1\x15@'
p291
tp292
bsg282
S'Cell[3].axon[173]'
p293
sI155
I66
tp294
a(F1.8588489700801223
S'Cell[1].apic[20] syn_ = new ExpSid(0.3)'
p295
I1
(dp296
S'seg'
p297
F0.7
sS'hostfrom'
p298
F13.0
sS'gid'
p299
I109
sS'coords'
p300
g7
(g8
(I0
tp301
g10
tp302
Rp303
(I1
(I3
tp304
g14
(S'f8'
p305
I0
I1
tp306
Rp307
(I3
S'<'
p308
NNNI-1
I-1
I0
tp309
bI00
S'\xc0\xc0}+([F@`\xae\xf0\xe5\x03\xdcb@\t\x7fsG\xeb\x87*@'
p310
tp311
bsS'secnames'
p312
S'Cell[2].axon[159]'
p313
sI109
I66
tp314
a(F1.1461665967186008
S'Cell[1].dend[23] syn_ = new ExpSid(0.833333333333)'
p315
I1
(dp316
g297
F0.8333333333333333
sg298
F13.0
sg299
I109
sg300
g7
(g8
(I0
tp317
g10
tp318
Rp319
(I1
(I3
tp320
g307
I00
S'\x07\xf1g\xc2\xd4!H@\t\x9a9\n\x96\x14!\xc0\xebl\xf7\xd8\x1b\x13R\xc0'
p321
tp322
bsg312
S'Cell[2].axon[255]'
p323
sI109
I66
tp324
a(F1.4811136202622248
S'Cell[2].dend[20] syn_ = new FastInhib(0.5)'
p325
I2
(dp326
g297
F0.5
sg298
F13.0
sg299
I109
sg300
g7
(g8
(I0
tp327
g10
tp328
Rp329
(I1
(I3
tp330
g307
I00
S"H\x9c'P\xfaWH\xc0\x10\xe9\x19\xc6\xe2\xc7c@\x00\x00\x00`\x8f\x820@"
p331
tp332
bsg312
S'Cell[2].axon[273]'
p333
sI109
I114
tp334
a(F2.4984640569413235
S'Cell[1].dend[34] syn_ = new AmpaNmda(0.166666666667)'
p335
I1
(dp336
S'seg'
p337
F0.8333333333333333
sS'hostfrom'
p338
F14.0
sS'gid'
p339
I110
sS'coords'
p340
g7
(g8
(I0
tp341
g10
tp342
Rp343
(I1
(I3
tp344
g14
(S'f8'
p345
I0
I1
tp346
Rp347
(I3
S'<'
p348
NNNI-1
I-1
I0
tp349
bI00
S"\xb6\xfeU\xef\xa36K@&\xcbd\x94\xa2H.\xc0\xb8\xd5\xf6\xec,\x8a'@"
p350
tp351
bsS'secnames'
p352
S'Cell[2].axon[134]'
p353
sI110
I66
tp354
a(F2.1791414803985973
S'Cell[3].dend[10] syn_ = new FastInhib(0.0454545454545)'
p355
I3
(dp356
S'seg'
p357
F0.8333333333333333
sS'hostfrom'
p358
F15.0
sS'gid'
p359
I159
sS'coords'
p360
g7
(g8
(I0
tp361
g10
tp362
Rp363
(I1
(I3
tp364
g14
(S'f8'
p365
I0
I1
tp366
Rp367
(I3
S'<'
p368
NNNI-1
I-1
I0
tp369
bI00
S'\xc6\xff\xc6L\x1d\xaa)\xc0\x0c\x02\xc0\x9b\xb2\xa7C@\x00\x00\x00\xc0\x1e\x85-\xc0'
p370
tp371
bsS'secnames'
p372
S'Cell[3].axon[35]'
p373
sI159
I162
tp374
a(F1.9443440930183435
S'Cell[0].apic[21] syn_ = new ExpSid(0.5)'
p375
I0
(dp376
g357
F0.5
sg358
F15.0
sg359
I159
sg360
g7
(g8
(I0
tp377
g10
tp378
Rp379
(I1
(I3
tp380
g367
I00
S'\xf1\xed\x1c\xa7\xb8\x92F\xc0\x0c\xa0In~\xc7T@\x88\xc7\\\x83\xb6\xb1&@'
p381
tp382
bsg372
S'Cell[3].axon[276]'
p383
sI159
I18
tp384
a(F1.8161390776305364
S'Cell[1].apic[12] syn_ = new ExpSid(0.5)'
p385
I1
(dp386
g357
F0.1
sg358
F15.0
sg359
I159
sg360
g7
(g8
(I0
tp387
g10
tp388
Rp389
(I1
(I3
tp390
g367
I00
S'\xb2m\xd4\xd8o\xc3\x0c@\tq\xc8\xe3\x8f\xe9E@\xfb\xaaY\x87\xf0\x12#@'
p391
tp392
bsg372
S'Cell[3].axon[282]'
p393
sI159
I66
tp394
a(F1.363272148188983
S'Cell[0].apic[29] syn_ = new ExpSid(0.5)'
p395
I0
(dp396
g357
F0.30000000000000004
sg358
F15.0
sg359
I159
sg360
g7
(g8
(I0
tp397
g10
tp398
Rp399
(I1
(I3
tp400
g367
I00
S'\xc3\xb4F\xdeK\xcbA\xc0l\xc8{\xfb \x03_@\xe2[K\x9e\xf4\xcaD@'
p401
tp402
bsg372
S'Cell[3].axon[338]'
p403
sI159
I18
tp404
a(F1.8793809566157906
S'Cell[2].dend[26] syn_ = new FastInhib(0.5)'
p405
I2
(dp406
S'seg'
p407
F0.1
sS'hostfrom'
p408
F16.0
sS'gid'
p409
I64
sS'coords'
p410
g7
(g8
(I0
tp411
g10
tp412
Rp413
(I1
(I3
tp414
g14
(S'f8'
p415
I0
I1
tp416
Rp417
(I3
S'<'
p418
NNNI-1
I-1
I0
tp419
bI00
S'A\x87\x19\x88_vB@z\xfe\x8b\xfb\xec\xfcJ\xc0\xcf\x19W\x15\x12\\$@'
p420
tp421
bsS'secnames'
p422
S'Cell[1].axon[11]'
p423
sI64
I114
tp424
a(F2.1934856473139943
S'Cell[1].dend[6] syn_ = new AmpaNmda(0.5)'
p425
I1
(dp426
g407
F0.16666666666666666
sg408
F16.0
sg409
I112
sg410
g7
(g8
(I0
tp427
g10
tp428
Rp429
(I1
(I3
tp430
g417
I00
S'\x88\xedmo:\x1f2@\x00\x00\x00\xe0\xa3p\x14@|\x11s\x84\x8d\x15$@'
p431
tp432
bsg422
S'Cell[2].axon[5]'
p433
sI112
I66
tp434
a(F2.1713249912646213
S'Cell[1].apic[16] syn_ = new AmpaNmda(0.166666666667)'
p435
I1
(dp436
g407
F0.5
sg408
F16.0
sg409
I112
sg410
g7
(g8
(I0
tp437
g10
tp438
Rp439
(I1
(I3
tp440
g417
I00
S'\x15\xc5Xp\xf4\x06\xf2?\xab\x86\xc8\x05\xd1"H@\x0e\x04pwd-6@'
p441
tp442
bsg422
S'Cell[2].axon[105]'
p443
sI112
I66
tp444
a(F2.4620203438777515
S'Cell[3].dend[19] syn_ = new FastInhib(0.5)'
p445
I3
(dp446
S'seg'
p447
F0.16666666666666666
sS'hostfrom'
p448
F17.0
sS'gid'
p449
I113
sS'coords'
p450
g7
(g8
(I0
tp451
g10
tp452
Rp453
(I1
(I3
tp454
g14
(S'f8'
p455
I0
I1
tp456
Rp457
(I3
S'<'
p458
NNNI-1
I-1
I0
tp459
bI00
S"$\x94\xd5.'v!\xc0tV\xff\x1a\xa1nO\xc0\xe1S\xf6\xab\xd0\xa44@"
p460
tp461
bsS'secnames'
p462
S'Cell[2].axon[576]'
p463
sI113
I162
tp464
a(F1.822553604147735
S'Cell[1].apic[17] syn_ = new ExpSid(0.1)'
p465
I1
(dp466
g447
F0.16666666666666666
sg448
F17.0
sg449
I161
sg450
g7
(g8
(I0
tp467
g10
tp468
Rp469
(I1
(I3
tp470
g457
I00
S'_f\xb9\xba\xeev*\xc0\r\x8b\x9ev\xdaaJ@\xb2\xd4q\xba\xbda!@'
p471
tp472
bsg462
S'Cell[3].axon[66]'
p473
sI161
I66
tp474
a(F2.408308634757664
S'Cell[1].apic[0] syn_ = new ExpSid(0.5)'
p475
I1
(dp476
g447
F0.5
sg448
F17.0
sg449
I161
sg450
g7
(g8
(I0
tp477
g10
tp478
Rp479
(I1
(I3
tp480
g457
I00
S'\x00\x00\x00\x10\xd7\x03C@\x00\x00\x00 \xae\x07?@\x00\x00\x00<\nW\x12\xc0'
p481
tp482
bsg462
S'Cell[3].axon[128]'
p483
sI161
I66
tp484
a(F1.405620069565557
S'Cell[1].apic[16] syn_ = new ExpSid(0.5)'
p485
I1
(dp486
g447
F0.1
sg448
F17.0
sg449
I161
sg450
g7
(g8
(I0
tp487
g10
tp488
Rp489
(I1
(I3
tp490
g457
I00
S'\xd1#a/\xa2\xee \xc0\xb4\xef\xa1Cs\x07H@SC\x02\x0e\xdb\xfeB@'
p491
tp492
bsg462
S'Cell[3].axon[206]'
p493
sI161
I66
tp494
a(F1.635502761671268
S'Cell[2].dend[1] syn_ = new FastInhib(0.3)'
p495
I2
(dp496
S'seg'
p497
F0.5
sS'hostfrom'
p498
F18.0
sS'gid'
p499
I66
sS'coords'
p500
g7
(g8
(I0
tp501
g10
tp502
Rp503
(I1
(I3
tp504
g14
(S'f8'
p505
I0
I1
tp506
Rp507
(I3
S'<'
p508
NNNI-1
I-1
I0
tp509
bI00
S'\x00\x00\x00p=\xeaB@\x00\x00\x00\x80\xc2\xf5&@\x00\x00\x00\x00\x00\x00\xf0\xbf'
p510
tp511
bsS'secnames'
p512
S'Cell[1].soma[0]'
p513
sI66
I114
tp514
a(F2.0495342824721345
S'Cell[2].dend[25] syn_ = new FastInhib(0.5)'
p515
I2
(dp516
g497
F0.5
sg498
F18.0
sg499
I66
sg500
g7
(g8
(I0
tp517
g10
tp518
Rp519
(I1
(I3
tp520
g507
I00
S'j9YM}$5@\x0b\xe8\x89\x05*\xbfI\xc0\x8eb\x17\x8e0\xac&\xc0'
p521
tp522
bsg512
S'Cell[1].axon[7]'
p523
sI66
I114
tp524
a(F2.0721958377258605
S'Cell[2].dend[4] syn_ = new FastInhib(0.0555555555556)'
p525
I2
(dp526
g497
F0.5
sg498
F18.0
sg499
I162
sg500
g7
(g8
(I0
tp527
g10
tp528
Rp529
(I1
(I3
tp530
g507
I00
S'\x81Jx\x11\xd8\x18"@\x8e\xa0;3\xff\x1d=@EF]\x9aqo\x14@'
p531
tp532
bsg512
S'Cell[3].axon[181]'
p533
sI162
I114
tp534
a(F2.1026970638376006
S'Cell[1].apic[1] syn_ = new ExpSid(0.5)'
p535
I1
(dp536
S'seg'
p537
F0.8333333333333333
sS'hostfrom'
p538
F19.0
sS'gid'
p539
I115
sS'coords'
p540
g7
(g8
(I0
tp541
g10
tp542
Rp543
(I1
(I3
tp544
g14
(S'f8'
p545
I0
I1
tp546
Rp547
(I3
S'<'
p548
NNNI-1
I-1
I0
tp549
bI00
S'\xb4$\xc1\xc1\x90\xb8I@\xa4=\xbc\xf2f\xacG@\x00\x00\x00@33\x16\xc0'
p550
tp551
bsS'secnames'
p552
S'Cell[2].axon[78]'
p553
sI115
I66
tp554
a(F1.6171675542010455
S'Cell[1].apic[7] syn_ = new ExpSid(0.5)'
p555
I1
(dp556
g537
F0.8333333333333333
sg538
F19.0
sg539
I115
sg540
g7
(g8
(I0
tp557
g10
tp558
Rp559
(I1
(I3
tp560
g547
I00
S'n\x83\xd7_\xc6\xf1=@_\xacZ\xb9/]I@\x91\xae\xd3\x81L\xcd\x0b\xc0'
p561
tp562
bsg552
S'Cell[2].axon[79]'
p563
sI115
I66
tp564
a(F2.479150707312489
S'Cell[3].dend[0] syn_ = new FastInhib(0.5)'
p565
I3
(dp566
g537
F0.40909090909090906
sg538
F19.0
sg539
I67
sg540
g7
(g8
(I0
tp567
g10
tp568
Rp569
(I1
(I3
tp570
g547
I00
S"\xf8\xbd\x8e'9\t,\xc0\xdf\x00$\xbd\xf1\xcaD@a*\x16\xa9k\x87,@"
p571
tp572
bsg552
S'Cell[1].axon[8]'
p573
sI67
I162
tp574
a(F1.239264333226746
S'Cell[0].apic[30] syn_ = new ExpSid(0.166666666667)'
p575
I0
(dp576
g537
F0.5
sg538
F19.0
sg539
I67
sg540
g7
(g8
(I0
tp577
g10
tp578
Rp579
(I1
(I3
tp580
g547
I00
S'\x15\x0c\xfc\x9co\xd3B\xc0v\xf9\x18\xec\xa4\x8bb@`\x9a\x86\xaf\xe2\xb3<@'
p581
tp582
bsg552
S'Cell[1].axon[9]'
p583
sI67
I18
tp584
a(F2.4060810203930827
S'Cell[2].dend[39] syn_ = new FastInhib(0.5)'
p585
I2
(dp586
g537
F0.5
sg538
F19.0
sg539
I163
sg540
g7
(g8
(I0
tp587
g10
tp588
Rp589
(I1
(I3
tp590
g547
I00
S"HO \xa2\xa9Q'\xc0\xc4\x15\xa0\xb6&na\xc0\xcaV]\x14\xc2\xc0\x17@"
p591
tp592
bsg552
S'Cell[3].axon[138]'
p593
sI163
I114
tp594
a(F1.839058998133961
S'Cell[0].apic[3] syn_ = new AmpaNmda(0.833333333333)'
p595
I0
(dp596
S'seg'
p597
F0.5
sS'hostfrom'
p598
F20.0
sS'gid'
p599
I164
sS'coords'
p600
g7
(g8
(I0
tp601
g10
tp602
Rp603
(I1
(I3
tp604
g14
(S'f8'
p605
I0
I1
tp606
Rp607
(I3
S'<'
p608
NNNI-1
I-1
I0
tp609
bI00
S'\x00\x00\x00\xa0G\xe18@\x00\x00\x00@\nWJ@\x00\x00\x00\xe0Q\xb8\x0e@'
p610
tp611
bsS'secnames'
p612
S'Cell[3].soma[0]'
p613
sI164
I18
tp614
a(F1.7599368909025248
S'Cell[3].dend[11] syn_ = new FastInhib(0.5)'
p615
I3
(dp616
S'seg'
p617
F0.5
sS'hostfrom'
p618
F21.0
sS'gid'
p619
I117
sS'coords'
p620
g7
(g8
(I0
tp621
g10
tp622
Rp623
(I1
(I3
tp624
g14
(S'f8'
p625
I0
I1
tp626
Rp627
(I3
S'<'
p628
NNNI-1
I-1
I0
tp629
bI00
S'Ft3\xc9<\xc67\xc0T"\x156-\xf1O@\x00\x00\x00\x80\xc2u9\xc0'
p630
tp631
bsS'secnames'
p632
S'Cell[2].axon[269]'
p633
sI117
I162
tp634
a(F2.159669046071596
S'Cell[3].dend[4] syn_ = new FastInhib(0.5)'
p635
I3
(dp636
S'seg'
p637
F0.5
sS'hostfrom'
p638
F22.0
sS'gid'
p639
I166
sS'coords'
p640
g7
(g8
(I0
tp641
g10
tp642
Rp643
(I1
(I3
tp644
g14
(S'f8'
p645
I0
I1
tp646
Rp647
(I3
S'<'
p648
NNNI-1
I-1
I0
tp649
bI00
S'w\xea4>\xaf\xc43\xc0*\x02\xf8eT\x117@\xa0\x96\xa5\xd8\xc4{\xd6\xbf'
p650
tp651
bsS'secnames'
p652
S'Cell[3].axon[141]'
p653
sI166
I162
tp654
a(F1.8495524551353204
S'Cell[2].dend[8] syn_ = new FastInhib(0.833333333333)'
p655
I2
(dp656
S'seg'
p657
F0.16666666666666666
sS'hostfrom'
p658
F23.0
sS'gid'
p659
I119
sS'coords'
p660
g7
(g8
(I0
tp661
g10
tp662
Rp663
(I1
(I3
tp664
g14
(S'f8'
p665
I0
I1
tp666
Rp667
(I3
S'<'
p668
NNNI-1
I-1
I0
tp669
bI00
S'\x80\xed\x01\xe0\x08\x80\xd8?c\x18\xa4E\xae\x0bX@\x8a\xa3X\xadp\xcf\n@'
p670
tp671
bsS'secnames'
p672
S'Cell[2].axon[5]'
p673
sI119
I114
tp674
a(F1.6298466309600574
S'Cell[2].dend[36] syn_ = new FastInhib(0.5)'
p675
I2
(dp676
g657
F0.16666666666666666
sg658
F23.0
sg659
I167
sg660
g7
(g8
(I0
tp677
g10
tp678
Rp679
(I1
(I3
tp680
g667
I00
S'\xef\x9f\xa9_\x9e10\xc0r\xf5\x8d\x8b\xbcgW\xc0\x00\x00\x00\x00\x00\x00\x10\xc0'
p681
tp682
bsg672
S'Cell[3].axon[155]'
p683
sI167
I114
tp684
a(F2.3509107523926853
S'Cell[3].dend[1] syn_ = new FastInhib(0.642857142857)'
p685
I3
(dp686
S'seg'
p687
F0.016129032258064516
sS'hostfrom'
p688
F24.0
sS'gid'
p689
I168
sS'coords'
p690
g7
(g8
(I0
tp691
g10
tp692
Rp693
(I1
(I3
tp694
g14
(S'f8'
p695
I0
I1
tp696
Rp697
(I3
S'<'
p698
NNNI-1
I-1
I0
tp699
bI00
S'_\x17\xbb\x03\xb0\x08Y\xc0<\xaa\xc0\xc2\x8f\x84H@{\xcc\x12He(P\xc0'
p700
tp701
bsS'secnames'
p702
S'Cell[3].axon[350]'
p703
sI168
I162
tp704
a(F1.5281969498738277
S'Cell[1].dend[0] syn_ = new AmpaNmda(0.5)'
p705
I1
(dp706
g687
F0.5
sg688
F24.0
sg689
I168
sg690
g7
(g8
(I0
tp707
g10
tp708
Rp709
(I1
(I3
tp710
g697
I00
S'\xa2F$\x8b\x1f\x8c9@\xbb\xd2.\xa1^\xd8$@\x17\x83\xf8q9\x8b%@'
p711
tp712
bsg702
S'Cell[3].axon[591]'
p713
sI168
I66
tp714
a(F1.405768814506301
S'Cell[2].dend[34] syn_ = new FastInhib(0.833333333333)'
p715
I2
(dp716
g687
F0.16666666666666666
sg688
F24.0
sg689
I120
sg690
g7
(g8
(I0
tp717
g10
tp718
Rp719
(I1
(I3
tp720
g697
I00
S'\x9a\xae6\x82\xd8\x82\xf4?P\x8f\xaak\xc0xT\xc0\x00\x00\x00\xe0Q\xb8/@'
p721
tp722
bsg702
S'Cell[2].axon[41]'
p723
sI120
I114
tp724
a(F1.5896659528270867
S'Cell[3].dend[6] syn_ = new FastInhib(0.5)'
p725
I3
(dp726
S'seg'
p727
F0.5
sS'hostfrom'
p728
F25.0
sS'gid'
p729
I121
sS'coords'
p730
g7
(g8
(I0
tp731
g10
tp732
Rp733
(I1
(I3
tp734
g14
(S'f8'
p735
I0
I1
tp736
Rp737
(I3
S'<'
p738
NNNI-1
I-1
I0
tp739
bI00
S'\xf5\xaa\x91\x80\xbc\xa9@\xc02k\xac\xf6O\xa9>@\t\x96\x16\x91\x99\x1f\x1f\xc0'
p740
tp741
bsS'secnames'
p742
S'Cell[2].axon[102]'
p743
sI121
I162
tp744
a(F2.1119547526109095
S'Cell[0].apic[16] syn_ = new ExpSid(0.5)'
p745
I0
(dp746
g727
F0.5
sg728
F25.0
sg729
I121
sg730
g7
(g8
(I0
tp747
g10
tp748
Rp749
(I1
(I3
tp750
g737
I00
S"\xf5o'\xc5f\xc68\xc0\x81`\x08\xe5O8F@\xca\xafN\xa1y\x85>@"
p751
tp752
bsg742
S'Cell[2].axon[181]'
p753
sI121
I18
tp754
a(F2.1803200049371867
S'Cell[2].dend[44] syn_ = new FastInhib(0.5)'
p755
I2
(dp756
g727
F0.5
sg728
F25.0
sg729
I121
sg730
g7
(g8
(I0
tp757
g10
tp758
Rp759
(I1
(I3
tp760
g737
I00
S'\xd3\x8d\x11\xdeL\x12P\xc0\x10\x86iM\x07\xbbS\xc0\xd0\xfdP@\x1bm2@'
p761
tp762
bsg742
S'Cell[2].axon[241]'
p763
sI121
I114
tp764
a(F2.1237507957633954
S'Cell[2].dend[38] syn_ = new FastInhib(0.166666666667)'
p765
I2
(dp766
S'seg'
p767
F0.5
sS'hostfrom'
p768
F26.0
sS'gid'
p769
I26
sS'coords'
p770
g7
(g8
(I0
tp771
g10
tp772
Rp773
(I1
(I3
tp774
g14
(S'f8'
p775
I0
I1
tp776
Rp777
(I3
S'<'
p778
NNNI-1
I-1
I0
tp779
bI00
S'\xaf\xd8\xeaFt~0\xc0o=+\x81\x10\xf5b\xc0\x00\x00\x00\x00\x00\x00\x1e@'
p780
tp781
bsS'secnames'
p782
S'Cell[0].axon[37]'
p783
sI26
I114
tp784
a(F2.470701699045694
S'Cell[1].dend[7] syn_ = new AmpaNmda(0.5)'
p785
I1
(dp786
g767
F0.5
sg768
F26.0
sg769
I26
sg770
g7
(g8
(I0
tp787
g10
tp788
Rp789
(I1
(I3
tp790
g777
I00
S'{9\xc5\xf3\xde\x8a+\xc0Nf\xa9\x89\xb8\x1c@\xc0\x00\x00\x00\xa0\x99\x99)@'
p791
tp792
bsg782
S'Cell[0].axon[61]'
p793
sI26
I66
tp794
a(F1.474828457443416
S'Cell[0].apic[4] syn_ = new AmpaNmda(0.5)'
p795
I0
(dp796
g767
F0.5
sg768
F26.0
sg769
I170
sg770
g7
(g8
(I0
tp797
g10
tp798
Rp799
(I1
(I3
tp800
g777
I00
S'\xafg~\xecL\x8b1@TF\xf9n\t\x8eC@\xbaBN\xd6\xe6\x97?@'
p801
tp802
bsg782
S'Cell[3].axon[503]'
p803
sI170
I18
tp804
a(F1.7413050398528307
S'Cell[1].dend[8] syn_ = new AmpaNmda(0.3)'
p805
I1
(dp806
g767
F0.8333333333333333
sg768
F26.0
sg769
I170
sg770
g7
(g8
(I0
tp807
g10
tp808
Rp809
(I1
(I3
tp810
g777
I00
S'\xa1\xf3\x84*F\xec?\xc0\xe8\r\xcb\xba\x14\x1d\x1a@K\x8c\x10k\x92\xe34@'
p811
tp812
bsg782
S'Cell[3].axon[509]'
p813
sI170
I66
tp814
a(F2.30471879942469
S'Cell[1].apic[11] syn_ = new ExpSid(0.5)'
p815
I1
(dp816
S'seg'
p817
F0.16666666666666666
sS'hostfrom'
p818
F27.0
sS'gid'
p819
I171
sS'coords'
p820
g7
(g8
(I0
tp821
g10
tp822
Rp823
(I1
(I3
tp824
g14
(S'f8'
p825
I0
I1
tp826
Rp827
(I3
S'<'
p828
NNNI-1
I-1
I0
tp829
bI00
S'VJX\xac2\xb9.@.\xdc1\x1d\xcb\xb0H@\xe8\xe5\xa9\x14\x85\x08\xff?'
p830
tp831
bsS'secnames'
p832
S'Cell[3].axon[64]'
p833
sI171
I66
tp834
a(F2.455409238699432
S'Cell[1].apic[8] syn_ = new AmpaNmda(0.5)'
p835
I1
(dp836
S'seg'
p837
F0.8333333333333333
sS'hostfrom'
p838
F30.0
sS'gid'
p839
I126
sS'coords'
p840
g7
(g8
(I0
tp841
g10
tp842
Rp843
(I1
(I3
tp844
g14
(S'f8'
p845
I0
I1
tp846
Rp847
(I3
S'<'
p848
NNNI-1
I-1
I0
tp849
bI00
S'\x00\x00\x00\x80\xeb\xd1,@\x8dz\xa8G\x84\x9dF@\xfe4\xacWfy\x05\xc0'
p850
tp851
bsS'secnames'
p852
S'Cell[2].axon[2]'
p853
sI126
I66
tp854
a(F1.008674636159118
S'Cell[2].dend[6] syn_ = new FastInhib(0.5)'
p855
I2
(dp856
g837
F0.16666666666666666
sg838
F30.0
sg839
I126
sg840
g7
(g8
(I0
tp857
g10
tp858
Rp859
(I1
(I3
tp860
g847
I00
S'vEO,\xb3\xcd\x17\xc0\xcb\x1e&\xa88L;@\xf25TY\x1aN\x02\xc0'
p861
tp862
bsg852
S'Cell[2].axon[34]'
p863
sI126
I114
tp864
a(F2.4052736854121752
S'Cell[3].dend[1] syn_ = new FastInhib(0.0714285714286)'
p865
I3
(dp866
g837
F0.1
sg838
F30.0
sg839
I126
sg840
g7
(g8
(I0
tp867
g10
tp868
Rp869
(I1
(I3
tp870
g847
I00
S'}\xed\xf3\x08+:5\xc0\x9c\xe5\xc2\x96\xba\x851@0\x84/<T\x860\xc0'
p871
tp872
bsg852
S'Cell[2].axon[50]'
p873
sI126
I162
tp874
a(F1.4613084537126741
S'Cell[3].dend[8] syn_ = new FastInhib(0.1)'
p875
I3
(dp876
g837
F0.30000000000000004
sg838
F30.0
sg839
I126
sg840
g7
(g8
(I0
tp877
g10
tp878
Rp879
(I1
(I3
tp880
g847
I00
S'\x1e\x81\xdd0M\x1cC\xc0\x1c\x05HDL\xefC@\x00\x00\x00 \x85k5\xc0'
p881
tp882
bsg852
S'Cell[2].axon[51]'
p883
sI126
I162
tp884
a(F1.33522323840991
S'Cell[2].dend[32] syn_ = new FastInhib(0.5)'
p885
I2
(dp886
g837
F0.30000000000000004
sg838
F30.0
sg839
I174
sg840
g7
(g8
(I0
tp887
g10
tp888
Rp889
(I1
(I3
tp890
g847
I00
S'\x02\xf5T\xd2\x8dF(\xc0E\xc0L\xb9\x88\x86J\xc0\x13\xa2*i\xfe\x10\x1e@'
p891
tp892
bsg852
S'Cell[3].axon[278]'
p893
sI174
I114
tp894
a(F1.9189284750614874
S'Cell[3].dend[1] syn_ = new FastInhib(0.642857142857)'
p895
I3
(dp896
g837
F0.8333333333333333
sg838
F30.0
sg839
I174
sg840
g7
(g8
(I0
tp897
g10
tp898
Rp899
(I1
(I3
tp900
g847
I00
S'\xe75\x8fWf\x0fY\xc0>\x93\xf8\xaa\x10\xf0H@V\x8e\xca\r\xc1\x8eP\xc0'
p901
tp902
bsg852
S'Cell[3].axon[388]'
p903
sI174
I162
tp904
a(F2.3736227916831605
S'Cell[3].dend[2] syn_ = new FastInhib(0.5)'
p905
I3
(dp906
S'seg'
p907
F0.5
sS'hostfrom'
p908
F32.0
sS'gid'
p909
I176
sS'coords'
p910
g7
(g8
(I0
tp911
g10
tp912
Rp913
(I1
(I3
tp914
g14
(S'f8'
p915
I0
I1
tp916
Rp917
(I3
S'<'
p918
NNNI-1
I-1
I0
tp919
bI00
S'R3O\x9a\xfb\xa2Y@\xe4\xcew\xf4\xacGJ@\xeb:V\x84xo\xf6?'
p920
tp921
bsS'secnames'
p922
S'Cell[3].axon[118]'
p923
sI176
I162
tp924
a(F0.4218294303048889
S'Cell[1].dend[11] syn_ = new AmpaNmda(0.166666666667)'
p925
I1
(dp926
g907
F0.7
sg908
F32.0
sg909
I176
sg910
g7
(g8
(I0
tp927
g10
tp928
Rp929
(I1
(I3
tp930
g917
I00
S'\xed\xc7\xd8\x87\x99n\x02@f\xa3\xdcb\x93:\x05@N\xd2u\xb5\xbbd>\xc0'
p931
tp932
bsg922
S'Cell[3].axon[122]'
p933
sI176
I66
tp934
a(F1.7611118961058612
S'Cell[3].dend[7] syn_ = new FastInhib(0.214285714286)'
p935
I3
(dp936
g907
F0.8999999999999999
sg908
F32.0
sg909
I176
sg910
g7
(g8
(I0
tp937
g10
tp938
Rp939
(I1
(I3
tp940
g917
I00
S'\xf0S\xdb\xe9C\xb3Q\xc06\x12\x93\x88D\xb3E@j\x1b\xb88\xf0\x1a:\xc0'
p941
tp942
bsg922
S'Cell[3].axon[127]'
p943
sI176
I162
tp944
a(F2.2916900999432928
S'Cell[3].dend[0] syn_ = new FastInhib(0.166666666667)'
p945
I3
(dp946
S'seg'
p947
F0.5
sS'hostfrom'
p948
F33.0
sS'gid'
p949
I129
sS'coords'
p950
g7
(g8
(I0
tp951
g10
tp952
Rp953
(I1
(I3
tp954
g14
(S'f8'
p955
I0
I1
tp956
Rp957
(I3
S'<'
p958
NNNI-1
I-1
I0
tp959
bI00
S'\xb1r\xf0\xf1@[(\xc0\xe8\x85\xe6C&\x858@\x8e\xcb\x83Q&\xc3\x18@'
p960
tp961
bsS'secnames'
p962
S'Cell[2].axon[12]'
p963
sI129
I162
tp964
a(F1.3655331139112779
S'Cell[1].apic[20] syn_ = new ExpSid(0.1)'
p965
I1
(dp966
g947
F0.5
sg948
F33.0
sg949
I177
sg950
g7
(g8
(I0
tp967
g10
tp968
Rp969
(I1
(I3
tp970
g957
I00
S"\xf8\x95\x15\xfa\xea\x00E@\xae\x02%\x9a|\x8f^@\xa6I\x84W<%'@"
p971
tp972
bsg962
S'Cell[3].axon[5]'
p973
sI177
I66
tp974
a(F1.7496106887153633
S'Cell[1].dend[31] syn_ = new ExpSid(0.5)'
p975
I1
(dp976
g947
F0.8333333333333333
sg948
F33.0
sg949
I177
sg950
g7
(g8
(I0
tp977
g10
tp978
Rp979
(I1
(I3
tp980
g957
I00
S'V\x81<\xa7\xd4[Z@\x15\xc8uh\xbd\x05\x1e@,\xab\xbf\x90\xd1\x0e7@'
p981
tp982
bsg962
S'Cell[3].axon[136]'
p983
sI177
I66
tp984
a(F2.306586470955104
S'Cell[3].dend[26] syn_ = new FastInhib(0.5)'
p985
I3
(dp986
g947
F0.06521739130434782
sg948
F33.0
sg949
I81
sg950
g7
(g8
(I0
tp987
g10
tp988
Rp989
(I1
(I3
tp990
g957
I00
S',\xabt\xed% G\xc0o\xee\xaeh\x07xY\xc0\xef\xae\xae\x15^\x86F\xc0'
p991
tp992
bsg962
S'Cell[1].axon[85]'
p993
sI81
I162
tp994
a(F2.445160145389865
S'Cell[2].dend[33] syn_ = new FastInhib(0.5)'
p995
I2
(dp996
S'seg'
p997
F0.8333333333333333
sS'hostfrom'
p998
F35.0
sS'gid'
p999
I83
sS'coords'
p1000
g7
(g8
(I0
tp1001
g10
tp1002
Rp1003
(I1
(I3
tp1004
g14
(S'f8'
p1005
I0
I1
tp1006
Rp1007
(I3
S'<'
p1008
NNNI-1
I-1
I0
tp1009
bI00
S'\xb5\\\x06B\x86\xc2*\xc0ET\x1aSW\xa8F\xc0*\xfb\xb7\x04\x89\xcf\x17@'
p1010
tp1011
bsS'secnames'
p1012
S'Cell[1].axon[3]'
p1013
sI83
I114
tp1014
a(F2.4996687688569366
S'Cell[2].dend[26] syn_ = new FastInhib(0.5)'
p1015
I2
(dp1016
g997
F0.5
sg998
F35.0
sg999
I83
sg1000
g7
(g8
(I0
tp1017
g10
tp1018
Rp1019
(I1
(I3
tp1020
g1007
I00
S'\xba\xc98\x84\x0c\x9bB@\xe7\x06\x92\x1f|MK\xc0\xa2\xfc1\xe3\xa1;%@'
p1021
tp1022
bsg1012
S'Cell[1].axon[137]'
p1023
sI83
I114
tp1024
a(F2.2644624154095334
S'Cell[2].dend[25] syn_ = new FastInhib(0.833333333333)'
p1025
I2
(dp1026
g997
F0.5
sg998
F35.0
sg999
I35
sg1000
g7
(g8
(I0
tp1027
g10
tp1028
Rp1029
(I1
(I3
tp1030
g1007
I00
S'\xfe\xefs\x9a\xa8o:@\xe9\x94M\xb2>\x89K\xc0\x00\x00\x00@33\xd3\xbf'
p1031
tp1032
bsg1012
S'Cell[0].axon[1]'
p1033
sI35
I114
tp1034
a(F2.0063278101220554
S'Cell[0].dend[4] syn_ = new ExpSid(0.5)'
p1035
I0
(dp1036
g997
F0.5
sg998
F35.0
sg999
I35
sg1000
g7
(g8
(I0
tp1037
g10
tp1038
Rp1039
(I1
(I3
tp1040
g1007
I00
S'EG\xad0\xcd\x01\x00@\x82\xbb\xc2\xd2$HC\xc0.P=\x11\xca\xa23@'
p1041
tp1042
bsg1012
S'Cell[0].axon[2]'
p1043
sI35
I18
tp1044
a(F1.6576157884757934
S'Cell[2].dend[36] syn_ = new FastInhib(0.166666666667)'
p1045
I2
(dp1046
g997
F0.5
sg998
F35.0
sg999
I35
sg1000
g7
(g8
(I0
tp1047
g10
tp1048
Rp1049
(I1
(I3
tp1050
g1007
I00
S"\xbaOo\x0bO).\xc0\x836x\x80\x1axR\xc0\xf6 'z\xe9\xb1\xf5?"
p1051
tp1052
bsg1012
S'Cell[0].axon[9]'
p1053
sI35
I114
tp1054
a(F1.7534823037592766
S'Cell[3].dend[19] syn_ = new FastInhib(0.166666666667)'
p1055
I3
(dp1056
g997
F0.8333333333333333
sg998
F35.0
sg999
I35
sg1000
g7
(g8
(I0
tp1057
g10
tp1058
Rp1059
(I1
(I3
tp1060
g1007
I00
S'\xe6\x018r8 \x1a\xc0\x16Y\xba"\xc6\xeeA\xc0\x10\x10?\x9c@2#@'
p1061
tp1062
bsg1012
S'Cell[0].axon[10]'
p1063
sI35
I162
tp1064
a(F1.8018727807626058
S'Cell[1].dend[33] syn_ = new ExpSid(0.5)'
p1065
I1
(dp1066
g997
F0.11538461538461539
sg998
F35.0
sg999
I35
sg1000
g7
(g8
(I0
tp1067
g10
tp1068
Rp1069
(I1
(I3
tp1070
g1007
I00
S'\xa8\x01\x15jx\xa5S@\xa8>\xf7\xe2\x1d\x92D\xc0#\xc1\x1f\x91\xb34\x10\xc0'
p1071
tp1072
bsg1012
S'Cell[0].axon[16]'
p1073
sI35
I66
tp1074
a(F1.6373245210869583
S'Cell[2].dend[4] syn_ = new FastInhib(0.0555555555556)'
p1075
I2
(dp1076
g997
F0.5
sg998
F35.0
sg999
I179
sg1000
g7
(g8
(I0
tp1077
g10
tp1078
Rp1079
(I1
(I3
tp1080
g1007
I00
S'\xfe\xa8F\xb1\xb4m\x1a@\xd5\xcd\x14\xac\x03\xbe<@L\x88HN\xa6\x80\x17@'
p1081
tp1082
bsg1012
S'Cell[3].axon[33]'
p1083
sI179
I114
tp1084
a(F2.401114912459973
S'Cell[2].dend[17] syn_ = new FastInhib(0.166666666667)'
p1085
I2
(dp1086
S'seg'
p1087
F0.8333333333333333
sS'hostfrom'
p1088
F36.0
sS'gid'
p1089
I84
sS'coords'
p1090
g7
(g8
(I0
tp1091
g10
tp1092
Rp1093
(I1
(I3
tp1094
g14
(S'f8'
p1095
I0
I1
tp1096
Rp1097
(I3
S'<'
p1098
NNNI-1
I-1
I0
tp1099
bI00
S'z\xc0XT\xd1\xb50\xc0D\xce\x07:\x0b1;@,\xe1\x95\xf5TV\xb0\xbf'
p1100
tp1101
bsS'secnames'
p1102
S'Cell[1].axon[236]'
p1103
sI84
I114
tp1104
a(F1.3375380372244376
S'Cell[3].dend[3] syn_ = new FastInhib(0.214285714286)'
p1105
I3
(dp1106
g1087
F0.8333333333333333
sg1088
F36.0
sg1089
I84
sg1090
g7
(g8
(I0
tp1107
g10
tp1108
Rp1109
(I1
(I3
tp1110
g1097
I00
S'\xc6\x89\x10\x10\xa5);@\xbe\xef\xc5\x88\x88\x9d+@\xee\xcdz\x00[v1\xc0'
p1111
tp1112
bsg1102
S'Cell[1].axon[282]'
p1113
sI84
I162
tp1114
a(F1.2590055288419122
S'Cell[2].dend[4] syn_ = new FastInhib(0.277777777778)'
p1115
I2
(dp1116
g1087
F0.21428571428571427
sg1088
F36.0
sg1089
I84
sg1090
g7
(g8
(I0
tp1117
g10
tp1118
Rp1119
(I1
(I3
tp1120
g1097
I00
S'\x0ff\x9blH\xc66@V\xd1\xd7\x92\xf7MS@\xd7\xeeB\xa4\xfa\xbb\x10@'
p1121
tp1122
bsg1102
S'Cell[1].axon[422]'
p1123
sI84
I114
tp1124
a(F2.0979854251111223
S'Cell[3].dend[0] syn_ = new FastInhib(0.5)'
p1125
I3
(dp1126
g1087
F0.3461538461538462
sg1088
F36.0
sg1089
I180
sg1090
g7
(g8
(I0
tp1127
g10
tp1128
Rp1129
(I1
(I3
tp1130
g1097
I00
S'\x91\xe5\x03\xb4\x07\xfb0\xc0\x80\x9a!\x94<)F@\xa0\xb7\xad\xe0\x0eS*@'
p1131
tp1132
bsg1102
S'Cell[3].axon[69]'
p1133
sI180
I162
tp1134
a(F2.150369547399406
S'Cell[2].dend[9] syn_ = new FastInhib(0.166666666667)'
p1135
I2
(dp1136
g1087
F0.6538461538461537
sg1088
F36.0
sg1089
I180
sg1090
g7
(g8
(I0
tp1137
g10
tp1138
Rp1139
(I1
(I3
tp1140
g1097
I00
S'%\xd1\xb1\x1921\x14\xc0\xb6d\xcc\x1e;\x90]@\xbcdl\xc1\xc2\x90\x03@'
p1141
tp1142
bsg1102
S'Cell[3].axon[69]'
p1143
sI180
I114
tp1144
a(F2.4106730984378926
S'Cell[0].apic[7] syn_ = new AmpaNmda(0.1)'
p1145
I0
(dp1146
g1087
F0.21428571428571427
sg1088
F36.0
sg1089
I180
sg1090
g7
(g8
(I0
tp1147
g10
tp1148
Rp1149
(I1
(I3
tp1150
g1097
I00
S'+I"\x85\xa5\xfb\x11\xc0\xe0\xd2\x0f1\xf8bI@8\xa1"\x84\x1eUA@'
p1151
tp1152
bsg1102
S'Cell[3].axon[139]'
p1153
sI180
I18
tp1154
a(F2.2986822423200968
S'Cell[1].dend[0] syn_ = new AmpaNmda(0.5)'
p1155
I1
(dp1156
g1087
F0.5
sg1088
F36.0
sg1089
I180
sg1090
g7
(g8
(I0
tp1157
g10
tp1158
Rp1159
(I1
(I3
tp1160
g1097
I00
S'@Y\xc8a\xef\xe4;@\xe3\x81O\x98\x0c:&@\xe0D\x00E\xa3q%@'
p1161
tp1162
bsg1102
S'Cell[3].axon[193]'
p1163
sI180
I66
tp1164
a(F1.6940853985355266
S'Cell[1].dend[8] syn_ = new ExpSid(0.1)'
p1165
I1
(dp1166
S'seg'
p1167
F0.21428571428571427
sS'hostfrom'
p1168
F37.0
sS'gid'
p1169
I133
sS'coords'
p1170
g7
(g8
(I0
tp1171
g10
tp1172
Rp1173
(I1
(I3
tp1174
g14
(S'f8'
p1175
I0
I1
tp1176
Rp1177
(I3
S'<'
p1178
NNNI-1
I-1
I0
tp1179
bI00
S'bg\x0c\xac\x9fA\x0f\xc0\xa4\x8bl\xd4\xb0 \x13@\xcdR\xdc\xf8\xb8\x021@'
p1180
tp1181
bsS'secnames'
p1182
S'Cell[2].axon[3]'
p1183
sI133
I66
tp1184
a(F2.4907422303731233
S'Cell[0].apic[13] syn_ = new ExpSid(0.5)'
p1185
I0
(dp1186
g1167
F0.16666666666666666
sg1168
F37.0
sg1169
I133
sg1170
g7
(g8
(I0
tp1187
g10
tp1188
Rp1189
(I1
(I3
tp1190
g1177
I00
S'\xee-\xcc\x0b\xba\xadH\xc0=\xbdE\xbfL\x11N@|\xaaxj\x85t\x13\xc0'
p1191
tp1192
bsg1182
S'Cell[2].axon[23]'
p1193
sI133
I18
tp1194
a(F2.3927373714550946
S'Cell[0].apic[14] syn_ = new ExpSid(0.166666666667)'
p1195
I0
(dp1196
g1167
F0.30000000000000004
sg1168
F37.0
sg1169
I133
sg1170
g7
(g8
(I0
tp1197
g10
tp1198
Rp1199
(I1
(I3
tp1200
g1177
I00
S'\xe3\x06\x19\xc5\xa4\xfeK\xc0h\x86\xe1\xb2J\xf4L@N\x8c\xbd\x7f\xe9\xd5\x11@'
p1201
tp1202
bsg1182
S'Cell[2].axon[57]'
p1203
sI133
I18
tp1204
a(F2.06467670471216
S'Cell[0].apic[32] syn_ = new ExpSid(0.5)'
p1205
I0
(dp1206
g1167
F0.16666666666666666
sg1168
F37.0
sg1169
I181
sg1170
g7
(g8
(I0
tp1207
g10
tp1208
Rp1209
(I1
(I3
tp1210
g1177
I00
S'\xae\x8e6v\xcd\xccN\xc04Rd@#\xb0i@\x02\x9b/m\xc5oI@'
p1211
tp1212
bsg1182
S'Cell[3].axon[19]'
p1213
sI181
I18
tp1214
a(F1.5389765417283647
S'Cell[1].apic[19] syn_ = new ExpSid(0.166666666667)'
p1215
I1
(dp1216
g1167
F0.5
sg1168
F37.0
sg1169
I181
sg1170
g7
(g8
(I0
tp1217
g10
tp1218
Rp1219
(I1
(I3
tp1220
g1177
I00
S'\x16\xcb\xbd\xf6\xa5\xb0G@i\xde\x8d\x15\x9ea[@\xc7\xa2R\x13!\x03%@'
p1221
tp1222
bsg1182
S'Cell[3].axon[204]'
p1223
sI181
I66
tp1224
a(F1.5320841354340475
S'Cell[1].dend[29] syn_ = new ExpSid(0.5)'
p1225
I1
(dp1226
g1167
F0.8333333333333333
sg1168
F37.0
sg1169
I181
sg1170
g7
(g8
(I0
tp1227
g10
tp1228
Rp1229
(I1
(I3
tp1230
g1177
I00
S'"\x9e\x8a61\xc3G@\xc7n\nO\xbc\x85(@\xfe\x11\xa6\x08\x80\x18\x10@'
p1231
tp1232
bsg1182
S'Cell[3].axon[213]'
p1233
sI181
I66
tp1234
a(F2.486724415261126
S'Cell[2].dend[41] syn_ = new FastInhib(0.5)'
p1235
I2
(dp1236
g1167
F0.1
sg1168
F37.0
sg1169
I37
sg1170
g7
(g8
(I0
tp1237
g10
tp1238
Rp1239
(I1
(I3
tp1240
g1177
I00
S'\x01c\x10\xd0\xd6\xc0)\xc0\x97\x10N\x1b\x1bDQ\xc0x^\x83\xa7\xf2\xe6\xfc?'
p1241
tp1242
bsg1182
S'Cell[0].axon[6]'
p1243
sI37
I114
tp1244
a(F1.543608793572473
S'Cell[3].dend[2] syn_ = new FastInhib(0.0714285714286)'
p1245
I3
(dp1246
S'seg'
p1247
F0.5
sS'hostfrom'
p1248
F38.0
sS'gid'
p1249
I182
sS'coords'
p1250
g7
(g8
(I0
tp1251
g10
tp1252
Rp1253
(I1
(I3
tp1254
g14
(S'f8'
p1255
I0
I1
tp1256
Rp1257
(I3
S'<'
p1258
NNNI-1
I-1
I0
tp1259
bI00
S'\x00\x00\x00\xb0\x1e\x85%@\x00\x00\x00\xc0\xf5\xe84@\x00\x00\x00\xa0p=\x1a@'
p1260
tp1261
bsS'secnames'
p1262
S'Cell[3].soma[0]'
p1263
sI182
I162
tp1264
a(F1.1755261994064607
S'Cell[2].dend[38] syn_ = new FastInhib(0.166666666667)'
p1265
I2
(dp1266
g1247
F0.7
sg1248
F38.0
sg1249
I134
sg1250
g7
(g8
(I0
tp1267
g10
tp1268
Rp1269
(I1
(I3
tp1270
g1257
I00
S'\xe4\x08\xcc\x80\xc9\xed1\xc0c?\xaa3\\\xf7b\xc0\x00\x00\x00 \xaeG\x18@'
p1271
tp1272
bsg1262
S'Cell[2].axon[80]'
p1273
sI134
I114
tp1274
a(F1.9687973562184131
S'Cell[3].dend[4] syn_ = new FastInhib(0.5)'
p1275
I3
(dp1276
S'seg'
p1277
F0.8999999999999999
sS'hostfrom'
p1278
F39.0
sS'gid'
p1279
I87
sS'coords'
p1280
g7
(g8
(I0
tp1281
g10
tp1282
Rp1283
(I1
(I3
tp1284
g14
(S'f8'
p1285
I0
I1
tp1286
Rp1287
(I3
S'<'
p1288
NNNI-1
I-1
I0
tp1289
bI00
S'\xfe\x85\x05\x00k!4\xc0@#u<lK6@PE\xf1\x8c\x04W\x08\xc0'
p1290
tp1291
bsS'secnames'
p1292
S'Cell[1].axon[80]'
p1293
sI87
I162
tp1294
a(F2.317159471166922
S'Cell[2].dend[1] syn_ = new FastInhib(0.5)'
p1295
I2
(dp1296
S'seg'
p1297
F0.30000000000000004
sS'hostfrom'
p1298
F40.0
sS'gid'
p1299
I88
sS'coords'
p1300
g7
(g8
(I0
tp1301
g10
tp1302
Rp1303
(I1
(I3
tp1304
g14
(S'f8'
p1305
I0
I1
tp1306
Rp1307
(I3
S'<'
p1308
NNNI-1
I-1
I0
tp1309
bI00
S'\xba\x11\xe7C\xc8LO@"j\xa4\nM\xd7\x1e@6\x14@,Y\xfa\x12\xc0'
p1310
tp1311
bsS'secnames'
p1312
S'Cell[1].axon[151]'
p1313
sI88
I114
tp1314
a(F2.3527712131356657
S'Cell[3].dend[17] syn_ = new FastInhib(0.5)'
p1315
I3
(dp1316
g1297
F0.16666666666666666
sg1298
F40.0
sg1299
I88
sg1300
g7
(g8
(I0
tp1317
g10
tp1318
Rp1319
(I1
(I3
tp1320
g1307
I00
S"\xd2\xe4\\\xb0q\xdb\x1a\xc0\xff\xff\xff?\nW'\xc05D\xb2\xdb!\xad\x07@"
p1321
tp1322
bsg1312
S'Cell[1].axon[302]'
p1323
sI88
I162
tp1324
a(F2.018051946444982
S'Cell[3].dend[20] syn_ = new FastInhib(0.166666666667)'
p1325
I3
(dp1326
g1297
F0.5
sg1298
F40.0
sg1299
I88
sg1300
g7
(g8
(I0
tp1327
g10
tp1328
Rp1329
(I1
(I3
tp1330
g1307
I00
S'\xce\xc7N\x0bt\xe5\xfb?\xe9\x97\x04\xfd\xf1\x08:\xc0\xd9\xd9m\xe3\x90\xed\x1a@'
p1331
tp1332
bsg1312
S'Cell[1].axon[302]'
p1333
sI88
I162
tp1334
a(F1.9442902050446031
S'Cell[2].dend[8] syn_ = new FastInhib(0.5)'
p1335
I2
(dp1336
g1297
F0.5
sg1298
F40.0
sg1299
I184
sg1300
g7
(g8
(I0
tp1337
g10
tp1338
Rp1339
(I1
(I3
tp1340
g1307
I00
S'P%#on\x99\xfe\xbf\x0e\xcd\x89\x84\x0b9R@\x01\x00\x00 \\\x8f\x0c@'
p1341
tp1342
bsg1312
S'Cell[3].axon[9]'
p1343
sI184
I114
tp1344
a(F2.4087870178519286
S'Cell[0].apic[14] syn_ = new AmpaNmda(0.166666666667)'
p1345
I0
(dp1346
g1297
F0.7
sg1298
F40.0
sg1299
I184
sg1300
g7
(g8
(I0
tp1347
g10
tp1348
Rp1349
(I1
(I3
tp1350
g1307
I00
S'\x1f@\xf9|\xddFL\xc0\xf8d\x9c\xcczmM@\x00\x00\x00`ff\xd6?'
p1351
tp1352
bsg1312
S'Cell[3].axon[65]'
p1353
sI184
I18
tp1354
a(F2.0570219772993887
S'Cell[1].apic[18] syn_ = new AmpaNmda(0.5)'
p1355
I1
(dp1356
g1297
F0.5
sg1298
F40.0
sg1299
I184
sg1300
g7
(g8
(I0
tp1357
g10
tp1358
Rp1359
(I1
(I3
tp1360
g1307
I00
S'\x00\x00\x00P\xb8\xeeE@\x00\x00\x00 \x85\xabS@\x00\x00\x00\xd0\xcc\xcc\x04@'
p1361
tp1362
bsg1312
S'Cell[3].axon[83]'
p1363
sI184
I66
tp1364
a(F2.4485331794483667
S'Cell[1].apic[10] syn_ = new ExpSid(0.5)'
p1365
I1
(dp1366
S'seg'
p1367
F0.1
sS'hostfrom'
p1368
F41.0
sS'gid'
p1369
I185
sS'coords'
p1370
g7
(g8
(I0
tp1371
g10
tp1372
Rp1373
(I1
(I3
tp1374
g14
(S'f8'
p1375
I0
I1
tp1376
Rp1377
(I3
S'<'
p1378
NNNI-1
I-1
I0
tp1379
bI00
S'\x93\x9brko\xe6?\xc0\xf7\xc6Cd\xbe\x9bH@c\xfa\x9c\x90f`\xe6\xbf'
p1380
tp1381
bsS'secnames'
p1382
S'Cell[3].axon[113]'
p1383
sI185
I66
tp1384
a(F2.4365605115910594
S'Cell[2].dend[1] syn_ = new FastInhib(0.3)'
p1385
I2
(dp1386
g1367
F0.30000000000000004
sg1368
F41.0
sg1369
I185
sg1370
g7
(g8
(I0
tp1387
g10
tp1388
Rp1389
(I1
(I3
tp1390
g1377
I00
S'\xe6\xee\x1e#\x13EC@\xc5**9\xeb %@\xac{4\xb6\x95\xa7\x00@'
p1391
tp1392
bsg1382
S'Cell[3].axon[286]'
p1393
sI185
I114
tp1394
a(F2.3784548557220204
S'Cell[1].apic[5] syn_ = new ExpSid(0.166666666667)'
p1395
I1
(dp1396
g1367
F0.5
sg1368
F41.0
sg1369
I89
sg1370
g7
(g8
(I0
tp1397
g10
tp1398
Rp1399
(I1
(I3
tp1400
g1377
I00
S'S$\xbch\x1e@R@\x0e=W\x18\xb0\x9bI@\xfc=\x19\xa5\xffT\x1d\xc0'
p1401
tp1402
bsg1382
S'Cell[1].axon[162]'
p1403
sI89
I66
tp1404
a(F1.6012882817313572
S'Cell[2].dend[35] syn_ = new FastInhib(0.5)'
p1405
I2
(dp1406
S'seg'
p1407
F0.8333333333333333
sS'hostfrom'
p1408
F42.0
sS'gid'
p1409
I90
sS'coords'
p1410
g7
(g8
(I0
tp1411
g10
tp1412
Rp1413
(I1
(I3
tp1414
g14
(S'f8'
p1415
I0
I1
tp1416
Rp1417
(I3
S'<'
p1418
NNNI-1
I-1
I0
tp1419
bI00
S'\xdd\xc9\x8ei\xed\x1c0\xc0\xdf\xa0II\xca\xe7K\xc0X\x92\x8d\x83tf\xf7?'
p1420
tp1421
bsS'secnames'
p1422
S'Cell[1].axon[23]'
p1423
sI90
I114
tp1424
a(F2.159028196414115
S'Cell[0].apic[4] syn_ = new AmpaNmda(0.5)'
p1425
I0
(dp1426
g1407
F0.038461538461538464
sg1408
F42.0
sg1409
I90
sg1410
g7
(g8
(I0
tp1427
g10
tp1428
Rp1429
(I1
(I3
tp1430
g1417
I00
S'$\xc4\xf3\xc1\xcdC1@PGzo\xf2\xb8D@\x00\x00\x00`\xb8^=@'
p1431
tp1432
bsg1422
S'Cell[1].axon[210]'
p1433
sI90
I18
tp1434
a(F1.932134477591188
S'Cell[0].dend[15] syn_ = new AmpaNmda(0.5)'
p1435
I0
(dp1436
g1407
F0.5
sg1408
F42.0
sg1409
I138
sg1410
g7
(g8
(I0
tp1437
g10
tp1438
Rp1439
(I1
(I3
tp1440
g1417
I00
S'\x00\x00\x00`ff6\xc0\x8a\xa6\xbe\x13%w\x11\xc0R\xc5\xf44\x0eoD@'
p1441
tp1442
bsg1422
S'Cell[2].axon[47]'
p1443
sI138
I18
tp1444
a(F2.2888771507881787
S'Cell[3].dend[5] syn_ = new FastInhib(0.5)'
p1445
I3
(dp1446
g1407
F0.5
sg1408
F42.0
sg1409
I138
sg1410
g7
(g8
(I0
tp1447
g10
tp1448
Rp1449
(I1
(I3
tp1450
g1417
I00
S'\x00\x00\x00\xc8\xf5\x10P\xc0\x00\x00\x00\xc8\xf5\x081@\x00\x00\x00@\nW)@'
p1451
tp1452
bsg1422
S'Cell[2].axon[148]'
p1453
sI138
I162
tp1454
a(F2.212365976011856
S'Cell[2].dend[19] syn_ = new FastInhib(0.166666666667)'
p1455
I2
(dp1456
S'seg'
p1457
F0.5
sS'hostfrom'
p1458
F43.0
sS'gid'
p1459
I91
sS'coords'
p1460
g7
(g8
(I0
tp1461
g10
tp1462
Rp1463
(I1
(I3
tp1464
g14
(S'f8'
p1465
I0
I1
tp1466
Rp1467
(I3
S'<'
p1468
NNNI-1
I-1
I0
tp1469
bI00
S'\xd2\xd2\x04\xc4\xa0iC\xc0\x18\x01{MP\nZ@v\x11\x8eM\t\xf5\x11@'
p1470
tp1471
bsS'secnames'
p1472
S'Cell[1].axon[237]'
p1473
sI91
I114
tp1474
a(F2.358522239378734
S'Cell[1].apic[11] syn_ = new ExpSid(0.5)'
p1475
I1
(dp1476
g1457
F0.5
sg1458
F43.0
sg1459
I91
sg1460
g7
(g8
(I0
tp1477
g10
tp1478
Rp1479
(I1
(I3
tp1480
g1467
I00
S'\x00\x00\x00P\n\x171@\x00\x00\x00\x90\xc2eI@\x00\x00\x00p\x14\xae\xf7\xbf'
p1481
tp1482
bsg1472
S'Cell[1].axon[432]'
p1483
sI91
I66
tp1484
a(F2.308265434927232
S'Cell[1].apic[11] syn_ = new ExpSid(0.5)'
p1485
I1
(dp1486
g1457
F0.7
sg1458
F43.0
sg1459
I91
sg1460
g7
(g8
(I0
tp1487
g10
tp1488
Rp1489
(I1
(I3
tp1490
g1467
I00
S'\xcdM" *\xda-@\xe0\xac-\x8b#GI@9\x0c\x7f\xfd\x90^\xe5\xbf'
p1491
tp1492
bsg1472
S'Cell[1].axon[482]'
p1493
sI91
I66
tp1494
a(F1.9889773503119548
S'Cell[3].dend[8] syn_ = new FastInhib(0.3)'
p1495
I3
(dp1496
g1457
F0.30000000000000004
sg1458
F43.0
sg1459
I91
sg1460
g7
(g8
(I0
tp1497
g10
tp1498
Rp1499
(I1
(I3
tp1500
g1467
I00
S'\x98\xeeCF\x92wA\xc0\x94\xe1\xf3he\xbfO@Zc`\xa7\xd1\xccF\xc0'
p1501
tp1502
bsg1472
S'Cell[1].axon[516]'
p1503
sI91
I162
tp1504
a(F2.335936247325802
S'Cell[1].dend[12] syn_ = new ExpSid(0.833333333333)'
p1505
I1
(dp1506
g1457
F0.5
sg1458
F43.0
sg1459
I91
sg1460
g7
(g8
(I0
tp1507
g10
tp1508
Rp1509
(I1
(I3
tp1510
g1467
I00
S'D\xd5L\xb0\x83\x1d7\xc0\\\xab\x84}\x8f=K@\xbc9\x96\xb5h\x96B\xc0'
p1511
tp1512
bsg1472
S'Cell[1].axon[525]'
p1513
sI91
I66
tp1514
a(F1.8799428562967964
S'Cell[2].dend[34] syn_ = new FastInhib(0.5)'
p1515
I2
(dp1516
S'seg'
p1517
F0.5
sS'hostfrom'
p1518
F44.0
sS'gid'
p1519
I92
sS'coords'
p1520
g7
(g8
(I0
tp1521
g10
tp1522
Rp1523
(I1
(I3
tp1524
g14
(S'f8'
p1525
I0
I1
tp1526
Rp1527
(I3
S'<'
p1528
NNNI-1
I-1
I0
tp1529
bI00
S'\x88\x15kdB\r\x18\xc0T\x99\xfc\xf5\xd8\xffP\xc0\x80E\xd1\x0ft\x16)@'
p1530
tp1531
bsS'secnames'
p1532
S'Cell[1].axon[118]'
p1533
sI92
I114
tp1534
a(F1.6077465855081583
S'Cell[2].dend[1] syn_ = new FastInhib(0.1)'
p1535
I2
(dp1536
g1517
F0.5
sg1518
F44.0
sg1519
I188
sg1520
g7
(g8
(I0
tp1537
g10
tp1538
Rp1539
(I1
(I3
tp1540
g1527
I00
S'\x00\x00\x00\xf0\xff?/@\x00\x00\x00\xa0\x99\x19)@\x00\x00\x00 \xae\xc7\x17@'
p1541
tp1542
bsg1532
S'Cell[3].axon[59]'
p1543
sI188
I114
tp1544
a(F2.433947226555789
S'Cell[1].dend[23] syn_ = new AmpaNmda(0.166666666667)'
p1545
I1
(dp1546
g1517
F0.8333333333333333
sg1518
F44.0
sg1519
I188
sg1520
g7
(g8
(I0
tp1547
g10
tp1548
Rp1549
(I1
(I3
tp1550
g1527
I00
S'w{\xff\xdf:=F@\x9a\x16q\\\x0f\x9a\x05@\xf2v\xff\xbc\xb0HE\xc0'
p1551
tp1552
bsg1532
S'Cell[3].axon[131]'
p1553
sI188
I66
tp1554
a(F2.2706084838387945
S'Cell[3].dend[2] syn_ = new FastInhib(0.0714285714286)'
p1555
I3
(dp1556
S'seg'
p1557
F0.30000000000000004
sS'hostfrom'
p1558
F45.0
sS'gid'
p1559
I189
sS'coords'
p1560
g7
(g8
(I0
tp1561
g10
tp1562
Rp1563
(I1
(I3
tp1564
g14
(S'f8'
p1565
I0
I1
tp1566
Rp1567
(I3
S'<'
p1568
NNNI-1
I-1
I0
tp1569
bI00
S'\x9e\x98?\xd0j\r*@ \xda\xed?\xa3\xdd5@\xca\xa1LTM\x80\x12@'
p1570
tp1571
bsS'secnames'
p1572
S'Cell[3].axon[1]'
p1573
sI189
I162
tp1574
a.