(lp0
(F2.261904699565951
S'Cell[0].dend[13] syn_ = new ExpSid(0.642857142857)'
p1
I0
(dp2
S'seg'
p3
F0.5
sS'hostfrom'
p4
F1.0
sS'gid'
p5
I145
sS'coords'
p6
cnumpy.core.multiarray
_reconstruct
p7
(cnumpy
ndarray
p8
(I0
tp9
S'b'
p10
tp11
Rp12
(I1
(I3
tp13
cnumpy
dtype
p14
(S'f8'
p15
I0
I1
tp16
Rp17
(I3
S'<'
p18
NNNI-1
I-1
I0
tp19
bI00
S'lV.\xa9\xfc\x8eL\xc0\x95\x19}\xe3L\xeeB@\x89\xe8>\x84!\xeb;@'
p20
tp21
bsS'secnames'
p22
S'Cell[3].axon[140]'
p23
sI145
I38
tp24
a(F2.003758253556824
S'Cell[3].apic[1] syn_ = new FastInhib(0.5)'
p25
I3
(dp26
g3
F0.5
sg4
F1.0
sg5
I97
sg6
g7
(g8
(I0
tp27
g10
tp28
Rp29
(I1
(I3
tp30
g17
I00
S'\xbd>\xe5o\xed\x8d\x1d@\x93>ej\xd4a\x00\xc0T\\;`\x9b}\xf7?'
p31
tp32
bsg22
S'Cell[2].axon[160]'
p33
sI97
I182
tp34
a(F2.3425797427927155
S'Cell[0].dend[18] syn_ = new AmpaNmda(0.5)'
p35
I0
(dp36
S'seg'
p37
F0.5
sS'hostfrom'
p38
F2.0
sS'gid'
p39
I98
sS'coords'
p40
g7
(g8
(I0
tp41
g10
tp42
Rp43
(I1
(I3
tp44
g14
(S'f8'
p45
I0
I1
tp46
Rp47
(I3
S'<'
p48
NNNI-1
I-1
I0
tp49
bI00
S'\x9c\xbd\xab\xbd\x97\x9f9@\x83QM\x9bsNC@"Gj\xc0-\xd5 @'
p50
tp51
bsS'secnames'
p52
S'Cell[2].axon[7]'
p53
sI98
I38
tp54
a(F1.013581482785522
S'Cell[2].dend[10] syn_ = new FastInhib(0.5)'
p55
I2
(dp56
g37
F0.7
sg38
F2.0
sg39
I98
sg40
g7
(g8
(I0
tp57
g10
tp58
Rp59
(I1
(I3
tp60
g47
I00
S'\xc3\xf4\x04^$\x10A\xc0\xadB\x06\xf2\xf7!^\xc0\x9fP\x00\xf1\x80\xed\x12@'
p61
tp62
bsg52
S'Cell[2].axon[244]'
p63
sI98
I134
tp64
a(F1.3636525222143552
S'Cell[0].dend[15] syn_ = new AmpaNmda(0.5)'
p65
I0
(dp66
g37
F0.5
sg38
F2.0
sg39
I98
sg40
g7
(g8
(I0
tp67
g10
tp68
Rp69
(I1
(I3
tp70
g47
I00
S"g|\xdc'C\x04\x16@\xa4_\xe2\x94\xb3\xae5@u\xd3\xb1\x8c\x95\xaf-\xc0"
p71
tp72
bsg52
S'Cell[2].axon[473]'
p73
sI98
I38
tp74
a(F2.4253420273569586
S'Cell[0].dend[16] syn_ = new AmpaNmda(0.5)'
p75
I0
(dp76
g37
F0.1
sg38
F2.0
sg39
I146
sg40
g7
(g8
(I0
tp77
g10
tp78
Rp79
(I1
(I3
tp80
g47
I00
S'\x08\x19\x05\xdbv\xc7<\xc0x\x0fk\x82d\xdc\x0f@\xbe\xc13E(\x84<\xc0'
p81
tp82
bsg52
S'Cell[3].axon[172]'
p83
sI146
I38
tp84
a(F2.0098418206041075
S'Cell[2].dend[51] syn_ = new FastInhib(0.214285714286)'
p85
I2
(dp86
g37
F0.16666666666666666
sg38
F2.0
sg39
I146
sg40
g7
(g8
(I0
tp87
g10
tp88
Rp89
(I1
(I3
tp90
g47
I00
S"\x03\x10d\xd3\x91\x03\xd2\xbfI'~3\x17KW@\xa9Y\x06\xfa\xb6`5\xc0"
p91
tp92
bsg52
S'Cell[3].axon[203]'
p93
sI146
I134
tp94
a(F2.3425797427927155
S'Cell[0].dend[18] syn_ = new ExpSid(0.5)'
p95
I0
(dp96
S'seg'
p97
F0.5
sS'hostfrom'
p98
F3.0
sS'gid'
p99
I99
sS'coords'
p100
g7
(g8
(I0
tp101
g10
tp102
Rp103
(I1
(I3
tp104
g14
(S'f8'
p105
I0
I1
tp106
Rp107
(I3
S'<'
p108
NNNI-1
I-1
I0
tp109
bI00
S'\x9c\xbd\xab\xbd\x97\x9f9@\x83QM\x9bsNC@"Gj\xc0-\xd5 @'
p110
tp111
bsS'secnames'
p112
S'Cell[2].axon[7]'
p113
sI99
I38
tp114
a(F1.013581482785522
S'Cell[2].dend[10] syn_ = new FastInhib(0.5)'
p115
I2
(dp116
g97
F0.7
sg98
F3.0
sg99
I99
sg100
g7
(g8
(I0
tp117
g10
tp118
Rp119
(I1
(I3
tp120
g107
I00
S'\xc3\xf4\x04^$\x10A\xc0\xadB\x06\xf2\xf7!^\xc0\x9fP\x00\xf1\x80\xed\x12@'
p121
tp122
bsg112
S'Cell[2].axon[244]'
p123
sI99
I134
tp124
a(F1.3636525222143552
S'Cell[0].dend[15] syn_ = new ExpSid(0.5)'
p125
I0
(dp126
g97
F0.5
sg98
F3.0
sg99
I99
sg100
g7
(g8
(I0
tp127
g10
tp128
Rp129
(I1
(I3
tp130
g107
I00
S"g|\xdc'C\x04\x16@\xa4_\xe2\x94\xb3\xae5@u\xd3\xb1\x8c\x95\xaf-\xc0"
p131
tp132
bsg112
S'Cell[2].axon[473]'
p133
sI99
I38
tp134
a(F2.2381985593787856
S'Cell[2].dend[43] syn_ = new FastInhib(0.1)'
p135
I2
(dp136
g97
F0.16666666666666666
sg98
F3.0
sg99
I147
sg100
g7
(g8
(I0
tp137
g10
tp138
Rp139
(I1
(I3
tp140
g107
I00
S'\xb13\xf2\x17\xf574\xc07\xec\xe6\x05Y\xday@\x00\x00\x00\x80\xeb\xd19\xc0'
p141
tp142
bsg112
S'Cell[3].axon[22]'
p143
sI147
I134
tp144
a(F2.1271069701947316
S'Cell[3].apic[4] syn_ = new FastInhib(0.166666666667)'
p145
I3
(dp146
S'seg'
p147
F0.16666666666666666
sS'hostfrom'
p148
F4.0
sS'gid'
p149
I148
sS'coords'
p150
g7
(g8
(I0
tp151
g10
tp152
Rp153
(I1
(I3
tp154
g14
(S'f8'
p155
I0
I1
tp156
Rp157
(I3
S'<'
p158
NNNI-1
I-1
I0
tp159
bI00
S'z\xf3\x1fQ\x9ca#@\x82\x95\x90\x1c\xa1\x05[\xc0\xc0\xfe\xaa9\x04\xf26\xc0'
p160
tp161
bsS'secnames'
p162
S'Cell[3].axon[78]'
p163
sI148
I182
tp164
a(F1.211562052761251
S'Cell[0].dend[27] syn_ = new AmpaNmda(0.0714285714286)'
p165
I0
(dp166
g147
F0.07142857142857142
sg148
F4.0
sg149
I148
sg150
g7
(g8
(I0
tp167
g10
tp168
Rp169
(I1
(I3
tp170
g157
I00
S'0\r\xb6Tu\xc1U@\xa4y\xe2\xa14\x83@@\xc2\x11x\xdd6\x17:\xc0'
p171
tp172
bsg162
S'Cell[3].axon[219]'
p173
sI148
I38
tp174
a(F1.7917205692056515
S'Cell[3].apic[15] syn_ = new FastInhib(0.9)'
p175
I3
(dp176
g147
F0.5
sg148
F4.0
sg149
I148
sg150
g7
(g8
(I0
tp177
g10
tp178
Rp179
(I1
(I3
tp180
g157
I00
S'v\x07\x1bS\x9b`S\xc0\xf2Tt@\xb26$\xc0\xe2\x0bVMS\x17:\xc0'
p181
tp182
bsg162
S'Cell[3].axon[393]'
p183
sI148
I182
tp184
a(F1.3529281367667132
S'Cell[1].dend[31] syn_ = new FastInhib(0.166666666667)'
p185
I1
(dp186
g147
F0.5
sg148
F4.0
sg149
I4
sg150
g7
(g8
(I0
tp187
g10
tp188
Rp189
(I1
(I3
tp190
g157
I00
S"\xc1O\xb7\xf9'\x834@\xe6\x82t2l\x7fZ@#\xb6\x08\xe6Bj0\xc0"
p191
tp192
bsg162
S'Cell[0].axon[29]'
p193
sI4
I86
tp194
a(F2.4912358701284023
S'Cell[1].dend[22] syn_ = new FastInhib(0.5)'
p195
I1
(dp196
g147
F0.05555555555555555
sg148
F4.0
sg149
I100
sg150
g7
(g8
(I0
tp197
g10
tp198
Rp199
(I1
(I3
tp200
g157
I00
S",k\xc5\xb2[\xe5'\xc0\x03h\x96\xe3\xef\xa6B\xc0\xa7`\xb2\xff\x93\x9f\xef\xbf"
p201
tp202
bsg162
S'Cell[2].axon[117]'
p203
sI100
I86
tp204
a(F1.278819766264073
S'Cell[3].apic[15] syn_ = new FastInhib(0.1)'
p205
I3
(dp206
S'seg'
p207
F0.7
sS'hostfrom'
p208
F5.0
sS'gid'
p209
I149
sS'coords'
p210
g7
(g8
(I0
tp211
g10
tp212
Rp213
(I1
(I3
tp214
g14
(S'f8'
p215
I0
I1
tp216
Rp217
(I3
S'<'
p218
NNNI-1
I-1
I0
tp219
bI00
S'\xe8\xf7\xb3\xf5/\x12\x1c\xc0P\xc7\xbed\x85#\x18\xc0\x04\x0cc\xac\xf5\xda\x0b@'
p220
tp221
bsS'secnames'
p222
S'Cell[3].axon[11]'
p223
sI149
I182
tp224
a(F2.344152688888211
S'Cell[0].dend[9] syn_ = new ExpSid(0.5)'
p225
I0
(dp226
g207
F0.5
sg208
F5.0
sg209
I5
sg210
g7
(g8
(I0
tp227
g10
tp228
Rp229
(I1
(I3
tp230
g217
I00
S'\xc8\xb1\xbe\xa4Vc4@\xc2\xd6\x8c\x94AUR@\xf5\xa97\xd8F?7\xc0'
p231
tp232
bsg222
S'Cell[0].axon[69]'
p233
sI5
I38
tp234
a(F2.4682385501573285
S'Cell[3].dend[2] syn_ = new FastInhib(0.166666666667)'
p235
I3
(dp236
g207
F0.30000000000000004
sg208
F5.0
sg209
I5
sg210
g7
(g8
(I0
tp237
g10
tp238
Rp239
(I1
(I3
tp240
g217
I00
S'\xb6\xdf\xb7r;\x87N@_\x08Z\xebhx1@\x83q\x0e\xc0\xe7\xf5?\xc0'
p241
tp242
bsg222
S'Cell[0].axon[78]'
p243
sI5
I182
tp244
a(F2.3636097557007347
S'Cell[2].dend[6] syn_ = new FastInhib(0.5)'
p245
I2
(dp246
S'seg'
p247
F0.5
sS'hostfrom'
p248
F6.0
sS'gid'
p249
I102
sS'coords'
p250
g7
(g8
(I0
tp251
g10
tp252
Rp253
(I1
(I3
tp254
g14
(S'f8'
p255
I0
I1
tp256
Rp257
(I3
S'<'
p258
NNNI-1
I-1
I0
tp259
bI00
S'c*\x07\x0e\xde\xfc#\xc08J\x91\x9b\xf0\xa6V\xc0S\xaa\x07\xf9\xb7\xff\x14\xc0'
p260
tp261
bsS'secnames'
p262
S'Cell[2].axon[36]'
p263
sI102
I134
tp264
a(F1.9592302744995056
S'Cell[2].dend[23] syn_ = new FastInhib(0.5)'
p265
I2
(dp266
g247
F0.07894736842105263
sg248
F6.0
sg249
I54
sg250
g7
(g8
(I0
tp267
g10
tp268
Rp269
(I1
(I3
tp270
g257
I00
S'\xa3\xf6\x9a\x99\x80\x861\xc0>\xce0|O\xcej\xc0\xbbQW\xef\x10L:\xc0'
p271
tp272
bsg262
S'Cell[1].axon[3]'
p273
sI54
I134
tp274
a(F2.2009113272122005
S'Cell[1].dend[28] syn_ = new FastInhib(0.5)'
p275
I1
(dp276
g247
F0.5
sg248
F6.0
sg249
I150
sg250
g7
(g8
(I0
tp277
g10
tp278
Rp279
(I1
(I3
tp280
g257
I00
S'\x04\xed?\xf3\x19\x085@\x1a\xeb\xb3@`\xdfH@\x00\x00\x00\x80\x14\xee>\xc0'
p281
tp282
bsg262
S'Cell[3].axon[160]'
p283
sI150
I86
tp284
a(F1.7045253307619184
S'Cell[2].dend[51] syn_ = new FastInhib(0.642857142857)'
p285
I2
(dp286
S'seg'
p287
F0.49999999999999994
sS'hostfrom'
p288
F7.0
sS'gid'
p289
I103
sS'coords'
p290
g7
(g8
(I0
tp291
g10
tp292
Rp293
(I1
(I3
tp294
g14
(S'f8'
p295
I0
I1
tp296
Rp297
(I3
S'<'
p298
NNNI-1
I-1
I0
tp299
bI00
S'\xd2r}\xfa\xbe\x89\x0c@\xdc\xc6\xedd\xc0\xefi@p\x0eY\xcc\x10\x90;\xc0'
p300
tp301
bsS'secnames'
p302
S'Cell[2].axon[227]'
p303
sI103
I134
tp304
a(F2.235062592458738
S'Cell[1].dend[9] syn_ = new FastInhib(0.166666666667)'
p305
I1
(dp306
g287
F0.5
sg288
F7.0
sg289
I103
sg290
g7
(g8
(I0
tp307
g10
tp308
Rp309
(I1
(I3
tp310
g297
I00
S'R\x9bP\x1d9\x0c%@\x05\x98\xfe\x10\xd4\x90H\xc0\x00\x00\x00\xa0G\xe1\xf2?'
p311
tp312
bsg302
S'Cell[2].axon[260]'
p313
sI103
I86
tp314
a(F2.2113434534068515
S'Cell[0].apic[8] syn_ = new ExpSid(0.166666666667)'
p315
I0
(dp316
g287
F0.5
sg288
F7.0
sg289
I103
sg290
g7
(g8
(I0
tp317
g10
tp318
Rp319
(I1
(I3
tp320
g297
I00
S'\x00\x00\x00\xb0GQH@\x00\x00\x00\xe0\xa3\xbcb@\x00\x00\x00 \\\x8f/\xc0'
p321
tp322
bsg302
S'Cell[2].axon[335]'
p323
sI103
I38
tp324
a(F2.2479666081176277
S'Cell[2].dend[0] syn_ = new FastInhib(0.166666666667)'
p325
I2
(dp326
g287
F0.5
sg288
F7.0
sg289
I103
sg290
g7
(g8
(I0
tp327
g10
tp328
Rp329
(I1
(I3
tp330
g297
I00
S'\xb4\x80<\x05\xab\xbc&\xc0L\xa1\xcd\xd4\x0e\xcd@\xc0\x00\x00\x00\x80=\n#\xc0'
p331
tp332
bsg302
S'Cell[2].axon[369]'
p333
sI103
I134
tp334
a(F1.816333441059859
S'Cell[1].dend[25] syn_ = new FastInhib(0.5)'
p335
I1
(dp336
g287
F0.8333333333333333
sg288
F7.0
sg289
I103
sg290
g7
(g8
(I0
tp337
g10
tp338
Rp339
(I1
(I3
tp340
g297
I00
S'\xcc|6\xa9\xb1\x112@\x9a\xb3Co\x86OC@\x00\x00\x00\xa0\x99\x99\x0f\xc0'
p341
tp342
bsg302
S'Cell[2].axon[403]'
p343
sI103
I86
tp344
a(F2.1734807112569716
S'Cell[1].dend[2] syn_ = new FastInhib(0.5)'
p345
I1
(dp346
g287
F0.5
sg288
F7.0
sg289
I151
sg290
g7
(g8
(I0
tp347
g10
tp348
Rp349
(I1
(I3
tp350
g297
I00
S'w\x17\xca\xc1i\x944@u\xa4\xe5\xa1\xf9\xfa5\xc0gzQ\x99\xbf\x93\x0b\xc0'
p351
tp352
bsg302
S'Cell[3].axon[100]'
p353
sI151
I86
tp354
a(F1.9294630383589693
S'Cell[2].dend[13] syn_ = new FastInhib(0.7)'
p355
I2
(dp356
g287
F0.5
sg288
F7.0
sg289
I151
sg290
g7
(g8
(I0
tp357
g10
tp358
Rp359
(I1
(I3
tp360
g297
I00
S"/\xa8\xf9X\xad\x12Z\xc0\xc3'\xdcJ\xd6\x99[\xc0#\xfa\xdb\xdc\x0bP1\xc0"
p361
tp362
bsg302
S'Cell[3].axon[212]'
p363
sI151
I134
tp364
a(F2.022786368941364
S'Cell[0].dend[26] syn_ = new AmpaNmda(0.3)'
p365
I0
(dp366
S'seg'
p367
F0.8999999999999999
sS'hostfrom'
p368
F8.0
sS'gid'
p369
I152
sS'coords'
p370
g7
(g8
(I0
tp371
g10
tp372
Rp373
(I1
(I3
tp374
g14
(S'f8'
p375
I0
I1
tp376
Rp377
(I3
S'<'
p378
NNNI-1
I-1
I0
tp379
bI00
S'x2\x0cw\x86\xd0W@{t[N\xb1\x1aG@\x8a,\xe7dy\x86H\xc0'
p380
tp381
bsS'secnames'
p382
S'Cell[3].axon[88]'
p383
sI152
I38
tp384
a(F1.3399390708017715
S'Cell[0].dend[22] syn_ = new AmpaNmda(0.214285714286)'
p385
I0
(dp386
g367
F0.5
sg368
F8.0
sg369
I152
sg370
g7
(g8
(I0
tp387
g10
tp388
Rp389
(I1
(I3
tp390
g377
I00
S'\x97fV\xaaT-N@\x92\xbe\x14\x15\xa2v\x18@\x88\xed\xb3\x15Oz.\xc0'
p391
tp392
bsg382
S'Cell[3].axon[343]'
p393
sI152
I38
tp394
a(F1.7673281641358054
S'Cell[1].dend[22] syn_ = new FastInhib(0.5)'
p395
I1
(dp396
g367
F0.16666666666666666
sg368
F8.0
sg369
I104
sg370
g7
(g8
(I0
tp397
g10
tp398
Rp399
(I1
(I3
tp400
g377
I00
S"\xb0=XYD\x98'\xc0\xcaE\xe3\xc5hQB\xc0\x00\x00\x00\xe0Q\xb8\xce\xbf"
p401
tp402
bsg382
S'Cell[2].axon[233]'
p403
sI104
I86
tp404
a(F1.9265655029140831
S'Cell[3].dend[2] syn_ = new FastInhib(0.166666666667)'
p405
I3
(dp406
g367
F0.21428571428571427
sg368
F8.0
sg369
I104
sg370
g7
(g8
(I0
tp407
g10
tp408
Rp409
(I1
(I3
tp410
g377
I00
S'\xc2\x04\x18K\xb7\xe6M@\xbbH\x16\xd7\x04\xe11@n5\xe4\xca\x9dz?\xc0'
p411
tp412
bsg382
S'Cell[2].axon[242]'
p413
sI104
I182
tp414
a(F1.9129952491941435
S'Cell[1].dend[5] syn_ = new FastInhib(0.5)'
p415
I1
(dp416
S'seg'
p417
F0.16666666666666666
sS'hostfrom'
p418
F9.0
sS'gid'
p419
I153
sS'coords'
p420
g7
(g8
(I0
tp421
g10
tp422
Rp423
(I1
(I3
tp424
g14
(S'f8'
p425
I0
I1
tp426
Rp427
(I3
S'<'
p428
NNNI-1
I-1
I0
tp429
bI00
S'\xbb\x1b\xcaU\x9f&$@\x12\xea\x87U{\xf3M\xc0~\xe7\x11\xd7\xdd\xc22\xc0'
p430
tp431
bsS'secnames'
p432
S'Cell[3].axon[16]'
p433
sI153
I86
tp434
a(F1.4723373287377588
S'Cell[1].dend[9] syn_ = new FastInhib(0.166666666667)'
p435
I1
(dp436
S'seg'
p437
F0.5
sS'hostfrom'
p438
F10.0
sS'gid'
p439
I106
sS'coords'
p440
g7
(g8
(I0
tp441
g10
tp442
Rp443
(I1
(I3
tp444
g14
(S'f8'
p445
I0
I1
tp446
Rp447
(I3
S'<'
p448
NNNI-1
I-1
I0
tp449
bI00
S'\x00\x00\x00\xa0\xeb\xd1(@\x00\x00\x00\xb0\x1e%I\xc0\x00\x00\x00\xfa\xff\xff\xe3?'
p450
tp451
bsS'secnames'
p452
S'Cell[2].axon[141]'
p453
sI106
I86
tp454
a(F2.481509115676348
S'Cell[3].dend[19] syn_ = new FastInhib(0.833333333333)'
p455
I3
(dp456
g437
F0.8333333333333333
sg438
F10.0
sg439
I106
sg440
g7
(g8
(I0
tp457
g10
tp458
Rp459
(I1
(I3
tp460
g447
I00
S'\x92\x0f3\xd5!\xdb-@0?\xe3\xe1L\xe7\\@Z\x10\xd6Fy\x9e\xc8\xbf'
p461
tp462
bsg452
S'Cell[2].axon[196]'
p463
sI106
I182
tp464
a(F2.31865305684303
S'Cell[1].dend[32] syn_ = new FastInhib(0.214285714286)'
p465
I1
(dp466
g437
F0.16666666666666666
sg438
F10.0
sg439
I106
sg440
g7
(g8
(I0
tp467
g10
tp468
Rp469
(I1
(I3
tp470
g447
I00
S'4\xe0\xe6\xc4Kx4@\xc75\x14\x0c\x9e.W@\xd3\x7f\xa7\xf6Ig:\xc0'
p471
tp472
bsg452
S'Cell[2].axon[307]'
p473
sI106
I86
tp474
a(F2.353991115144838
S'Cell[0].dend[22] syn_ = new ExpSid(0.214285714286)'
p475
I0
(dp476
S'seg'
p477
F0.5
sS'hostfrom'
p478
F13.0
sS'gid'
p479
I109
sS'coords'
p480
g7
(g8
(I0
tp481
g10
tp482
Rp483
(I1
(I3
tp484
g14
(S'f8'
p485
I0
I1
tp486
Rp487
(I3
S'<'
p488
NNNI-1
I-1
I0
tp489
bI00
S'\x06=2\x7f\xd7\x95N@,\x80|\x17\xb8\x13\x1d@\xa2F\xd4{\xbc\xee0\xc0'
p490
tp491
bsS'secnames'
p492
S'Cell[2].axon[82]'
p493
sI109
I38
tp494
a(F0.5422947716516617
S'Cell[2].dend[3] syn_ = new FastInhib(0.5)'
p495
I2
(dp496
g477
F0.8333333333333333
sg478
F13.0
sg479
I13
sg480
g7
(g8
(I0
tp497
g10
tp498
Rp499
(I1
(I3
tp500
g487
I00
S'\xde\x88\xf3\xb9\xd6\x85>@G\x1d<\xd6\xe8\xcd\\\xc0\x9do\x82"\xcf\x04,@'
p501
tp502
bsg492
S'Cell[0].axon[9]'
p503
sI13
I134
tp504
a(F1.7729446568360887
S'Cell[1].dend[13] syn_ = new FastInhib(0.388888888889)'
p505
I1
(dp506
g477
F0.1
sg478
F13.0
sg479
I61
sg480
g7
(g8
(I0
tp507
g10
tp508
Rp509
(I1
(I3
tp510
g487
I00
S'R\xa6D1\xe1\xb1C@SA\x0b%\xdd\xf5\\\xc0\xc0C\x95\x1d\x17f*\xc0'
p511
tp512
bsg492
S'Cell[1].axon[43]'
p513
sI61
I86
tp514
a(F2.1696562178830536
S'Cell[0].dend[15] syn_ = new AmpaNmda(0.166666666667)'
p515
I0
(dp516
S'seg'
p517
F0.16666666666666666
sS'hostfrom'
p518
F14.0
sS'gid'
p519
I110
sS'coords'
p520
g7
(g8
(I0
tp521
g10
tp522
Rp523
(I1
(I3
tp524
g14
(S'f8'
p525
I0
I1
tp526
Rp527
(I3
S'<'
p528
NNNI-1
I-1
I0
tp529
bI00
S'J\xa1\xf9\xe6\x06\x972@\x0c 0\xe6\\\x8d?@\xa1\x96e\xaf\xc7\x05\x10@'
p530
tp531
bsS'secnames'
p532
S'Cell[2].axon[124]'
p533
sI110
I38
tp534
a(F1.942560154103679
S'Cell[2].dend[33] syn_ = new FastInhib(0.5)'
p535
I2
(dp536
g517
F0.5
sg518
F14.0
sg519
I110
sg520
g7
(g8
(I0
tp537
g10
tp538
Rp539
(I1
(I3
tp540
g527
I00
S'\xa2=\xcc,I\xb3\x16\xc0\xde\xb9\xdb\xb8n34@&\x93\xbf\x01\xbf\xfe\x1e\xc0'
p541
tp542
bsg532
S'Cell[2].axon[152]'
p543
sI110
I134
tp544
a(F0.45654276463212734
S'Cell[1].dend[9] syn_ = new FastInhib(0.5)'
p545
I1
(dp546
g517
F0.5
sg518
F14.0
sg519
I14
sg520
g7
(g8
(I0
tp547
g10
tp548
Rp549
(I1
(I3
tp550
g527
I00
S'\x98:\xd0\x1b\x1et!@\x02s6\xd7\xf6\xb6P\xc0\x8cu\xfd\xcd\xcbH\x1d@'
p551
tp552
bsg532
S'Cell[0].axon[0]'
p553
sI14
I86
tp554
a(F1.8432259563353999
S'Cell[1].dend[35] syn_ = new FastInhib(0.166666666667)'
p555
I1
(dp556
S'seg'
p557
F0.8333333333333333
sS'hostfrom'
p558
F15.0
sS'gid'
p559
I159
sS'coords'
p560
g7
(g8
(I0
tp561
g10
tp562
Rp563
(I1
(I3
tp564
g14
(S'f8'
p565
I0
I1
tp566
Rp567
(I3
S'<'
p568
NNNI-1
I-1
I0
tp569
bI00
S'\xa2>\xe5;\xf2@;@!\xf9\x82\xed\xb6\x1a`@\x84\xc8\xc9\x87*\xd0B\xc0'
p570
tp571
bsS'secnames'
p572
S'Cell[3].axon[48]'
p573
sI159
I86
tp574
a(F1.0372025876790572
S'Cell[1].dend[35] syn_ = new FastInhib(0.5)'
p575
I1
(dp576
S'seg'
p577
F0.5
sS'hostfrom'
p578
F16.0
sS'gid'
p579
I160
sS'coords'
p580
g7
(g8
(I0
tp581
g10
tp582
Rp583
(I1
(I3
tp584
g14
(S'f8'
p585
I0
I1
tp586
Rp587
(I3
S'<'
p588
NNNI-1
I-1
I0
tp589
bI00
S'ez\rR\x0f3@@e\x9e$\x85\x01\xa8a@\xe6\xb0&S\xddj?\xc0'
p590
tp591
bsS'secnames'
p592
S'Cell[3].axon[25]'
p593
sI160
I86
tp594
a(F2.4042980186546603
S'Cell[2].dend[5] syn_ = new FastInhib(0.166666666667)'
p595
I2
(dp596
S'seg'
p597
F0.16666666666666666
sS'hostfrom'
p598
F17.0
sS'gid'
p599
I113
sS'coords'
p600
g7
(g8
(I0
tp601
g10
tp602
Rp603
(I1
(I3
tp604
g14
(S'f8'
p605
I0
I1
tp606
Rp607
(I3
S'<'
p608
NNNI-1
I-1
I0
tp609
bI00
S'\xbe\x9e\xf5\xa8\n\xea8@h\xc1\xc0a\xcdU]\xc0Y\xcc\xf3@S\x92*@'
p610
tp611
bsS'secnames'
p612
S'Cell[2].axon[521]'
p613
sI113
I134
tp614
a(F1.8141486524339083
S'Cell[1].dend[4] syn_ = new FastInhib(0.5)'
p615
I1
(dp616
g597
F0.16666666666666666
sg598
F17.0
sg599
I113
sg600
g7
(g8
(I0
tp617
g10
tp618
Rp619
(I1
(I3
tp620
g607
I00
S'$\x9a\xe5\xbd\x95\x1e7@Q\x18\xe9\xc3\x16\xaa@\xc0\x0e\xff`\x16K\x12&\xc0'
p621
tp622
bsg612
S'Cell[2].axon[609]'
p623
sI113
I86
tp624
a(F2.345124115570697
S'Cell[1].dend[7] syn_ = new FastInhib(0.5)'
p625
I1
(dp626
S'seg'
p627
F0.5
sS'hostfrom'
p628
F18.0
sS'gid'
p629
I66
sS'coords'
p630
g7
(g8
(I0
tp631
g10
tp632
Rp633
(I1
(I3
tp634
g14
(S'f8'
p635
I0
I1
tp636
Rp637
(I3
S'<'
p638
NNNI-1
I-1
I0
tp639
bI00
S'j9YM}$5@\x0b\xe8\x89\x05*\xbfI\xc0\x8eb\x17\x8e0\xac&\xc0'
p640
tp641
bsS'secnames'
p642
S'Cell[1].axon[7]'
p643
sI66
I86
tp644
a(F2.4158336574840065
S'Cell[1].dend[8] syn_ = new FastInhib(0.5)'
p645
I1
(dp646
g627
F0.5
sg628
F18.0
sg629
I162
sg630
g7
(g8
(I0
tp647
g10
tp648
Rp649
(I1
(I3
tp650
g637
I00
S'\x8fre\\\xb0a0@"\x03%/\xd2\xeaG\xc0\x00\x00\x00\xa0G\xe1\x16\xc0'
p651
tp652
bsg642
S'Cell[3].axon[203]'
p653
sI162
I86
tp654
a(F2.0811306296158687
S'Cell[1].dend[9] syn_ = new FastInhib(0.5)'
p655
I1
(dp656
S'seg'
p657
F0.5
sS'hostfrom'
p658
F19.0
sS'gid'
p659
I67
sS'coords'
p660
g7
(g8
(I0
tp661
g10
tp662
Rp663
(I1
(I3
tp664
g14
(S'f8'
p665
I0
I1
tp666
Rp667
(I3
S'<'
p668
NNNI-1
I-1
I0
tp669
bI00
S's)W\xbf\x9b\x03#@8\xaf\xc9z\xa4\x02Q\xc0\x1eC\xc2U\xe4\xee\x15@'
p670
tp671
bsS'secnames'
p672
S'Cell[1].axon[3]'
p673
sI67
I86
tp674
a(F2.1752801119623557
S'Cell[1].dend[18] syn_ = new FastInhib(0.5)'
p675
I1
(dp676
g657
F0.30000000000000004
sg658
F19.0
sg659
I19
sg660
g7
(g8
(I0
tp677
g10
tp678
Rp679
(I1
(I3
tp680
g667
I00
S'\xeb\x9a\xc0\xb9?P\xe4\xbf\x07]\x81\xdf\xcf\x1b5\xc0\xecA\xa1}3\xe8\x14\xc0'
p681
tp682
bsg672
S'Cell[0].axon[0]'
p683
sI19
I86
tp684
a(F2.4662837715858212
S'Cell[2].dend[34] syn_ = new FastInhib(0.0714285714286)'
p685
I2
(dp686
S'seg'
p687
F0.23333333333333334
sS'hostfrom'
p688
F20.0
sS'gid'
p689
I68
sS'coords'
p690
g7
(g8
(I0
tp691
g10
tp692
Rp693
(I1
(I3
tp694
g14
(S'f8'
p695
I0
I1
tp696
Rp697
(I3
S'<'
p698
NNNI-1
I-1
I0
tp699
bI00
S'\x80K\xd2I,)\xe5\xbf_\t\xc5\xf6\x11GO@\xdbi\x86d\x85\x04\x1b\xc0'
p700
tp701
bsS'secnames'
p702
S'Cell[1].axon[4]'
p703
sI68
I134
tp704
a(F0.5669110314706157
S'Cell[3].dend[4] syn_ = new FastInhib(0.5)'
p705
I3
(dp706
g687
F0.7
sg688
F20.0
sg689
I116
sg690
g7
(g8
(I0
tp707
g10
tp708
Rp709
(I1
(I3
tp710
g697
I00
S'\x8c\x13\x96\x88\x8d\xc4Y@,\xe0\x87g\xebTC@Sy\xdd\x15.\xe9U\xc0'
p711
tp712
bsg702
S'Cell[2].axon[168]'
p713
sI116
I182
tp714
a(F2.409740321059649
S'Cell[3].apic[13] syn_ = new FastInhib(0.5)'
p715
I3
(dp716
S'seg'
p717
F0.30000000000000004
sS'hostfrom'
p718
F21.0
sS'gid'
p719
I165
sS'coords'
p720
g7
(g8
(I0
tp721
g10
tp722
Rp723
(I1
(I3
tp724
g14
(S'f8'
p725
I0
I1
tp726
Rp727
(I3
S'<'
p728
NNNI-1
I-1
I0
tp729
bI00
S'$G\xa7\xd5\xee\xa0\x16\xc0\xe1\x8e\xda\x8e \x99t\xc0\x01\x7f\xf3\x8b\x0c\xf4@\xc0'
p730
tp731
bsS'secnames'
p732
S'Cell[3].axon[206]'
p733
sI165
I182
tp734
a(F1.2384634549834823
S'Cell[0].dend[22] syn_ = new ExpSid(0.214285714286)'
p735
I0
(dp736
g717
F0.5
sg718
F21.0
sg719
I117
sg720
g7
(g8
(I0
tp737
g10
tp738
Rp739
(I1
(I3
tp740
g727
I00
S'\x9b\xaa2\xe3\x88eM@\xa0\x06\xa6\x90\x05\xd8\x1b@\xca~\xf4C_\xe90\xc0'
p741
tp742
bsg732
S'Cell[2].axon[28]'
p743
sI117
I38
tp744
a(F0.579641657497528
S'Cell[1].dend[32] syn_ = new FastInhib(0.642857142857)'
p745
I1
(dp746
g717
F0.8333333333333333
sg718
F21.0
sg719
I117
sg720
g7
(g8
(I0
tp747
g10
tp748
Rp749
(I1
(I3
tp750
g727
I00
S'\x9f\xa0z\x8b\xe7\xabE@Ni^L\x80\x19c@\x00\x00\x00\x80\xc2u9\xc0'
p751
tp752
bsg732
S'Cell[2].axon[244]'
p753
sI117
I86
tp754
a(F1.1853361726327853
S'Cell[0].dend[26] syn_ = new ExpSid(0.1)'
p755
I0
(dp756
g717
F0.5
sg718
F21.0
sg719
I117
sg720
g7
(g8
(I0
tp757
g10
tp758
Rp759
(I1
(I3
tp760
g727
I00
S'8C+\x87\xa0\x87W@\xef\xe7d\xab\x92iD@\x00\x00\x00\x80\xc2u9\xc0'
p761
tp762
bsg732
S'Cell[2].axon[405]'
p763
sI117
I38
tp764
a(F1.7246634761466153
S'Cell[1].dend[36] syn_ = new FastInhib(0.5)'
p765
I1
(dp766
S'seg'
p767
F0.8333333333333333
sS'hostfrom'
p768
F22.0
sS'gid'
p769
I166
sS'coords'
p770
g7
(g8
(I0
tp771
g10
tp772
Rp773
(I1
(I3
tp774
g14
(S'f8'
p775
I0
I1
tp776
Rp777
(I3
S'<'
p778
NNNI-1
I-1
I0
tp779
bI00
S'\x02\xcb\x0c\x1d\x91T)@\x05\x12\xec\xfb\xd5%A@R\x0e\xdfj\x11U+@'
p780
tp781
bsS'secnames'
p782
S'Cell[3].axon[197]'
p783
sI166
I86
tp784
a(F1.3970012332017199
S'Cell[3].dend[19] syn_ = new FastInhib(0.166666666667)'
p785
I3
(dp786
S'seg'
p787
F0.8333333333333333
sS'hostfrom'
p788
F23.0
sS'gid'
p789
I119
sS'coords'
p790
g7
(g8
(I0
tp791
g10
tp792
Rp793
(I1
(I3
tp794
g14
(S'f8'
p795
I0
I1
tp796
Rp797
(I3
S'<'
p798
NNNI-1
I-1
I0
tp799
bI00
S'\xc1\xb9z\x1b\x19d0@\x88y\xc6\xa1@\xfcT@T\xc0p\xa5\xa0\xb0\x1e@'
p800
tp801
bsS'secnames'
p802
S'Cell[2].axon[0]'
p803
sI119
I182
tp804
a(F1.8962065487194368
S'Cell[1].dend[15] syn_ = new FastInhib(0.833333333333)'
p805
I1
(dp806
g787
F0.8333333333333333
sg788
F23.0
sg789
I167
sg790
g7
(g8
(I0
tp807
g10
tp808
Rp809
(I1
(I3
tp810
g797
I00
S'l\x04U\xe8\xc0\xb5B\xc0br\x900l\x9a<\xc0y\xea\xdb\xa3\xa1g \xc0'
p811
tp812
bsg802
S'Cell[3].axon[183]'
p813
sI167
I86
tp814
a(F2.3640718894382986
S'Cell[1].dend[13] syn_ = new FastInhib(0.388888888889)'
p815
I1
(dp816
S'seg'
p817
F0.5
sS'hostfrom'
p818
F24.0
sS'gid'
p819
I120
sS'coords'
p820
g7
(g8
(I0
tp821
g10
tp822
Rp823
(I1
(I3
tp824
g14
(S'f8'
p825
I0
I1
tp826
Rp827
(I3
S'<'
p828
NNNI-1
I-1
I0
tp829
bI00
S'!\xf9`\x073\x1fC@<\x9dq\xbc\xfa\xca\\\xc0\xbe\x9b\x7f\xa1e\xee*\xc0'
p830
tp831
bsS'secnames'
p832
S'Cell[2].axon[104]'
p833
sI120
I86
tp834
a(F0.09772574440383043
S'Cell[0].dend[22] syn_ = new AmpaNmda(0.642857142857)'
p835
I0
(dp836
g817
F0.1
sg818
F24.0
sg819
I120
sg820
g7
(g8
(I0
tp837
g10
tp838
Rp839
(I1
(I3
tp840
g827
I00
S'n,|N\xc5\xb8T@\x0bg\x07\xd2\x0c\x7fH\xc0m\xac7\xaf\xba\xe7A\xc0'
p841
tp842
bsg832
S'Cell[2].axon[235]'
p843
sI120
I38
tp844
a(F2.0473643807640705
S'Cell[1].dend[21] syn_ = new FastInhib(0.5)'
p845
I1
(dp846
g817
F0.5
sg818
F24.0
sg819
I120
sg820
g7
(g8
(I0
tp847
g10
tp848
Rp849
(I1
(I3
tp850
g827
I00
S'~\x1b\x16e+b$\xc0\xf0^\xbe\xd4\xef\x17>\xc0\x19\xea\x08^\x9c\x05\xe4?'
p851
tp852
bsg832
S'Cell[2].axon[288]'
p853
sI120
I86
tp854
a(F1.7300370602365582
S'Cell[1].dend[24] syn_ = new FastInhib(0.833333333333)'
p855
I1
(dp856
S'seg'
p857
F0.07142857142857142
sS'hostfrom'
p858
F26.0
sS'gid'
p859
I74
sS'coords'
p860
g7
(g8
(I0
tp861
g10
tp862
Rp863
(I1
(I3
tp864
g14
(S'f8'
p865
I0
I1
tp866
Rp867
(I3
S'<'
p868
NNNI-1
I-1
I0
tp869
bI00
S'\xac\x9e\xb7\xc1W\x1fC\xc0y\xf4-\xa9\xb0CS\xc0\x9fq\x0e:\xdfz\x10@'
p870
tp871
bsS'secnames'
p872
S'Cell[1].axon[6]'
p873
sI74
I86
tp874
a(F1.928406337657894
S'Cell[0].dend[13] syn_ = new AmpaNmda(0.5)'
p875
I0
(dp876
g857
F0.5
sg858
F26.0
sg859
I170
sg860
g7
(g8
(I0
tp877
g10
tp878
Rp879
(I1
(I3
tp880
g867
I00
S'\x00\x00\x00\xe0zDG\xc0\x00\x00\x00\xc0\x1eUH@\x00\x00\x00p=\n;@'
p881
tp882
bsg872
S'Cell[3].axon[245]'
p883
sI170
I38
tp884
a(F1.3156879096632041
S'Cell[0].dend[13] syn_ = new AmpaNmda(0.5)'
p885
I0
(dp886
g857
F0.5
sg858
F26.0
sg859
I170
sg860
g7
(g8
(I0
tp887
g10
tp888
Rp889
(I1
(I3
tp890
g867
I00
S'\x00\x00\x00\x80\x14\xbeF\xc0\x00\x00\x00@\n\x87H@\x00\x00\x00p=\n;@'
p891
tp892
bsg872
S'Cell[3].axon[246]'
p893
sI170
I38
tp894
a(F2.492556285866114
S'Cell[1].dend[24] syn_ = new FastInhib(0.166666666667)'
p895
I1
(dp896
S'seg'
p897
F0.045454545454545456
sS'hostfrom'
p898
F27.0
sS'gid'
p899
I171
sS'coords'
p900
g7
(g8
(I0
tp901
g10
tp902
Rp903
(I1
(I3
tp904
g14
(S'f8'
p905
I0
I1
tp906
Rp907
(I3
S'<'
p908
NNNI-1
I-1
I0
tp909
bI00
S'\x00\x00\x00\xa0\x99\x191\xc0+}\xa3%m\xaeG\xc0\x00\x00\x00\x80\xebQ\xc8?'
p910
tp911
bsS'secnames'
p912
S'Cell[3].axon[22]'
p913
sI171
I86
tp914
a(F1.7082358797055095
S'Cell[1].dend[32] syn_ = new FastInhib(0.214285714286)'
p915
I1
(dp916
S'seg'
p917
F0.1
sS'hostfrom'
p918
F29.0
sS'gid'
p919
I173
sS'coords'
p920
g7
(g8
(I0
tp921
g10
tp922
Rp923
(I1
(I3
tp924
g14
(S'f8'
p925
I0
I1
tp926
Rp927
(I3
S'<'
p928
NNNI-1
I-1
I0
tp929
bI00
S'\xf1\xe7\xcc\xd8\\L5@\xe9p\xe5\xb30\x1dW@\x81Q\x90\x9f\xc2\xa97\xc0'
p930
tp931
bsS'secnames'
p932
S'Cell[3].axon[41]'
p933
sI173
I86
tp934
a(F1.61467831317367
S'Cell[1].dend[7] syn_ = new FastInhib(0.5)'
p935
I1
(dp936
g917
F0.16666666666666666
sg918
F29.0
sg919
I77
sg920
g7
(g8
(I0
tp937
g10
tp938
Rp939
(I1
(I3
tp940
g927
I00
S'h\xee\x9fH\xf1\xdc5@`g\xd5\xdbD\x8aH\xc0<\x16\xbc\xc4\x16\xd8%\xc0'
p941
tp942
bsg932
S'Cell[1].axon[6]'
p943
sI77
I86
tp944
a(F1.3800024281518661
S'Cell[3].dend[19] syn_ = new FastInhib(0.5)'
p945
I3
(dp946
S'seg'
p947
F0.5
sS'hostfrom'
p948
F30.0
sS'gid'
p949
I126
sS'coords'
p950
g7
(g8
(I0
tp951
g10
tp952
Rp953
(I1
(I3
tp954
g14
(S'f8'
p955
I0
I1
tp956
Rp957
(I3
S'<'
p958
NNNI-1
I-1
I0
tp959
bI00
S"\xaf\xc8=\x05\x12\x0e+@\xbc\xbd'\x052.X@\xd9D\x15\x10PO\x07@"
p960
tp961
bsS'secnames'
p962
S'Cell[2].axon[177]'
p963
sI126
I182
tp964
a(F1.461664219825577
S'Cell[3].dend[16] syn_ = new FastInhib(0.1)'
p965
I3
(dp966
g947
F0.8333333333333333
sg948
F30.0
sg949
I174
sg950
g7
(g8
(I0
tp967
g10
tp968
Rp969
(I1
(I3
tp970
g957
I00
S"\xf8,\xd5\x07oh9\xc0\xb6\xf9~\xd6&BP@\xb7'hr\x9c\\\xfd\xbf"
p971
tp972
bsg962
S'Cell[3].axon[128]'
p973
sI174
I182
tp974
a(F2.4096933192779875
S'Cell[1].dend[12] syn_ = new FastInhib(0.5)'
p975
I1
(dp976
S'seg'
p977
F0.16666666666666666
sS'hostfrom'
p978
F31.0
sS'gid'
p979
I127
sS'coords'
p980
g7
(g8
(I0
tp981
g10
tp982
Rp983
(I1
(I3
tp984
g14
(S'f8'
p985
I0
I1
tp986
Rp987
(I3
S'<'
p988
NNNI-1
I-1
I0
tp989
bI00
S'B\xbe\xc2Jf\xd1D@\x0e~\x93K\x95}Z\xc04\x99\x92-w\x074\xc0'
p990
tp991
bsS'secnames'
p992
S'Cell[2].axon[26]'
p993
sI127
I86
tp994
a(F1.3998256499966382
S'Cell[1].dend[13] syn_ = new FastInhib(0.611111111111)'
p995
I1
(dp996
g977
F0.5
sg978
F31.0
sg979
I127
sg980
g7
(g8
(I0
tp997
g10
tp998
Rp999
(I1
(I3
tp1000
g987
I00
S'\xfd\x8c\x0f\xc1FjC@PU\xf96s\x91e\xc0b4q\x12\x15\xc41\xc0'
p1001
tp1002
bsg992
S'Cell[2].axon[28]'
p1003
sI127
I86
tp1004
a(F1.0018559051420899
S'Cell[0].apic[0] syn_ = new AmpaNmda(0.5)'
p1005
I0
(dp1006
S'seg'
p1007
F0.8333333333333335
sS'hostfrom'
p1008
F32.0
sS'gid'
p1009
I32
sS'coords'
p1010
g7
(g8
(I0
tp1011
g10
tp1012
Rp1013
(I1
(I3
tp1014
g14
(S'f8'
p1015
I0
I1
tp1016
Rp1017
(I3
S'<'
p1018
NNNI-1
I-1
I0
tp1019
bI00
S"T\xf3'Y\xba%J@\xee\xeb\xfa@<\xbeS@G0\xac\x0b\xfa\xd3\x11\xc0"
p1020
tp1021
bsS'secnames'
p1022
S'Cell[0].axon[38]'
p1023
sI32
I38
tp1024
a(F1.978049114044375
S'Cell[2].dend[31] syn_ = new FastInhib(0.5)'
p1025
I2
(dp1026
g1007
F0.16666666666666666
sg1008
F32.0
sg1009
I176
sg1010
g7
(g8
(I0
tp1027
g10
tp1028
Rp1029
(I1
(I3
tp1030
g1017
I00
S'J\x0e=\xfb+\\D@\x8dROI\x81\xcbf\xc0\x00\x00\x00\xa0\x99\x19)\xc0'
p1031
tp1032
bsg1022
S'Cell[3].axon[64]'
p1033
sI176
I134
tp1034
a(F2.381926871989935
S'Cell[1].dend[13] syn_ = new FastInhib(0.166666666667)'
p1035
I1
(dp1036
S'seg'
p1037
F0.30000000000000004
sS'hostfrom'
p1038
F33.0
sS'gid'
p1039
I33
sS'coords'
p1040
g7
(g8
(I0
tp1041
g10
tp1042
Rp1043
(I1
(I3
tp1044
g14
(S'f8'
p1045
I0
I1
tp1046
Rp1047
(I3
S'<'
p1048
NNNI-1
I-1
I0
tp1049
bI00
S'\x9b4JJ|%F@A:\xdc\x80\x11\x0cP\xc0\xb6\xd1\x0b\x1b\xcb\x1b\x07\xc0'
p1050
tp1051
bsS'secnames'
p1052
S'Cell[0].axon[36]'
p1053
sI33
I86
tp1054
a(F2.0792233131584315
S'Cell[1].dend[15] syn_ = new FastInhib(0.166666666667)'
p1055
I1
(dp1056
S'seg'
p1057
F0.5
sS'hostfrom'
p1058
F35.0
sS'gid'
p1059
I83
sS'coords'
p1060
g7
(g8
(I0
tp1061
g10
tp1062
Rp1063
(I1
(I3
tp1064
g14
(S'f8'
p1065
I0
I1
tp1066
Rp1067
(I3
S'<'
p1068
NNNI-1
I-1
I0
tp1069
bI00
S'\x00\x00\x00\xa0\x8c\x99\x0f\xc0\x00\x00\x00\xb0\x1e%2\xc0\x00\x00\x00\x00\x00\x80\x18\xc0'
p1070
tp1071
bsS'secnames'
p1072
S'Cell[1].axon[12]'
p1073
sI83
I86
tp1074
a(F0.9694178030057041
S'Cell[1].dend[13] syn_ = new FastInhib(0.166666666667)'
p1075
I1
(dp1076
g1057
F0.16666666666666666
sg1058
F35.0
sg1059
I35
sg1060
g7
(g8
(I0
tp1077
g10
tp1078
Rp1079
(I1
(I3
tp1080
g1067
I00
S'=\xd35\xa9l\xfdD@\xdb\x0fiS\x0coO\xc0)n\xb7Wb(\x13\xc0'
p1081
tp1082
bsg1072
S'Cell[0].axon[1]'
p1083
sI35
I86
tp1084
a(F2.039400415775952
S'Cell[0].dend[15] syn_ = new AmpaNmda(0.166666666667)'
p1085
I0
(dp1086
S'seg'
p1087
F0.05555555555555555
sS'hostfrom'
p1088
F36.0
sS'gid'
p1089
I132
sS'coords'
p1090
g7
(g8
(I0
tp1091
g10
tp1092
Rp1093
(I1
(I3
tp1094
g14
(S'f8'
p1095
I0
I1
tp1096
Rp1097
(I3
S'<'
p1098
NNNI-1
I-1
I0
tp1099
bI00
S'\xfd\xec\x96nk\xe21@\xb1t\x9f:\xddZ=@\x00\x00\x00\x80\xc2\xf5\x1a@'
p1100
tp1101
bsS'secnames'
p1102
S'Cell[2].axon[35]'
p1103
sI132
I38
tp1104
a(F2.1050797876569476
S'Cell[0].dend[10] syn_ = new ExpSid(0.5)'
p1105
I0
(dp1106
S'seg'
p1107
F0.5
sS'hostfrom'
p1108
F37.0
sS'gid'
p1109
I133
sS'coords'
p1110
g7
(g8
(I0
tp1111
g10
tp1112
Rp1113
(I1
(I3
tp1114
g14
(S'f8'
p1115
I0
I1
tp1116
Rp1117
(I3
S'<'
p1118
NNNI-1
I-1
I0
tp1119
bI00
S'\xcdH\xe7@{\xe8B@\xaf\xb1Fu\x8bAJ@\xf4\xd6\xc8\x92*\xaa\xd7?'
p1120
tp1121
bsS'secnames'
p1122
S'Cell[2].axon[95]'
p1123
sI133
I38
tp1124
a(F2.275600423158808
S'Cell[3].apic[15] syn_ = new FastInhib(0.9)'
p1125
I3
(dp1126
g1107
F0.5
sg1108
F37.0
sg1109
I37
sg1110
g7
(g8
(I0
tp1127
g10
tp1128
Rp1129
(I1
(I3
tp1130
g1117
I00
S'\xcf\x99X\xa8\xb0\xc7S\xc0\xdeQdgr\x8e\x1e\xc0\x00\x00\x00\xa0p\xfd9\xc0'
p1131
tp1132
bsg1122
S'Cell[0].axon[10]'
p1133
sI37
I182
tp1134
a(F1.5886674595072316
S'Cell[0].apic[1] syn_ = new AmpaNmda(0.166666666667)'
p1135
I0
(dp1136
S'seg'
p1137
F0.5
sS'hostfrom'
p1138
F38.0
sS'gid'
p1139
I182
sS'coords'
p1140
g7
(g8
(I0
tp1141
g10
tp1142
Rp1143
(I1
(I3
tp1144
g14
(S'f8'
p1145
I0
I1
tp1146
Rp1147
(I3
S'<'
p1148
NNNI-1
I-1
I0
tp1149
bI00
S'\xf2c\x0f\xa5L\xe4F@\xfat_\x99\xa1lW@$8\x16x\xbcB>\xc0'
p1150
tp1151
bsS'secnames'
p1152
S'Cell[3].axon[24]'
p1153
sI182
I38
tp1154
a(F1.3258690255190588
S'Cell[0].dend[17] syn_ = new AmpaNmda(0.5)'
p1155
I0
(dp1156
g1137
F0.16666666666666666
sg1138
F38.0
sg1139
I182
sg1140
g7
(g8
(I0
tp1157
g10
tp1158
Rp1159
(I1
(I3
tp1160
g1147
I00
S'\xb1\\\xc2\xbe\x08\x16?\xc0\x9e\x8dX\x81\xa3\x08 @\x082\x04ij\xdf8\xc0'
p1161
tp1162
bsg1152
S'Cell[3].axon[31]'
p1163
sI182
I38
tp1164
a(F1.119897057480202
S'Cell[0].dend[21] syn_ = new ExpSid(0.5)'
p1165
I0
(dp1166
S'seg'
p1167
F0.30000000000000004
sS'hostfrom'
p1168
F39.0
sS'gid'
p1169
I87
sS'coords'
p1170
g7
(g8
(I0
tp1171
g10
tp1172
Rp1173
(I1
(I3
tp1174
g14
(S'f8'
p1175
I0
I1
tp1176
Rp1177
(I3
S'<'
p1178
NNNI-1
I-1
I0
tp1179
bI00
S'G\xcd\xcd\xf6aZI@\xcd\xac\xcct\xcazF@\x0f<\xd2\xb7\x18A1\xc0'
p1180
tp1181
bsS'secnames'
p1182
S'Cell[1].axon[96]'
p1183
sI87
I38
tp1184
a(F2.00202271495229
S'Cell[1].dend[32] syn_ = new FastInhib(0.0714285714286)'
p1185
I1
(dp1186
g1167
F0.5
sg1168
F39.0
sg1169
I183
sg1170
g7
(g8
(I0
tp1187
g10
tp1188
Rp1189
(I1
(I3
tp1190
g1177
I00
S'\x03\xd7:\xc8[\x8c0@\x8aS\xddD\xb5aQ@H\x89`m\x83T;\xc0'
p1191
tp1192
bsg1182
S'Cell[3].axon[56]'
p1193
sI183
I86
tp1194
a(F1.6364724889195412
S'Cell[1].dend[17] syn_ = new FastInhib(0.166666666667)'
p1195
I1
(dp1196
S'seg'
p1197
F0.1
sS'hostfrom'
p1198
F40.0
sS'gid'
p1199
I88
sS'coords'
p1200
g7
(g8
(I0
tp1201
g10
tp1202
Rp1203
(I1
(I3
tp1204
g14
(S'f8'
p1205
I0
I1
tp1206
Rp1207
(I3
S'<'
p1208
NNNI-1
I-1
I0
tp1209
bI00
S'z%\xa8\xfe&)I\xc0\xc7AC\xeeX\x8cA\xc0\xe8\xc83\xd3\xdd\xdf1\xc0'
p1210
tp1211
bsS'secnames'
p1212
S'Cell[1].axon[89]'
p1213
sI88
I86
tp1214
a(F1.917752890136158
S'Cell[1].dend[20] syn_ = new FastInhib(0.5)'
p1215
I1
(dp1216
g1197
F0.5
sg1198
F40.0
sg1199
I88
sg1200
g7
(g8
(I0
tp1217
g10
tp1218
Rp1219
(I1
(I3
tp1220
g1207
I00
S'V\xc7\xc8\n\xa0\x1e\x1d\xc0*\x98\xbb^is@\xc0!7\x95(\n\xb0\xf7\xbf'
p1221
tp1222
bsg1212
S'Cell[1].axon[162]'
p1223
sI88
I86
tp1224
a(F1.3303165572765214
S'Cell[3].dend[18] syn_ = new FastInhib(0.5)'
p1225
I3
(dp1226
g1197
F0.8333333333333333
sg1198
F40.0
sg1199
I88
sg1200
g7
(g8
(I0
tp1227
g10
tp1228
Rp1229
(I1
(I3
tp1230
g1207
I00
S'^\xb4\xa1\x02\xfb\x10(@\xd1\x07\xe4\xd6\xb0MW@\xad\x15\xac\xf4\xf7\xce-@'
p1231
tp1232
bsg1212
S'Cell[1].axon[192]'
p1233
sI88
I182
tp1234
a(F2.28233847892718
S'Cell[2].dend[33] syn_ = new FastInhib(0.5)'
p1235
I2
(dp1236
g1197
F0.5
sg1198
F40.0
sg1199
I88
sg1200
g7
(g8
(I0
tp1237
g10
tp1238
Rp1239
(I1
(I3
tp1240
g1207
I00
S'\xeaxq\x1a\x80D\x12\xc0"ah\x98`\x8a6@\x00\x00\x00\x00\x00\x00#\xc0'
p1241
tp1242
bsg1212
S'Cell[1].axon[249]'
p1243
sI88
I134
tp1244
a(F1.0739592445400923
S'Cell[1].dend[19] syn_ = new FastInhib(0.5)'
p1245
I1
(dp1246
g1197
F0.8333333333333333
sg1198
F40.0
sg1199
I184
sg1200
g7
(g8
(I0
tp1247
g10
tp1248
Rp1249
(I1
(I3
tp1250
g1207
I00
S'\xbc\xfa*T\xd8\xc4\xb0\xbf\\\x83\xc8\x84\x96\xdfU\xc0\xd8\xea\x93iX\x9b\x13\xc0'
p1251
tp1252
bsg1212
S'Cell[3].axon[64]'
p1253
sI184
I86
tp1254
a(F2.3576721065983444
S'Cell[1].dend[31] syn_ = new FastInhib(0.166666666667)'
p1255
I1
(dp1256
g1197
F0.5
sg1198
F40.0
sg1199
I184
sg1200
g7
(g8
(I0
tp1257
g10
tp1258
Rp1259
(I1
(I3
tp1260
g1207
I00
S'\x8e{\xe9Y\xa6l2@\x9d\xb9\x08\xba\x82\xa9Z@\xb1\xec\xa6\xd3nS-\xc0'
p1261
tp1262
bsg1212
S'Cell[3].axon[103]'
p1263
sI184
I86
tp1264
a(F1.9514757230396755
S'Cell[0].dend[22] syn_ = new ExpSid(0.5)'
p1265
I0
(dp1266
S'seg'
p1267
F0.16666666666666666
sS'hostfrom'
p1268
F41.0
sS'gid'
p1269
I185
sS'coords'
p1270
g7
(g8
(I0
tp1271
g10
tp1272
Rp1273
(I1
(I3
tp1274
g14
(S'f8'
p1275
I0
I1
tp1276
Rp1277
(I3
S'<'
p1278
NNNI-1
I-1
I0
tp1279
bI00
S'\xeb1ls\x1bAS@\x98h\xed\xd9y\xd2=\xc0*\xef\xfb\xc2JH2\xc0'
p1280
tp1281
bsS'secnames'
p1282
S'Cell[3].axon[256]'
p1283
sI185
I38
tp1284
a(F2.4075570534659754
S'Cell[0].dend[9] syn_ = new ExpSid(0.5)'
p1285
I0
(dp1286
g1267
F0.16666666666666666
sg1268
F41.0
sg1269
I89
sg1270
g7
(g8
(I0
tp1287
g10
tp1288
Rp1289
(I1
(I3
tp1290
g1277
I00
S'\x96\x9f1\x93\xfb!3@\xf8\xae\xe5\x85\xb2\xefR@\xc9\x97o\xc4\xce\x1f4\xc0'
p1291
tp1292
bsg1282
S'Cell[1].axon[156]'
p1293
sI89
I38
tp1294
a(F2.221642720724362
S'Cell[0].apic[0] syn_ = new ExpSid(0.5)'
p1295
I0
(dp1296
g1267
F0.07142857142857142
sg1268
F41.0
sg1269
I89
sg1270
g7
(g8
(I0
tp1297
g10
tp1298
Rp1299
(I1
(I3
tp1300
g1277
I00
S'\xd9\x0fp\xea\x8d\x9fJ@\xe8\xd1\x0fR[\xedS@,\xd5\xd1\x01\xd1\x99\x05\xc0'
p1301
tp1302
bsg1282
S'Cell[1].axon[167]'
p1303
sI89
I38
tp1304
a(F1.783240739771019
S'Cell[0].dend[13] syn_ = new AmpaNmda(0.785714285714)'
p1305
I0
(dp1306
S'seg'
p1307
F0.5
sS'hostfrom'
p1308
F42.0
sS'gid'
p1309
I90
sS'coords'
p1310
g7
(g8
(I0
tp1311
g10
tp1312
Rp1313
(I1
(I3
tp1314
g14
(S'f8'
p1315
I0
I1
tp1316
Rp1317
(I3
S'<'
p1318
NNNI-1
I-1
I0
tp1319
bI00
S'\xe3?\x82\x1f\xa2[Q\xc0\x0b\xc4\xc6\xf0%\xfd6@6,)\xcdu\x88?@'
p1320
tp1321
bsS'secnames'
p1322
S'Cell[1].axon[140]'
p1323
sI90
I38
tp1324
a(F1.3406924287816373
S'Cell[3].dend[16] syn_ = new FastInhib(0.1)'
p1325
I3
(dp1326
g1307
F0.16666666666666666
sg1308
F42.0
sg1309
I138
sg1310
g7
(g8
(I0
tp1327
g10
tp1328
Rp1329
(I1
(I3
tp1330
g1317
I00
S'L\xea\xb2\x02rX:\xc0\xdc.\x1cVF\x96O@\xd6K\x01\xceI\xc3\xf8\xbf'
p1331
tp1332
bsg1322
S'Cell[2].axon[153]'
p1333
sI138
I182
tp1334
a(F2.4532069839222226
S'Cell[2].dend[7] syn_ = new FastInhib(0.5)'
p1335
I2
(dp1336
g1307
F0.30000000000000004
sg1308
F42.0
sg1309
I186
sg1310
g7
(g8
(I0
tp1337
g10
tp1338
Rp1339
(I1
(I3
tp1340
g1317
I00
S'\xdc\xa38]X\x877\xc0%\\\xc7\x027\x0b[\xc0\x00\x00\x00\xe0\xa3p\x07\xc0'
p1341
tp1342
bsg1322
S'Cell[3].axon[156]'
p1343
sI186
I134
tp1344
a(F2.2182034345818673
S'Cell[3].dend[6] syn_ = new FastInhib(0.1)'
p1345
I3
(dp1346
S'seg'
p1347
F0.5
sS'hostfrom'
p1348
F43.0
sS'gid'
p1349
I91
sS'coords'
p1350
g7
(g8
(I0
tp1351
g10
tp1352
Rp1353
(I1
(I3
tp1354
g14
(S'f8'
p1355
I0
I1
tp1356
Rp1357
(I3
S'<'
p1358
NNNI-1
I-1
I0
tp1359
bI00
S'\xee\xe9I@+\x03<@\xbe-\x1831_>@\x96\xd2\xb2\xedkl4\xc0'
p1360
tp1361
bsS'secnames'
p1362
S'Cell[1].axon[441]'
p1363
sI91
I182
tp1364
a(F2.3446282985116813
S'Cell[1].dend[29] syn_ = new FastInhib(0.5)'
p1365
I1
(dp1366
g1347
F0.16666666666666666
sg1348
F43.0
sg1349
I91
sg1350
g7
(g8
(I0
tp1367
g10
tp1368
Rp1369
(I1
(I3
tp1370
g1357
I00
S'\x951\x83r\x00\xe00@I\xe6?\xcf\xf1+S@L\xca\x17aIE;\xc0'
p1371
tp1372
bsg1362
S'Cell[1].axon[511]'
p1373
sI91
I86
tp1374
a(F1.7089728242155773
S'Cell[1].dend[22] syn_ = new FastInhib(0.5)'
p1375
I1
(dp1376
g1347
F0.16666666666666666
sg1348
F43.0
sg1349
I139
sg1350
g7
(g8
(I0
tp1377
g10
tp1378
Rp1379
(I1
(I3
tp1380
g1357
I00
S'C\xb0\xe3\x04\xd5\xad$\xc0A=\xd7dl\x96B\xc0\x00\x00\x00\xc0\xf5(\xcc\xbf'
p1381
tp1382
bsg1362
S'Cell[2].axon[410]'
p1383
sI139
I86
tp1384
a(F0.959440825842196
S'Cell[1].dend[4] syn_ = new FastInhib(0.5)'
p1385
I1
(dp1386
g1347
F0.5
sg1348
F43.0
sg1349
I187
sg1350
g7
(g8
(I0
tp1387
g10
tp1388
Rp1389
(I1
(I3
tp1390
g1357
I00
S'6vp\xb9<M7@G\x83MY\x18\xba?\xc0\x00\x00\x00 \xaeG&\xc0'
p1391
tp1392
bsg1362
S'Cell[3].axon[1]'
p1393
sI187
I86
tp1394
a(F1.0113850533122448
S'Cell[1].dend[7] syn_ = new FastInhib(0.5)'
p1395
I1
(dp1396
g1347
F0.5
sg1348
F43.0
sg1349
I187
sg1350
g7
(g8
(I0
tp1397
g10
tp1398
Rp1399
(I1
(I3
tp1400
g1357
I00
S"\x00\x00\x00\x00\xd7\xc36@\x00\x00\x00\x00\xd7\xa3H\xc0\x00\x00\x00\x90\xebQ'\xc0"
p1401
tp1402
bsg1362
S'Cell[3].axon[36]'
p1403
sI187
I86
tp1404
a(F2.430050776306584
S'Cell[1].dend[11] syn_ = new FastInhib(0.5)'
p1405
I1
(dp1406
g1347
F0.5
sg1348
F43.0
sg1349
I187
sg1350
g7
(g8
(I0
tp1407
g10
tp1408
Rp1409
(I1
(I3
tp1410
g1357
I00
S'\x86\xe6\x1b_0^0@Fm\xf7\xe9\xac\xc1H\xc0\xbcb7\xc5\x9b\x8a\x19\xc0'
p1411
tp1412
bsg1362
S'Cell[3].axon[44]'
p1413
sI187
I86
tp1414
a(F2.411679546905177
S'Cell[1].dend[4] syn_ = new FastInhib(0.5)'
p1415
I1
(dp1416
g1347
F0.5
sg1348
F43.0
sg1349
I187
sg1350
g7
(g8
(I0
tp1417
g10
tp1418
Rp1419
(I1
(I3
tp1420
g1357
I00
S'\xe0\x85\xe6\xb0\x99\x9d9@\x80\x1e\xf2%\x06\x18@\xc0\xa5\xc1\xae8\x0e\x85"\xc0'
p1421
tp1422
bsg1362
S'Cell[3].axon[57]'
p1423
sI187
I86
tp1424
a(F2.1970486848035704
S'Cell[1].dend[9] syn_ = new FastInhib(0.5)'
p1425
I1
(dp1426
S'seg'
p1427
F0.8333333333333333
sS'hostfrom'
p1428
F44.0
sS'gid'
p1429
I92
sS'coords'
p1430
g7
(g8
(I0
tp1431
g10
tp1432
Rp1433
(I1
(I3
tp1434
g14
(S'f8'
p1435
I0
I1
tp1436
Rp1437
(I3
S'<'
p1438
NNNI-1
I-1
I0
tp1439
bI00
S'\xd71\xba)\xf7%\x1e@\xca{D\xdb"\x94P\xc0,ZY\x9dI\x8e\x16@'
p1440
tp1441
bsS'secnames'
p1442
S'Cell[1].axon[116]'
p1443
sI92
I86
tp1444
a(F2.389365339716707
S'Cell[3].apic[4] syn_ = new FastInhib(0.833333333333)'
p1445
I3
(dp1446
g1427
F0.16666666666666666
sg1428
F44.0
sg1429
I92
sg1430
g7
(g8
(I0
tp1447
g10
tp1448
Rp1449
(I1
(I3
tp1450
g1437
I00
S'\xf6\xaa\n1\x01x?@\x83\xc0\xd6^\xe9\x90b\xc0\xc11\x10E`\xad@\xc0'
p1451
tp1452
bsg1442
S'Cell[1].axon[130]'
p1453
sI92
I182
tp1454
a(F2.3538278547873954
S'Cell[1].dend[6] syn_ = new FastInhib(0.5)'
p1455
I1
(dp1456
g1427
F0.8999999999999999
sg1428
F44.0
sg1429
I140
sg1430
g7
(g8
(I0
tp1457
g10
tp1458
Rp1459
(I1
(I3
tp1460
g1437
I00
S'3\xd4)@\x08)7@\xcc\x11\xd1\xc2myF\xc0\xbf4\xdb\xf1`E!\xc0'
p1461
tp1462
bsg1442
S'Cell[2].axon[4]'
p1463
sI140
I86
tp1464
a(F2.3310282979305095
S'Cell[1].dend[28] syn_ = new FastInhib(0.5)'
p1465
I1
(dp1466
S'seg'
p1467
F0.5
sS'hostfrom'
p1468
F45.0
sS'gid'
p1469
I141
sS'coords'
p1470
g7
(g8
(I0
tp1471
g10
tp1472
Rp1473
(I1
(I3
tp1474
g14
(S'f8'
p1475
I0
I1
tp1476
Rp1477
(I3
S'<'
p1478
NNNI-1
I-1
I0
tp1479
bI00
S'\xab\x81U!`\xc64@\xb2uU[\x11\xc6I@C\x1e\xed\xff\x0c&<\xc0'
p1480
tp1481
bsS'secnames'
p1482
S'Cell[2].axon[65]'
p1483
sI141
I86
tp1484
a(F2.357619089337317
S'Cell[2].dend[51] syn_ = new FastInhib(0.0714285714286)'
p1485
I2
(dp1486
g1467
F0.5
sg1468
F45.0
sg1469
I189
sg1470
g7
(g8
(I0
tp1487
g10
tp1488
Rp1489
(I1
(I3
tp1490
g1477
I00
S'< \xb4K\xf7\xe2\x00@\x92A\x81k\x9d\xd3L@\xdeJe\xe7\xb3\xaf.\xc0'
p1491
tp1492
bsg1482
S'Cell[3].axon[180]'
p1493
sI189
I134
tp1494
a(F1.5293127273242006
S'Cell[1].dend[25] syn_ = new FastInhib(0.5)'
p1495
I1
(dp1496
g1467
F0.16666666666666666
sg1468
F45.0
sg1469
I93
sg1470
g7
(g8
(I0
tp1497
g10
tp1498
Rp1499
(I1
(I3
tp1500
g1477
I00
S"\x17\xdb'\xc7\xb8[3@\x93\x0b\x02\xbf\x1aJD@\xaa\xe1\x9dZ\xe5.\x18\xc0"
p1501
tp1502
bsg1482
S'Cell[1].axon[161]'
p1503
sI93
I86
tp1504
a(F2.371037250864564
S'Cell[0].dend[9] syn_ = new ExpSid(0.5)'
p1505
I0
(dp1506
g1467
F0.16666666666666666
sg1468
F45.0
sg1469
I93
sg1470
g7
(g8
(I0
tp1507
g10
tp1508
Rp1509
(I1
(I3
tp1510
g1477
I00
S'l\xa2\xf6\xcb\xfa\xfb3@\xbc\xdc\x96\xeeR\xcfR@7Z1\xab[\x1b7\xc0'
p1511
tp1512
bsg1482
S'Cell[1].axon[215]'
p1513
sI93
I38
tp1514
a(F2.4128495299340473
S'Cell[0].apic[1] syn_ = new ExpSid(0.166666666667)'
p1515
I0
(dp1516
g1467
F0.5
sg1468
F45.0
sg1469
I93
sg1470
g7
(g8
(I0
tp1517
g10
tp1518
Rp1519
(I1
(I3
tp1520
g1477
I00
S'\x1c\xda\x01!\x82\xf2F@\xfc\xee\x94\xbb\x84\x82V@\xbc\x11~\xb8\x92N?\xc0'
p1521
tp1522
bsg1482
S'Cell[1].axon[253]'
p1523
sI93
I38
tp1524
a(F2.308017186036592
S'Cell[1].dend[26] syn_ = new FastInhib(0.5)'
p1525
I1
(dp1526
g1467
F0.5
sg1468
F45.0
sg1469
I93
sg1470
g7
(g8
(I0
tp1527
g10
tp1528
Rp1529
(I1
(I3
tp1530
g1477
I00
S'\x9e\xfdn\x98\x1b{<@\xee\xc3\xb6\xf3\xa0\xe1Q@T\xf3\x0f\xd8\x10)2\xc0'
p1531
tp1532
bsg1482
S'Cell[1].axon[262]'
p1533
sI93
I86
tp1534
a(F0.7338408180852446
S'Cell[1].dend[12] syn_ = new FastInhib(0.7)'
p1535
I1
(dp1536
S'seg'
p1537
F0.5
sS'hostfrom'
p1538
F46.0
sS'gid'
p1539
I94
sS'coords'
p1540
g7
(g8
(I0
tp1541
g10
tp1542
Rp1543
(I1
(I3
tp1544
g14
(S'f8'
p1545
I0
I1
tp1546
Rp1547
(I3
S'<'
p1548
NNNI-1
I-1
I0
tp1549
bI00
S'|\xd2 \x1fV\x9fE@\xcd,\x9a9\x9f.`\xc0\x06N_\xb6\x15+6\xc0'
p1550
tp1551
bsS'secnames'
p1552
S'Cell[1].axon[128]'
p1553
sI94
I86
tp1554
a(F2.071394558046634
S'Cell[3].dend[4] syn_ = new FastInhib(0.5)'
p1555
I3
(dp1556
S'seg'
p1557
F0.5
sS'hostfrom'
p1558
F47.0
sS'gid'
p1559
I95
sS'coords'
p1560
g7
(g8
(I0
tp1561
g10
tp1562
Rp1563
(I1
(I3
tp1564
g14
(S'f8'
p1565
I0
I1
tp1566
Rp1567
(I3
S'<'
p1568
NNNI-1
I-1
I0
tp1569
bI00
S'\xfe\xf3f\xfc\xafQY@\xd8U\x87\xaa\xae\xe0C@\xab\xeez\xb4s\xbaU\xc0'
p1570
tp1571
bsS'secnames'
p1572
S'Cell[1].axon[36]'
p1573
sI95
I182
tp1574
a(F2.4936911060478884
S'Cell[3].dend[6] syn_ = new FastInhib(0.5)'
p1575
I3
(dp1576
g1557
F0.5
sg1558
F47.0
sg1559
I95
sg1560
g7
(g8
(I0
tp1577
g10
tp1578
Rp1579
(I1
(I3
tp1580
g1567
I00
S'\xfa\x0e\xf2<\xccy9@1\xbf\x8b\xfeQVQ@ \r\xc4\xe1;YL\xc0'
p1581
tp1582
bsg1572
S'Cell[1].axon[300]'
p1583
sI95
I182
tp1584
a(F2.1870013860301856
S'Cell[3].dend[19] syn_ = new FastInhib(0.5)'
p1585
I3
(dp1586
g1557
F0.5
sg1558
F47.0
sg1559
I143
sg1560
g7
(g8
(I0
tp1587
g10
tp1588
Rp1589
(I1
(I3
tp1590
g1567
I00
S'\xacg\xa2\xe8\xec\xbf*@\t\xe5\x94T\xb7\xaaW@\x00\x00\x00\x00\xd7\xa3\xc0?'
p1591
tp1592
bsg1572
S'Cell[2].axon[216]'
p1593
sI143
I182
tp1594
a(F0.6948544932420803
S'Cell[1].dend[24] syn_ = new FastInhib(0.833333333333)'
p1595
I1
(dp1596
g1557
F0.5
sg1558
F47.0
sg1559
I47
sg1560
g7
(g8
(I0
tp1597
g10
tp1598
Rp1599
(I1
(I3
tp1600
g1567
I00
S'\x00\x00\x00\xc0\xcc\x0cC\xc0\x00\x00\x00p=\nS\xc0\x00\x00\x00\x80\xebQ\n@'
p1601
tp1602
bsg1572
S'Cell[0].axon[27]'
p1603
sI47
I86
tp1604
a.